 xerces-c_2_2_0

 Timestamp is 3e438366 (Fri Feb 07 04:59:02 2003)

 Preferred load address is 12000000

 Start         Length     Name                   Class
 0001:00000000 000e9060H .text                   CODE
 0001:000e9060 0000f4d2H .text$x                 CODE
 0002:00000000 0000015cH .idata$5                DATA
 0002:00000160 00031a44H .rdata                  DATA
 0002:00031ba8 00000044H .rdata$r                DATA
 0002:00031bf0 000155b8H .xdata$x                DATA
 0002:000471a8 00000050H .idata$2                DATA
 0002:000471f8 00000014H .idata$3                DATA
 0002:0004720c 0000015cH .idata$4                DATA
 0002:00047368 0000052aH .idata$6                DATA
 0002:000478a0 0006cdf5H .edata                  DATA
 0003:00000000 00000004H .CRT$XCA                DATA
 0003:00000004 00000050H .CRT$XCU                DATA
 0003:00000054 00000004H .CRT$XCZ                DATA
 0003:00000058 00000004H .CRT$XIA                DATA
 0003:0000005c 00000004H .CRT$XIZ                DATA
 0003:00000060 00023b90H .data                   DATA
 0003:00023bf0 00000b0cH .bss                    DATA
 0004:00000000 00000a00H .rsrc$01                DATA
 0004:00000a00 000148c0H .rsrc$02                DATA

  Address         Publics by Value              Rva+Base     Lib:Object

 0001:00000000       ??1XMLErrorReporter@xercesc_2_2@@UAE@XZ 12001000 f i Win32PlatformUtils.obj
 0001:00000010       ??0XMLErrorReporter@xercesc_2_2@@IAE@XZ 12001010 f i Win32PlatformUtils.obj
 0001:00000020       ??_EXMLErrorReporter@xercesc_2_2@@UAEPAXI@Z 12001020 f i Win32PlatformUtils.obj
 0001:00000080       ?curPos@BinMemInputStream@xercesc_2_2@@UBEIXZ 12001080 f i Win32PlatformUtils.obj
 0001:00000080       ?getPort@XMLUri@xercesc_2_2@@QBEHXZ 12001080 f i Win32PlatformUtils.obj
 0001:00000080       ?getType@DatatypeValidator@xercesc_2_2@@QBE?AW4ValidatorType@12@XZ 12001080 f i Win32PlatformUtils.obj
 0001:00000080       ?getTranscoder@XMLFormatter@xercesc_2_2@@QBEPBVXMLTranscoder@2@XZ 12001080 f i Win32PlatformUtils.obj
 0001:00000080       ?getFilter@DOMBuilderImpl@xercesc_2_2@@UAEPAVDOMBuilderFilter@2@XZ 12001080 f i Win32PlatformUtils.obj
 0001:00000080       ?getBaseURI@XMLNotationDecl@xercesc_2_2@@QBEPBGXZ 12001080 f i Win32PlatformUtils.obj
 0001:00000080       ?getNoParen@RegxParser@xercesc_2_2@@QBEHXZ 12001080 f i Win32PlatformUtils.obj
 0001:00000080       ?getScanner@XMLValidator@xercesc_2_2@@IAEPAVXMLScanner@2@XZ 12001080 f i Win32PlatformUtils.obj
 0001:00000080       ?getAttName@XMLAttr@xercesc_2_2@@QBEPAVQName@2@XZ 12001080 f i Win32PlatformUtils.obj
 0001:00000080       ?getCategories@RangeTokenMap@xercesc_2_2@@IBEPAVXMLStringPool@2@XZ 12001080 f i Win32PlatformUtils.obj
 0001:00000080       ?getPublicId@XSDLocator@xercesc_2_2@@UBEPBGXZ 12001080 f i Win32PlatformUtils.obj
 0001:00000080       ?getScanner@XMLValidator@xercesc_2_2@@IBEPBVXMLScanner@2@XZ 12001080 f i Win32PlatformUtils.obj
 0001:00000080       ?getScopeDefined@ComplexTypeInfo@xercesc_2_2@@QBEHXZ 12001080 f i Win32PlatformUtils.obj
 0001:00000080       ?getPublicId@XMLEntityDecl@xercesc_2_2@@QBEPBGXZ 12001080 f i Win32PlatformUtils.obj
 0001:00000080       ?getFilter@DOMBuilderImpl@xercesc_2_2@@UBEPBVDOMBuilderFilter@2@XZ 12001080 f i Win32PlatformUtils.obj
 0001:00000080       ?getErrorNode@DOMLocatorImpl@xercesc_2_2@@UBEPAVDOMNode@2@XZ 12001080 f i Win32PlatformUtils.obj
 0001:00000080       ?getBaseGroup@XercesGroupInfo@xercesc_2_2@@QBEPAV12@XZ 12001080 f i Win32PlatformUtils.obj
 0001:00000080       ?getPath@XMLURL@xercesc_2_2@@QBEPBGXZ 12001080 f i Win32PlatformUtils.obj
 0001:00000080       ?getScopeCount@SchemaInfo@xercesc_2_2@@QBEHXZ 12001080 f i Win32PlatformUtils.obj
 0001:00000080       ?getMessage@XMLException@xercesc_2_2@@QBEPBGXZ 12001080 f i Win32PlatformUtils.obj
 0001:00000090       ?getSrcFile@XMLException@xercesc_2_2@@QBEPBDXZ 12001090 f i Win32PlatformUtils.obj
 0001:000000a0       ?getReaderMgr@XMLValidator@xercesc_2_2@@IAEPAVReaderMgr@2@XZ 120010a0 f i Win32PlatformUtils.obj
 0001:000000a0       ?getErrorHandler@DOMBuilderImpl@xercesc_2_2@@UAEPAVDOMErrorHandler@2@XZ 120010a0 f i Win32PlatformUtils.obj
 0001:000000a0       ?getConditionToken@ConditionToken@xercesc_2_2@@QBEPAVToken@2@XZ 120010a0 f i Win32PlatformUtils.obj
 0001:000000a0       ?getSystemId@XSDLocator@xercesc_2_2@@UBEPBGXZ 120010a0 f i Win32PlatformUtils.obj
 0001:000000a0       ?getLocation@DOMErrorImpl@xercesc_2_2@@UBEPAVDOMLocator@2@XZ 120010a0 f i Win32PlatformUtils.obj
 0001:000000a0       ?getId@XMLElementDecl@xercesc_2_2@@QBEIXZ 120010a0 f i Win32PlatformUtils.obj
 0001:000000a0       ?getId@XMLAttDef@xercesc_2_2@@QBEIXZ 120010a0 f i Win32PlatformUtils.obj
 0001:000000a0       ?getString@StringToken@xercesc_2_2@@UBEPBGXZ 120010a0 f i Win32PlatformUtils.obj
 0001:000000a0       ?getNotationName@XMLEntityDecl@xercesc_2_2@@QBEPBGXZ 120010a0 f i Win32PlatformUtils.obj
 0001:000000a0       ?getOffset@DOMLocatorImpl@xercesc_2_2@@UBEJXZ 120010a0 f i Win32PlatformUtils.obj
 0001:000000a0       ?getEntityDeclPool@DTDGrammar@xercesc_2_2@@QBEPBV?$NameIdPool@VDTDEntityDecl@xercesc_2_2@@@2@XZ 120010a0 f i Win32PlatformUtils.obj
 0001:000000a0       ?getSystemId@InputSource@xercesc_2_2@@UBEPBGXZ 120010a0 f i Win32PlatformUtils.obj
 0001:000000a0       ?getOptionsMask@ModifierToken@xercesc_2_2@@QBEHXZ 120010a0 f i Win32PlatformUtils.obj
 0001:000000a0       ?getFinalSet@ComplexTypeInfo@xercesc_2_2@@QBEHXZ 120010a0 f i Win32PlatformUtils.obj
 0001:000000a0       ?getRangeMap@RangeTokenMap@xercesc_2_2@@IBEPAV?$RefHashTableOf@VRangeFactory@xercesc_2_2@@@2@XZ 120010a0 f i Win32PlatformUtils.obj
 0001:000000a0       ?getHost@XMLUri@xercesc_2_2@@QBEPBGXZ 120010a0 f i Win32PlatformUtils.obj
 0001:000000a0       ?getSelector@IdentityConstraint@xercesc_2_2@@QBEPAVIC_Selector@2@XZ 120010a0 f i Win32PlatformUtils.obj
 0001:000000a0       ?getErrorHandler@DOMBuilderImpl@xercesc_2_2@@UBEPBVDOMErrorHandler@2@XZ 120010a0 f i Win32PlatformUtils.obj
 0001:000000a0       ?getOffset@RegxParser@xercesc_2_2@@QBEHXZ 120010a0 f i Win32PlatformUtils.obj
 0001:000000a0       ?getMax@ClosureToken@xercesc_2_2@@UBEHXZ 120010a0 f i Win32PlatformUtils.obj
 0001:000000a0       ?getPassword@XMLURL@xercesc_2_2@@QBEPBGXZ 120010a0 f i Win32PlatformUtils.obj
 0001:000000a0       ?getEntityDeclPool@DTDGrammar@xercesc_2_2@@QAEPAV?$NameIdPool@VDTDEntityDecl@xercesc_2_2@@@2@XZ 120010a0 f i Win32PlatformUtils.obj
 0001:000000a0       ?getCompleteWildCard@XercesAttGroupInfo@xercesc_2_2@@QBEPAVSchemaAttDef@2@XZ 120010a0 f i Win32PlatformUtils.obj
 0001:000000a0       ?getSrcLine@XMLException@xercesc_2_2@@QBEIXZ 120010a0 f i Win32PlatformUtils.obj
 0001:000000a0       ?getSystemId@XMLNotationDecl@xercesc_2_2@@QBEPBGXZ 120010a0 f i Win32PlatformUtils.obj
 0001:000000a0       ?getTargetNSURI@SchemaInfo@xercesc_2_2@@QBEHXZ 120010a0 f i Win32PlatformUtils.obj
 0001:000000a0       ?getReaderMgr@XMLValidator@xercesc_2_2@@IBEPBVReaderMgr@2@XZ 120010a0 f i Win32PlatformUtils.obj
 0001:000000a0       ?getFixed@DatatypeValidator@xercesc_2_2@@IBEHXZ 120010a0 f i Win32PlatformUtils.obj
 0001:000000b0       ?getErrorType@XMLException@xercesc_2_2@@QBE?AW4ErrTypes@XMLErrorReporter@2@XZ 120010b0 f i Win32PlatformUtils.obj
 0001:000000f0       ??0XMLPlatformUtilsException@xercesc_2_2@@QAE@QBDIW4Codes@XMLExcepts@1@@Z 120010f0 f i Win32PlatformUtils.obj
 0001:00000150       ??0XMLPlatformUtilsException@xercesc_2_2@@QAE@ABV01@@Z 12001150 f i Win32PlatformUtils.obj
 0001:00000170       ??0XMLPlatformUtilsException@xercesc_2_2@@QAE@QBDIW4Codes@XMLExcepts@1@QBG222@Z 12001170 f i Win32PlatformUtils.obj
 0001:000001e0       ??0XMLPlatformUtilsException@xercesc_2_2@@QAE@QBDIW4Codes@XMLExcepts@1@0000@Z 120011e0 f i Win32PlatformUtils.obj
 0001:00000250       ??1XMLPlatformUtilsException@xercesc_2_2@@UAE@XZ 12001250 f i Win32PlatformUtils.obj
 0001:00000260       ?duplicate@XMLPlatformUtilsException@xercesc_2_2@@UBEPAVXMLException@2@XZ 12001260 f i Win32PlatformUtils.obj
 0001:000002c0       ?getType@XMLPlatformUtilsException@xercesc_2_2@@UBEPBGXZ 120012c0 f i Win32PlatformUtils.obj
 0001:000002d0       ??_EXMLPlatformUtilsException@xercesc_2_2@@UAEPAXI@Z 120012d0 f i Win32PlatformUtils.obj
 0001:00000330       ??1XMLDeleter@xercesc_2_2@@UAE@XZ 12001330 f i Win32PlatformUtils.obj
 0001:00000340       ??_EXMLDeleter@xercesc_2_2@@UAEPAXI@Z 12001340 f i Win32PlatformUtils.obj
 0001:000003a0       ??0XMLDeleter@xercesc_2_2@@IAE@XZ 120013a0 f i Win32PlatformUtils.obj
 0001:000003b0       ??0RuntimeException@xercesc_2_2@@QAE@QBDIW4Codes@XMLExcepts@1@@Z 120013b0 f i Win32PlatformUtils.obj
 0001:00000410       ??0RuntimeException@xercesc_2_2@@QAE@ABV01@@Z 12001410 f i Win32PlatformUtils.obj
 0001:00000430       ??0RuntimeException@xercesc_2_2@@QAE@QBDIW4Codes@XMLExcepts@1@QBG222@Z 12001430 f i Win32PlatformUtils.obj
 0001:000004a0       ??0RuntimeException@xercesc_2_2@@QAE@QBDIW4Codes@XMLExcepts@1@0000@Z 120014a0 f i Win32PlatformUtils.obj
 0001:00000510       ??1RuntimeException@xercesc_2_2@@UAE@XZ 12001510 f i Win32PlatformUtils.obj
 0001:00000520       ?duplicate@RuntimeException@xercesc_2_2@@UBEPAVXMLException@2@XZ 12001520 f i Win32PlatformUtils.obj
 0001:00000580       ?getType@RuntimeException@xercesc_2_2@@UBEPBGXZ 12001580 f i Win32PlatformUtils.obj
 0001:00000590       ??_ERuntimeException@xercesc_2_2@@UAEPAXI@Z 12001590 f i Win32PlatformUtils.obj
 0001:000005f0       ??0ArrayIndexOutOfBoundsException@xercesc_2_2@@QAE@QBDIW4Codes@XMLExcepts@1@@Z 120015f0 f i Win32PlatformUtils.obj
 0001:00000650       ??0ArrayIndexOutOfBoundsException@xercesc_2_2@@QAE@ABV01@@Z 12001650 f i Win32PlatformUtils.obj
 0001:00000670       ??0ArrayIndexOutOfBoundsException@xercesc_2_2@@QAE@QBDIW4Codes@XMLExcepts@1@QBG222@Z 12001670 f i Win32PlatformUtils.obj
 0001:000006e0       ??0ArrayIndexOutOfBoundsException@xercesc_2_2@@QAE@QBDIW4Codes@XMLExcepts@1@0000@Z 120016e0 f i Win32PlatformUtils.obj
 0001:00000750       ??1ArrayIndexOutOfBoundsException@xercesc_2_2@@UAE@XZ 12001750 f i Win32PlatformUtils.obj
 0001:00000760       ?duplicate@ArrayIndexOutOfBoundsException@xercesc_2_2@@UBEPAVXMLException@2@XZ 12001760 f i Win32PlatformUtils.obj
 0001:000007c0       ?getType@ArrayIndexOutOfBoundsException@xercesc_2_2@@UBEPBGXZ 120017c0 f i Win32PlatformUtils.obj
 0001:000007d0       ??_EArrayIndexOutOfBoundsException@xercesc_2_2@@UAEPAXI@Z 120017d0 f i Win32PlatformUtils.obj
 0001:00000830       ??4Base64@xercesc_2_2@@QAEAAV01@ABV01@@Z 12001830 f i Win32PlatformUtils.obj
 0001:00000830       ??4XercesElementWildcard@xercesc_2_2@@QAEAAV01@ABV01@@Z 12001830 f i Win32PlatformUtils.obj
 0001:00000830       ??4XMLPlatformUtils@xercesc_2_2@@QAEAAV01@ABV01@@Z 12001830 f i Win32PlatformUtils.obj
 0001:00000830       ??4XUtil@xercesc_2_2@@QAEAAV01@ABV01@@Z 12001830 f i Win32PlatformUtils.obj
 0001:00000830       ??4XMLChar1_0@xercesc_2_2@@QAEAAV01@ABV01@@Z 12001830 f i Win32PlatformUtils.obj
 0001:00000830       ??4XMLScannerResolver@xercesc_2_2@@QAEAAV01@ABV01@@Z 12001830 f i Win32PlatformUtils.obj
 0001:00000830       ??4HexBin@xercesc_2_2@@QAEAAV01@ABV01@@Z 12001830 f i Win32PlatformUtils.obj
 0001:00000830       ??4XMLUniCharacter@xercesc_2_2@@QAEAAV01@ABV01@@Z 12001830 f i Win32PlatformUtils.obj
 0001:00000830       ??4XPathSymbols@xercesc_2_2@@QAEAAV01@ABV01@@Z 12001830 f i Win32PlatformUtils.obj
 0001:00000830       ??4XMLString@xercesc_2_2@@QAEAAV01@ABV01@@Z 12001830 f i Win32PlatformUtils.obj
 0001:00000830       ??4XMLReaderFactory@xercesc_2_2@@QAEAAV01@ABV01@@Z 12001830 f i Win32PlatformUtils.obj
 0001:00000830       ??4XMLUni@xercesc_2_2@@QAEAAV01@ABV01@@Z 12001830 f i Win32PlatformUtils.obj
 0001:00000830       ??4SchemaSymbols@xercesc_2_2@@QAEAAV01@ABV01@@Z 12001830 f i Win32PlatformUtils.obj
 0001:00000830       ??4XMLChar1_1@xercesc_2_2@@QAEAAV01@ABV01@@Z 12001830 f i Win32PlatformUtils.obj
 0001:00000830       ??4PSVIDefs@xercesc_2_2@@QAEAAV01@ABV01@@Z 12001830 f i Win32PlatformUtils.obj
 0001:00000830       ??4RegxUtil@xercesc_2_2@@QAEAAV01@ABV01@@Z 12001830 f i Win32PlatformUtils.obj
 0001:00000830       ??4DOMImplementationRegistry@xercesc_2_2@@QAEAAV01@ABV01@@Z 12001830 f i Win32PlatformUtils.obj
 0001:00000840       ?moveChars@XMLString@xercesc_2_2@@SAXQAGQBGI@Z 12001840 f i Win32PlatformUtils.obj
 0001:00000870       ?stringLen@XMLString@xercesc_2_2@@SAIQBG@Z 12001870 f i Win32PlatformUtils.obj
 0001:000008a0       ?startsWith@XMLString@xercesc_2_2@@SA_NQBG0@Z 120018a0 f i Win32PlatformUtils.obj
 0001:000008e0       ?startsWithI@XMLString@xercesc_2_2@@SA_NQBG0@Z 120018e0 f i Win32PlatformUtils.obj
 0001:00000920       ?endsWith@XMLString@xercesc_2_2@@SA_NQBG0@Z 12001920 f i Win32PlatformUtils.obj
 0001:000009a0       ?replicate@XMLString@xercesc_2_2@@SAPAGQBG@Z 120019a0 f i Win32PlatformUtils.obj
 0001:00000a00       ?validateRegion@XMLString@xercesc_2_2@@CA_NQBGH0HI@Z 12001a00 f i Win32PlatformUtils.obj
 0001:00000a80       ?equals@XMLString@xercesc_2_2@@SA_NQBG0@Z 12001a80 f i Win32PlatformUtils.obj
 0001:00000ad0       ?equals@XMLString@xercesc_2_2@@SA_NQBD0@Z 12001ad0 f i Win32PlatformUtils.obj
 0001:00000b20       ?getScale@XMLBigDecimal@xercesc_2_2@@QBEIXZ 12001b20 f i Win32PlatformUtils.obj
 0001:00000b20       ?getIdentityConstraint@IC_Field@xercesc_2_2@@QBEPAVIdentityConstraint@2@XZ 12001b20 f i Win32PlatformUtils.obj
 0001:00000b20       ?getEnumeration@XMLAttDef@xercesc_2_2@@QBEPBGXZ 12001b20 f i Win32PlatformUtils.obj
 0001:00000b20       ?getPublicId@InputSource@xercesc_2_2@@UBEPBGXZ 12001b20 f i Win32PlatformUtils.obj
 0001:00000b20       ?getLocationPaths@XercesXPath@xercesc_2_2@@QBEPAV?$RefVectorOf@VXercesLocationPath@xercesc_2_2@@@2@XZ 12001b20 f i Win32PlatformUtils.obj
 0001:00000b20       ?getNoParen@ParenToken@xercesc_2_2@@UBEHXZ 12001b20 f i Win32PlatformUtils.obj
 0001:00000b20       ?getPublicId@XMLNotationDecl@xercesc_2_2@@QBEPBGXZ 12001b20 f i Win32PlatformUtils.obj
 0001:00000b20       ?getContentSpec@XercesGroupInfo@xercesc_2_2@@QBEPAVContentSpecNode@2@XZ 12001b20 f i Win32PlatformUtils.obj
 0001:00000b20       ?getColumnNumber@XSDLocator@xercesc_2_2@@UBEJXZ 12001b20 f i Win32PlatformUtils.obj
 0001:00000b20       ?getMessage@DOMErrorImpl@xercesc_2_2@@UBEPBGXZ 12001b20 f i Win32PlatformUtils.obj
 0001:00000b20       ?getUserInfo@XMLUri@xercesc_2_2@@QBEPBGXZ 12001b20 f i Win32PlatformUtils.obj
 0001:00000b20       ?getMin@ClosureToken@xercesc_2_2@@UBEHXZ 12001b20 f i Win32PlatformUtils.obj
 0001:00000b20       ?getEntityResolver@DOMBuilderImpl@xercesc_2_2@@UAEPAVDOMEntityResolver@2@XZ 12001b20 f i Win32PlatformUtils.obj
 0001:00000b20       ?getFacetsDefined@DatatypeValidator@xercesc_2_2@@IBEHXZ 12001b20 f i Win32PlatformUtils.obj
 0001:00000b20       ?getEntityResolver@DOMBuilderImpl@xercesc_2_2@@UBEPBVDOMEntityResolver@2@XZ 12001b20 f i Win32PlatformUtils.obj
 0001:00000b20       ?getChar@CharToken@xercesc_2_2@@UBEHXZ 12001b20 f i Win32PlatformUtils.obj
 0001:00000b20       ?getReferenceNo@StringToken@xercesc_2_2@@UBEHXZ 12001b20 f i Win32PlatformUtils.obj
 0001:00000b20       ?getOptions@ModifierToken@xercesc_2_2@@QBEHXZ 12001b20 f i Win32PlatformUtils.obj
 0001:00000b20       ?getFinalDefault@SchemaInfo@xercesc_2_2@@QBEHXZ 12001b20 f i Win32PlatformUtils.obj
 0001:00000b20       ?getLen@MemBufFormatTarget@xercesc_2_2@@QBEIXZ 12001b20 f i Win32PlatformUtils.obj
 0001:00000b20       ?curPos@BinHTTPURLInputStream@xercesc_2_2@@UBEIXZ 12001b20 f i Win32PlatformUtils.obj
 0001:00000b20       ?getTokenRegistry@RangeTokenMap@xercesc_2_2@@IBEPAV?$RefHashTableOf@VRangeTokenElemMap@xercesc_2_2@@@2@XZ 12001b20 f i Win32PlatformUtils.obj
 0001:00000b20       ?getName@XMLEntityDecl@xercesc_2_2@@QBEPBGXZ 12001b20 f i Win32PlatformUtils.obj
 0001:00000b20       ?getHost@XMLURL@xercesc_2_2@@QBEPBGXZ 12001b20 f i Win32PlatformUtils.obj
 0001:00000b20       ?getValue@XMLAttr@xercesc_2_2@@QBEPBGXZ 12001b20 f i Win32PlatformUtils.obj
 0001:00000b20       ?getBlockSet@ComplexTypeInfo@xercesc_2_2@@QBEHXZ 12001b20 f i Win32PlatformUtils.obj
 0001:00000b20       ?getIdentityConstraint@ValueStore@xercesc_2_2@@QBEPAVIdentityConstraint@2@XZ 12001b20 f i Win32PlatformUtils.obj
 0001:00000b20       ?getKey@XMLEntityDecl@xercesc_2_2@@QBEPBGXZ 12001b20 f i Win32PlatformUtils.obj
 0001:00000b20       ?getLocalPart@QName@xercesc_2_2@@QBEPBGXZ 12001b20 f i Win32PlatformUtils.obj
 0001:00000b20       ?getReferenceNo@ConditionToken@xercesc_2_2@@UBEHXZ 12001b20 f i Win32PlatformUtils.obj
 0001:00000b20       ?getElementName@IdentityConstraint@xercesc_2_2@@QBEPAGXZ 12001b20 f i Win32PlatformUtils.obj
 0001:00000b20       ?getColumnNumber@DOMLocatorImpl@xercesc_2_2@@UBEJXZ 12001b20 f i Win32PlatformUtils.obj
 0001:00000b20       ?getLocalPart@QName@xercesc_2_2@@QAEPAGXZ 12001b20 f i Win32PlatformUtils.obj
 0001:00000b20       ?getNextOp@Op@xercesc_2_2@@QBEPBV12@XZ 12001b20 f i Win32PlatformUtils.obj
 0001:00000b20       ?getCreateReason@XMLElementDecl@xercesc_2_2@@QBE?AW4CreateReasons@12@XZ 12001b20 f i Win32PlatformUtils.obj
 0001:00000b20       ?getRawData@XMLBigInteger@xercesc_2_2@@QBEPAGXZ 12001b20 f i Win32PlatformUtils.obj
 0001:00000b20       ?getEncodingName@XMLTranscoder@xercesc_2_2@@QBEPBGXZ 12001b20 f i Win32PlatformUtils.obj
 0001:00000b30       ??0HashBase@xercesc_2_2@@QAE@XZ 12001b30 f i Win32PlatformUtils.obj
 0001:00000b40       ??0HashBase@xercesc_2_2@@QAE@ABV01@@Z 12001b40 f i Win32PlatformUtils.obj
 0001:00000b50       ??4DOMWriterFilter@xercesc_2_2@@IAEAAV01@ABV01@@Z 12001b50 f i Win32PlatformUtils.obj
 0001:00000b50       ??4HashCMStateSet@xercesc_2_2@@QAEAAV01@ABV01@@Z 12001b50 f i Win32PlatformUtils.obj
 0001:00000b50       ??4DOMTypeInfo@xercesc_2_2@@IAEAAV01@ABV01@@Z 12001b50 f i Win32PlatformUtils.obj
 0001:00000b50       ??4DOMElement@xercesc_2_2@@IAEAAV01@ABV01@@Z 12001b50 f i Win32PlatformUtils.obj
 0001:00000b50       ??4DOMErrorHandler@xercesc_2_2@@IAEAAV01@ABV01@@Z 12001b50 f i Win32PlatformUtils.obj
 0001:00000b50       ??4HashPtr@xercesc_2_2@@QAEAAV01@ABV01@@Z 12001b50 f i Win32PlatformUtils.obj
 0001:00000b50       ??4DOMError@xercesc_2_2@@IAEAAV01@ABV01@@Z 12001b50 f i Win32PlatformUtils.obj
 0001:00000b50       ??4DOMNodeList@xercesc_2_2@@IAEAAV01@ABV01@@Z 12001b50 f i Win32PlatformUtils.obj
 0001:00000b50       ??4DOMEntityReference@xercesc_2_2@@IAEAAV01@ABV01@@Z 12001b50 f i Win32PlatformUtils.obj
 0001:00000b50       ??4DOMImplementation@xercesc_2_2@@IAEAAV01@ABV01@@Z 12001b50 f i Win32PlatformUtils.obj
 0001:00000b50       ??4DOMInputSource@xercesc_2_2@@IAEAAV01@ABV01@@Z 12001b50 f i Win32PlatformUtils.obj
 0001:00000b50       ??4DOMAttr@xercesc_2_2@@IAEAAV01@ABV01@@Z 12001b50 f i Win32PlatformUtils.obj
 0001:00000b50       ??4HashXMLCh@xercesc_2_2@@QAEAAV01@ABV01@@Z 12001b50 f i Win32PlatformUtils.obj
 0001:00000b50       ??4HashBase@xercesc_2_2@@QAEAAV01@ABV01@@Z 12001b50 f i Win32PlatformUtils.obj
 0001:00000b50       ??4DOMImplementationLS@xercesc_2_2@@IAEAAV01@ABV01@@Z 12001b50 f i Win32PlatformUtils.obj
 0001:00000b50       ??4DOMNodeFilter@xercesc_2_2@@IAEAAV01@ABV01@@Z 12001b50 f i Win32PlatformUtils.obj
 0001:00000b50       ??4DOMBuilder@xercesc_2_2@@IAEAAV01@ABV01@@Z 12001b50 f i Win32PlatformUtils.obj
 0001:00000b50       ??4DOMUserDataHandler@xercesc_2_2@@IAEAAV01@ABV01@@Z 12001b50 f i Win32PlatformUtils.obj
 0001:00000b50       ??4DOMLocator@xercesc_2_2@@IAEAAV01@ABV01@@Z 12001b50 f i Win32PlatformUtils.obj
 0001:00000b50       ??4XMLNumber@xercesc_2_2@@QAEAAV01@ABV01@@Z 12001b50 f i Win32PlatformUtils.obj
 0001:00000b50       ??4DOMText@xercesc_2_2@@IAEAAV01@ABV01@@Z 12001b50 f i Win32PlatformUtils.obj
 0001:00000b50       ??4DOMImplementationSource@xercesc_2_2@@IAEAAV01@ABV01@@Z 12001b50 f i Win32PlatformUtils.obj
 0001:00000b50       ??4DOMNamedNodeMap@xercesc_2_2@@IAEAAV01@ABV01@@Z 12001b50 f i Win32PlatformUtils.obj
 0001:00000b50       ??4DOMProcessingInstruction@xercesc_2_2@@IAEAAV01@ABV01@@Z 12001b50 f i Win32PlatformUtils.obj
 0001:00000b50       ??4DOMDocument@xercesc_2_2@@IAEAAV01@ABV01@@Z 12001b50 f i Win32PlatformUtils.obj
 0001:00000b50       ??4DOMNotation@xercesc_2_2@@IAEAAV01@ABV01@@Z 12001b50 f i Win32PlatformUtils.obj
 0001:00000b50       ??4DOMDocumentTraversal@xercesc_2_2@@IAEAAV01@ABV01@@Z 12001b50 f i Win32PlatformUtils.obj
 0001:00000b50       ??4DOMDocumentFragment@xercesc_2_2@@IAEAAV01@ABV01@@Z 12001b50 f i Win32PlatformUtils.obj
 0001:00000b50       ??4DOMTreeWalker@xercesc_2_2@@IAEAAV01@ABV01@@Z 12001b50 f i Win32PlatformUtils.obj
 0001:00000b50       ??4DOMDocumentRange@xercesc_2_2@@IAEAAV01@ABV01@@Z 12001b50 f i Win32PlatformUtils.obj
 0001:00000b50       ??4DOMDocumentType@xercesc_2_2@@IAEAAV01@ABV01@@Z 12001b50 f i Win32PlatformUtils.obj
 0001:00000b50       ??4DOMNode@xercesc_2_2@@IAEAAV01@ABV01@@Z 12001b50 f i Win32PlatformUtils.obj
 0001:00000b50       ??4DOMWriter@xercesc_2_2@@IAEAAV01@ABV01@@Z 12001b50 f i Win32PlatformUtils.obj
 0001:00000b50       ??4DOMComment@xercesc_2_2@@IAEAAV01@ABV01@@Z 12001b50 f i Win32PlatformUtils.obj
 0001:00000b50       ??4DOMEntity@xercesc_2_2@@IAEAAV01@ABV01@@Z 12001b50 f i Win32PlatformUtils.obj
 0001:00000b50       ??4XMLAttDefList@xercesc_2_2@@IAEAAV01@ABV01@@Z 12001b50 f i Win32PlatformUtils.obj
 0001:00000b50       ??4Grammar@xercesc_2_2@@QAEAAV01@ABV01@@Z 12001b50 f i Win32PlatformUtils.obj
 0001:00000b50       ??4DOMRange@xercesc_2_2@@IAEAAV01@ABV01@@Z 12001b50 f i Win32PlatformUtils.obj
 0001:00000b50       ??4DOMCharacterData@xercesc_2_2@@IAEAAV01@ABV01@@Z 12001b50 f i Win32PlatformUtils.obj
 0001:00000b50       ??4DOMCDATASection@xercesc_2_2@@IAEAAV01@ABV01@@Z 12001b50 f i Win32PlatformUtils.obj
 0001:00000b50       ??4DOMNodeIterator@xercesc_2_2@@IAEAAV01@ABV01@@Z 12001b50 f i Win32PlatformUtils.obj
 0001:00000b50       ??4DOMEntityResolver@xercesc_2_2@@IAEAAV01@ABV01@@Z 12001b50 f i Win32PlatformUtils.obj
 0001:00000b60       ??0IllegalArgumentException@xercesc_2_2@@QAE@QBDIW4Codes@XMLExcepts@1@@Z 12001b60 f i Win32PlatformUtils.obj
 0001:00000bc0       ??0IllegalArgumentException@xercesc_2_2@@QAE@ABV01@@Z 12001bc0 f i Win32PlatformUtils.obj
 0001:00000be0       ??0IllegalArgumentException@xercesc_2_2@@QAE@QBDIW4Codes@XMLExcepts@1@QBG222@Z 12001be0 f i Win32PlatformUtils.obj
 0001:00000c50       ??0IllegalArgumentException@xercesc_2_2@@QAE@QBDIW4Codes@XMLExcepts@1@0000@Z 12001c50 f i Win32PlatformUtils.obj
 0001:00000cc0       ??1IllegalArgumentException@xercesc_2_2@@UAE@XZ 12001cc0 f i Win32PlatformUtils.obj
 0001:00000cd0       ?duplicate@IllegalArgumentException@xercesc_2_2@@UBEPAVXMLException@2@XZ 12001cd0 f i Win32PlatformUtils.obj
 0001:00000d30       ?getType@IllegalArgumentException@xercesc_2_2@@UBEPBGXZ 12001d30 f i Win32PlatformUtils.obj
 0001:00000d40       ??_EIllegalArgumentException@xercesc_2_2@@UAEPAXI@Z 12001d40 f i Win32PlatformUtils.obj
 0001:00000da0       ??0NoSuchElementException@xercesc_2_2@@QAE@QBDIW4Codes@XMLExcepts@1@@Z 12001da0 f i Win32PlatformUtils.obj
 0001:00000e00       ??0NoSuchElementException@xercesc_2_2@@QAE@ABV01@@Z 12001e00 f i Win32PlatformUtils.obj
 0001:00000e20       ??0NoSuchElementException@xercesc_2_2@@QAE@QBDIW4Codes@XMLExcepts@1@QBG222@Z 12001e20 f i Win32PlatformUtils.obj
 0001:00000e90       ??0NoSuchElementException@xercesc_2_2@@QAE@QBDIW4Codes@XMLExcepts@1@0000@Z 12001e90 f i Win32PlatformUtils.obj
 0001:00000f00       ??1NoSuchElementException@xercesc_2_2@@UAE@XZ 12001f00 f i Win32PlatformUtils.obj
 0001:00000f10       ?duplicate@NoSuchElementException@xercesc_2_2@@UBEPAVXMLException@2@XZ 12001f10 f i Win32PlatformUtils.obj
 0001:00000f70       ?getType@NoSuchElementException@xercesc_2_2@@UBEPBGXZ 12001f70 f i Win32PlatformUtils.obj
 0001:00000f80       ??_ENoSuchElementException@xercesc_2_2@@UAEPAXI@Z 12001f80 f i Win32PlatformUtils.obj
 0001:00000fe0       ??0HashXMLCh@xercesc_2_2@@QAE@ABV01@@Z 12001fe0 f i Win32PlatformUtils.obj
 0001:00000ff0       ??_EHashXMLCh@xercesc_2_2@@UAEPAXI@Z 12001ff0 f i Win32PlatformUtils.obj
 0001:00001050       ??0NullPointerException@xercesc_2_2@@QAE@QBDIW4Codes@XMLExcepts@1@@Z 12002050 f i Win32PlatformUtils.obj
 0001:000010b0       ??0NullPointerException@xercesc_2_2@@QAE@ABV01@@Z 120020b0 f i Win32PlatformUtils.obj
 0001:000010d0       ??0NullPointerException@xercesc_2_2@@QAE@QBDIW4Codes@XMLExcepts@1@QBG222@Z 120020d0 f i Win32PlatformUtils.obj
 0001:00001140       ??0NullPointerException@xercesc_2_2@@QAE@QBDIW4Codes@XMLExcepts@1@0000@Z 12002140 f i Win32PlatformUtils.obj
 0001:000011b0       ??1NullPointerException@xercesc_2_2@@UAE@XZ 120021b0 f i Win32PlatformUtils.obj
 0001:000011c0       ?duplicate@NullPointerException@xercesc_2_2@@UBEPAVXMLException@2@XZ 120021c0 f i Win32PlatformUtils.obj
 0001:00001220       ?getType@NullPointerException@xercesc_2_2@@UBEPBGXZ 12002220 f i Win32PlatformUtils.obj
 0001:00001230       ??_ENullPointerException@xercesc_2_2@@UAEPAXI@Z 12002230 f i Win32PlatformUtils.obj
 0001:00001290       ??1XMLMsgLoader@xercesc_2_2@@UAE@XZ 12002290 f i Win32PlatformUtils.obj
 0001:000012a0       ??_EXMLMsgLoader@xercesc_2_2@@UAEPAXI@Z 120022a0 f i Win32PlatformUtils.obj
 0001:00001300       ??0XMLMsgLoader@xercesc_2_2@@IAE@XZ 12002300 f i Win32PlatformUtils.obj
 0001:00001310       ??9XMLURL@xercesc_2_2@@QBE_NABV01@@Z 12002310 f i Win32PlatformUtils.obj
 0001:00001330       ?getURLText@XMLURL@xercesc_2_2@@QBEPBGXZ 12002330 f i Win32PlatformUtils.obj
 0001:00001350       ??0MalformedURLException@xercesc_2_2@@QAE@QBDIW4Codes@XMLExcepts@1@@Z 12002350 f i Win32PlatformUtils.obj
 0001:000013b0       ??0MalformedURLException@xercesc_2_2@@QAE@ABV01@@Z 120023b0 f i Win32PlatformUtils.obj
 0001:000013d0       ??0MalformedURLException@xercesc_2_2@@QAE@QBDIW4Codes@XMLExcepts@1@QBG222@Z 120023d0 f i Win32PlatformUtils.obj
 0001:00001440       ??0MalformedURLException@xercesc_2_2@@QAE@QBDIW4Codes@XMLExcepts@1@0000@Z 12002440 f i Win32PlatformUtils.obj
 0001:000014b0       ??1MalformedURLException@xercesc_2_2@@UAE@XZ 120024b0 f i Win32PlatformUtils.obj
 0001:000014c0       ?duplicate@MalformedURLException@xercesc_2_2@@UBEPAVXMLException@2@XZ 120024c0 f i Win32PlatformUtils.obj
 0001:00001520       ?getType@MalformedURLException@xercesc_2_2@@UBEPBGXZ 12002520 f i Win32PlatformUtils.obj
 0001:00001530       ??_EMalformedURLException@xercesc_2_2@@UAEPAXI@Z 12002530 f i Win32PlatformUtils.obj
 0001:00001590       ??1XMLNetAccessor@xercesc_2_2@@UAE@XZ 12002590 f i Win32PlatformUtils.obj
 0001:000015a0       ??0XMLNetAccessor@xercesc_2_2@@IAE@XZ 120025a0 f i Win32PlatformUtils.obj
 0001:000015b0       ??_EXMLNetAccessor@xercesc_2_2@@UAEPAXI@Z 120025b0 f i Win32PlatformUtils.obj
 0001:00001610       ??0NetAccessorException@xercesc_2_2@@QAE@QBDIW4Codes@XMLExcepts@1@@Z 12002610 f i Win32PlatformUtils.obj
 0001:00001670       ??0NetAccessorException@xercesc_2_2@@QAE@ABV01@@Z 12002670 f i Win32PlatformUtils.obj
 0001:00001690       ??0NetAccessorException@xercesc_2_2@@QAE@QBDIW4Codes@XMLExcepts@1@QBG222@Z 12002690 f i Win32PlatformUtils.obj
 0001:00001700       ??0NetAccessorException@xercesc_2_2@@QAE@QBDIW4Codes@XMLExcepts@1@0000@Z 12002700 f i Win32PlatformUtils.obj
 0001:00001770       ??1NetAccessorException@xercesc_2_2@@UAE@XZ 12002770 f i Win32PlatformUtils.obj
 0001:00001780       ?duplicate@NetAccessorException@xercesc_2_2@@UBEPAVXMLException@2@XZ 12002780 f i Win32PlatformUtils.obj
 0001:000017e0       ?getType@NetAccessorException@xercesc_2_2@@UBEPBGXZ 120027e0 f i Win32PlatformUtils.obj
 0001:000017f0       ??_ENetAccessorException@xercesc_2_2@@UAEPAXI@Z 120027f0 f i Win32PlatformUtils.obj
 0001:00001850       ?getId@WinSockNetAccessor@xercesc_2_2@@UBEPBGXZ 12002850 f i Win32PlatformUtils.obj
 0001:00001860       ?panic@XMLPlatformUtils@xercesc_2_2@@SAXW4PanicReasons@12@@Z 12002860 f   Win32PlatformUtils.obj
 0001:000018e0       ?curFilePos@XMLPlatformUtils@xercesc_2_2@@SAIPAX@Z 120028e0 f   Win32PlatformUtils.obj
 0001:00001930       ?closeFile@XMLPlatformUtils@xercesc_2_2@@SAXPAX@Z 12002930 f   Win32PlatformUtils.obj
 0001:00001970       ?fileSize@XMLPlatformUtils@xercesc_2_2@@SAIPAX@Z 12002970 f   Win32PlatformUtils.obj
 0001:00001a30       ?openFile@XMLPlatformUtils@xercesc_2_2@@SAPAXQBD@Z 12002a30 f   Win32PlatformUtils.obj
 0001:00001a60       ?openFile@XMLPlatformUtils@xercesc_2_2@@SAPAXQBG@Z 12002a60 f   Win32PlatformUtils.obj
 0001:00001bf0       ?openFileToWrite@XMLPlatformUtils@xercesc_2_2@@SAPAXQBD@Z 12002bf0 f   Win32PlatformUtils.obj
 0001:00001c20       ?openFileToWrite@XMLPlatformUtils@xercesc_2_2@@SAPAXQBG@Z 12002c20 f   Win32PlatformUtils.obj
 0001:00001d40       ?openStdInHandle@XMLPlatformUtils@xercesc_2_2@@SAPAXXZ 12002d40 f   Win32PlatformUtils.obj
 0001:00001e00       ?readFileBuffer@XMLPlatformUtils@xercesc_2_2@@SAIPAXIQAE@Z 12002e00 f   Win32PlatformUtils.obj
 0001:00001e70       ?writeBufferToFile@XMLPlatformUtils@xercesc_2_2@@SAXQAXJQBE@Z 12002e70 f   Win32PlatformUtils.obj
 0001:00001f00       ?resetFile@XMLPlatformUtils@xercesc_2_2@@SAXPAX@Z 12002f00 f   Win32PlatformUtils.obj
 0001:00001f50       ?getFullPath@XMLPlatformUtils@xercesc_2_2@@SAPAGQBG@Z 12002f50 f   Win32PlatformUtils.obj
 0001:000020f0       ?isRelative@XMLPlatformUtils@xercesc_2_2@@SA_NQBG@Z 120030f0 f   Win32PlatformUtils.obj
 0001:00002150       ?weavePaths@XMLPlatformUtils@xercesc_2_2@@SAPAGQBG0@Z 12003150 f   Win32PlatformUtils.obj
 0001:00002390       ?getCurrentMillis@XMLPlatformUtils@xercesc_2_2@@SAKXZ 12003390 f   Win32PlatformUtils.obj
 0001:000023a0       ?closeMutex@XMLPlatformUtils@xercesc_2_2@@SAXQAX@Z 120033a0 f   Win32PlatformUtils.obj
 0001:000023c0       ?lockMutex@XMLPlatformUtils@xercesc_2_2@@SAXQAX@Z 120033c0 f   Win32PlatformUtils.obj
 0001:000023d0       ?makeMutex@XMLPlatformUtils@xercesc_2_2@@SAPAXXZ 120033d0 f   Win32PlatformUtils.obj
 0001:000023f0       ?unlockMutex@XMLPlatformUtils@xercesc_2_2@@SAXQAX@Z 120033f0 f   Win32PlatformUtils.obj
 0001:00002400       ?compareAndSwap@XMLPlatformUtils@xercesc_2_2@@SAPAXPAPAXQBX1@Z 12003400 f   Win32PlatformUtils.obj
 0001:00002420       ?atomicIncrement@XMLPlatformUtils@xercesc_2_2@@SAHAAH@Z 12003420 f   Win32PlatformUtils.obj
 0001:00002430       ?atomicDecrement@XMLPlatformUtils@xercesc_2_2@@SAHAAH@Z 12003430 f   Win32PlatformUtils.obj
 0001:00002440       ?makeNetAccessor@XMLPlatformUtils@xercesc_2_2@@CAPAVXMLNetAccessor@2@XZ 12003440 f   Win32PlatformUtils.obj
 0001:000024a0       ?loadAMsgSet@XMLPlatformUtils@xercesc_2_2@@CAPAVXMLMsgLoader@2@QBG@Z 120034a0 f   Win32PlatformUtils.obj
 0001:00002500       ?makeTransService@XMLPlatformUtils@xercesc_2_2@@CAPAVXMLTransService@2@XZ 12003500 f   Win32PlatformUtils.obj
 0001:00002560       ?platformInit@XMLPlatformUtils@xercesc_2_2@@CAXXZ 12003560 f   Win32PlatformUtils.obj
 0001:00002590       _DllMain@12                12003590 f   Win32MsgLoader.obj
 0001:000025b0       ??0Win32MsgLoader@xercesc_2_2@@QAE@QBG@Z 120035b0 f   Win32MsgLoader.obj
 0001:000027d0       ??_EWin32MsgLoader@xercesc_2_2@@UAEPAXI@Z 120037d0 f i Win32MsgLoader.obj
 0001:00002830       ??1Win32MsgLoader@xercesc_2_2@@UAE@XZ 12003830 f   Win32MsgLoader.obj
 0001:00002880       ?loadMsg@Win32MsgLoader@xercesc_2_2@@UAE_NIQAGI@Z 12003880 f   Win32MsgLoader.obj
 0001:00002930       ?loadMsg@Win32MsgLoader@xercesc_2_2@@UAE_NIQAGIQBG111@Z 12003930 f   Win32MsgLoader.obj
 0001:00002980       ?loadMsg@Win32MsgLoader@xercesc_2_2@@UAE_NIQAGIQBD111@Z 12003980 f   Win32MsgLoader.obj
 0001:00002a50       ??0TranscodingException@xercesc_2_2@@QAE@QBDIW4Codes@XMLExcepts@1@@Z 12003a50 f i Win32TransService.obj
 0001:00002ab0       ??0TranscodingException@xercesc_2_2@@QAE@ABV01@@Z 12003ab0 f i Win32TransService.obj
 0001:00002ad0       ??0TranscodingException@xercesc_2_2@@QAE@QBDIW4Codes@XMLExcepts@1@QBG222@Z 12003ad0 f i Win32TransService.obj
 0001:00002b40       ??0TranscodingException@xercesc_2_2@@QAE@QBDIW4Codes@XMLExcepts@1@0000@Z 12003b40 f i Win32TransService.obj
 0001:00002bb0       ??1TranscodingException@xercesc_2_2@@UAE@XZ 12003bb0 f i Win32TransService.obj
 0001:00002bc0       ?duplicate@TranscodingException@xercesc_2_2@@UBEPAVXMLException@2@XZ 12003bc0 f i Win32TransService.obj
 0001:00002c20       ?getType@TranscodingException@xercesc_2_2@@UBEPBGXZ 12003c20 f i Win32TransService.obj
 0001:00002c30       ??_ETranscodingException@xercesc_2_2@@UAEPAXI@Z 12003c30 f i Win32TransService.obj
 0001:00002c90       ??0Win32TransService@xercesc_2_2@@QAE@XZ 12003c90 f   Win32TransService.obj
 0001:000032f0       ??_EWin32TransService@xercesc_2_2@@UAEPAXI@Z 120042f0 f i Win32TransService.obj
 0001:00003350       ??1Win32TransService@xercesc_2_2@@UAE@XZ 12004350 f   Win32TransService.obj
 0001:00003430       ?compareIString@Win32TransService@xercesc_2_2@@UAEHQBG0@Z 12004430 f   Win32TransService.obj
 0001:00003450       ?compareNIString@Win32TransService@xercesc_2_2@@UAEHQBG0I@Z 12004450 f   Win32TransService.obj
 0001:00003470       ?getId@Win32TransService@xercesc_2_2@@UBEPBGXZ 12004470 f   Win32TransService.obj
 0001:00003480       ?isSpace@Win32TransService@xercesc_2_2@@UBE_NG@Z 12004480 f   Win32TransService.obj
 0001:000034a0       ?makeNewLCPTranscoder@Win32TransService@xercesc_2_2@@UAEPAVXMLLCPTranscoder@2@XZ 120044a0 f   Win32TransService.obj
 0001:000034f0       ?isDocumentImpl@DocumentImpl@xercesc_2_2@@UAE_NXZ 120044f0 f   Win32TransService.obj
 0001:000034f0       ?isTextImpl@TextImpl@xercesc_2_2@@UAE_NXZ 120044f0 f   Win32TransService.obj
 0001:000034f0       ?isDocumentTypeImpl@DocumentTypeImpl@xercesc_2_2@@UAE_NXZ 120044f0 f   Win32TransService.obj
 0001:000034f0       ?supportsSrcOfs@Win32TransService@xercesc_2_2@@UBE_NXZ 120044f0 f   Win32TransService.obj
 0001:000034f0       ?isElementImpl@ElementImpl@xercesc_2_2@@UAE_NXZ 120044f0 f   Win32TransService.obj
 0001:000034f0       ?requiresNamespaces@SchemaValidator@xercesc_2_2@@UBE_NXZ 120044f0 f   Win32TransService.obj
 0001:000034f0       ?isEntityReference@EntityReferenceImpl@xercesc_2_2@@UAE_NXZ 120044f0 f   Win32TransService.obj
 0001:000034f0       ?isCDATASectionImpl@CDATASectionImpl@xercesc_2_2@@UAE_NXZ 120044f0 f   Win32TransService.obj
 0001:000034f0       ?isAttrImpl@AttrImpl@xercesc_2_2@@UAE_NXZ 120044f0 f   Win32TransService.obj
 0001:000034f0       ?isDocumentFragmentImpl@DocumentFragmentImpl@xercesc_2_2@@UAE_NXZ 120044f0 f   Win32TransService.obj
 0001:00003500       ?upperCase@Win32TransService@xercesc_2_2@@UBEXQAG@Z 12004500 f   Win32TransService.obj
 0001:00003510       ?lowerCase@Win32TransService@xercesc_2_2@@UBEXQAG@Z 12004510 f   Win32TransService.obj
 0001:00003520       ?isAlias@Win32TransService@xercesc_2_2@@CA_NQAUHKEY__@@QADI@Z 12004520 f   Win32TransService.obj
 0001:00003550       ?makeNewXMLTranscoder@Win32TransService@xercesc_2_2@@MAEPAVXMLTranscoder@2@QBGAAW4Codes@XMLTransService@2@I@Z 12004550 f   Win32TransService.obj
 0001:000036b0       ??0Win32Transcoder@xercesc_2_2@@QAE@QBGIII@Z 120046b0 f   Win32TransService.obj
 0001:000036e0       ??_EWin32Transcoder@xercesc_2_2@@UAEPAXI@Z 120046e0 f i Win32TransService.obj
 0001:00003740       ??1Win32Transcoder@xercesc_2_2@@UAE@XZ 12004740 f   Win32TransService.obj
 0001:00003750       ?transcodeFrom@Win32Transcoder@xercesc_2_2@@UAEIQBEIQAGIAAIQAE@Z 12004750 f   Win32TransService.obj
 0001:00003880       ?transcodeTo@Win32Transcoder@xercesc_2_2@@UAEIQBGIQAEIAAIW4UnRepOpts@XMLTranscoder@2@@Z 12004880 f   Win32TransService.obj
 0001:00003960       ?canTranscodeTo@Win32Transcoder@xercesc_2_2@@UBE_NI@Z 12004960 f   Win32TransService.obj
 0001:000039e0       ??0Win32LCPTranscoder@xercesc_2_2@@QAE@XZ 120049e0 f   Win32TransService.obj
 0001:00003a00       ??_EWin32LCPTranscoder@xercesc_2_2@@UAEPAXI@Z 12004a00 f i Win32TransService.obj
 0001:00003a60       ??1Win32LCPTranscoder@xercesc_2_2@@UAE@XZ 12004a60 f   Win32TransService.obj
 0001:00003a70       ?calcRequiredSize@Win32LCPTranscoder@xercesc_2_2@@UAEIQBD@Z 12004a70 f   Win32TransService.obj
 0001:00003ad0       ?calcRequiredSize@Win32LCPTranscoder@xercesc_2_2@@UAEIQBG@Z 12004ad0 f   Win32TransService.obj
 0001:00003b00       ?transcode@Win32LCPTranscoder@xercesc_2_2@@UAEPADQBG@Z 12004b00 f   Win32TransService.obj
 0001:00003b80       ?transcode@Win32LCPTranscoder@xercesc_2_2@@UAEPAGQBD@Z 12004b80 f   Win32TransService.obj
 0001:00003c00       ?transcode@Win32LCPTranscoder@xercesc_2_2@@UAE_NQBDQAGI@Z 12004c00 f   Win32TransService.obj
 0001:00003c50       ?transcode@Win32LCPTranscoder@xercesc_2_2@@UAE_NQBGQADI@Z 12004c50 f   Win32TransService.obj
 0001:00003cb0       ?Initialize@BinHTTPURLInputStream@xercesc_2_2@@CAXXZ 12004cb0 f   BinHTTPURLInputStream.obj
 0001:00003f30       ?Cleanup@BinHTTPURLInputStream@xercesc_2_2@@SAXXZ 12004f30 f   BinHTTPURLInputStream.obj
 0001:00003fd0       ?gethostbyname@BinHTTPURLInputStream@xercesc_2_2@@CAPAUhostent@@PBD@Z 12004fd0 f i BinHTTPURLInputStream.obj
 0001:00003fe0       ?inet_addr@BinHTTPURLInputStream@xercesc_2_2@@CAKPBD@Z 12004fe0 f i BinHTTPURLInputStream.obj
 0001:00003ff0       ?gethostbyaddr@BinHTTPURLInputStream@xercesc_2_2@@CAPAUhostent@@PBDHH@Z 12004ff0 f i BinHTTPURLInputStream.obj
 0001:00004010       ?htons@BinHTTPURLInputStream@xercesc_2_2@@CAGG@Z 12005010 f i BinHTTPURLInputStream.obj
 0001:00004020       ?socket@BinHTTPURLInputStream@xercesc_2_2@@CAGHHH@Z 12005020 f i BinHTTPURLInputStream.obj
 0001:00004040       ?connect@BinHTTPURLInputStream@xercesc_2_2@@CAHGPBUsockaddr@@H@Z 12005040 f i BinHTTPURLInputStream.obj
 0001:00004060       ?send@BinHTTPURLInputStream@xercesc_2_2@@CAHGPBDHH@Z 12005060 f i BinHTTPURLInputStream.obj
 0001:00004080       ?recv@BinHTTPURLInputStream@xercesc_2_2@@CAHGPADHH@Z 12005080 f i BinHTTPURLInputStream.obj
 0001:000040a0       ?shutdown@BinHTTPURLInputStream@xercesc_2_2@@CAHIH@Z 120050a0 f i BinHTTPURLInputStream.obj
 0001:000040c0       ?closesocket@BinHTTPURLInputStream@xercesc_2_2@@CAHI@Z 120050c0 f i BinHTTPURLInputStream.obj
 0001:000040d0       ??0BinHTTPURLInputStream@xercesc_2_2@@QAE@ABVXMLURL@1@@Z 120050d0 f   BinHTTPURLInputStream.obj
 0001:000049a0       ??_EBinHTTPURLInputStream@xercesc_2_2@@UAEPAXI@Z 120059a0 f i BinHTTPURLInputStream.obj
 0001:00004a00       ??1BinHTTPURLInputStream@xercesc_2_2@@UAE@XZ 12005a00 f   BinHTTPURLInputStream.obj
 0001:00004a60       ?readBytes@BinHTTPURLInputStream@xercesc_2_2@@UAEIQAEI@Z 12005a60 f   BinHTTPURLInputStream.obj
 0001:00004b00       ??0WinSockNetAccessor@xercesc_2_2@@QAE@XZ 12005b00 f   WinSockNetAccessor.obj
 0001:00004b10       ??_EWinSockNetAccessor@xercesc_2_2@@UAEPAXI@Z 12005b10 f i WinSockNetAccessor.obj
 0001:00004b70       ??1WinSockNetAccessor@xercesc_2_2@@UAE@XZ 12005b70 f   WinSockNetAccessor.obj
 0001:00004bc0       ?makeNew@WinSockNetAccessor@xercesc_2_2@@UAEPAVBinInputStream@2@ABVXMLURL@2@@Z 12005bc0 f   WinSockNetAccessor.obj
 0001:00004c70       ?getOpType@Op@xercesc_2_2@@QBEFXZ 12005c70 f i ASCIIRangeFactory.obj
 0001:00004c70       ?getTokenType@Token@xercesc_2_2@@QBEGXZ 12005c70 f i ASCIIRangeFactory.obj
 0001:00004c80       ?getChild@Token@xercesc_2_2@@UBEPAV12@H@Z 12005c80 f i ASCIIRangeFactory.obj
 0001:00004c90       ?getChar@Token@xercesc_2_2@@UBEHXZ 12005c90 f i ASCIIRangeFactory.obj
 0001:00004c90       ?getMin@Token@xercesc_2_2@@UBEHXZ 12005c90 f i ASCIIRangeFactory.obj
 0001:00004c90       ?getMax@Token@xercesc_2_2@@UBEHXZ 12005c90 f i ASCIIRangeFactory.obj
 0001:00004ca0       ?setTokenType@Token@xercesc_2_2@@QAEXG@Z 12005ca0 f i ASCIIRangeFactory.obj
 0001:00004ca0       ?setOpType@Op@xercesc_2_2@@QAEXF@Z 12005ca0 f i ASCIIRangeFactory.obj
 0001:00004cb0       ?isSet@Token@xercesc_2_2@@AAE_NHI@Z 12005cb0 f i ASCIIRangeFactory.obj
 0001:00004cb0       ?isSet@RegularExpression@xercesc_2_2@@AAE_NHH@Z 12005cb0 f i ASCIIRangeFactory.obj
 0001:00004cd0       ?addChild@Token@xercesc_2_2@@UAEXQAV12@QAVTokenFactory@2@@Z 12005cd0 f i ASCIIRangeFactory.obj
 0001:00004d00       ?addRange@Token@xercesc_2_2@@UAEXHH@Z 12005d00 f i ASCIIRangeFactory.obj
 0001:00004d30       ?mergeRanges@Token@xercesc_2_2@@UAEXQBV12@@Z 12005d30 f i ASCIIRangeFactory.obj
 0001:00004d60       ?sortRanges@Token@xercesc_2_2@@UAEXXZ 12005d60 f i ASCIIRangeFactory.obj
 0001:00004d90       ?compactRanges@Token@xercesc_2_2@@UAEXXZ 12005d90 f i ASCIIRangeFactory.obj
 0001:00004dc0       ?subtractRanges@Token@xercesc_2_2@@UAEXQAVRangeToken@2@@Z 12005dc0 f i ASCIIRangeFactory.obj
 0001:00004df0       ?intersectRanges@Token@xercesc_2_2@@UAEXQAVRangeToken@2@@Z 12005df0 f i ASCIIRangeFactory.obj
 0001:00004e20       ??_FXMLStringPool@xercesc_2_2@@QAEXXZ 12005e20 f i ASCIIRangeFactory.obj
 0001:00004e30       ?getRangeToken@RangeTokenElemMap@xercesc_2_2@@QBEPAVRangeToken@2@_N@Z 12005e30 f i ASCIIRangeFactory.obj
 0001:00004e50       ?setValueStoreCache@FieldActivator@xercesc_2_2@@QAEXQAVValueStoreCache@2@@Z 12005e50 f i ASCIIRangeFactory.obj
 0001:00004e50       ?setId@XMLNotationDecl@xercesc_2_2@@QAEXI@Z 12005e50 f i ASCIIRangeFactory.obj
 0001:00004e50       ?setCategoryId@RangeTokenElemMap@xercesc_2_2@@QAEXI@Z 12005e50 f i ASCIIRangeFactory.obj
 0001:00004e50       ?setSign@XMLBigInteger@xercesc_2_2@@AAEXH@Z 12005e50 f i ASCIIRangeFactory.obj
 0001:00004e50       ?setEscapeFlags@XMLFormatter@xercesc_2_2@@QAEXW4EscapeFlags@12@@Z 12005e50 f i ASCIIRangeFactory.obj
 0001:00004e60       ?setRangeToken@RangeTokenElemMap@xercesc_2_2@@QAEXQAVRangeToken@2@_N@Z 12005e60 f i ASCIIRangeFactory.obj
 0001:00004e80       ??0ASCIIRangeFactory@xercesc_2_2@@QAE@XZ 12005e80 f   ASCIIRangeFactory.obj
 0001:00004ea0       ??_EASCIIRangeFactory@xercesc_2_2@@UAEPAXI@Z 12005ea0 f i ASCIIRangeFactory.obj
 0001:00004f00       ??1ASCIIRangeFactory@xercesc_2_2@@UAE@XZ 12005f00 f   ASCIIRangeFactory.obj
 0001:00004f10       ?buildRanges@ASCIIRangeFactory@xercesc_2_2@@MAEXXZ 12005f10 f   ASCIIRangeFactory.obj
 0001:00005060       ?initializeKeywordMap@ASCIIRangeFactory@xercesc_2_2@@UAEXXZ 12006060 f   ASCIIRangeFactory.obj
 0001:000050d0       ??0BlockRangeFactory@xercesc_2_2@@QAE@XZ 120060d0 f   BlockRangeFactory.obj
 0001:000050f0       ??_EBlockRangeFactory@xercesc_2_2@@UAEPAXI@Z 120060f0 f i BlockRangeFactory.obj
 0001:00005150       ??1BlockRangeFactory@xercesc_2_2@@UAE@XZ 12006150 f   BlockRangeFactory.obj
 0001:00005160       ?buildRanges@BlockRangeFactory@xercesc_2_2@@MAEXXZ 12006160 f   BlockRangeFactory.obj
 0001:00005300       ?initializeKeywordMap@BlockRangeFactory@xercesc_2_2@@UAEXXZ 12006300 f   BlockRangeFactory.obj
 0001:00005340       ?cleanUp@BMPattern@xercesc_2_2@@AAEXXZ 12006340 f i BMPattern.obj
 0001:00005370       ??0BMPattern@xercesc_2_2@@QAE@QBG_N@Z 12006370 f   BMPattern.obj
 0001:00005440       ??0BMPattern@xercesc_2_2@@QAE@QBGH_N@Z 12006440 f   BMPattern.obj
 0001:00005510       ??1BMPattern@xercesc_2_2@@QAE@XZ 12006510 f   BMPattern.obj
 0001:00005540       ?matches@BMPattern@xercesc_2_2@@QAEHQBGHH@Z 12006540 f   BMPattern.obj
 0001:000056e0       ?initialize@BMPattern@xercesc_2_2@@AAEXXZ 120066e0 f   BMPattern.obj
 0001:00005870       ?match@CharToken@xercesc_2_2@@QAE_NH@Z 12006870 f i CharToken.obj
 0001:00005890       ??0CharToken@xercesc_2_2@@QAE@GH@Z 12006890 f   CharToken.obj
 0001:000058b0       ??_ECharToken@xercesc_2_2@@UAEPAXI@Z 120068b0 f i CharToken.obj
 0001:00005910       ??1CharToken@xercesc_2_2@@UAE@XZ 12006910 f   CharToken.obj
 0001:00005920       ?getChild@ClosureToken@xercesc_2_2@@UBEPAVToken@2@H@Z 12006920 f i ClosureToken.obj
 0001:00005920       ?getChild@ModifierToken@xercesc_2_2@@UBEPAVToken@2@H@Z 12006920 f i ClosureToken.obj
 0001:00005930       ??0ClosureToken@xercesc_2_2@@QAE@GQAVToken@1@@Z 12006930 f   ClosureToken.obj
 0001:00005960       ??_EClosureToken@xercesc_2_2@@UAEPAXI@Z 12006960 f i ClosureToken.obj
 0001:000059c0       ??1ClosureToken@xercesc_2_2@@UAE@XZ 120069c0 f   ClosureToken.obj
 0001:000059d0       ?size@ConcatToken@xercesc_2_2@@UBEHXZ 120069d0 f i ConcatToken.obj
 0001:000059e0       ?getChild@ConcatToken@xercesc_2_2@@UBEPAVToken@2@H@Z 120069e0 f i ConcatToken.obj
 0001:00005a00       ??0ConcatToken@xercesc_2_2@@QAE@QAVToken@1@0@Z 12006a00 f   ConcatToken.obj
 0001:00005a30       ??_EConcatToken@xercesc_2_2@@UAEPAXI@Z 12006a30 f i ConcatToken.obj
 0001:00005a90       ??1ConcatToken@xercesc_2_2@@UAE@XZ 12006a90 f   ConcatToken.obj
 0001:00005aa0       ?size@ConditionToken@xercesc_2_2@@UBEHXZ 12006aa0 f i ConditionToken.obj
 0001:00005ab0       ?getChild@ConditionToken@xercesc_2_2@@UBEPAVToken@2@H@Z 12006ab0 f i ConditionToken.obj
 0001:00005b00       ??0ConditionToken@xercesc_2_2@@QAE@IQAVToken@1@00@Z 12006b00 f   ConditionToken.obj
 0001:00005b40       ??_EConditionToken@xercesc_2_2@@UAEPAXI@Z 12006b40 f i ConditionToken.obj
 0001:00005ba0       ??1ConditionToken@xercesc_2_2@@UAE@XZ 12006ba0 f   ConditionToken.obj
 0001:00005bb0       ?getNoGroups@Match@xercesc_2_2@@QBEHXZ 12006bb0 f i Match.obj
 0001:00005bf0       ?getStartPos@Match@xercesc_2_2@@QBEHH@Z 12006bf0 f i Match.obj
 0001:00005c60       ?getEndPos@Match@xercesc_2_2@@QBEHH@Z 12006c60 f i Match.obj
 0001:00005cd0       ?setStartPos@Match@xercesc_2_2@@QAEXHH@Z 12006cd0 f i Match.obj
 0001:00005d40       ?setEndPos@Match@xercesc_2_2@@QAEXHH@Z 12006d40 f i Match.obj
 0001:00005db0       ??0Match@xercesc_2_2@@QAE@XZ 12006db0 f   Match.obj
 0001:00005dd0       ??_EMatch@xercesc_2_2@@UAEPAXI@Z 12006dd0 f i Match.obj
 0001:00005e40       ??0Match@xercesc_2_2@@QAE@ABV01@@Z 12006e40 f   Match.obj
 0001:000060c0       ??4Match@xercesc_2_2@@QAEAAV01@ABV01@@Z 120070c0 f   Match.obj
 0001:00006330       ??1Match@xercesc_2_2@@UAE@XZ 12007330 f   Match.obj
 0001:00006360       ?setNoGroups@Match@xercesc_2_2@@QAEXH@Z 12007360 f   Match.obj
 0001:000063f0       ?initialize@Match@xercesc_2_2@@AAEXABV12@@Z 120073f0 f   Match.obj
 0001:00006660       ?cleanUp@Match@xercesc_2_2@@AAEXXZ 12007660 f   Match.obj
 0001:00006690       ??0ModifierToken@xercesc_2_2@@QAE@QAVToken@1@HH@Z 12007690 f   ModifierToken.obj
 0001:000066c0       ??_EModifierToken@xercesc_2_2@@UAEPAXI@Z 120076c0 f i ModifierToken.obj
 0001:00006720       ??1ModifierToken@xercesc_2_2@@UAE@XZ 12007720 f   ModifierToken.obj
 0001:00006730       ??1ChildOp@xercesc_2_2@@UAE@XZ 12007730 f i Op.obj
 0001:00006730       ??1CharOp@xercesc_2_2@@UAE@XZ 12007730 f i Op.obj
 0001:00006730       ??1ConditionOp@xercesc_2_2@@UAE@XZ 12007730 f i Op.obj
 0001:00006730       ??1RangeOp@xercesc_2_2@@UAE@XZ 12007730 f i Op.obj
 0001:00006730       ??1Op@xercesc_2_2@@UAE@XZ  12007730 f i Op.obj
 0001:00006730       ??1ModifierOp@xercesc_2_2@@UAE@XZ 12007730 f i Op.obj
 0001:00006740       ??0Op@xercesc_2_2@@AAE@ABV01@@Z 12007740 f i Op.obj
 0001:00006770       ??4Op@xercesc_2_2@@AAEXABV01@@Z 12007770 f i Op.obj
 0001:000067a0       ??_EOp@xercesc_2_2@@UAEPAXI@Z 120077a0 f i Op.obj
 0001:00006800       ??1UnionOp@xercesc_2_2@@UAE@XZ 12007800 f i Op.obj
 0001:00006850       ??_EUnionOp@xercesc_2_2@@UAEPAXI@Z 12007850 f i Op.obj
 0001:000068b0       ??_EModifierOp@xercesc_2_2@@UAEPAXI@Z 120078b0 f i Op.obj
 0001:00006910       ??_ECharOp@xercesc_2_2@@UAEPAXI@Z 12007910 f i Op.obj
 0001:00006910       ??_EChildOp@xercesc_2_2@@UAEPAXI@Z 12007910 f i Op.obj
 0001:00006910       ??_ERangeOp@xercesc_2_2@@UAEPAXI@Z 12007910 f i Op.obj
 0001:00006970       ??1StringOp@xercesc_2_2@@UAE@XZ 12007970 f i Op.obj
 0001:000069c0       ??_EStringOp@xercesc_2_2@@UAEPAXI@Z 120079c0 f i Op.obj
 0001:00006a20       ??_EConditionOp@xercesc_2_2@@UAEPAXI@Z 12007a20 f i Op.obj
 0001:00006a80       ??0Op@xercesc_2_2@@IAE@F@Z 12007a80 f   Op.obj
 0001:00006aa0       ?getSize@Op@xercesc_2_2@@UBEHXZ 12007aa0 f   Op.obj
 0001:00006ad0       ?getData@Op@xercesc_2_2@@UBEHXZ 12007ad0 f   Op.obj
 0001:00006b00       ?getData2@Op@xercesc_2_2@@UBEHXZ 12007b00 f   Op.obj
 0001:00006b30       ?getRefNo@Op@xercesc_2_2@@UBEHXZ 12007b30 f   Op.obj
 0001:00006b60       ?elementAt@Op@xercesc_2_2@@UBEPBV12@H@Z 12007b60 f   Op.obj
 0001:00006b90       ?getChild@Op@xercesc_2_2@@UBEPBV12@XZ 12007b90 f   Op.obj
 0001:00006bc0       ?getConditionFlow@Op@xercesc_2_2@@UBEPBV12@XZ 12007bc0 f   Op.obj
 0001:00006bf0       ?getYesFlow@Op@xercesc_2_2@@UBEPBV12@XZ 12007bf0 f   Op.obj
 0001:00006c20       ?getNoFlow@Op@xercesc_2_2@@UBEPBV12@XZ 12007c20 f   Op.obj
 0001:00006c50       ?getLiteral@Op@xercesc_2_2@@UBEPBGXZ 12007c50 f   Op.obj
 0001:00006c80       ?getToken@Op@xercesc_2_2@@UBEPBVToken@2@XZ 12007c80 f   Op.obj
 0001:00006cb0       ??0CharOp@xercesc_2_2@@QAE@FH@Z 12007cb0 f   Op.obj
 0001:00006ce0       ??0UnionOp@xercesc_2_2@@QAE@FH@Z 12007ce0 f   Op.obj
 0001:00006da0       ?getSize@UnionOp@xercesc_2_2@@UBEHXZ 12007da0 f   Op.obj
 0001:00006db0       ?elementAt@UnionOp@xercesc_2_2@@UBEPBVOp@2@H@Z 12007db0 f   Op.obj
 0001:00006e00       ?addElement@UnionOp@xercesc_2_2@@QAEXQAVOp@2@@Z 12007e00 f   Op.obj
 0001:00006e90       ??0ChildOp@xercesc_2_2@@QAE@F@Z 12007e90 f   Op.obj
 0001:00006eb0       ?setChild@ChildOp@xercesc_2_2@@QAEXQBVOp@2@@Z 12007eb0 f   Op.obj
 0001:00006ec0       ??0ModifierOp@xercesc_2_2@@QAE@FHH@Z 12007ec0 f   Op.obj
 0001:00006ef0       ?getRoot@DOMTreeWalkerImpl@xercesc_2_2@@UAEPAVDOMNode@2@XZ 12007ef0 f   Op.obj
 0001:00006ef0       ?getConditionFlow@ConditionOp@xercesc_2_2@@UBEPBVOp@2@XZ 12007ef0 f   Op.obj
 0001:00006ef0       ?getFilter@NodeIteratorImpl@xercesc_2_2@@QAEPAVDOM_NodeFilter@2@XZ 12007ef0 f   Op.obj
 0001:00006ef0       ?getPublicId@DOMNotationImpl@xercesc_2_2@@UBEPBGXZ 12007ef0 f   Op.obj
 0001:00006ef0       ?getPublicId@SAXParseException@xercesc_2_2@@QBEPBGXZ 12007ef0 f   Op.obj
 0001:00006ef0       ?getData@ModifierOp@xercesc_2_2@@UBEHXZ 12007ef0 f   Op.obj
 0001:00006ef0       ?getErrorHandler@DOMWriterImpl@xercesc_2_2@@UBEPAVDOMErrorHandler@2@XZ 12007ef0 f   Op.obj
 0001:00006ef0       ?getFilter@DOMNodeIteratorImpl@xercesc_2_2@@UAEPAVDOMNodeFilter@2@XZ 12007ef0 f   Op.obj
 0001:00006f00       ?getChild@CMUnaryOp@xercesc_2_2@@QAEPAVCMNode@2@XZ 12007f00 f   Op.obj
 0001:00006f00       ?getYesFlow@ConditionOp@xercesc_2_2@@UBEPBVOp@2@XZ 12007f00 f   Op.obj
 0001:00006f00       ?getData2@ModifierOp@xercesc_2_2@@UBEHXZ 12007f00 f   Op.obj
 0001:00006f00       ?getLeft@CMBinaryOp@xercesc_2_2@@QAEPAVCMNode@2@XZ 12007f00 f   Op.obj
 0001:00006f00       ?getSystemId@SAXParseException@xercesc_2_2@@QBEPBGXZ 12007f00 f   Op.obj
 0001:00006f00       ?getURI@CMAny@xercesc_2_2@@QBEIXZ 12007f00 f   Op.obj
 0001:00006f00       ?getNextSibling@ChildNode@xercesc_2_2@@UAEPAVNodeImpl@2@XZ 12007f00 f   Op.obj
 0001:00006f00       ?getFilter@DOMWriterImpl@xercesc_2_2@@UBEPAVDOMWriterFilter@2@XZ 12007f00 f   Op.obj
 0001:00006f00       ?getAttributes@ElementDefinitionImpl@xercesc_2_2@@UAEPAVNamedNodeMapImpl@2@XZ 12007f00 f   Op.obj
 0001:00006f00       ?getEndOffset@RangeImpl@xercesc_2_2@@QBEIXZ 12007f00 f   Op.obj
 0001:00006f00       ?getSystemId@DOMNotationImpl@xercesc_2_2@@UBEPBGXZ 12007f00 f   Op.obj
 0001:00006f10       ??0RangeOp@xercesc_2_2@@QAE@FQBVToken@1@@Z 12007f10 f   Op.obj
 0001:00006f40       ??0StringOp@xercesc_2_2@@QAE@FQBG@Z 12007f40 f   Op.obj
 0001:00006fe0       ??0ConditionOp@xercesc_2_2@@QAE@FHQBVOp@1@00@Z 12007fe0 f   Op.obj
 0001:00007020       ?getSign@XMLAbstractDoubleFloat@xercesc_2_2@@UBEHXZ 12008020 f   Op.obj
 0001:00007020       ?getNoFlow@ConditionOp@xercesc_2_2@@UBEPBVOp@2@XZ 12008020 f   Op.obj
 0001:00007020       ?getDocument@ParentNode@xercesc_2_2@@UAEPAVDocumentImpl@2@XZ 12008020 f   Op.obj
 0001:00007020       ?getPosition@CMAny@xercesc_2_2@@QBEIXZ 12008020 f   Op.obj
 0001:00007020       ?getRight@CMBinaryOp@xercesc_2_2@@QAEPAVCMNode@2@XZ 12008020 f   Op.obj
 0001:00007020       ?getDocument@DOMRangeImpl@xercesc_2_2@@QAEPAVDOMDocument@2@XZ 12008020 f   Op.obj
 0001:00007020       ?getOwnerDocument@ParentNode@xercesc_2_2@@UAEPAVDocumentImpl@2@XZ 12008020 f   Op.obj
 0001:00007020       ?getBaseURI@DOMNotationImpl@xercesc_2_2@@UBEPBGXZ 12008020 f   Op.obj
 0001:00007030       ??_E?$RefVectorOf@VOp@xercesc_2_2@@@xercesc_2_2@@UAEPAXI@Z 12008030 f i Op.obj
 0001:00007030       ??_G?$RefVectorOf@VOp@xercesc_2_2@@@xercesc_2_2@@UAEPAXI@Z 12008030 f i Op.obj
 0001:00007050       ??1?$RefVectorOf@VOp@xercesc_2_2@@@xercesc_2_2@@UAE@XZ 12008050 f i Op.obj
 0001:000070d0       ??1?$BaseRefVectorOf@VOp@xercesc_2_2@@@xercesc_2_2@@UAE@XZ 120080d0 f i Op.obj
 0001:000070e0       ?reset@OpFactory@xercesc_2_2@@QAEXXZ 120080e0 f i OpFactory.obj
 0001:00007120       ??0OpFactory@xercesc_2_2@@QAE@XZ 12008120 f   OpFactory.obj
 0001:000071d0       ??1OpFactory@xercesc_2_2@@QAE@XZ 120081d0 f   OpFactory.obj
 0001:000071f0       ?createDotOp@OpFactory@xercesc_2_2@@QAEPAVOp@2@XZ 120081f0 f   OpFactory.obj
 0001:000072d0       ?createCharOp@OpFactory@xercesc_2_2@@QAEPAVCharOp@2@H@Z 120082d0 f   OpFactory.obj
 0001:000073b0       ?createAnchorOp@OpFactory@xercesc_2_2@@QAEPAVCharOp@2@H@Z 120083b0 f   OpFactory.obj
 0001:00007490       ?createCaptureOp@OpFactory@xercesc_2_2@@QAEPAVCharOp@2@HQBVOp@2@@Z 12008490 f   OpFactory.obj
 0001:00007580       ?createUnionOp@OpFactory@xercesc_2_2@@QAEPAVUnionOp@2@H@Z 12008580 f   OpFactory.obj
 0001:00007660       ?createClosureOp@OpFactory@xercesc_2_2@@QAEPAVChildOp@2@H@Z 12008660 f   OpFactory.obj
 0001:00007740       ?createNonGreedyClosureOp@OpFactory@xercesc_2_2@@QAEPAVChildOp@2@XZ 12008740 f   OpFactory.obj
 0001:00007820       ?createQuestionOp@OpFactory@xercesc_2_2@@QAEPAVChildOp@2@_N@Z 12008820 f   OpFactory.obj
 0001:00007910       ?createRangeOp@OpFactory@xercesc_2_2@@QAEPAVRangeOp@2@QBVToken@2@@Z 12008910 f   OpFactory.obj
 0001:000079f0       ?createLookOp@OpFactory@xercesc_2_2@@QAEPAVChildOp@2@FQBVOp@2@0@Z 120089f0 f   OpFactory.obj
 0001:00007af0       ?createBackReferenceOp@OpFactory@xercesc_2_2@@QAEPAVCharOp@2@H@Z 12008af0 f   OpFactory.obj
 0001:00007bd0       ?createStringOp@OpFactory@xercesc_2_2@@QAEPAVStringOp@2@QBG@Z 12008bd0 f   OpFactory.obj
 0001:00007cb0       ?createIndependentOp@OpFactory@xercesc_2_2@@QAEPAVChildOp@2@QBVOp@2@0@Z 12008cb0 f   OpFactory.obj
 0001:00007db0       ?createModifierOp@OpFactory@xercesc_2_2@@QAEPAVModifierOp@2@QBVOp@2@0HH@Z 12008db0 f   OpFactory.obj
 0001:00007e30       ?createConditionOp@OpFactory@xercesc_2_2@@QAEPAVConditionOp@2@QBVOp@2@H000@Z 12008e30 f   OpFactory.obj
 0001:00007eb0       ?getChild@ParenToken@xercesc_2_2@@UBEPAVToken@2@H@Z 12008eb0 f i ParenToken.obj
 0001:00007ec0       ??0ParenToken@xercesc_2_2@@QAE@GQAVToken@1@H@Z 12008ec0 f   ParenToken.obj
 0001:00007ef0       ??_EParenToken@xercesc_2_2@@UAEPAXI@Z 12008ef0 f i ParenToken.obj
 0001:00007f50       ??1ParenToken@xercesc_2_2@@UAE@XZ 12008f50 f   ParenToken.obj
 0001:00007f60       ?getParseContext@RegxParser@xercesc_2_2@@QBEGXZ 12008f60 f i ParserForXMLSchema.obj
 0001:00007f70       ?getState@RegxParser@xercesc_2_2@@QBEGXZ 12008f70 f i ParserForXMLSchema.obj
 0001:00007f80       ?setParseContext@RegxParser@xercesc_2_2@@QAEXG@Z 12008f80 f i ParserForXMLSchema.obj
 0001:00007f90       ?isSet@RegxParser@xercesc_2_2@@AAE_NH@Z 12008f90 f i ParserForXMLSchema.obj
 0001:00007fb0       ?hexChar@RegxParser@xercesc_2_2@@AAEHH@Z 12008fb0 f i ParserForXMLSchema.obj
 0001:00007ff0       ?size@UnionToken@xercesc_2_2@@UBEHXZ 12008ff0 f i ParserForXMLSchema.obj
 0001:00008000       ?getMatcherAt@XPathMatcherStack@xercesc_2_2@@QBEPAVXPathMatcher@2@I@Z 12009000 f i ParserForXMLSchema.obj
 0001:00008000       ?getChild@UnionToken@xercesc_2_2@@UBEPAVToken@2@H@Z 12009000 f i ParserForXMLSchema.obj
 0001:00008050       ??0ParseException@xercesc_2_2@@QAE@QBDIW4Codes@XMLExcepts@1@@Z 12009050 f i ParserForXMLSchema.obj
 0001:000080b0       ??0ParseException@xercesc_2_2@@QAE@ABV01@@Z 120090b0 f i ParserForXMLSchema.obj
 0001:000080d0       ??0ParseException@xercesc_2_2@@QAE@QBDIW4Codes@XMLExcepts@1@QBG222@Z 120090d0 f i ParserForXMLSchema.obj
 0001:00008140       ??0ParseException@xercesc_2_2@@QAE@QBDIW4Codes@XMLExcepts@1@0000@Z 12009140 f i ParserForXMLSchema.obj
 0001:000081b0       ??1ParseException@xercesc_2_2@@UAE@XZ 120091b0 f i ParserForXMLSchema.obj
 0001:000081c0       ??4IOException@xercesc_2_2@@QAEAAV01@ABV01@@Z 120091c0 f i ParserForXMLSchema.obj
 0001:000081c0       ??4SchemaDateTimeException@xercesc_2_2@@QAEAAV01@ABV01@@Z 120091c0 f i ParserForXMLSchema.obj
 0001:000081c0       ??4RuntimeException@xercesc_2_2@@QAEAAV01@ABV01@@Z 120091c0 f i ParserForXMLSchema.obj
 0001:000081c0       ??4UnsupportedEncodingException@xercesc_2_2@@QAEAAV01@ABV01@@Z 120091c0 f i ParserForXMLSchema.obj
 0001:000081c0       ??4EmptyStackException@xercesc_2_2@@QAEAAV01@ABV01@@Z 120091c0 f i ParserForXMLSchema.obj
 0001:000081c0       ??4InvalidCastException@xercesc_2_2@@QAEAAV01@ABV01@@Z 120091c0 f i ParserForXMLSchema.obj
 0001:000081c0       ??4XMLPlatformUtilsException@xercesc_2_2@@QAEAAV01@ABV01@@Z 120091c0 f i ParserForXMLSchema.obj
 0001:000081c0       ??4InvalidDatatypeFacetException@xercesc_2_2@@QAEAAV01@ABV01@@Z 120091c0 f i ParserForXMLSchema.obj
 0001:000081c0       ??4IllegalArgumentException@xercesc_2_2@@QAEAAV01@ABV01@@Z 120091c0 f i ParserForXMLSchema.obj
 0001:000081c0       ??4UnexpectedEOFException@xercesc_2_2@@QAEAAV01@ABV01@@Z 120091c0 f i ParserForXMLSchema.obj
 0001:000081c0       ??4XPathException@xercesc_2_2@@QAEAAV01@ABV01@@Z 120091c0 f i ParserForXMLSchema.obj
 0001:000081c0       ??4InvalidDatatypeValueException@xercesc_2_2@@QAEAAV01@ABV01@@Z 120091c0 f i ParserForXMLSchema.obj
 0001:000081c0       ??4NullPointerException@xercesc_2_2@@QAEAAV01@ABV01@@Z 120091c0 f i ParserForXMLSchema.obj
 0001:000081c0       ??4TranscodingException@xercesc_2_2@@QAEAAV01@ABV01@@Z 120091c0 f i ParserForXMLSchema.obj
 0001:000081c0       ??4ParseException@xercesc_2_2@@QAEAAV01@ABV01@@Z 120091c0 f i ParserForXMLSchema.obj
 0001:000081c0       ??4NoSuchElementException@xercesc_2_2@@QAEAAV01@ABV01@@Z 120091c0 f i ParserForXMLSchema.obj
 0001:000081c0       ??4NumberFormatException@xercesc_2_2@@QAEAAV01@ABV01@@Z 120091c0 f i ParserForXMLSchema.obj
 0001:000081c0       ??4ArrayIndexOutOfBoundsException@xercesc_2_2@@QAEAAV01@ABV01@@Z 120091c0 f i ParserForXMLSchema.obj
 0001:000081c0       ??4NetAccessorException@xercesc_2_2@@QAEAAV01@ABV01@@Z 120091c0 f i ParserForXMLSchema.obj
 0001:000081c0       ??4UTFDataFormatException@xercesc_2_2@@QAEAAV01@ABV01@@Z 120091c0 f i ParserForXMLSchema.obj
 0001:000081c0       ??4MalformedURLException@xercesc_2_2@@QAEAAV01@ABV01@@Z 120091c0 f i ParserForXMLSchema.obj
 0001:000081e0       ?duplicate@ParseException@xercesc_2_2@@UBEPAVXMLException@2@XZ 120091e0 f i ParserForXMLSchema.obj
 0001:00008240       ?getType@ParseException@xercesc_2_2@@UBEPBGXZ 12009240 f i ParserForXMLSchema.obj
 0001:00008250       ??_EParseException@xercesc_2_2@@UAEPAXI@Z 12009250 f i ParserForXMLSchema.obj
 0001:000082b0       ??0ParserForXMLSchema@xercesc_2_2@@QAE@XZ 120092b0 f   ParserForXMLSchema.obj
 0001:000082d0       ??_EParserForXMLSchema@xercesc_2_2@@UAEPAXI@Z 120092d0 f i ParserForXMLSchema.obj
 0001:00008330       ??1ParserForXMLSchema@xercesc_2_2@@UAE@XZ 12009330 f   ParserForXMLSchema.obj
 0001:00008340       ?processCaret@ParserForXMLSchema@xercesc_2_2@@MAEPAVToken@2@XZ 12009340 f   ParserForXMLSchema.obj
 0001:00008360       ?processDollar@ParserForXMLSchema@xercesc_2_2@@MAEPAVToken@2@XZ 12009360 f   ParserForXMLSchema.obj
 0001:00008380       ?processPlus@ParserForXMLSchema@xercesc_2_2@@MAEPAVToken@2@QAV32@@Z 12009380 f   ParserForXMLSchema.obj
 0001:000083b0       ?processStar@ParserForXMLSchema@xercesc_2_2@@MAEPAVToken@2@QAV32@@Z 120093b0 f   ParserForXMLSchema.obj
 0001:000083d0       ?processQuestion@ParserForXMLSchema@xercesc_2_2@@MAEPAVToken@2@QAV32@@Z 120093d0 f   ParserForXMLSchema.obj
 0001:00008410       ?processParen@ParserForXMLSchema@xercesc_2_2@@MAEPAVToken@2@XZ 12009410 f   ParserForXMLSchema.obj
 0001:00008470       ?parseCharacterClass@ParserForXMLSchema@xercesc_2_2@@MAEPAVRangeToken@2@_N@Z 12009470 f   ParserForXMLSchema.obj
 0001:000088c0       ?processCInCharacterClass@ParserForXMLSchema@xercesc_2_2@@MAEHQAVRangeToken@2@H@Z 120098c0 f   ParserForXMLSchema.obj
 0001:000088e0       ?processLook@ParserForXMLSchema@xercesc_2_2@@MAEPAVToken@2@G@Z 120098e0 f   ParserForXMLSchema.obj
 0001:00008910       ?processBacksolidus_A@ParserForXMLSchema@xercesc_2_2@@MAEPAVToken@2@XZ 12009910 f   ParserForXMLSchema.obj
 0001:00008940       ?processBacksolidus_B@ParserForXMLSchema@xercesc_2_2@@MAEPAVToken@2@XZ 12009940 f   ParserForXMLSchema.obj
 0001:00008970       ?processBacksolidus_b@ParserForXMLSchema@xercesc_2_2@@MAEPAVToken@2@XZ 12009970 f   ParserForXMLSchema.obj
 0001:000089a0       ?processBacksolidus_C@ParserForXMLSchema@xercesc_2_2@@MAEPAVToken@2@XZ 120099a0 f   ParserForXMLSchema.obj
 0001:000089c0       ?processBacksolidus_c@ParserForXMLSchema@xercesc_2_2@@MAEPAVToken@2@XZ 120099c0 f   ParserForXMLSchema.obj
 0001:000089e0       ?processBacksolidus_g@ParserForXMLSchema@xercesc_2_2@@MAEPAVToken@2@XZ 120099e0 f   ParserForXMLSchema.obj
 0001:00008a10       ?processBacksolidus_gt@ParserForXMLSchema@xercesc_2_2@@MAEPAVToken@2@XZ 12009a10 f   ParserForXMLSchema.obj
 0001:00008a40       ?processBacksolidus_I@ParserForXMLSchema@xercesc_2_2@@MAEPAVToken@2@XZ 12009a40 f   ParserForXMLSchema.obj
 0001:00008a60       ?processBacksolidus_i@ParserForXMLSchema@xercesc_2_2@@MAEPAVToken@2@XZ 12009a60 f   ParserForXMLSchema.obj
 0001:00008a80       ?processBacksolidus_lt@ParserForXMLSchema@xercesc_2_2@@MAEPAVToken@2@XZ 12009a80 f   ParserForXMLSchema.obj
 0001:00008ab0       ?processBacksolidus_X@ParserForXMLSchema@xercesc_2_2@@MAEPAVToken@2@XZ 12009ab0 f   ParserForXMLSchema.obj
 0001:00008ae0       ?processBacksolidus_Z@ParserForXMLSchema@xercesc_2_2@@MAEPAVToken@2@XZ 12009ae0 f   ParserForXMLSchema.obj
 0001:00008b10       ?processBacksolidus_z@ParserForXMLSchema@xercesc_2_2@@MAEPAVToken@2@XZ 12009b10 f   ParserForXMLSchema.obj
 0001:00008b40       ?processBackReference@ParserForXMLSchema@xercesc_2_2@@MAEPAVToken@2@XZ 12009b40 f   ParserForXMLSchema.obj
 0001:00008b70       ?processCondition@ParserForXMLSchema@xercesc_2_2@@MAEPAVToken@2@XZ 12009b70 f   ParserForXMLSchema.obj
 0001:00008ba0       ?processIndependent@ParserForXMLSchema@xercesc_2_2@@MAEPAVToken@2@XZ 12009ba0 f   ParserForXMLSchema.obj
 0001:00008bd0       ?processModifiers@ParserForXMLSchema@xercesc_2_2@@MAEPAVToken@2@XZ 12009bd0 f   ParserForXMLSchema.obj
 0001:00008c00       ?processParen2@ParserForXMLSchema@xercesc_2_2@@MAEPAVToken@2@XZ 12009c00 f   ParserForXMLSchema.obj
 0001:00008c30       ?parseSetOperations@ParserForXMLSchema@xercesc_2_2@@MAEPAVRangeToken@2@XZ 12009c30 f   ParserForXMLSchema.obj
 0001:00008c60       ?getTokenForShorthand@ParserForXMLSchema@xercesc_2_2@@MAEPAVToken@2@H@Z 12009c60 f   ParserForXMLSchema.obj
 0001:00008da0       ?checkQuestion@ParserForXMLSchema@xercesc_2_2@@MAE_NH@Z 12009da0 f   ParserForXMLSchema.obj
 0001:00008db0       ?decodeEscaped@ParserForXMLSchema@xercesc_2_2@@MAEHXZ 12009db0 f   ParserForXMLSchema.obj
 0001:00008ed0       ??0RangeFactory@xercesc_2_2@@IAE@XZ 12009ed0 f   RangeFactory.obj
 0001:00008ee0       ??_ERangeFactory@xercesc_2_2@@UAEPAXI@Z 12009ee0 f i RangeFactory.obj
 0001:00008f40       ??1RangeFactory@xercesc_2_2@@UAE@XZ 12009f40 f   RangeFactory.obj
 0001:00008f50       ??0RangeToken@xercesc_2_2@@QAE@G@Z 12009f50 f   RangeToken.obj
 0001:00008f90       ??_ERangeToken@xercesc_2_2@@UAEPAXI@Z 12009f90 f i RangeToken.obj
 0001:00008ff0       ??1RangeToken@xercesc_2_2@@UAE@XZ 12009ff0 f   RangeToken.obj
 0001:00009050       ?getCaseInsensitiveToken@RangeToken@xercesc_2_2@@QAEPAV12@QAVTokenFactory@2@@Z 1200a050 f   RangeToken.obj
 0001:00009090       ?setRangeValues@RangeToken@xercesc_2_2@@QAEXQAHI@Z 1200a090 f   RangeToken.obj
 0001:000090e0       ?addRange@RangeToken@xercesc_2_2@@UAEXHH@Z 1200a0e0 f   RangeToken.obj
 0001:00009210       ?sortRanges@RangeToken@xercesc_2_2@@UAEXXZ 1200a210 f   RangeToken.obj
 0001:000092c0       ?compactRanges@RangeToken@xercesc_2_2@@UAEXXZ 1200a2c0 f   RangeToken.obj
 0001:000093a0       ?mergeRanges@RangeToken@xercesc_2_2@@UAEXQBVToken@2@@Z 1200a3a0 f   RangeToken.obj
 0001:00009580       ?subtractRanges@RangeToken@xercesc_2_2@@UAEXQAV12@@Z 1200a580 f   RangeToken.obj
 0001:00009720       ?intersectRanges@RangeToken@xercesc_2_2@@UAEXQAV12@@Z 1200a720 f   RangeToken.obj
 0001:00009880       ?complementRanges@RangeToken@xercesc_2_2@@SAPAVToken@2@QAV12@QAVTokenFactory@2@@Z 1200a880 f   RangeToken.obj
 0001:00009950       ?match@RangeToken@xercesc_2_2@@QAE_NH@Z 1200a950 f   RangeToken.obj
 0001:00009a50       ?expand@RangeToken@xercesc_2_2@@AAEXI@Z 1200aa50 f   RangeToken.obj
 0001:00009ae0       ?createMap@RangeToken@xercesc_2_2@@AAEXXZ 1200aae0 f   RangeToken.obj
 0001:00009b80       ??0RangeTokenElemMap@xercesc_2_2@@QAE@I@Z 1200ab80 f   RangeTokenMap.obj
 0001:00009ba0       ??0RangeTokenMap@xercesc_2_2@@IAE@XZ 1200aba0 f   RangeTokenMap.obj
 0001:00009bd0       ??_ERangeTokenMap@xercesc_2_2@@UAEPAXI@Z 1200abd0 f i RangeTokenMap.obj
 0001:00009c30       ??1RangeTokenMap@xercesc_2_2@@UAE@XZ 1200ac30 f   RangeTokenMap.obj
 0001:00009db0       ?getRange@RangeTokenMap@xercesc_2_2@@IAEPAVRangeToken@2@QBG_N@Z 1200adb0 f   RangeTokenMap.obj
 0001:00009f30       ?addCategory@RangeTokenMap@xercesc_2_2@@QAEXQBG@Z 1200af30 f   RangeTokenMap.obj
 0001:00009f50       ?addRangeMap@RangeTokenMap@xercesc_2_2@@QAEXQBGQAVRangeFactory@2@@Z 1200af50 f   RangeTokenMap.obj
 0001:00009f70       ?addKeywordMap@RangeTokenMap@xercesc_2_2@@QAEXQBG0@Z 1200af70 f   RangeTokenMap.obj
 0001:0000a190       ?setRangeToken@RangeTokenMap@xercesc_2_2@@QAEXQBGQAVRangeToken@2@_N@Z 1200b190 f   RangeTokenMap.obj
 0001:0000a2d0       ?initializeRegistry@RangeTokenMap@xercesc_2_2@@AAEXXZ 1200b2d0 f   RangeTokenMap.obj
 0001:0000a480       ?instance@RangeTokenMap@xercesc_2_2@@SAPAV12@XZ 1200b480 f   RangeTokenMap.obj
 0001:0000a5b0       ?reinitInstance@RangeTokenMap@xercesc_2_2@@SAXXZ 1200b5b0 f   RangeTokenMap.obj
 0001:0000a5d0       ?put@?$RefHashTableOf@VRangeFactory@xercesc_2_2@@@xercesc_2_2@@QAEXPAXQAVRangeFactory@2@@Z 1200b5d0 f i RangeTokenMap.obj
 0001:0000a6d0       ??4Context@RegularExpression@xercesc_2_2@@QAEAAV012@ABV012@@Z 1200b6d0 f i RegularExpression.obj
 0001:0000a6f0       ?cleanUp@RegularExpression@xercesc_2_2@@AAEXXZ 1200b6f0 f i RegularExpression.obj
 0001:0000a780       ?compileLook@RegularExpression@xercesc_2_2@@AAEPAVOp@2@QBVToken@2@QBV32@_NG@Z 1200b780 f i RegularExpression.obj
 0001:0000a870       ?compileSingle@RegularExpression@xercesc_2_2@@AAEPAVOp@2@QBVToken@2@QAV32@G@Z 1200b870 f i RegularExpression.obj
 0001:0000a950       ?compileUnion@RegularExpression@xercesc_2_2@@AAEPAVOp@2@QBVToken@2@QAV32@_N@Z 1200b950 f i RegularExpression.obj
 0001:0000a9b0       ?compileCondition@RegularExpression@xercesc_2_2@@AAEPAVOp@2@QBVToken@2@QAV32@_N@Z 1200b9b0 f i RegularExpression.obj
 0001:0000aa50       ?compileParenthesis@RegularExpression@xercesc_2_2@@AAEPAVOp@2@QBVToken@2@QAV32@_N@Z 1200ba50 f i RegularExpression.obj
 0001:0000ab20       ?compileConcat@RegularExpression@xercesc_2_2@@AAEPAVOp@2@QBVToken@2@QAV32@_N@Z 1200bb20 f i RegularExpression.obj
 0001:0000aba0       ?compileClosure@RegularExpression@xercesc_2_2@@AAEPAVOp@2@QBVToken@2@QAV32@_NG@Z 1200bba0 f i RegularExpression.obj
 0001:0000acd0       ?matchUnion@RegularExpression@xercesc_2_2@@AAEHQAVContext@12@QBVOp@2@HF@Z 1200bcd0 f i RegularExpression.obj
 0001:0000ad30       ?matchModifier@RegularExpression@xercesc_2_2@@AAEHQAVContext@12@QBVOp@2@HF@Z 1200bd30 f i RegularExpression.obj
 0001:0000ad80       ?getWordType@RegularExpression@xercesc_2_2@@AAEGQBGHHH@Z 1200bd80 f i RegularExpression.obj
 0001:0000adb0       ?getPreviousWordType@RegularExpression@xercesc_2_2@@AAEGQBGHHH@Z 1200bdb0 f i RegularExpression.obj
 0001:0000ae20       ?matchIgnoreCase@RegularExpression@xercesc_2_2@@AAE_NHH@Z 1200be20 f i RegularExpression.obj
 0001:0000ae40       ?isEOLChar@RegxUtil@xercesc_2_2@@SA_NG@Z 1200be40 f i RegularExpression.obj
 0001:0000ae70       ?composeFromSurrogate@RegxUtil@xercesc_2_2@@SAHGG@Z 1200be70 f i RegularExpression.obj
 0001:0000ae90       ?isLowSurrogate@RegxUtil@xercesc_2_2@@SA_NG@Z 1200be90 f i RegularExpression.obj
 0001:0000aeb0       ?isHighSurrogate@RegxUtil@xercesc_2_2@@SA_NG@Z 1200beb0 f i RegularExpression.obj
 0001:0000aed0       ?isWordChar@RegxUtil@xercesc_2_2@@SA_NG@Z 1200bed0 f i RegularExpression.obj
 0001:0000af10       ??0XMLBuffer@xercesc_2_2@@QAE@H@Z 1200bf10 f i RegularExpression.obj
 0001:0000af50       ??1XMLBuffer@xercesc_2_2@@QAE@XZ 1200bf50 f i RegularExpression.obj
 0001:0000af60       ?append@XMLBuffer@xercesc_2_2@@QAEXG@Z 1200bf60 f i RegularExpression.obj
 0001:0000af90       ?getRawBuffer@XMLBuffer@xercesc_2_2@@QAEPAGXZ 1200bf90 f i RegularExpression.obj
 0001:0000af90       ?getRawBuffer@XMLBuffer@xercesc_2_2@@QBEPBGXZ 1200bf90 f i RegularExpression.obj
 0001:0000afa0       ?reset@XMLBuffer@xercesc_2_2@@QAEXXZ 1200bfa0 f i RegularExpression.obj
 0001:0000afb0       ?hasDefaults@DOMAttrMapImpl@xercesc_2_2@@UAE_NXZ 1200bfb0 f i RegularExpression.obj
 0001:0000afb0       ?getInUse@XMLBuffer@xercesc_2_2@@QBE_NXZ 1200bfb0 f i RegularExpression.obj
 0001:0000afb0       ?getDoValidation@XMLScanner@xercesc_2_2@@QBE_NXZ 1200bfb0 f i RegularExpression.obj
 0001:0000afc0       ?isEmpty@XMLBuffer@xercesc_2_2@@QBE_NXZ 1200bfc0 f i RegularExpression.obj
 0001:0000afd0       ?hasDefaults@DOMAttrMapImpl@xercesc_2_2@@UAEX_N@Z 1200bfd0 f i RegularExpression.obj
 0001:0000afd0       ?setInUse@XMLBuffer@xercesc_2_2@@QAEX_N@Z 1200bfd0 f i RegularExpression.obj
 0001:0000afe0       ??4KVStringPair@xercesc_2_2@@QAEAAV01@ABV01@@Z 1200bfe0 f i RegularExpression.obj
 0001:0000afe0       ??4XMLBuffer@xercesc_2_2@@QAEAAV01@ABV01@@Z 1200bfe0 f i RegularExpression.obj
 0001:0000b010       ??_FXMLBuffer@xercesc_2_2@@QAEXXZ 1200c010 f i RegularExpression.obj
 0001:0000b050       ??0Context@RegularExpression@xercesc_2_2@@QAE@XZ 1200c050 f   RegularExpression.obj
 0001:0000b070       ??1Context@RegularExpression@xercesc_2_2@@QAE@XZ 1200c070 f   RegularExpression.obj
 0001:0000b0a0       ?reset@Context@RegularExpression@xercesc_2_2@@QAEXQBGHHH@Z 1200c0a0 f   RegularExpression.obj
 0001:0000b180       ?nextCh@Context@RegularExpression@xercesc_2_2@@QAE_NAAH0F@Z 1200c180 f   RegularExpression.obj
 0001:0000b260       ??0RegularExpression@xercesc_2_2@@QAE@QBD@Z 1200c260 f   RegularExpression.obj
 0001:0000b390       ??0RegularExpression@xercesc_2_2@@QAE@QBD0@Z 1200c390 f   RegularExpression.obj
 0001:0000b4e0       ??0RegularExpression@xercesc_2_2@@QAE@QBG@Z 1200c4e0 f   RegularExpression.obj
 0001:0000b5f0       ??0RegularExpression@xercesc_2_2@@QAE@QBG0@Z 1200c5f0 f   RegularExpression.obj
 0001:0000b710       ??1RegularExpression@xercesc_2_2@@QAE@XZ 1200c710 f   RegularExpression.obj
 0001:0000b7e0       ?setPattern@RegularExpression@xercesc_2_2@@AAEXQBG0@Z 1200c7e0 f   RegularExpression.obj
 0001:0000b9d0       ?matches@RegularExpression@xercesc_2_2@@QAE_NQBD@Z 1200c9d0 f   RegularExpression.obj
 0001:0000ba60       ?matches@RegularExpression@xercesc_2_2@@QAE_NQBDHH@Z 1200ca60 f   RegularExpression.obj
 0001:0000bae0       ?matches@RegularExpression@xercesc_2_2@@QAE_NQBDQAVMatch@2@@Z 1200cae0 f   RegularExpression.obj
 0001:0000bb80       ?matches@RegularExpression@xercesc_2_2@@QAE_NQBDHHQAVMatch@2@@Z 1200cb80 f   RegularExpression.obj
 0001:0000bc00       ?matches@RegularExpression@xercesc_2_2@@QAE_NQBG@Z 1200cc00 f   RegularExpression.obj
 0001:0000bc50       ?matches@RegularExpression@xercesc_2_2@@QAE_NQBGHH@Z 1200cc50 f   RegularExpression.obj
 0001:0000bc70       ?matches@RegularExpression@xercesc_2_2@@QAE_NQBGQAVMatch@2@@Z 1200cc70 f   RegularExpression.obj
 0001:0000bcc0       ?matches@RegularExpression@xercesc_2_2@@QAE_NQBGHHQAVMatch@2@@Z 1200ccc0 f   RegularExpression.obj
 0001:0000c4a0       ?tokenize@RegularExpression@xercesc_2_2@@QAEPAV?$RefArrayVectorOf@G@2@QBD@Z 1200d4a0 f   RegularExpression.obj
 0001:0000c530       ?tokenize@RegularExpression@xercesc_2_2@@QAEPAV?$RefArrayVectorOf@G@2@QBDHH@Z 1200d530 f   RegularExpression.obj
 0001:0000c5a0       ?tokenize@RegularExpression@xercesc_2_2@@QAEPAV?$RefArrayVectorOf@G@2@QBG@Z 1200d5a0 f   RegularExpression.obj
 0001:0000c5f0       ?tokenize@RegularExpression@xercesc_2_2@@QAEPAV?$RefArrayVectorOf@G@2@QBGHH@Z 1200d5f0 f   RegularExpression.obj
 0001:0000c610       ?tokenize@RegularExpression@xercesc_2_2@@AAEPAV?$RefArrayVectorOf@G@2@QBGHHPAV?$RefVectorOf@VMatch@xercesc_2_2@@@2@@Z 1200d610 f   RegularExpression.obj
 0001:0000cd40       ?replace@RegularExpression@xercesc_2_2@@QAEPAGQBD0@Z 1200dd40 f   RegularExpression.obj
 0001:0000cdf0       ?replace@RegularExpression@xercesc_2_2@@QAEPAGQBD0HH@Z 1200ddf0 f   RegularExpression.obj
 0001:0000ce90       ?replace@RegularExpression@xercesc_2_2@@QAEPAGQBG0@Z 1200de90 f   RegularExpression.obj
 0001:0000cee0       ?replace@RegularExpression@xercesc_2_2@@QAEPAGQBG0HH@Z 1200dee0 f   RegularExpression.obj
 0001:0000d210       ?getOptionValue@RegularExpression@xercesc_2_2@@SAHG@Z 1200e210 f   RegularExpression.obj
 0001:0000d2f0       ?match@RegularExpression@xercesc_2_2@@AAEHQAVContext@12@QBVOp@2@HF@Z 1200e2f0 f   RegularExpression.obj
 0001:0000d9d0       ?matchChar@RegularExpression@xercesc_2_2@@AAE_NQAVContext@12@HAAHF_N@Z 1200e9d0 f   RegularExpression.obj
 0001:0000da80       ?matchDot@RegularExpression@xercesc_2_2@@AAE_NQAVContext@12@AAHF@Z 1200ea80 f   RegularExpression.obj
 0001:0000db30       ?matchRange@RegularExpression@xercesc_2_2@@AAE_NQAVContext@12@QBVOp@2@AAHF_N@Z 1200eb30 f   RegularExpression.obj
 0001:0000dbc0       ?matchAnchor@RegularExpression@xercesc_2_2@@AAE_NQAVContext@12@HH@Z 1200ebc0 f   RegularExpression.obj
 0001:0000e0e0       ?matchBackReference@RegularExpression@xercesc_2_2@@AAE_NQAVContext@12@HAAHF_N@Z 1200f0e0 f   RegularExpression.obj
 0001:0000e330       ?matchString@RegularExpression@xercesc_2_2@@AAE_NQAVContext@12@QBGAAHF_N@Z 1200f330 f   RegularExpression.obj
 0001:0000e3d0       ?matchCapture@RegularExpression@xercesc_2_2@@AAEHQAVContext@12@QBVOp@2@HF@Z 1200f3d0 f   RegularExpression.obj
 0001:0000e6a0       ?matchCondition@RegularExpression@xercesc_2_2@@AAE_NQAVContext@12@QBVOp@2@HF@Z 1200f6a0 f   RegularExpression.obj
 0001:0000e7d0       ?parseOptions@RegularExpression@xercesc_2_2@@AAEHQBG@Z 1200f7d0 f   RegularExpression.obj
 0001:0000e940       ?compile@RegularExpression@xercesc_2_2@@AAEXQBVToken@2@@Z 1200f940 f   RegularExpression.obj
 0001:0000e970       ?compile@RegularExpression@xercesc_2_2@@AAEPAVOp@2@QBVToken@2@QAV32@_N@Z 1200f970 f   RegularExpression.obj
 0001:0000ed30       ?subInExp@RegularExpression@xercesc_2_2@@AAEPBGQBG0PBVMatch@2@@Z 1200fd30 f   RegularExpression.obj
 0001:0000f100       ?prepare@RegularExpression@xercesc_2_2@@AAEXXZ 12010100 f   RegularExpression.obj
 0001:0000f410       ?getCharType@RegularExpression@xercesc_2_2@@AAEGG@Z 12010410 f   RegularExpression.obj
 0001:0000f560       ??1?$Janitor@VContext@RegularExpression@xercesc_2_2@@@xercesc_2_2@@QAE@XZ 12010560 f i RegularExpression.obj
 0001:0000f5b0       ??_G?$RefArrayVectorOf@G@xercesc_2_2@@UAEPAXI@Z 120105b0 f i RegularExpression.obj
 0001:0000f5b0       ??_E?$RefArrayVectorOf@G@xercesc_2_2@@UAEPAXI@Z 120105b0 f i RegularExpression.obj
 0001:0000f5d0       ??1?$RefArrayVectorOf@G@xercesc_2_2@@UAE@XZ 120105d0 f i RegularExpression.obj
 0001:0000f650       ??1?$BaseRefVectorOf@G@xercesc_2_2@@UAE@XZ 12010650 f i RegularExpression.obj
 0001:0000f660       ??_E?$RefVectorOf@VMatch@xercesc_2_2@@@xercesc_2_2@@UAEPAXI@Z 12010660 f i RegularExpression.obj
 0001:0000f660       ??_G?$RefVectorOf@VMatch@xercesc_2_2@@@xercesc_2_2@@UAEPAXI@Z 12010660 f i RegularExpression.obj
 0001:0000f680       ??1?$RefVectorOf@VMatch@xercesc_2_2@@@xercesc_2_2@@UAE@XZ 12010680 f i RegularExpression.obj
 0001:0000f700       ??1?$BaseRefVectorOf@VMatch@xercesc_2_2@@@xercesc_2_2@@UAE@XZ 12010700 f i RegularExpression.obj
 0001:0000f710       ?reset@?$ArrayJanitor@G@xercesc_2_2@@QAEXPAG@Z 12010710 f i RegularExpression.obj
 0001:0000f730       ??0?$BaseRefVectorOf@VMatch@xercesc_2_2@@@xercesc_2_2@@QAE@I_N@Z 12010730 f i RegularExpression.obj
 0001:0000f790       ??0RegxParser@xercesc_2_2@@QAE@XZ 12010790 f   RegxParser.obj
 0001:0000f7d0       ??_ERegxParser@xercesc_2_2@@UAEPAXI@Z 120107d0 f i RegxParser.obj
 0001:0000f830       ??1RegxParser@xercesc_2_2@@UAE@XZ 12010830 f   RegxParser.obj
 0001:0000f8a0       ?parse@RegxParser@xercesc_2_2@@QAEPAVToken@2@QBGH@Z 120108a0 f   RegxParser.obj
 0001:0000fb50       ?processNext@RegxParser@xercesc_2_2@@IAEXXZ 12010b50 f   RegxParser.obj
 0001:00010110       ?parseRegx@RegxParser@xercesc_2_2@@IAEPAVToken@2@XZ 12011110 f   RegxParser.obj
 0001:00010180       ?parseTerm@RegxParser@xercesc_2_2@@AAEPAVToken@2@XZ 12011180 f   RegxParser.obj
 0001:00010210       ?processCaret@RegxParser@xercesc_2_2@@MAEPAVToken@2@XZ 12011210 f   RegxParser.obj
 0001:00010230       ?processDollar@RegxParser@xercesc_2_2@@MAEPAVToken@2@XZ 12011230 f   RegxParser.obj
 0001:00010250       ?processLook@RegxParser@xercesc_2_2@@MAEPAVToken@2@G@Z 12011250 f   RegxParser.obj
 0001:00010300       ?processBacksolidus_A@RegxParser@xercesc_2_2@@MAEPAVToken@2@XZ 12011300 f   RegxParser.obj
 0001:00010320       ?processBacksolidus_Z@RegxParser@xercesc_2_2@@MAEPAVToken@2@XZ 12011320 f   RegxParser.obj
 0001:00010340       ?processBacksolidus_z@RegxParser@xercesc_2_2@@MAEPAVToken@2@XZ 12011340 f   RegxParser.obj
 0001:00010360       ?processBacksolidus_b@RegxParser@xercesc_2_2@@MAEPAVToken@2@XZ 12011360 f   RegxParser.obj
 0001:00010380       ?processBacksolidus_B@RegxParser@xercesc_2_2@@MAEPAVToken@2@XZ 12011380 f   RegxParser.obj
 0001:000103a0       ?processBacksolidus_lt@RegxParser@xercesc_2_2@@MAEPAVToken@2@XZ 120113a0 f   RegxParser.obj
 0001:000103c0       ?processBacksolidus_gt@RegxParser@xercesc_2_2@@MAEPAVToken@2@XZ 120113c0 f   RegxParser.obj
 0001:000103e0       ?processStar@RegxParser@xercesc_2_2@@MAEPAVToken@2@QAV32@@Z 120113e0 f   RegxParser.obj
 0001:00010420       ?processPlus@RegxParser@xercesc_2_2@@MAEPAVToken@2@QAV32@@Z 12011420 f   RegxParser.obj
 0001:00010460       ?processQuestion@RegxParser@xercesc_2_2@@MAEPAVToken@2@QAV32@@Z 12011460 f   RegxParser.obj
 0001:000104e0       ?processParen@RegxParser@xercesc_2_2@@MAEPAVToken@2@XZ 120114e0 f   RegxParser.obj
 0001:000105a0       ?processParen2@RegxParser@xercesc_2_2@@MAEPAVToken@2@XZ 120115a0 f   RegxParser.obj
 0001:00010650       ?processCondition@RegxParser@xercesc_2_2@@MAEPAVToken@2@XZ 12011650 f   RegxParser.obj
 0001:000109e0       ?processModifiers@RegxParser@xercesc_2_2@@MAEPAVToken@2@XZ 120119e0 f   RegxParser.obj
 0001:00010c30       ?processIndependent@RegxParser@xercesc_2_2@@MAEPAVToken@2@XZ 12011c30 f   RegxParser.obj
 0001:00010ce0       ?processBacksolidus_c@RegxParser@xercesc_2_2@@MAEPAVToken@2@XZ 12011ce0 f   RegxParser.obj
 0001:00010d50       ?processBacksolidus_i@RegxParser@xercesc_2_2@@MAEPAVToken@2@XZ 12011d50 f   RegxParser.obj
 0001:00010d70       ?processBacksolidus_g@RegxParser@xercesc_2_2@@MAEPAVToken@2@XZ 12011d70 f   RegxParser.obj
 0001:00010d90       ?processBacksolidus_X@RegxParser@xercesc_2_2@@MAEPAVToken@2@XZ 12011d90 f   RegxParser.obj
 0001:00010db0       ?processBackReference@RegxParser@xercesc_2_2@@MAEPAVToken@2@XZ 12011db0 f   RegxParser.obj
 0001:00010f10       ?parseFactor@RegxParser@xercesc_2_2@@AAEPAVToken@2@XZ 12011f10 f   RegxParser.obj
 0001:00011370       ?parseAtom@RegxParser@xercesc_2_2@@AAEPAVToken@2@XZ 12012370 f   RegxParser.obj
 0001:00011730       ?processBacksolidus_pP@RegxParser@xercesc_2_2@@IAEPAVRangeToken@2@H@Z 12012730 f   RegxParser.obj
 0001:00011a00       ?processCInCharacterClass@RegxParser@xercesc_2_2@@MAEHQAVRangeToken@2@H@Z 12012a00 f   RegxParser.obj
 0001:00011a10       ?parseCharacterClass@RegxParser@xercesc_2_2@@MAEPAVRangeToken@2@_N@Z 12012a10 f   RegxParser.obj
 0001:00011f30       ?parseSetOperations@RegxParser@xercesc_2_2@@MAEPAVRangeToken@2@XZ 12012f30 f   RegxParser.obj
 0001:00012030       ?getTokenForShorthand@RegxParser@xercesc_2_2@@MAEPAVToken@2@H@Z 12013030 f   RegxParser.obj
 0001:00012160       ?decodeEscaped@RegxParser@xercesc_2_2@@MAEHXZ 12013160 f   RegxParser.obj
 0001:000125e0       ?checkQuestion@RegxParser@xercesc_2_2@@MAE_NH@Z 120135e0 f   RegxParser.obj
 0001:00012600       ??_E?$RefVectorOf@VReferencePosition@RegxParser@xercesc_2_2@@@xercesc_2_2@@UAEPAXI@Z 12013600 f i RegxParser.obj
 0001:00012600       ??_G?$RefVectorOf@VReferencePosition@RegxParser@xercesc_2_2@@@xercesc_2_2@@UAEPAXI@Z 12013600 f i RegxParser.obj
 0001:00012620       ??1?$RefVectorOf@VReferencePosition@RegxParser@xercesc_2_2@@@xercesc_2_2@@UAE@XZ 12013620 f i RegxParser.obj
 0001:000126a0       ??1?$BaseRefVectorOf@VReferencePosition@RegxParser@xercesc_2_2@@@xercesc_2_2@@UAE@XZ 120136a0 f i RegxParser.obj
 0001:000126b0       ??0?$BaseRefVectorOf@VReferencePosition@RegxParser@xercesc_2_2@@@xercesc_2_2@@QAE@I_N@Z 120136b0 f i RegxParser.obj
 0001:00012710       ?decomposeToSurrogates@RegxUtil@xercesc_2_2@@SAPAGH@Z 12013710 f   RegxUtil.obj
 0001:00012750       ?stripExtendedComment@RegxUtil@xercesc_2_2@@SAPAGQBG@Z 12013750 f   RegxUtil.obj
 0001:00012990       ??0StringToken@xercesc_2_2@@QAE@GQBGH@Z 12013990 f   StringToken.obj
 0001:00012a40       ??_EStringToken@xercesc_2_2@@UAEPAXI@Z 12013a40 f i StringToken.obj
 0001:00012aa0       ??1StringToken@xercesc_2_2@@UAE@XZ 12013aa0 f   StringToken.obj
 0001:00012b00       ??0Token@xercesc_2_2@@QAE@G@Z 12013b00 f   Token.obj
 0001:00012b20       ??_EToken@xercesc_2_2@@UAEPAXI@Z 12013b20 f i Token.obj
 0001:00012b80       ??1Token@xercesc_2_2@@UAE@XZ 12013b80 f   Token.obj
 0001:00012b90       ?getMinLength@Token@xercesc_2_2@@QBEHXZ 12013b90 f   Token.obj
 0001:00012d00       ?getMaxLength@Token@xercesc_2_2@@QBEHXZ 12013d00 f   Token.obj
 0001:00012ea0       ?analyzeFirstCharacter@Token@xercesc_2_2@@QAEHQAVRangeToken@2@HQAVTokenFactory@2@@Z 12013ea0 f   Token.obj
 0001:00013150       ?findFixedString@Token@xercesc_2_2@@QAEPAV12@HAAH@Z 12014150 f   Token.obj
 0001:000132e0       ?isShorterThan@Token@xercesc_2_2@@AAE_NQAV12@@Z 120142e0 f   Token.obj
 0001:00013380       ??0TokenFactory@xercesc_2_2@@QAE@XZ 12014380 f   TokenFactory.obj
 0001:00013450       ??1TokenFactory@xercesc_2_2@@QAE@XZ 12014450 f   TokenFactory.obj
 0001:000134b0       ?createToken@TokenFactory@xercesc_2_2@@QAEPAVToken@2@G@Z 120144b0 f   TokenFactory.obj
 0001:000135b0       ?createLook@TokenFactory@xercesc_2_2@@QAEPAVParenToken@2@GQAVToken@2@@Z 120145b0 f   TokenFactory.obj
 0001:000136a0       ?createParenthesis@TokenFactory@xercesc_2_2@@QAEPAVParenToken@2@QAVToken@2@H@Z 120146a0 f   TokenFactory.obj
 0001:00013790       ?createClosure@TokenFactory@xercesc_2_2@@QAEPAVClosureToken@2@QAVToken@2@_N@Z 12014790 f   TokenFactory.obj
 0001:000138b0       ?createConcat@TokenFactory@xercesc_2_2@@QAEPAVConcatToken@2@QAVToken@2@0@Z 120148b0 f   TokenFactory.obj
 0001:000139a0       ?createUnion@TokenFactory@xercesc_2_2@@QAEPAVUnionToken@2@_N@Z 120149a0 f   TokenFactory.obj
 0001:00013ab0       ?createRange@TokenFactory@xercesc_2_2@@QAEPAVRangeToken@2@_N@Z 12014ab0 f   TokenFactory.obj
 0001:00013bc0       ?createChar@TokenFactory@xercesc_2_2@@QAEPAVCharToken@2@I_N@Z 12014bc0 f   TokenFactory.obj
 0001:00013ce0       ?createBackReference@TokenFactory@xercesc_2_2@@QAEPAVStringToken@2@H@Z 12014ce0 f   TokenFactory.obj
 0001:00013dc0       ?createString@TokenFactory@xercesc_2_2@@QAEPAVStringToken@2@QBG@Z 12014dc0 f   TokenFactory.obj
 0001:00013ea0       ?createModifierGroup@TokenFactory@xercesc_2_2@@QAEPAVModifierToken@2@QAVToken@2@HH@Z 12014ea0 f   TokenFactory.obj
 0001:00013f90       ?createCondition@TokenFactory@xercesc_2_2@@QAEPAVConditionToken@2@HQAVToken@2@00@Z 12014f90 f   TokenFactory.obj
 0001:00014080       ?getRange@TokenFactory@xercesc_2_2@@QAEPAVRangeToken@2@QBG_N@Z 12015080 f   TokenFactory.obj
 0001:000140b0       ?getLineBegin@TokenFactory@xercesc_2_2@@QAEPAVToken@2@XZ 120150b0 f   TokenFactory.obj
 0001:000140d0       ?getLineBegin2@TokenFactory@xercesc_2_2@@QAEPAVToken@2@XZ 120150d0 f   TokenFactory.obj
 0001:000140f0       ?getLineEnd@TokenFactory@xercesc_2_2@@QAEPAVToken@2@XZ 120150f0 f   TokenFactory.obj
 0001:00014110       ?getStringBegin@TokenFactory@xercesc_2_2@@QAEPAVToken@2@XZ 12015110 f   TokenFactory.obj
 0001:00014130       ?getStringEnd@TokenFactory@xercesc_2_2@@QAEPAVToken@2@XZ 12015130 f   TokenFactory.obj
 0001:00014150       ?getStringEnd2@TokenFactory@xercesc_2_2@@QAEPAVToken@2@XZ 12015150 f   TokenFactory.obj
 0001:00014170       ?getWordEdge@TokenFactory@xercesc_2_2@@QAEPAVToken@2@XZ 12015170 f   TokenFactory.obj
 0001:00014190       ?getNotWordEdge@TokenFactory@xercesc_2_2@@QAEPAVToken@2@XZ 12015190 f   TokenFactory.obj
 0001:000141b0       ?getWordBegin@TokenFactory@xercesc_2_2@@QAEPAVToken@2@XZ 120151b0 f   TokenFactory.obj
 0001:000141d0       ?getWordEnd@TokenFactory@xercesc_2_2@@QAEPAVToken@2@XZ 120151d0 f   TokenFactory.obj
 0001:000141f0       ?getDot@TokenFactory@xercesc_2_2@@QAEPAVToken@2@XZ 120151f0 f   TokenFactory.obj
 0001:00014210       ?getCombiningCharacterSequence@TokenFactory@xercesc_2_2@@QAEPAVToken@2@XZ 12015210 f   TokenFactory.obj
 0001:00014280       ?getGraphemePattern@TokenFactory@xercesc_2_2@@QAEPAVToken@2@XZ 12015280 f   TokenFactory.obj
 0001:000144e0       ?initializeRegistry@TokenFactory@xercesc_2_2@@AAEXXZ 120154e0 f   TokenFactory.obj
 0001:000146c0       ??_G?$RefVectorOf@VToken@xercesc_2_2@@@xercesc_2_2@@UAEPAXI@Z 120156c0 f i TokenFactory.obj
 0001:000146c0       ??_E?$RefVectorOf@VToken@xercesc_2_2@@@xercesc_2_2@@UAEPAXI@Z 120156c0 f i TokenFactory.obj
 0001:000146e0       ??1?$RefVectorOf@VToken@xercesc_2_2@@@xercesc_2_2@@UAE@XZ 120156e0 f i TokenFactory.obj
 0001:00014760       ??1?$BaseRefVectorOf@VToken@xercesc_2_2@@@xercesc_2_2@@UAE@XZ 12015760 f i TokenFactory.obj
 0001:00014770       ??0UnicodeRangeFactory@xercesc_2_2@@QAE@XZ 12015770 f   UnicodeRangeFactory.obj
 0001:00014790       ??_EUnicodeRangeFactory@xercesc_2_2@@UAEPAXI@Z 12015790 f i UnicodeRangeFactory.obj
 0001:000147f0       ??1UnicodeRangeFactory@xercesc_2_2@@UAE@XZ 120157f0 f   UnicodeRangeFactory.obj
 0001:00014800       ?buildRanges@UnicodeRangeFactory@xercesc_2_2@@MAEXXZ 12015800 f   UnicodeRangeFactory.obj
 0001:00014a30       ?initializeKeywordMap@UnicodeRangeFactory@xercesc_2_2@@UAEXXZ 12015a30 f   UnicodeRangeFactory.obj
 0001:00014ad0       ?getUniCategory@UnicodeRangeFactory@xercesc_2_2@@AAEGG@Z 12015ad0 f   UnicodeRangeFactory.obj
 0001:00014b60       ??0UnionToken@xercesc_2_2@@QAE@G@Z 12015b60 f   UnionToken.obj
 0001:00014b80       ??_EUnionToken@xercesc_2_2@@UAEPAXI@Z 12015b80 f i UnionToken.obj
 0001:00014be0       ??1UnionToken@xercesc_2_2@@UAE@XZ 12015be0 f   UnionToken.obj
 0001:00014c40       ?addChild@UnionToken@xercesc_2_2@@UAEXQAVToken@2@QAVTokenFactory@2@@Z 12015c40 f   UnionToken.obj
 0001:00015000       ??0?$BaseRefVectorOf@VToken@xercesc_2_2@@@xercesc_2_2@@QAE@I_N@Z 12016000 f i UnionToken.obj
 0001:00015060       ??0XMLRangeFactory@xercesc_2_2@@QAE@XZ 12016060 f   XMLRangeFactory.obj
 0001:00015080       ??_EXMLRangeFactory@xercesc_2_2@@UAEPAXI@Z 12016080 f i XMLRangeFactory.obj
 0001:000150e0       ??1XMLRangeFactory@xercesc_2_2@@UAE@XZ 120160e0 f   XMLRangeFactory.obj
 0001:000150f0       ?buildRanges@XMLRangeFactory@xercesc_2_2@@MAEXXZ 120160f0 f   XMLRangeFactory.obj
 0001:000157e0       ?initializeKeywordMap@XMLRangeFactory@xercesc_2_2@@UAEXXZ 120167e0 f   XMLRangeFactory.obj
 0001:00015850       ?getType@XMLUniCharacter@xercesc_2_2@@SAGG@Z 12016850 f   XMLUniCharacter.obj
 0001:00015870       ?isPad@Base64@xercesc_2_2@@CA_NABE@Z 12016870 f i Base64.obj
 0001:00015890       ?set1stOctet@Base64@xercesc_2_2@@CAEABE0@Z 12016890 f i Base64.obj
 0001:000158b0       ?set2ndOctet@Base64@xercesc_2_2@@CAEABE0@Z 120168b0 f i Base64.obj
 0001:000158d0       ?set3rdOctet@Base64@xercesc_2_2@@CAEABE0@Z 120168d0 f i Base64.obj
 0001:000158f0       ?split1stOctet@Base64@xercesc_2_2@@CAXABEAAE1@Z 120168f0 f i Base64.obj
 0001:00015910       ?split2ndOctet@Base64@xercesc_2_2@@CAXABEAAE1@Z 12016910 f i Base64.obj
 0001:00015940       ?split3rdOctet@Base64@xercesc_2_2@@CAXABEAAE1@Z 12016940 f i Base64.obj
 0001:00015960       ?isXMLLetter@XMLChar1_0@xercesc_2_2@@SA_NGG@Z 12016960 f i Base64.obj
 0001:00015980       ?isFirstNameChar@XMLChar1_0@xercesc_2_2@@SA_NGG@Z 12016980 f i Base64.obj
 0001:000159b0       ?isNameChar@XMLChar1_0@xercesc_2_2@@SA_NGG@Z 120169b0 f i Base64.obj
 0001:000159e0       ?isPlainContentChar@XMLChar1_0@xercesc_2_2@@SA_NGG@Z 120169e0 f i Base64.obj
 0001:00015a30       ?isSpecialStartTagChar@XMLChar1_0@xercesc_2_2@@SA_NGG@Z 12016a30 f i Base64.obj
 0001:00015a60       ?isXMLChar@XMLChar1_0@xercesc_2_2@@SA_NGG@Z 12016a60 f i Base64.obj
 0001:00015ab0       ?isWhitespace@XMLChar1_0@xercesc_2_2@@SA_NGG@Z 12016ab0 f i Base64.obj
 0001:00015ae0       ?isControlChar@XMLChar1_0@xercesc_2_2@@SA_NGG@Z 12016ae0 f i Base64.obj
 0001:00015b10       ?isNELRecognized@XMLChar1_0@xercesc_2_2@@SA_NXZ 12016b10 f i Base64.obj
 0001:00015b20       ?isXMLLetter@XMLChar1_1@xercesc_2_2@@SA_NGG@Z 12016b20 f i Base64.obj
 0001:00015b40       ?isFirstNameChar@XMLChar1_1@xercesc_2_2@@SA_NGG@Z 12016b40 f i Base64.obj
 0001:00015b90       ?isNameChar@XMLChar1_1@xercesc_2_2@@SA_NGG@Z 12016b90 f i Base64.obj
 0001:00015be0       ?isPlainContentChar@XMLChar1_1@xercesc_2_2@@SA_NGG@Z 12016be0 f i Base64.obj
 0001:00015c30       ?isSpecialStartTagChar@XMLChar1_1@xercesc_2_2@@SA_NGG@Z 12016c30 f i Base64.obj
 0001:00015c60       ?isXMLChar@XMLChar1_1@xercesc_2_2@@SA_NGG@Z 12016c60 f i Base64.obj
 0001:00015cb0       ?isWhitespace@XMLChar1_1@xercesc_2_2@@SA_NGG@Z 12016cb0 f i Base64.obj
 0001:00015ce0       ?isControlChar@XMLChar1_1@xercesc_2_2@@SA_NGG@Z 12016ce0 f i Base64.obj
 0001:00015d10       ??4XMLReader@xercesc_2_2@@QAEAAV01@ABV01@@Z 12016d10 f i Base64.obj
 0001:00015d30       ?isNameChar@XMLReader@xercesc_2_2@@QAE_NG@Z 12016d30 f i Base64.obj
 0001:00015d50       ?isPlainContentChar@XMLReader@xercesc_2_2@@QAE_NG@Z 12016d50 f i Base64.obj
 0001:00015d70       ?isFirstNameChar@XMLReader@xercesc_2_2@@QAE_NG@Z 12016d70 f i Base64.obj
 0001:00015d90       ?isSpecialStartTagChar@XMLReader@xercesc_2_2@@QAE_NG@Z 12016d90 f i Base64.obj
 0001:00015db0       ?isXMLChar@XMLReader@xercesc_2_2@@QAE_NG@Z 12016db0 f i Base64.obj
 0001:00015dd0       ?isXMLLetter@XMLReader@xercesc_2_2@@QAE_NG@Z 12016dd0 f i Base64.obj
 0001:00015df0       ?isWhitespace@XMLReader@xercesc_2_2@@QAE_NG@Z 12016df0 f i Base64.obj
 0001:00015e10       ?isControlChar@XMLReader@xercesc_2_2@@QAE_NG@Z 12016e10 f i Base64.obj
 0001:00015e30       ?charsLeftInBuffer@XMLReader@xercesc_2_2@@QBEKXZ 12016e30 f i Base64.obj
 0001:00015e40       ?getColumnNumber@XMLReader@xercesc_2_2@@QBEJXZ 12016e40 f i Base64.obj
 0001:00015e50       ?getEncodingStr@XMLReader@xercesc_2_2@@QBEPBGXZ 12016e50 f i Base64.obj
 0001:00015e60       ?getLineNumber@XMLReader@xercesc_2_2@@QBEJXZ 12016e60 f i Base64.obj
 0001:00015e70       ?getNoMoreFlag@XMLReader@xercesc_2_2@@QBE_NXZ 12016e70 f i Base64.obj
 0001:00015e80       ?getPublicId@XMLReader@xercesc_2_2@@QBEPBGXZ 12016e80 f i Base64.obj
 0001:00015e90       ?getReaderNum@XMLReader@xercesc_2_2@@QBEIXZ 12016e90 f i Base64.obj
 0001:00015ea0       ?getRefFrom@XMLReader@xercesc_2_2@@QBE?AW4RefFrom@12@XZ 12016ea0 f i Base64.obj
 0001:00015eb0       ?getSource@XMLReader@xercesc_2_2@@QBE?AW4Sources@12@XZ 12016eb0 f i Base64.obj
 0001:00015ec0       ?getSystemId@XMLReader@xercesc_2_2@@QBEPBGXZ 12016ec0 f i Base64.obj
 0001:00015ed0       ?getThrowAtEnd@XMLReader@xercesc_2_2@@QBE_NXZ 12016ed0 f i Base64.obj
 0001:00015ee0       ?getType@XMLReader@xercesc_2_2@@QBE?AW4Types@12@XZ 12016ee0 f i Base64.obj
 0001:00015ef0       ?setReaderNum@XMLReader@xercesc_2_2@@QAEXI@Z 12016ef0 f i Base64.obj
 0001:00015f00       ?setThrowAtEnd@XMLReader@xercesc_2_2@@QAEX_N@Z 12016f00 f i Base64.obj
 0001:00015f10       ?setXMLVersion@XMLReader@xercesc_2_2@@QAEXW4XMLVersion@12@@Z 12016f10 f i Base64.obj
 0001:00015f50       ?movePlainContentChars@XMLReader@xercesc_2_2@@QAEXAAVXMLBuffer@2@@Z 12016f50 f i Base64.obj
 0001:00015fb0       ?getNextCharIfNot@XMLReader@xercesc_2_2@@QAE_NGAAG@Z 12016fb0 f i Base64.obj
 0001:000160d0       ?getNextChar@XMLReader@xercesc_2_2@@QAE_NAAG@Z 120170d0 f i Base64.obj
 0001:000161c0       ?peekNextChar@XMLReader@xercesc_2_2@@QAE_NAAG@Z 120171c0 f i Base64.obj
 0001:00016230       ?encode@Base64@xercesc_2_2@@SAPAEQBEIPAI@Z 12017230 f   Base64.obj
 0001:00016490       ?getDataLength@Base64@xercesc_2_2@@SAHQBG@Z 12017490 f   Base64.obj
 0001:000164d0       ?decode@Base64@xercesc_2_2@@SAPAEQBEPAI@Z 120174d0 f   Base64.obj
 0001:00016840       ?decode@Base64@xercesc_2_2@@SAPAGQBGPAI@Z 12017840 f   Base64.obj
 0001:00016980       ?init@Base64@xercesc_2_2@@CAXXZ 12017980 f   Base64.obj
 0001:000169c0       ?isData@Base64@xercesc_2_2@@CA_NABE@Z 120179c0 f   Base64.obj
 0001:000169e0       ?getIsOpen@BinFileInputStream@xercesc_2_2@@QBE_NXZ 120179e0 f i BinFileInputStream.obj
 0001:000169f0       ??0BinFileInputStream@xercesc_2_2@@QAE@QBG@Z 120179f0 f   BinFileInputStream.obj
 0001:00016a50       ??_EBinFileInputStream@xercesc_2_2@@UAEPAXI@Z 12017a50 f i BinFileInputStream.obj
 0001:00016ab0       ??0BinFileInputStream@xercesc_2_2@@QAE@QBD@Z 12017ab0 f   BinFileInputStream.obj
 0001:00016b30       ??0BinFileInputStream@xercesc_2_2@@QAE@QAX@Z 12017b30 f   BinFileInputStream.obj
 0001:00016b50       ??1BinFileInputStream@xercesc_2_2@@UAE@XZ 12017b50 f   BinFileInputStream.obj
 0001:00016bb0       ?getSize@BinFileInputStream@xercesc_2_2@@QBEIXZ 12017bb0 f   BinFileInputStream.obj
 0001:00016bc0       ?reset@BinFileInputStream@xercesc_2_2@@QAEXXZ 12017bc0 f   BinFileInputStream.obj
 0001:00016bd0       ?curPos@BinFileInputStream@xercesc_2_2@@UBEIXZ 12017bd0 f   BinFileInputStream.obj
 0001:00016be0       ?readBytes@BinFileInputStream@xercesc_2_2@@UAEIQAEI@Z 12017be0 f   BinFileInputStream.obj
 0001:00016c00       ??1BinInputStream@xercesc_2_2@@UAE@XZ 12017c00 f   BinInputStream.obj
 0001:00016c10       ??_EBinInputStream@xercesc_2_2@@UAEPAXI@Z 12017c10 f i BinInputStream.obj
 0001:00016c70       ??0BinInputStream@xercesc_2_2@@IAE@XZ 12017c70 f   BinInputStream.obj
 0001:00016c80       ?reset@BinMemInputStream@xercesc_2_2@@QAEXXZ 12017c80 f i BinMemInputStream.obj
 0001:00016c90       ??0BinMemInputStream@xercesc_2_2@@QAE@QBEIW4BufOpts@01@@Z 12017c90 f   BinMemInputStream.obj
 0001:00016d30       ??_EBinMemInputStream@xercesc_2_2@@UAEPAXI@Z 12017d30 f i BinMemInputStream.obj
 0001:00016d90       ??1BinMemInputStream@xercesc_2_2@@UAE@XZ 12017d90 f   BinMemInputStream.obj
 0001:00016e00       ?readBytes@BinMemInputStream@xercesc_2_2@@UAEIQAEI@Z 12017e00 f   BinMemInputStream.obj
 0001:00016e50       ??0BitSet@xercesc_2_2@@QAE@I@Z 12017e50 f   BitSet.obj
 0001:00016e70       ??0BitSet@xercesc_2_2@@QAE@ABV01@@Z 12017e70 f   BitSet.obj
 0001:00016ec0       ??1BitSet@xercesc_2_2@@QAE@XZ 12017ec0 f   BitSet.obj
 0001:00016ec0       ??1NodeVector@xercesc_2_2@@QAE@XZ 12017ec0 f   BitSet.obj
 0001:00016ed0       ?equals@BitSet@xercesc_2_2@@QBE_NABV12@@Z 12017ed0 f   BitSet.obj
 0001:00016f10       ?get@BitSet@xercesc_2_2@@QBE_NI@Z 12017f10 f   BitSet.obj
 0001:00016f40       ?size@BitSet@xercesc_2_2@@QBEIXZ 12017f40 f   BitSet.obj
 0001:00016f50       ?allAreCleared@BitSet@xercesc_2_2@@QBE_NXZ 12017f50 f   BitSet.obj
 0001:00016f70       ?allAreSet@BitSet@xercesc_2_2@@QBE_NXZ 12017f70 f   BitSet.obj
 0001:00016f90       ?clearAll@BitSet@xercesc_2_2@@QAEXXZ 12017f90 f   BitSet.obj
 0001:00016fb0       ?clear@BitSet@xercesc_2_2@@QAEXI@Z 12017fb0 f   BitSet.obj
 0001:00016ff0       ?set@BitSet@xercesc_2_2@@QAEXI@Z 12017ff0 f   BitSet.obj
 0001:00017030       ?andWith@BitSet@xercesc_2_2@@QAEXABV12@@Z 12018030 f   BitSet.obj
 0001:00017080       ?orWith@BitSet@xercesc_2_2@@QAEXABV12@@Z 12018080 f   BitSet.obj
 0001:000170d0       ?xorWith@BitSet@xercesc_2_2@@QAEXABV12@@Z 120180d0 f   BitSet.obj
 0001:00017120       ?hash@BitSet@xercesc_2_2@@QBEII@Z 12018120 f   BitSet.obj
 0001:00017150       ?ensureCapacity@BitSet@xercesc_2_2@@AAEXI@Z 12018150 f   BitSet.obj
 0001:000171d0       ??0EncodingValidator@xercesc_2_2@@AAE@XZ 120181d0 f   EncodingValidator.obj
 0001:000171f0       ??1EncodingValidator@xercesc_2_2@@QAE@XZ 120181f0 f   EncodingValidator.obj
 0001:00017280       ?isValidEncoding@EncodingValidator@xercesc_2_2@@QAE_NQBG@Z 12018280 f   EncodingValidator.obj
 0001:00017300       ?initializeRegistry@EncodingValidator@xercesc_2_2@@AAEXXZ 12018300 f   EncodingValidator.obj
 0001:000174a0       ?instance@EncodingValidator@xercesc_2_2@@SAPAV12@XZ 120184a0 f   EncodingValidator.obj
 0001:000176b0       ?reinitInstance@EncodingValidator@xercesc_2_2@@SAXXZ 120186b0 f   EncodingValidator.obj
 0001:00017760       ?put@?$ValueHashTableOf@_N@xercesc_2_2@@QAEXPAXAB_N@Z 12018760 f i EncodingValidator.obj
 0001:00017850       ?initialize@?$ValueHashTableOf@G@xercesc_2_2@@AAEXI@Z 12018850 f i EncodingValidator.obj
 0001:00017850       ?initialize@?$ValueHashTableOf@_N@xercesc_2_2@@AAEXI@Z 12018850 f i EncodingValidator.obj
 0001:000178c0       ??0HashPtr@xercesc_2_2@@QAE@ABV01@@Z 120188c0 f i HashPtr.obj
 0001:000178d0       ??_EHashPtr@xercesc_2_2@@UAEPAXI@Z 120188d0 f i HashPtr.obj
 0001:00017930       ??0HashPtr@xercesc_2_2@@QAE@XZ 12018930 f   HashPtr.obj
 0001:00017940       ??1HashPtr@xercesc_2_2@@UAE@XZ 12018940 f   HashPtr.obj
 0001:00017950       ?getHashVal@HashPtr@xercesc_2_2@@UAEIQBXI@Z 12018950 f   HashPtr.obj
 0001:00017960       ?equals@HashPtr@xercesc_2_2@@UAE_NQBX0@Z 12018960 f   HashPtr.obj
 0001:00017980       ??0HashXMLCh@xercesc_2_2@@QAE@XZ 12018980 f   HashXMLCh.obj
 0001:00017990       ??1HashXMLCh@xercesc_2_2@@UAE@XZ 12018990 f   HashXMLCh.obj
 0001:000179a0       ?getHashVal@HashXMLCh@xercesc_2_2@@UAEIQBXI@Z 120189a0 f   HashXMLCh.obj
 0001:000179c0       ?equals@HashXMLCh@xercesc_2_2@@UAE_NQBX0@Z 120189c0 f   HashXMLCh.obj
 0001:00017a20       ?swapBytes@BitOps@xercesc_2_2@@SAGG@Z 12018a20 f i HeaderDummy.obj
 0001:00017a40       ?swapBytes@BitOps@xercesc_2_2@@SAII@Z 12018a40 f i HeaderDummy.obj
 0001:00017a70       ??0EmptyStackException@xercesc_2_2@@QAE@QBDIW4Codes@XMLExcepts@1@@Z 12018a70 f i HeaderDummy.obj
 0001:00017ad0       ??0EmptyStackException@xercesc_2_2@@QAE@ABV01@@Z 12018ad0 f i HeaderDummy.obj
 0001:00017af0       ??0EmptyStackException@xercesc_2_2@@QAE@QBDIW4Codes@XMLExcepts@1@QBG222@Z 12018af0 f i HeaderDummy.obj
 0001:00017b60       ??0EmptyStackException@xercesc_2_2@@QAE@QBDIW4Codes@XMLExcepts@1@0000@Z 12018b60 f i HeaderDummy.obj
 0001:00017bd0       ??1EmptyStackException@xercesc_2_2@@UAE@XZ 12018bd0 f i HeaderDummy.obj
 0001:00017be0       ?duplicate@EmptyStackException@xercesc_2_2@@UBEPAVXMLException@2@XZ 12018be0 f i HeaderDummy.obj
 0001:00017c40       ?getType@EmptyStackException@xercesc_2_2@@UBEPBGXZ 12018c40 f i HeaderDummy.obj
 0001:00017c50       ??_EEmptyStackException@xercesc_2_2@@UAEPAXI@Z 12018c50 f i HeaderDummy.obj
 0001:00017cb0       ??0InvalidCastException@xercesc_2_2@@QAE@QBDIW4Codes@XMLExcepts@1@@Z 12018cb0 f i HeaderDummy.obj
 0001:00017d10       ??0InvalidCastException@xercesc_2_2@@QAE@ABV01@@Z 12018d10 f i HeaderDummy.obj
 0001:00017d30       ??0InvalidCastException@xercesc_2_2@@QAE@QBDIW4Codes@XMLExcepts@1@QBG222@Z 12018d30 f i HeaderDummy.obj
 0001:00017da0       ??0InvalidCastException@xercesc_2_2@@QAE@QBDIW4Codes@XMLExcepts@1@0000@Z 12018da0 f i HeaderDummy.obj
 0001:00017e10       ??1InvalidCastException@xercesc_2_2@@UAE@XZ 12018e10 f i HeaderDummy.obj
 0001:00017e20       ?duplicate@InvalidCastException@xercesc_2_2@@UBEPAVXMLException@2@XZ 12018e20 f i HeaderDummy.obj
 0001:00017e80       ?getType@InvalidCastException@xercesc_2_2@@UBEPBGXZ 12018e80 f i HeaderDummy.obj
 0001:00017e90       ??_EInvalidCastException@xercesc_2_2@@UAEPAXI@Z 12018e90 f i HeaderDummy.obj
 0001:00017ef0       ??0IOException@xercesc_2_2@@QAE@QBDIW4Codes@XMLExcepts@1@@Z 12018ef0 f i HeaderDummy.obj
 0001:00017f50       ??0IOException@xercesc_2_2@@QAE@ABV01@@Z 12018f50 f i HeaderDummy.obj
 0001:00017f70       ??0IOException@xercesc_2_2@@QAE@QBDIW4Codes@XMLExcepts@1@QBG222@Z 12018f70 f i HeaderDummy.obj
 0001:00017fe0       ??0IOException@xercesc_2_2@@QAE@QBDIW4Codes@XMLExcepts@1@0000@Z 12018fe0 f i HeaderDummy.obj
 0001:00018050       ??1IOException@xercesc_2_2@@UAE@XZ 12019050 f i HeaderDummy.obj
 0001:00018060       ?duplicate@IOException@xercesc_2_2@@UBEPAVXMLException@2@XZ 12019060 f i HeaderDummy.obj
 0001:000180c0       ?getType@IOException@xercesc_2_2@@UBEPBGXZ 120190c0 f i HeaderDummy.obj
 0001:000180d0       ??_EIOException@xercesc_2_2@@UAEPAXI@Z 120190d0 f i HeaderDummy.obj
 0001:00018130       ??0UnexpectedEOFException@xercesc_2_2@@QAE@QBDIW4Codes@XMLExcepts@1@@Z 12019130 f i HeaderDummy.obj
 0001:00018190       ??0UnexpectedEOFException@xercesc_2_2@@QAE@ABV01@@Z 12019190 f i HeaderDummy.obj
 0001:000181b0       ??0UnexpectedEOFException@xercesc_2_2@@QAE@QBDIW4Codes@XMLExcepts@1@QBG222@Z 120191b0 f i HeaderDummy.obj
 0001:00018220       ??0UnexpectedEOFException@xercesc_2_2@@QAE@QBDIW4Codes@XMLExcepts@1@0000@Z 12019220 f i HeaderDummy.obj
 0001:00018290       ??1UnexpectedEOFException@xercesc_2_2@@UAE@XZ 12019290 f i HeaderDummy.obj
 0001:000182a0       ?duplicate@UnexpectedEOFException@xercesc_2_2@@UBEPAVXMLException@2@XZ 120192a0 f i HeaderDummy.obj
 0001:00018300       ?getType@UnexpectedEOFException@xercesc_2_2@@UBEPBGXZ 12019300 f i HeaderDummy.obj
 0001:00018310       ??_EUnexpectedEOFException@xercesc_2_2@@UAEPAXI@Z 12019310 f i HeaderDummy.obj
 0001:00018370       ??0UnsupportedEncodingException@xercesc_2_2@@QAE@QBDIW4Codes@XMLExcepts@1@@Z 12019370 f i HeaderDummy.obj
 0001:000183d0       ??0UnsupportedEncodingException@xercesc_2_2@@QAE@ABV01@@Z 120193d0 f i HeaderDummy.obj
 0001:000183f0       ??0UnsupportedEncodingException@xercesc_2_2@@QAE@QBDIW4Codes@XMLExcepts@1@QBG222@Z 120193f0 f i HeaderDummy.obj
 0001:00018460       ??0UnsupportedEncodingException@xercesc_2_2@@QAE@QBDIW4Codes@XMLExcepts@1@0000@Z 12019460 f i HeaderDummy.obj
 0001:000184d0       ??1UnsupportedEncodingException@xercesc_2_2@@UAE@XZ 120194d0 f i HeaderDummy.obj
 0001:000184e0       ?duplicate@UnsupportedEncodingException@xercesc_2_2@@UBEPAVXMLException@2@XZ 120194e0 f i HeaderDummy.obj
 0001:00018540       ?getType@UnsupportedEncodingException@xercesc_2_2@@UBEPBGXZ 12019540 f i HeaderDummy.obj
 0001:00018550       ??_EUnsupportedEncodingException@xercesc_2_2@@UAEPAXI@Z 12019550 f i HeaderDummy.obj
 0001:000185b0       ??0UTFDataFormatException@xercesc_2_2@@QAE@QBDIW4Codes@XMLExcepts@1@@Z 120195b0 f i HeaderDummy.obj
 0001:00018610       ??0UTFDataFormatException@xercesc_2_2@@QAE@ABV01@@Z 12019610 f i HeaderDummy.obj
 0001:00018630       ??0UTFDataFormatException@xercesc_2_2@@QAE@QBDIW4Codes@XMLExcepts@1@QBG222@Z 12019630 f i HeaderDummy.obj
 0001:000186a0       ??0UTFDataFormatException@xercesc_2_2@@QAE@QBDIW4Codes@XMLExcepts@1@0000@Z 120196a0 f i HeaderDummy.obj
 0001:00018710       ??1UTFDataFormatException@xercesc_2_2@@UAE@XZ 12019710 f i HeaderDummy.obj
 0001:00018720       ?duplicate@UTFDataFormatException@xercesc_2_2@@UBEPAVXMLException@2@XZ 12019720 f i HeaderDummy.obj
 0001:00018780       ?getType@UTFDataFormatException@xercesc_2_2@@UBEPBGXZ 12019780 f i HeaderDummy.obj
 0001:00018790       ??_EUTFDataFormatException@xercesc_2_2@@UAEPAXI@Z 12019790 f i HeaderDummy.obj
 0001:000187f0       ?getDataLength@HexBin@xercesc_2_2@@SAHQBG@Z 120197f0 f   HexBin.obj
 0001:000188d0       ?isArrayByteHex@HexBin@xercesc_2_2@@SA_NQBG@Z 120198d0 f   HexBin.obj
 0001:00018990       ?isHex@HexBin@xercesc_2_2@@CA_NABG@Z 12019990 f   HexBin.obj
 0001:000189b0       ?init@HexBin@xercesc_2_2@@CAXXZ 120199b0 f   HexBin.obj
 0001:00018a10       ??0KVStringPair@xercesc_2_2@@QAE@XZ 12019a10 f   KVStringPair.obj
 0001:00018a20       ??0KVStringPair@xercesc_2_2@@QAE@QBG0@Z 12019a20 f   KVStringPair.obj
 0001:00018b00       ??0KVStringPair@xercesc_2_2@@QAE@ABV01@@Z 12019b00 f   KVStringPair.obj
 0001:00018bf0       ??1KVStringPair@xercesc_2_2@@QAE@XZ 12019bf0 f   KVStringPair.obj
 0001:00018c10       ?setKey@KVStringPair@xercesc_2_2@@QAEXQBG@Z 12019c10 f   KVStringPair.obj
 0001:00018c80       ?setValue@KVStringPair@xercesc_2_2@@QAEXQBG@Z 12019c80 f   KVStringPair.obj
 0001:00018cf0       ?set@KVStringPair@xercesc_2_2@@QAEXQBG0@Z 12019cf0 f   KVStringPair.obj
 0001:00018db0       ??0XMLMutex@xercesc_2_2@@QAE@XZ 12019db0 f   Mutexes.obj
 0001:00018dd0       ??1XMLMutex@xercesc_2_2@@QAE@XZ 12019dd0 f   Mutexes.obj
 0001:00018df0       ?lock@XMLMutex@xercesc_2_2@@QAEXXZ 12019df0 f   Mutexes.obj
 0001:00018e00       ?unlock@XMLMutex@xercesc_2_2@@QAEXXZ 12019e00 f   Mutexes.obj
 0001:00018e10       ??0XMLMutexLock@xercesc_2_2@@QAE@QAVXMLMutex@1@@Z 12019e10 f   Mutexes.obj
 0001:00018e30       ??1XMLMutexLock@xercesc_2_2@@QAE@XZ 12019e30 f   Mutexes.obj
 0001:00018e40       ?Initialize@XMLPlatformUtils@xercesc_2_2@@SAXQBD@Z 12019e40 f   PlatformUtils.obj
 0001:00018f50       ?Terminate@XMLPlatformUtils@xercesc_2_2@@SAXXZ 12019f50 f   PlatformUtils.obj
 0001:00019060       ?loadMsgSet@XMLPlatformUtils@xercesc_2_2@@SAPAVXMLMsgLoader@2@QBG@Z 1201a060 f   PlatformUtils.obj
 0001:00019070       ?recognizeNEL@XMLPlatformUtils@xercesc_2_2@@SAX_N@Z 1201a070 f   PlatformUtils.obj
 0001:000190d0       ?isNELRecognized@XMLPlatformUtils@xercesc_2_2@@SA_NXZ 1201a0d0 f   PlatformUtils.obj
 0001:000190e0       ?strictIANAEncoding@XMLPlatformUtils@xercesc_2_2@@SAX_N@Z 1201a0e0 f   PlatformUtils.obj
 0001:00019100       ?isStrictIANAEncoding@XMLPlatformUtils@xercesc_2_2@@SA_NXZ 1201a100 f   PlatformUtils.obj
 0001:00019120       ??4QName@xercesc_2_2@@QAEAAV01@ABV01@@Z 1201a120 f i QName.obj
 0001:00019140       ??0QName@xercesc_2_2@@QAE@XZ 1201a140 f   QName.obj
 0001:00019160       ??0QName@xercesc_2_2@@QAE@QBG0I@Z 1201a160 f   QName.obj
 0001:000192c0       ??0QName@xercesc_2_2@@QAE@QBGI@Z 1201a2c0 f   QName.obj
 0001:00019350       ??0QName@xercesc_2_2@@QAE@ABV01@@Z 1201a350 f   QName.obj
 0001:00019430       ?getRawName@QName@xercesc_2_2@@QBEPBGXZ 1201a430 f   QName.obj
 0001:00019430       ?getRawName@QName@xercesc_2_2@@QAEPAGXZ 1201a430 f   QName.obj
 0001:000194f0       ?setName@QName@xercesc_2_2@@QAEXQBG0I@Z 1201a4f0 f   QName.obj
 0001:00019600       ?setName@QName@xercesc_2_2@@QAEXQBGI@Z 1201a600 f   QName.obj
 0001:000197c0       ?setPrefix@QName@xercesc_2_2@@QAEXPBG@Z 1201a7c0 f   QName.obj
 0001:00019840       ?setNPrefix@QName@xercesc_2_2@@QAEXPBGI@Z 1201a840 f   QName.obj
 0001:000198b0       ?setValue@XMLAttr@xercesc_2_2@@QAEXQBG@Z 1201a8b0 f   QName.obj
 0001:000198b0       ?setLocalPart@QName@xercesc_2_2@@QAEXPBG@Z 1201a8b0 f   QName.obj
 0001:00019930       ?setNLocalPart@QName@xercesc_2_2@@QAEXPBGI@Z 1201a930 f   QName.obj
 0001:000199a0       ?setValues@QName@xercesc_2_2@@QAEXABV12@@Z 1201a9a0 f   QName.obj
 0001:00019aa0       ??8QName@xercesc_2_2@@QBE_NABV01@@Z 1201aaa0 f   QName.obj
 0001:00019b70       ?cleanUp@QName@xercesc_2_2@@QAEXXZ 1201ab70 f   QName.obj
 0001:00019b70       ??1QName@xercesc_2_2@@QAE@XZ 1201ab70 f   QName.obj
 0001:00019ba0       ??0XMLStringPool@xercesc_2_2@@QAE@I@Z 1201aba0 f   StringPool.obj
 0001:00019cf0       ??1XMLStringPool@xercesc_2_2@@QAE@XZ 1201acf0 f   StringPool.obj
 0001:00019da0       ?addOrFind@XMLStringPool@xercesc_2_2@@QAEIQBG@Z 1201ada0 f   StringPool.obj
 0001:00019e30       ?exists@XMLStringPool@xercesc_2_2@@QBE_NQBG@Z 1201ae30 f   StringPool.obj
 0001:00019eb0       ?exists@XMLStringPool@xercesc_2_2@@QBE_NI@Z 1201aeb0 f   StringPool.obj
 0001:00019ed0       ?flushAll@XMLStringPool@xercesc_2_2@@QAEXXZ 1201aed0 f   StringPool.obj
 0001:00019f50       ?getId@XMLStringPool@xercesc_2_2@@QBEIQBG@Z 1201af50 f   StringPool.obj
 0001:00019fe0       ?getValueForId@XMLStringPool@xercesc_2_2@@QBEPBGI@Z 1201afe0 f   StringPool.obj
 0001:0001a030       ?addNewEntry@XMLStringPool@xercesc_2_2@@AAEIQBG@Z 1201b030 f   StringPool.obj
 0001:0001a260       ??0XMLTransService@xercesc_2_2@@IAE@XZ 1201b260 f   TransService.obj
 0001:0001a610       ??_EXMLTransService@xercesc_2_2@@UAEPAXI@Z 1201b610 f i TransService.obj
 0001:0001a670       ??1XMLTransService@xercesc_2_2@@UAE@XZ 1201b670 f   TransService.obj
 0001:0001a680       ?addEncoding@XMLTransService@xercesc_2_2@@SAXQBGQAVENameMap@2@@Z 1201b680 f   TransService.obj
 0001:0001a6a0       ?makeNewTranscoderFor@XMLTransService@xercesc_2_2@@QAEPAVXMLTranscoder@2@QBDAAW4Codes@12@I@Z 1201b6a0 f   TransService.obj
 0001:0001a710       ?makeNewTranscoderFor@XMLTransService@xercesc_2_2@@QAEPAVXMLTranscoder@2@QBGAAW4Codes@12@I@Z 1201b710 f   TransService.obj
 0001:0001a880       ?makeNewTranscoderFor@XMLTransService@xercesc_2_2@@QAEPAVXMLTranscoder@2@W4Encodings@XMLRecognizer@2@AAW4Codes@12@I@Z 1201b880 f   TransService.obj
 0001:0001a940       ?initTransService@XMLTransService@xercesc_2_2@@AAEXXZ 1201b940 f   TransService.obj
 0001:0001c0a0       ?strictIANAEncoding@XMLTransService@xercesc_2_2@@AAEX_N@Z 1201d0a0 f   TransService.obj
 0001:0001c0b0       ?isStrictIANAEncoding@XMLTransService@xercesc_2_2@@AAE_NXZ 1201d0b0 f   TransService.obj
 0001:0001c0c0       ??1XMLTranscoder@xercesc_2_2@@UAE@XZ 1201d0c0 f   TransService.obj
 0001:0001c0e0       ??_EXMLTranscoder@xercesc_2_2@@UAEPAXI@Z 1201d0e0 f i TransService.obj
 0001:0001c140       ??0XMLTranscoder@xercesc_2_2@@IAE@QBGI@Z 1201d140 f   TransService.obj
 0001:0001c1c0       ??0XMLLCPTranscoder@xercesc_2_2@@IAE@XZ 1201d1c0 f   TransService.obj
 0001:0001c1d0       ??_EXMLLCPTranscoder@xercesc_2_2@@UAEPAXI@Z 1201d1d0 f i TransService.obj
 0001:0001c230       ??1XMLLCPTranscoder@xercesc_2_2@@UAE@XZ 1201d230 f   TransService.obj
 0001:0001c240       ?put@?$RefHashTableOf@VENameMap@xercesc_2_2@@@xercesc_2_2@@QAEXPAXQAVENameMap@2@@Z 1201d240 f i TransService.obj
 0001:0001c350       ?setElementAt@?$BaseRefVectorOf@VENameMap@xercesc_2_2@@@xercesc_2_2@@QAEXQAVENameMap@2@I@Z 1201d350 f i TransService.obj
 0001:0001c3c0       ?makeNew@?$ENameMapFor@VXMLChTranscoder@xercesc_2_2@@@xercesc_2_2@@UBEPAVXMLTranscoder@2@I@Z 1201d3c0 f i TransService.obj
 0001:0001c430       ?makeNew@?$ENameMapFor@VXMLASCIITranscoder@xercesc_2_2@@@xercesc_2_2@@UBEPAVXMLTranscoder@2@I@Z 1201d430 f i TransService.obj
 0001:0001c4a0       ?makeNew@?$ENameMapFor@VXMLUTF8Transcoder@xercesc_2_2@@@xercesc_2_2@@UBEPAVXMLTranscoder@2@I@Z 1201d4a0 f i TransService.obj
 0001:0001c510       ?makeNew@?$ENameMapFor@VXML88591Transcoder@xercesc_2_2@@@xercesc_2_2@@UBEPAVXMLTranscoder@2@I@Z 1201d510 f i TransService.obj
 0001:0001c580       ??0?$EEndianNameMapFor@VXMLUTF16Transcoder@xercesc_2_2@@@xercesc_2_2@@QAE@QBG_N@Z 1201d580 f i TransService.obj
 0001:0001c5f0       ?makeNew@?$EEndianNameMapFor@VXMLUTF16Transcoder@xercesc_2_2@@@xercesc_2_2@@UBEPAVXMLTranscoder@2@I@Z 1201d5f0 f i TransService.obj
 0001:0001c660       ??0?$EEndianNameMapFor@VXMLUCS4Transcoder@xercesc_2_2@@@xercesc_2_2@@QAE@QBG_N@Z 1201d660 f i TransService.obj
 0001:0001c6d0       ?makeNew@?$EEndianNameMapFor@VXMLUCS4Transcoder@xercesc_2_2@@@xercesc_2_2@@UBEPAVXMLTranscoder@2@I@Z 1201d6d0 f i TransService.obj
 0001:0001c740       ??0?$ENameMapFor@VXMLEBCDICTranscoder@xercesc_2_2@@@xercesc_2_2@@QAE@QBG@Z 1201d740 f i TransService.obj
 0001:0001c7b0       ?makeNew@?$ENameMapFor@VXMLEBCDICTranscoder@xercesc_2_2@@@xercesc_2_2@@UBEPAVXMLTranscoder@2@I@Z 1201d7b0 f i TransService.obj
 0001:0001c820       ??0?$ENameMapFor@VXMLIBM1140Transcoder@xercesc_2_2@@@xercesc_2_2@@QAE@QBG@Z 1201d820 f i TransService.obj
 0001:0001c890       ?makeNew@?$ENameMapFor@VXMLIBM1140Transcoder@xercesc_2_2@@@xercesc_2_2@@UBEPAVXMLTranscoder@2@I@Z 1201d890 f i TransService.obj
 0001:0001c900       ??0?$ENameMapFor@VXMLWin1252Transcoder@xercesc_2_2@@@xercesc_2_2@@QAE@QBG@Z 1201d900 f i TransService.obj
 0001:0001c970       ?makeNew@?$ENameMapFor@VXMLWin1252Transcoder@xercesc_2_2@@@xercesc_2_2@@UBEPAVXMLTranscoder@2@I@Z 1201d970 f i TransService.obj
 0001:0001c9e0       ??_GENameMap@xercesc_2_2@@QAEPAXI@Z 1201d9e0 f i TransService.obj
 0001:0001ca10       ??_E?$RefVectorOf@VENameMap@xercesc_2_2@@@xercesc_2_2@@UAEPAXI@Z 1201da10 f i TransService.obj
 0001:0001ca10       ??_G?$RefVectorOf@VENameMap@xercesc_2_2@@@xercesc_2_2@@UAEPAXI@Z 1201da10 f i TransService.obj
 0001:0001ca30       ??1?$RefVectorOf@VENameMap@xercesc_2_2@@@xercesc_2_2@@UAE@XZ 1201da30 f i TransService.obj
 0001:0001cac0       ??1?$BaseRefVectorOf@VENameMap@xercesc_2_2@@@xercesc_2_2@@UAE@XZ 1201dac0 f i TransService.obj
 0001:0001cad0       ??0?$RefHashTableBucketElem@VXMLRefInfo@xercesc_2_2@@@xercesc_2_2@@QAE@PAXQAVXMLRefInfo@1@PAU01@@Z 1201dad0 f i TransService.obj
 0001:0001cad0       ??0?$RefHashTableBucketElem@VSchemaInfo@xercesc_2_2@@@xercesc_2_2@@QAE@PAXQAVSchemaInfo@1@PAU01@@Z 1201dad0 f i TransService.obj
 0001:0001cad0       ??0?$RefHashTableBucketElem@V?$RefHashTableOf@V?$KeyRefPair@XVDOMUserDataHandler@xercesc_2_2@@@xercesc_2_2@@@xercesc_2_2@@@xercesc_2_2@@QAE@PAXQAV?$RefHashTableOf@V?$KeyRefPair@XVDOMUserDataHandler@xercesc_2_2@@@xercesc_2_2@@@1@PAU01@@Z 1201dad0 f i TransService.obj
 0001:0001cad0       ??0?$RefHashTableBucketElem@VENameMap@xercesc_2_2@@@xercesc_2_2@@QAE@PAXQAVENameMap@1@PAU01@@Z 1201dad0 f i TransService.obj
 0001:0001cad0       ??0?$RefHashTableBucketElem@V?$KeyRefPair@XVDOMUserDataHandler@xercesc_2_2@@@xercesc_2_2@@@xercesc_2_2@@QAE@PAXQAV?$KeyRefPair@XVDOMUserDataHandler@xercesc_2_2@@@1@PAU01@@Z 1201dad0 f i TransService.obj
 0001:0001cad0       ??0?$RefHashTableBucketElem@VXercesGroupInfo@xercesc_2_2@@@xercesc_2_2@@QAE@PAXQAVXercesGroupInfo@1@PAU01@@Z 1201dad0 f i TransService.obj
 0001:0001cad0       ??0?$RefHashTableBucketElem@VComplexTypeInfo@xercesc_2_2@@@xercesc_2_2@@QAE@PAXQAVComplexTypeInfo@1@PAU01@@Z 1201dad0 f i TransService.obj
 0001:0001cad0       ??0?$RefHashTableBucketElem@VDatatypeValidator@xercesc_2_2@@@xercesc_2_2@@QAE@PAXQAVDatatypeValidator@1@PAU01@@Z 1201dad0 f i TransService.obj
 0001:0001cad0       ??0?$RefHashTableBucketElem@VKVStringPair@xercesc_2_2@@@xercesc_2_2@@QAE@PAXQAVKVStringPair@1@PAU01@@Z 1201dad0 f i TransService.obj
 0001:0001cad0       ??0?$RefHashTableBucketElem@VValueStore@xercesc_2_2@@@xercesc_2_2@@QAE@PAXQAVValueStore@1@PAU01@@Z 1201dad0 f i TransService.obj
 0001:0001cad0       ??0?$RefHashTableBucketElem@VXercesAttGroupInfo@xercesc_2_2@@@xercesc_2_2@@QAE@PAXQAVXercesAttGroupInfo@1@PAU01@@Z 1201dad0 f i TransService.obj
 0001:0001caf0       ?removeAll@?$RefHashTableOf@VENameMap@xercesc_2_2@@@xercesc_2_2@@QAEXXZ 1201daf0 f i TransService.obj
 0001:0001cb70       ?findBucketElem@?$RefHashTableOf@VXercesAttGroupInfo@xercesc_2_2@@@xercesc_2_2@@AAEPAU?$RefHashTableBucketElem@VXercesAttGroupInfo@xercesc_2_2@@@2@QBXAAI@Z 1201db70 f i TransService.obj
 0001:0001cb70       ?findBucketElem@?$RefHashTableOf@VValueStore@xercesc_2_2@@@xercesc_2_2@@AAEPAU?$RefHashTableBucketElem@VValueStore@xercesc_2_2@@@2@QBXAAI@Z 1201db70 f i TransService.obj
 0001:0001cb70       ?findBucketElem@?$RefHashTableOf@VXercesGroupInfo@xercesc_2_2@@@xercesc_2_2@@AAEPAU?$RefHashTableBucketElem@VXercesGroupInfo@xercesc_2_2@@@2@QBXAAI@Z 1201db70 f i TransService.obj
 0001:0001cb70       ?findBucketElem@?$RefHashTableOf@VComplexTypeInfo@xercesc_2_2@@@xercesc_2_2@@AAEPAU?$RefHashTableBucketElem@VComplexTypeInfo@xercesc_2_2@@@2@QBXAAI@Z 1201db70 f i TransService.obj
 0001:0001cb70       ?findBucketElem@?$RefHashTableOf@VSchemaInfo@xercesc_2_2@@@xercesc_2_2@@AAEPAU?$RefHashTableBucketElem@VSchemaInfo@xercesc_2_2@@@2@QBXAAI@Z 1201db70 f i TransService.obj
 0001:0001cb70       ?findBucketElem@?$RefHashTableOf@VGrammar@xercesc_2_2@@@xercesc_2_2@@AAEPAU?$RefHashTableBucketElem@VGrammar@xercesc_2_2@@@2@QBXAAI@Z 1201db70 f i TransService.obj
 0001:0001cb70       ?findBucketElem@?$RefHashTableOf@VRangeTokenElemMap@xercesc_2_2@@@xercesc_2_2@@AAEPAU?$RefHashTableBucketElem@VRangeTokenElemMap@xercesc_2_2@@@2@QBXAAI@Z 1201db70 f i TransService.obj
 0001:0001cb70       ?findBucketElem@?$RefHashTableOf@VXMLElementDecl@xercesc_2_2@@@xercesc_2_2@@AAEPAU?$RefHashTableBucketElem@VXMLElementDecl@xercesc_2_2@@@2@QBXAAI@Z 1201db70 f i TransService.obj
 0001:0001cb70       ?findBucketElem@?$RefHashTableOf@V?$ValueVectorOf@I@xercesc_2_2@@@xercesc_2_2@@AAEPAU?$RefHashTableBucketElem@V?$ValueVectorOf@I@xercesc_2_2@@@2@QBXAAI@Z 1201db70 f i TransService.obj
 0001:0001cb70       ?findBucketElem@?$RefHashTableOf@VXMLAttDef@xercesc_2_2@@@xercesc_2_2@@AAEPAU?$RefHashTableBucketElem@VXMLAttDef@xercesc_2_2@@@2@QBXAAI@Z 1201db70 f i TransService.obj
 0001:0001cb70       ?findBucketElem@?$RefHashTableOf@VCPMapEntry@xercesc_2_2@@@xercesc_2_2@@AAEPAU?$RefHashTableBucketElem@VCPMapEntry@xercesc_2_2@@@2@QBXAAI@Z 1201db70 f i TransService.obj
 0001:0001cb70       ?findBucketElem@?$RefHashTableOf@V?$KeyRefPair@XVDOMUserDataHandler@xercesc_2_2@@@xercesc_2_2@@@xercesc_2_2@@AAEPAU?$RefHashTableBucketElem@V?$KeyRefPair@XVDOMUserDataHandler@xercesc_2_2@@@xercesc_2_2@@@2@QBXAAI@Z 1201db70 f i TransService.obj
 0001:0001cb70       ?findBucketElem@?$RefHashTableOf@VKVStringPair@xercesc_2_2@@@xercesc_2_2@@AAEPAU?$RefHashTableBucketElem@VKVStringPair@xercesc_2_2@@@2@QBXAAI@Z 1201db70 f i TransService.obj
 0001:0001cb70       ?findBucketElem@?$RefHashTableOf@VDatatypeValidator@xercesc_2_2@@@xercesc_2_2@@AAEPAU?$RefHashTableBucketElem@VDatatypeValidator@xercesc_2_2@@@2@QBXAAI@Z 1201db70 f i TransService.obj
 0001:0001cb70       ?findBucketElem@?$RefHashTableOf@V?$RefHashTableOf@V?$KeyRefPair@XVDOMUserDataHandler@xercesc_2_2@@@xercesc_2_2@@@xercesc_2_2@@@xercesc_2_2@@AAEPAU?$RefHashTableBucketElem@V?$RefHashTableOf@V?$KeyRefPair@XVDOMUserDataHandler@xercesc_2_2@@@xercesc_2_2@@@xercesc_2_2@@@2@QBXAAI@Z 1201db70 f i TransService.obj
 0001:0001cb70       ?findBucketElem@?$RefHashTableOf@V?$ValueVectorOf@PAVSchemaElementDecl@xercesc_2_2@@@xercesc_2_2@@@xercesc_2_2@@AAEPAU?$RefHashTableBucketElem@V?$ValueVectorOf@PAVSchemaElementDecl@xercesc_2_2@@@xercesc_2_2@@@2@QBXAAI@Z 1201db70 f i TransService.obj
 0001:0001cb70       ?findBucketElem@?$RefHashTableOf@VXMLRefInfo@xercesc_2_2@@@xercesc_2_2@@AAEPAU?$RefHashTableBucketElem@VXMLRefInfo@xercesc_2_2@@@2@QBXAAI@Z 1201db70 f i TransService.obj
 0001:0001cb70       ?findBucketElem@?$RefHashTableOf@VENameMap@xercesc_2_2@@@xercesc_2_2@@AAEPAU?$RefHashTableBucketElem@VENameMap@xercesc_2_2@@@2@QBXAAI@Z 1201db70 f i TransService.obj
 0001:0001cbf0       ??1XML256TableTranscoder@xercesc_2_2@@UAE@XZ 1201dbf0 f   XML256TableTranscoder.obj
 0001:0001cc00       ??_EXML256TableTranscoder@xercesc_2_2@@UAEPAXI@Z 1201dc00 f i XML256TableTranscoder.obj
 0001:0001cc60       ?transcodeFrom@XML256TableTranscoder@xercesc_2_2@@UAEIQBEIQAGIAAIQAE@Z 1201dc60 f   XML256TableTranscoder.obj
 0001:0001ccd0       ?transcodeTo@XML256TableTranscoder@xercesc_2_2@@UAEIQBGIQAEIAAIW4UnRepOpts@XMLTranscoder@2@@Z 1201dcd0 f   XML256TableTranscoder.obj
 0001:0001cd90       ?canTranscodeTo@XML256TableTranscoder@xercesc_2_2@@UBE_NI@Z 1201dd90 f   XML256TableTranscoder.obj
 0001:0001cdb0       ??0XML256TableTranscoder@xercesc_2_2@@IAE@QBGI0QBUTransRec@XMLTransService@1@I@Z 1201ddb0 f   XML256TableTranscoder.obj
 0001:0001cdf0       ?xlatOneTo@XML256TableTranscoder@xercesc_2_2@@IBEEG@Z 1201ddf0 f   XML256TableTranscoder.obj
 0001:0001ce50       ??0XML88591Transcoder@xercesc_2_2@@QAE@QBGI@Z 1201de50 f   XML88591Transcoder.obj
 0001:0001ce70       ??_EXML88591Transcoder@xercesc_2_2@@UAEPAXI@Z 1201de70 f i XML88591Transcoder.obj
 0001:0001ced0       ??1XML88591Transcoder@xercesc_2_2@@UAE@XZ 1201ded0 f   XML88591Transcoder.obj
 0001:0001cee0       ?transcodeFrom@XML88591Transcoder@xercesc_2_2@@UAEIQBEIQAGIAAIQAE@Z 1201dee0 f   XML88591Transcoder.obj
 0001:0001cf40       ?transcodeTo@XML88591Transcoder@xercesc_2_2@@UAEIQBGIQAEIAAIW4UnRepOpts@XMLTranscoder@2@@Z 1201df40 f   XML88591Transcoder.obj
 0001:0001cff0       ?canTranscodeTo@XML88591Transcoder@xercesc_2_2@@UBE_NI@Z 1201dff0 f   XML88591Transcoder.obj
 0001:0001d000       ??0XMLNumber@xercesc_2_2@@QAE@ABV01@@Z 1201e000 f i XMLAbstractDoubleFloat.obj
 0001:0001d010       ??_EXMLNumber@xercesc_2_2@@UAEPAXI@Z 1201e010 f i XMLAbstractDoubleFloat.obj
 0001:0001d070       ?isSpecialValue@XMLAbstractDoubleFloat@xercesc_2_2@@ABE_NXZ 1201e070 f i XMLAbstractDoubleFloat.obj
 0001:0001d080       ??0NumberFormatException@xercesc_2_2@@QAE@QBDIW4Codes@XMLExcepts@1@@Z 1201e080 f i XMLAbstractDoubleFloat.obj
 0001:0001d0e0       ??0NumberFormatException@xercesc_2_2@@QAE@ABV01@@Z 1201e0e0 f i XMLAbstractDoubleFloat.obj
 0001:0001d100       ??0NumberFormatException@xercesc_2_2@@QAE@QBDIW4Codes@XMLExcepts@1@QBG222@Z 1201e100 f i XMLAbstractDoubleFloat.obj
 0001:0001d170       ??0NumberFormatException@xercesc_2_2@@QAE@QBDIW4Codes@XMLExcepts@1@0000@Z 1201e170 f i XMLAbstractDoubleFloat.obj
 0001:0001d1e0       ??1NumberFormatException@xercesc_2_2@@UAE@XZ 1201e1e0 f i XMLAbstractDoubleFloat.obj
 0001:0001d1f0       ?duplicate@NumberFormatException@xercesc_2_2@@UBEPAVXMLException@2@XZ 1201e1f0 f i XMLAbstractDoubleFloat.obj
 0001:0001d250       ?getType@NumberFormatException@xercesc_2_2@@UBEPBGXZ 1201e250 f i XMLAbstractDoubleFloat.obj
 0001:0001d260       ??_ENumberFormatException@xercesc_2_2@@UAEPAXI@Z 1201e260 f i XMLAbstractDoubleFloat.obj
 0001:0001d2c0       ??0XMLAbstractDoubleFloat@xercesc_2_2@@IAE@XZ 1201e2c0 f   XMLAbstractDoubleFloat.obj
 0001:0001d2f0       ??_EXMLAbstractDoubleFloat@xercesc_2_2@@UAEPAXI@Z 1201e2f0 f i XMLAbstractDoubleFloat.obj
 0001:0001d350       ??1XMLAbstractDoubleFloat@xercesc_2_2@@UAE@XZ 1201e350 f   XMLAbstractDoubleFloat.obj
 0001:0001d3b0       ?init@XMLAbstractDoubleFloat@xercesc_2_2@@IAEXQBG@Z 1201e3b0 f   XMLAbstractDoubleFloat.obj
 0001:0001d680       ?toString@XMLAbstractDoubleFloat@xercesc_2_2@@UBEPAGXZ 1201e680 f   XMLAbstractDoubleFloat.obj
 0001:0001d6d0       ?getFormattedString@XMLAbstractDoubleFloat@xercesc_2_2@@UBEPBGXZ 1201e6d0 f   XMLAbstractDoubleFloat.obj
 0001:0001d700       ?formatString@XMLAbstractDoubleFloat@xercesc_2_2@@AAEXXZ 1201e700 f   XMLAbstractDoubleFloat.obj
 0001:0001d810       ?compareValues@XMLAbstractDoubleFloat@xercesc_2_2@@KAHQBV12@0@Z 1201e810 f   XMLAbstractDoubleFloat.obj
 0001:0001d9b0       ?compareSpecial@XMLAbstractDoubleFloat@xercesc_2_2@@CAHQBV12@0@Z 1201e9b0 f   XMLAbstractDoubleFloat.obj
 0001:0001da50       ?normalizeZero@XMLAbstractDoubleFloat@xercesc_2_2@@AAEXQAG@Z 1201ea50 f   XMLAbstractDoubleFloat.obj
 0001:0001db80       ??0XMLASCIITranscoder@xercesc_2_2@@QAE@QBGI@Z 1201eb80 f   XMLASCIITranscoder.obj
 0001:0001dba0       ??_EXMLASCIITranscoder@xercesc_2_2@@UAEPAXI@Z 1201eba0 f i XMLASCIITranscoder.obj
 0001:0001dc00       ??1XMLASCIITranscoder@xercesc_2_2@@UAE@XZ 1201ec00 f   XMLASCIITranscoder.obj
 0001:0001dc10       ?transcodeFrom@XMLASCIITranscoder@xercesc_2_2@@UAEIQBEIQAGIAAIQAE@Z 1201ec10 f   XMLASCIITranscoder.obj
 0001:0001dcd0       ?transcodeTo@XMLASCIITranscoder@xercesc_2_2@@UAEIQBGIQAEIAAIW4UnRepOpts@XMLTranscoder@2@@Z 1201ecd0 f   XMLASCIITranscoder.obj
 0001:0001dd80       ?canTranscodeTo@XMLASCIITranscoder@xercesc_2_2@@UBE_NI@Z 1201ed80 f   XMLASCIITranscoder.obj
 0001:0001dd90       ??4XMLBigInteger@xercesc_2_2@@QAEAAV01@ABV01@@Z 1201ed90 f i XMLBigDecimal.obj
 0001:0001ddb0       ?getTotalDigit@XMLBigInteger@xercesc_2_2@@QBEHXZ 1201edb0 f i XMLBigDecimal.obj
 0001:0001dde0       ??8XMLBigInteger@xercesc_2_2@@QBE_NABV01@@Z 1201ede0 f i XMLBigDecimal.obj
 0001:0001de00       ?toString@XMLBigInteger@xercesc_2_2@@QBEPAGXZ 1201ee00 f i XMLBigDecimal.obj
 0001:0001de50       ??4XMLBigDecimal@xercesc_2_2@@QAEAAV01@ABV01@@Z 1201ee50 f i XMLBigDecimal.obj
 0001:0001de50       ??4DOMRangeException@xercesc_2_2@@QAEAAV01@ABV01@@Z 1201ee50 f i XMLBigDecimal.obj
 0001:0001de70       ??1XMLBigDecimal@xercesc_2_2@@UAE@XZ 1201ee70 f i XMLBigDecimal.obj
 0001:0001def0       ??_EXMLBigDecimal@xercesc_2_2@@UAEPAXI@Z 1201eef0 f i XMLBigDecimal.obj
 0001:0001df50       ?getTotalDigit@XMLBigDecimal@xercesc_2_2@@QBEIXZ 1201ef50 f i XMLBigDecimal.obj
 0001:0001df80       ??8XMLBigDecimal@xercesc_2_2@@QBE_NABV01@@Z 1201ef80 f i XMLBigDecimal.obj
 0001:0001dfa0       ??0XMLBigDecimal@xercesc_2_2@@QAE@QBG@Z 1201efa0 f   XMLBigDecimal.obj
 0001:0001e100       ??0XMLBigDecimal@xercesc_2_2@@QAE@ABV01@@Z 1201f100 f   XMLBigDecimal.obj
 0001:0001e1d0       ??0XMLBigDecimal@xercesc_2_2@@QAE@ABV01@H@Z 1201f1d0 f   XMLBigDecimal.obj
 0001:0001e2d0       ?parseBigDecimal@XMLBigDecimal@xercesc_2_2@@SAXQBGQAGAAI@Z 1201f2d0 f   XMLBigDecimal.obj
 0001:0001e490       ?compareValues@XMLBigDecimal@xercesc_2_2@@SAHQBV12@0@Z 1201f490 f   XMLBigDecimal.obj
 0001:0001e720       ?matchScale@XMLBigDecimal@xercesc_2_2@@SAXQAV12@0@Z 1201f720 f   XMLBigDecimal.obj
 0001:0001e7a0       ?reScale@XMLBigDecimal@xercesc_2_2@@AAEXI@Z 1201f7a0 f   XMLBigDecimal.obj
 0001:0001e7e0       ?toString@XMLBigDecimal@xercesc_2_2@@UBEPAGXZ 1201f7e0 f   XMLBigDecimal.obj
 0001:0001e830       ?parseBigInteger@XMLBigInteger@xercesc_2_2@@SAXQBGQAGAAH@Z 1201f830 f   XMLBigInteger.obj
 0001:0001e9c0       ??0XMLBigInteger@xercesc_2_2@@QAE@QBG@Z 1201f9c0 f   XMLBigInteger.obj
 0001:0001eba0       ??1XMLBigInteger@xercesc_2_2@@QAE@XZ 1201fba0 f   XMLBigInteger.obj
 0001:0001ebd0       ??0XMLBigInteger@xercesc_2_2@@QAE@ABV01@@Z 1201fbd0 f   XMLBigInteger.obj
 0001:0001ec90       ?compareValues@XMLBigInteger@xercesc_2_2@@SAHQBV12@0@Z 1201fc90 f   XMLBigInteger.obj
 0001:0001edb0       ?multiply@XMLBigInteger@xercesc_2_2@@QAEXI@Z 1201fdb0 f   XMLBigInteger.obj
 0001:0001ee60       ?divide@XMLBigInteger@xercesc_2_2@@QAEXI@Z 1201fe60 f   XMLBigInteger.obj
 0001:0001eef0       ?intValue@XMLBigInteger@xercesc_2_2@@QBEHXZ 1201fef0 f   XMLBigInteger.obj
 0001:0001ef10       ?isAllSpaces@XMLChar1_0@xercesc_2_2@@SA_NQBGI@Z 1201ff10 f   XMLChar.obj
 0001:0001ef40       ?containsWhiteSpace@XMLChar1_0@xercesc_2_2@@SA_NQBGI@Z 1201ff40 f   XMLChar.obj
 0001:0001ef70       ?isValidNCName@XMLChar1_0@xercesc_2_2@@SA_NQBGI@Z 1201ff70 f   XMLChar.obj
 0001:0001efd0       ?isValidName@XMLChar1_0@xercesc_2_2@@SA_NQBGI@Z 1201ffd0 f   XMLChar.obj
 0001:0001f010       ?isValidQName@XMLChar1_0@xercesc_2_2@@SA_NQBGI@Z 12020010 f   XMLChar.obj
 0001:0001f0f0       ?isPublicIdChar@XMLChar1_0@xercesc_2_2@@SA_NGG@Z 120200f0 f   XMLChar.obj
 0001:0001f160       ?enableNELWS@XMLChar1_0@xercesc_2_2@@SAXXZ 12020160 f   XMLChar.obj
 0001:0001f180       ?isAllSpaces@XMLChar1_1@xercesc_2_2@@SA_NQBGI@Z 12020180 f   XMLChar.obj
 0001:0001f1b0       ?containsWhiteSpace@XMLChar1_1@xercesc_2_2@@SA_NQBGI@Z 120201b0 f   XMLChar.obj
 0001:0001f1e0       ?isValidNCName@XMLChar1_1@xercesc_2_2@@SA_NQBGI@Z 120201e0 f   XMLChar.obj
 0001:0001f290       ?isValidName@XMLChar1_1@xercesc_2_2@@SA_NQBGI@Z 12020290 f   XMLChar.obj
 0001:0001f330       ?isValidQName@XMLChar1_1@xercesc_2_2@@SA_NQBGI@Z 12020330 f   XMLChar.obj
 0001:0001f390       ?isPublicIdChar@XMLChar1_1@xercesc_2_2@@SA_NGG@Z 12020390 f   XMLChar.obj
 0001:0001f400       ??0XMLChTranscoder@xercesc_2_2@@QAE@QBGI@Z 12020400 f   XMLChTranscoder.obj
 0001:0001f420       ??_EXMLChTranscoder@xercesc_2_2@@UAEPAXI@Z 12020420 f i XMLChTranscoder.obj
 0001:0001f480       ??1XMLChTranscoder@xercesc_2_2@@UAE@XZ 12020480 f   XMLChTranscoder.obj
 0001:0001f490       ?transcodeFrom@XMLChTranscoder@xercesc_2_2@@UAEIQBEIQAGIAAIQAE@Z 12020490 f   XMLChTranscoder.obj
 0001:0001f4f0       ?transcodeTo@XMLChTranscoder@xercesc_2_2@@UAEIQBGIQAEIAAIW4UnRepOpts@XMLTranscoder@2@@Z 120204f0 f   XMLChTranscoder.obj
 0001:0001f530       ??0SchemaDateTimeException@xercesc_2_2@@QAE@QBDIW4Codes@XMLExcepts@1@@Z 12020530 f i XMLDateTime.obj
 0001:0001f590       ??0SchemaDateTimeException@xercesc_2_2@@QAE@ABV01@@Z 12020590 f i XMLDateTime.obj
 0001:0001f5b0       ??0SchemaDateTimeException@xercesc_2_2@@QAE@QBDIW4Codes@XMLExcepts@1@QBG222@Z 120205b0 f i XMLDateTime.obj
 0001:0001f620       ??0SchemaDateTimeException@xercesc_2_2@@QAE@QBDIW4Codes@XMLExcepts@1@0000@Z 12020620 f i XMLDateTime.obj
 0001:0001f690       ??1SchemaDateTimeException@xercesc_2_2@@UAE@XZ 12020690 f i XMLDateTime.obj
 0001:0001f6a0       ?duplicate@SchemaDateTimeException@xercesc_2_2@@UBEPAVXMLException@2@XZ 120206a0 f i XMLDateTime.obj
 0001:0001f700       ?getType@SchemaDateTimeException@xercesc_2_2@@UBEPBGXZ 12020700 f i XMLDateTime.obj
 0001:0001f710       ??_ESchemaDateTimeException@xercesc_2_2@@UAEPAXI@Z 12020710 f i XMLDateTime.obj
 0001:0001f770       ?setBuffer@XMLDateTime@xercesc_2_2@@QAEXQBG@Z 12020770 f i XMLDateTime.obj
 0001:0001f830       ?reset@XMLDateTime@xercesc_2_2@@AAEXXZ 12020830 f i XMLDateTime.obj
 0001:0001f870       ?copy@XMLDateTime@xercesc_2_2@@AAEXABV12@@Z 12020870 f i XMLDateTime.obj
 0001:0001f920       ?assertBuffer@XMLDateTime@xercesc_2_2@@ABEXXZ 12020920 f i XMLDateTime.obj
 0001:0001f960       ?initParser@XMLDateTime@xercesc_2_2@@AAEXXZ 12020960 f i XMLDateTime.obj
 0001:0001f9b0       ?isNormalized@XMLDateTime@xercesc_2_2@@ABE_NXZ 120209b0 f i XMLDateTime.obj
 0001:0001f9c0       ?getRetVal@XMLDateTime@xercesc_2_2@@CAHHH@Z 120209c0 f i XMLDateTime.obj
 0001:0001f9f0       ?compare@XMLDateTime@xercesc_2_2@@SAHQBV12@0_N@Z 120209f0 f   XMLDateTime.obj
 0001:0001fd40       ?addDuration@XMLDateTime@xercesc_2_2@@CAXPAV12@QBV12@H@Z 12020d40 f   XMLDateTime.obj
 0001:0001ffa0       ?compareResult@XMLDateTime@xercesc_2_2@@CAHFF_N@Z 12020fa0 f   XMLDateTime.obj
 0001:0001fff0       ?compare@XMLDateTime@xercesc_2_2@@SAHQBV12@0@Z 12020ff0 f   XMLDateTime.obj
 0001:000200a0       ?compareResult@XMLDateTime@xercesc_2_2@@CAHQBV12@0_NH@Z 120210a0 f   XMLDateTime.obj
 0001:00020210       ?compareOrder@XMLDateTime@xercesc_2_2@@SAHQBV12@0@Z 12021210 f   XMLDateTime.obj
 0001:00020440       ??1XMLDateTime@xercesc_2_2@@UAE@XZ 12021440 f   XMLDateTime.obj
 0001:000204a0       ??_EXMLDateTime@xercesc_2_2@@UAEPAXI@Z 120214a0 f i XMLDateTime.obj
 0001:00020500       ??0XMLDateTime@xercesc_2_2@@QAE@XZ 12021500 f   XMLDateTime.obj
 0001:00020580       ??0XMLDateTime@xercesc_2_2@@QAE@QBG@Z 12021580 f   XMLDateTime.obj
 0001:00020670       ??0XMLDateTime@xercesc_2_2@@QAE@ABV01@@Z 12021670 f   XMLDateTime.obj
 0001:00020760       ??4XMLDateTime@xercesc_2_2@@QAEAAV01@ABV01@@Z 12021760 f   XMLDateTime.obj
 0001:00020820       ?toString@XMLDateTime@xercesc_2_2@@UBEPAGXZ 12021820 f   XMLDateTime.obj
 0001:000208b0       ?getRawData@XMLDateTime@xercesc_2_2@@UBEPAGXZ 120218b0 f   XMLDateTime.obj
 0001:000208f0       ?getFormattedString@XMLDateTime@xercesc_2_2@@UBEPBGXZ 120218f0 f   XMLDateTime.obj
 0001:00020900       ?parseDateTime@XMLDateTime@xercesc_2_2@@QAEXXZ 12021900 f   XMLDateTime.obj
 0001:000209b0       ?parseDate@XMLDateTime@xercesc_2_2@@QAEXXZ 120219b0 f   XMLDateTime.obj
 0001:00020a90       ?parseTime@XMLDateTime@xercesc_2_2@@QAEXXZ 12021a90 f   XMLDateTime.obj
 0001:00020b00       ?parseDay@XMLDateTime@xercesc_2_2@@QAEXXZ 12021b00 f   XMLDateTime.obj
 0001:00020c40       ?parseMonth@XMLDateTime@xercesc_2_2@@QAEXXZ 12021c40 f   XMLDateTime.obj
 0001:00020da0       ?parseYear@XMLDateTime@xercesc_2_2@@QAEXXZ 12021da0 f   XMLDateTime.obj
 0001:00020e80       ?parseMonthDay@XMLDateTime@xercesc_2_2@@QAEXXZ 12021e80 f   XMLDateTime.obj
 0001:00020fd0       ?parseYearMonth@XMLDateTime@xercesc_2_2@@QAEXXZ 12021fd0 f   XMLDateTime.obj
 0001:000210b0       ?parseDuration@XMLDateTime@xercesc_2_2@@QAEXXZ 120220b0 f   XMLDateTime.obj
 0001:000214e0       ?getDate@XMLDateTime@xercesc_2_2@@AAEXXZ 120224e0 f   XMLDateTime.obj
 0001:00021590       ?getTime@XMLDateTime@xercesc_2_2@@AAEXXZ 12022590 f   XMLDateTime.obj
 0001:00021720       ?getYearMonth@XMLDateTime@xercesc_2_2@@AAEXXZ 12022720 f   XMLDateTime.obj
 0001:00021830       ?parseTimeZone@XMLDateTime@xercesc_2_2@@AAEXXZ 12022830 f   XMLDateTime.obj
 0001:000218b0       ?getTimeZone@XMLDateTime@xercesc_2_2@@AAEXH@Z 120228b0 f   XMLDateTime.obj
 0001:00021970       ?normalize@XMLDateTime@xercesc_2_2@@AAEXXZ 12022970 f   XMLDateTime.obj
 0001:00021b50       ?validateDateTime@XMLDateTime@xercesc_2_2@@ABEXXZ 12022b50 f   XMLDateTime.obj
 0001:00021e00       ?indexOf@XMLDateTime@xercesc_2_2@@ABEHHHG@Z 12022e00 f   XMLDateTime.obj
 0001:00021e30       ?findUTCSign@XMLDateTime@xercesc_2_2@@AAEHH@Z 12022e30 f   XMLDateTime.obj
 0001:00021e80       ?parseInt@XMLDateTime@xercesc_2_2@@ABEHHH@Z 12022e80 f   XMLDateTime.obj
 0001:00021f10       ?parseIntYear@XMLDateTime@xercesc_2_2@@ABEHH@Z 12022f10 f   XMLDateTime.obj
 0001:00021fc0       ??0XMLDouble@xercesc_2_2@@QAE@QBG@Z 12022fc0 f   XMLDouble.obj
 0001:00022010       ??_EXMLDouble@xercesc_2_2@@UAEPAXI@Z 12023010 f i XMLDouble.obj
 0001:00022070       ??1XMLDouble@xercesc_2_2@@UAE@XZ 12023070 f   XMLDouble.obj
 0001:00022080       ?checkBoundary@XMLDouble@xercesc_2_2@@MAEXQBG@Z 12023080 f   XMLDouble.obj
 0001:000221f0       ?xlatThisOne@XMLEBCDICTranscoder@xercesc_2_2@@SAGE@Z 120231f0 f   XMLEBCDICTranscoder.obj
 0001:00022210       ??0XMLEBCDICTranscoder@xercesc_2_2@@QAE@QBGI@Z 12023210 f   XMLEBCDICTranscoder.obj
 0001:00022240       ??_EXMLEBCDICTranscoder@xercesc_2_2@@UAEPAXI@Z 12023240 f i XMLEBCDICTranscoder.obj
 0001:000222a0       ??1XMLEBCDICTranscoder@xercesc_2_2@@UAE@XZ 120232a0 f   XMLEBCDICTranscoder.obj
 0001:000222b0       ?registerCleanup@XMLRegisterCleanup@xercesc_2_2@@QAEXP6AXXZ@Z 120232b0 f i XMLException.obj
 0001:00022340       ??1XMLException@xercesc_2_2@@UAE@XZ 12023340 f   XMLException.obj
 0001:00022360       ??_EXMLException@xercesc_2_2@@UAEPAXI@Z 12023360 f i XMLException.obj
 0001:000223d0       ?setPosition@XMLException@xercesc_2_2@@QAEXQBDI@Z 120233d0 f   XMLException.obj
 0001:00022400       ??0XMLException@xercesc_2_2@@QAE@XZ 12023400 f   XMLException.obj
 0001:00022420       ??0XMLException@xercesc_2_2@@QAE@QBDI@Z 12023420 f   XMLException.obj
 0001:00022460       ??0XMLException@xercesc_2_2@@QAE@ABV01@@Z 12023460 f   XMLException.obj
 0001:000224f0       ??4XMLException@xercesc_2_2@@QAEXABV01@@Z 120234f0 f   XMLException.obj
 0001:000225a0       ?loadExceptText@XMLException@xercesc_2_2@@IAEXW4Codes@XMLExcepts@2@@Z 120235a0 f   XMLException.obj
 0001:00022840       ?loadExceptText@XMLException@xercesc_2_2@@IAEXW4Codes@XMLExcepts@2@QBG111@Z 12023840 f   XMLException.obj
 0001:00022970       ?loadExceptText@XMLException@xercesc_2_2@@IAEXW4Codes@XMLExcepts@2@QBD111@Z 12023970 f   XMLException.obj
 0001:00022aa0       ?reinitMsgMutex@XMLException@xercesc_2_2@@SAXXZ 12023aa0 f   XMLException.obj
 0001:00022ad0       ?reinitMsgLoader@XMLException@xercesc_2_2@@SAXXZ 12023ad0 f   XMLException.obj
 0001:00022af0       ?compareValues@XMLDouble@xercesc_2_2@@SAHQBV12@0@Z 12023af0 f i XMLFloat.obj
 0001:00022af0       ?compareValues@XMLFloat@xercesc_2_2@@SAHQBV12@0@Z 12023af0 f i XMLFloat.obj
 0001:00022b10       ??0XMLFloat@xercesc_2_2@@QAE@QBG@Z 12023b10 f   XMLFloat.obj
 0001:00022b60       ??_EXMLFloat@xercesc_2_2@@UAEPAXI@Z 12023b60 f i XMLFloat.obj
 0001:00022bc0       ??1XMLFloat@xercesc_2_2@@UAE@XZ 12023bc0 f   XMLFloat.obj
 0001:00022bd0       ?checkBoundary@XMLFloat@xercesc_2_2@@MAEXQBG@Z 12023bd0 f   XMLFloat.obj
 0001:00022dd0       ?xlatThisOne@XMLIBM1140Transcoder@xercesc_2_2@@SAGE@Z 12023dd0 f   XMLIBM1140Transcoder.obj
 0001:00022df0       ??0XMLIBM1140Transcoder@xercesc_2_2@@QAE@QBGI@Z 12023df0 f   XMLIBM1140Transcoder.obj
 0001:00022e20       ??_EXMLIBM1140Transcoder@xercesc_2_2@@UAEPAXI@Z 12023e20 f i XMLIBM1140Transcoder.obj
 0001:00022e80       ??1XMLIBM1140Transcoder@xercesc_2_2@@UAE@XZ 12023e80 f   XMLIBM1140Transcoder.obj
 0001:00022e90       ?setLocale@XMLMsgLoader@xercesc_2_2@@SAXQBD@Z 12023e90 f   XMLMsgLoader.obj
 0001:00022ee0       ?getLocale@XMLMsgLoader@xercesc_2_2@@SAPBDXZ 12023ee0 f   XMLMsgLoader.obj
 0001:00022ef0       ?getLanguageName@XMLMsgLoader@xercesc_2_2@@UBEPBGXZ 12023ef0 f   XMLMsgLoader.obj
 0001:00022f00       ??0XMLNumber@xercesc_2_2@@IAE@XZ 12023f00 f   XMLNumber.obj
 0001:00022f10       ??1XMLNumber@xercesc_2_2@@UAE@XZ 12023f10 f   XMLNumber.obj
 0001:00022f20       ?binToText@XMLString@xercesc_2_2@@SAXKQADII@Z 12023f20 f   XMLString.obj
 0001:00023060       ?binToText@XMLString@xercesc_2_2@@SAXIQADII@Z 12024060 f   XMLString.obj
 0001:00023080       ?binToText@XMLString@xercesc_2_2@@SAXJQADII@Z 12024080 f   XMLString.obj
 0001:00023080       ?binToText@XMLString@xercesc_2_2@@SAXHQADII@Z 12024080 f   XMLString.obj
 0001:000230c0       ?catString@XMLString@xercesc_2_2@@SAXQADQBD@Z 120240c0 f   XMLString.obj
 0001:000230f0       ?compareIString@XMLString@xercesc_2_2@@SAHQBD0@Z 120240f0 f   XMLString.obj
 0001:00023110       ?compareNString@XMLString@xercesc_2_2@@SAHQBD0I@Z 12024110 f   XMLString.obj
 0001:00023130       ?compareNIString@XMLString@xercesc_2_2@@SAHQBD0I@Z 12024130 f   XMLString.obj
 0001:00023150       ?compareString@XMLString@xercesc_2_2@@SAHQBD0@Z 12024150 f   XMLString.obj
 0001:00023190       ?copyString@XMLString@xercesc_2_2@@SAXQADQBD@Z 12024190 f   XMLString.obj
 0001:000231c0       ?cut@XMLString@xercesc_2_2@@SAXQAGI@Z 120241c0 f   XMLString.obj
 0001:000231f0       ?hash@XMLString@xercesc_2_2@@SAIQBDI@Z 120241f0 f   XMLString.obj
 0001:00023260       ?indexOf@XMLString@xercesc_2_2@@SAHQBDD@Z 12024260 f   XMLString.obj
 0001:00023290       ?indexOf@XMLString@xercesc_2_2@@SAHQBDDI@Z 12024290 f   XMLString.obj
 0001:000232f0       ?lastIndexOf@XMLString@xercesc_2_2@@SAHQBDD@Z 120242f0 f   XMLString.obj
 0001:00023320       ?lastIndexOf@XMLString@xercesc_2_2@@SAHQBDDI@Z 12024320 f   XMLString.obj
 0001:00023380       ?replaceTokens@XMLString@xercesc_2_2@@SAIQAGIQBG111@Z 12024380 f   XMLString.obj
 0001:000234e0       ?replicate@XMLString@xercesc_2_2@@SAPADQBD@Z 120244e0 f   XMLString.obj
 0001:00023520       ?startsWith@XMLString@xercesc_2_2@@SA_NQBD0@Z 12024520 f   XMLString.obj
 0001:00023550       ?startsWithI@XMLString@xercesc_2_2@@SA_NQBD0@Z 12024550 f   XMLString.obj
 0001:00023580       ?stringLen@XMLString@xercesc_2_2@@SAIQBD@Z 12024580 f   XMLString.obj
 0001:000235a0       ?transcode@XMLString@xercesc_2_2@@SAPADQBG@Z 120245a0 f   XMLString.obj
 0001:000235c0       ?transcode@XMLString@xercesc_2_2@@SA_NQBGQADI@Z 120245c0 f   XMLString.obj
 0001:000235e0       ?transcode@XMLString@xercesc_2_2@@SAPAGQBD@Z 120245e0 f   XMLString.obj
 0001:00023600       ?transcode@XMLString@xercesc_2_2@@SA_NQBDQAGI@Z 12024600 f   XMLString.obj
 0001:00023620       ?trim@XMLString@xercesc_2_2@@SAXQAD@Z 12024620 f   XMLString.obj
 0001:000236a0       ?subString@XMLString@xercesc_2_2@@SAXQADQBDHH@Z 120246a0 f   XMLString.obj
 0001:00023750       ?isValidNCName@XMLString@xercesc_2_2@@SA_NQBG@Z 12024750 f   XMLString.obj
 0001:00023790       ?isValidName@XMLString@xercesc_2_2@@SA_NQBG@Z 12024790 f   XMLString.obj
 0001:000237d0       ?isValidEncName@XMLString@xercesc_2_2@@SA_NQBG@Z 120247d0 f   XMLString.obj
 0001:00023870       ?isValidQName@XMLString@xercesc_2_2@@SA_NQBG@Z 12024870 f   XMLString.obj
 0001:000238b0       ?isAlpha@XMLString@xercesc_2_2@@SA_NG@Z 120248b0 f   XMLString.obj
 0001:000238e0       ?isDigit@XMLString@xercesc_2_2@@SA_NG@Z 120248e0 f   XMLString.obj
 0001:00023900       ?isAlphaNum@XMLString@xercesc_2_2@@SA_NG@Z 12024900 f   XMLString.obj
 0001:00023940       ?isHex@XMLString@xercesc_2_2@@SA_NG@Z 12024940 f   XMLString.obj
 0001:00023980       ?isAllWhiteSpace@XMLString@xercesc_2_2@@SA_NQBG@Z 12024980 f   XMLString.obj
 0001:000239c0       ?binToText@XMLString@xercesc_2_2@@SAXKQAGII@Z 120249c0 f   XMLString.obj
 0001:00023b30       ?binToText@XMLString@xercesc_2_2@@SAXIQAGII@Z 12024b30 f   XMLString.obj
 0001:00023b50       ?binToText@XMLString@xercesc_2_2@@SAXHQAGII@Z 12024b50 f   XMLString.obj
 0001:00023b50       ?binToText@XMLString@xercesc_2_2@@SAXJQAGII@Z 12024b50 f   XMLString.obj
 0001:00023b90       ?catString@XMLString@xercesc_2_2@@SAXQAGQBG@Z 12024b90 f   XMLString.obj
 0001:00023bf0       ?compareIString@XMLString@xercesc_2_2@@SAHQBG0@Z 12024bf0 f   XMLString.obj
 0001:00023c10       ?compareNString@XMLString@xercesc_2_2@@SAHQBG0I@Z 12024c10 f   XMLString.obj
 0001:00023c50       ?compareNIString@XMLString@xercesc_2_2@@SAHQBG0I@Z 12024c50 f   XMLString.obj
 0001:00023c70       ?compareString@XMLString@xercesc_2_2@@SAHQBG0@Z 12024c70 f   XMLString.obj
 0001:00023cf0       ?regionMatches@XMLString@xercesc_2_2@@SA_NQBGH0HI@Z 12024cf0 f   XMLString.obj
 0001:00023db0       ?regionIMatches@XMLString@xercesc_2_2@@SA_NQBGH0HI@Z 12024db0 f   XMLString.obj
 0001:00023e50       ?copyString@XMLString@xercesc_2_2@@SAXQAGQBG@Z 12024e50 f   XMLString.obj
 0001:00023e90       ?copyNString@XMLString@xercesc_2_2@@SA_NQAGQBGI@Z 12024e90 f   XMLString.obj
 0001:00023ed0       ?hash@XMLString@xercesc_2_2@@SAIQBGI@Z 12024ed0 f   XMLString.obj
 0001:00023f50       ?findAny@XMLString@xercesc_2_2@@SAPAGQAGQBG@Z 12024f50 f   XMLString.obj
 0001:00023f50       ?findAny@XMLString@xercesc_2_2@@SAPBGQBG0@Z 12024f50 f   XMLString.obj
 0001:00023fa0       ?patternMatch@XMLString@xercesc_2_2@@SAHQBG0@Z 12024fa0 f   XMLString.obj
 0001:00024020       ?hashN@XMLString@xercesc_2_2@@SAIQBGII@Z 12025020 f   XMLString.obj
 0001:00024090       ?indexOf@XMLString@xercesc_2_2@@SAHQBGG@Z 12025090 f   XMLString.obj
 0001:000240d0       ?indexOf@XMLString@xercesc_2_2@@SAHQBGGI@Z 120250d0 f   XMLString.obj
 0001:00024150       ?lastIndexOf@XMLString@xercesc_2_2@@SAHQBGG@Z 12025150 f   XMLString.obj
 0001:000241a0       ?lastIndexOf@XMLString@xercesc_2_2@@SAHQBGGI@Z 120251a0 f   XMLString.obj
 0001:00024220       ?makeUName@XMLString@xercesc_2_2@@SAPAGQBG0@Z 12025220 f   XMLString.obj
 0001:00024410       ?textToBin@XMLString@xercesc_2_2@@SA_NQBGAAI@Z 12025410 f   XMLString.obj
 0001:000245f0       ?parseInt@XMLString@xercesc_2_2@@SAHQBG@Z 120255f0 f   XMLString.obj
 0001:00024820       ?trim@XMLString@xercesc_2_2@@SAXQAG@Z 12025820 f   XMLString.obj
 0001:000248f0       ?upperCase@XMLString@xercesc_2_2@@SAXQAG@Z 120258f0 f   XMLString.obj
 0001:00024910       ?lowerCase@XMLString@xercesc_2_2@@SAXQAG@Z 12025910 f   XMLString.obj
 0001:00024930       ?subString@XMLString@xercesc_2_2@@SAXQAGQBGHH@Z 12025930 f   XMLString.obj
 0001:00024a00       ?tokenizeString@XMLString@xercesc_2_2@@SAPAV?$BaseRefVectorOf@G@2@QBG@Z 12025a00 f   XMLString.obj
 0001:00024c50       ?isInList@XMLString@xercesc_2_2@@SA_NQBG0@Z 12025c50 f   XMLString.obj
 0001:00024d00       ?isWSReplaced@XMLString@xercesc_2_2@@SA_NQBG@Z 12025d00 f   XMLString.obj
 0001:00024d40       ?replaceWS@XMLString@xercesc_2_2@@SAXQAG@Z 12025d40 f   XMLString.obj
 0001:00024df0       ?isWSCollapsed@XMLString@xercesc_2_2@@SA_NQBG@Z 12025df0 f   XMLString.obj
 0001:00024e80       ?collapseWS@XMLString@xercesc_2_2@@SAXQAG@Z 12025e80 f   XMLString.obj
 0001:00025010       ?removeWS@XMLString@xercesc_2_2@@SAXQAG@Z 12026010 f   XMLString.obj
 0001:000250d0       ?fixURI@XMLString@xercesc_2_2@@SAXQBGQAG@Z 120260d0 f   XMLString.obj
 0001:00025270       ?release@XMLString@xercesc_2_2@@SAXPAPAG@Z 12026270 f   XMLString.obj
 0001:00025270       ?release@XMLString@xercesc_2_2@@SAXPAPAE@Z 12026270 f   XMLString.obj
 0001:00025270       ?release@XMLString@xercesc_2_2@@SAXPAPAD@Z 12026270 f   XMLString.obj
 0001:00025290       ?initString@XMLString@xercesc_2_2@@CAXQAVXMLLCPTranscoder@2@@Z 12026290 f   XMLString.obj
 0001:000252a0       ?termString@XMLString@xercesc_2_2@@CAXXZ 120262a0 f   XMLString.obj
 0001:000252c0       ??4XMLStringTokenizer@xercesc_2_2@@QAEAAV01@ABV01@@Z 120262c0 f i XMLStringTokenizer.obj
 0001:000252e0       ?cleanUp@XMLStringTokenizer@xercesc_2_2@@AAEXXZ 120262e0 f i XMLStringTokenizer.obj
 0001:00025310       ?isDelimeter@XMLStringTokenizer@xercesc_2_2@@AAE_NG@Z 12026310 f i XMLStringTokenizer.obj
 0001:00025330       ?countTokens@XMLStringTokenizer@xercesc_2_2@@QAEHXZ 12026330 f i XMLStringTokenizer.obj
 0001:00025380       ??0XMLStringTokenizer@xercesc_2_2@@QAE@QBG@Z 12026380 f   XMLStringTokenizer.obj
 0001:00025530       ??0XMLStringTokenizer@xercesc_2_2@@QAE@QBG0@Z 12026530 f   XMLStringTokenizer.obj
 0001:000256d0       ??1XMLStringTokenizer@xercesc_2_2@@QAE@XZ 120266d0 f   XMLStringTokenizer.obj
 0001:00025700       ?nextToken@XMLStringTokenizer@xercesc_2_2@@QAEPAGXZ 12026700 f   XMLStringTokenizer.obj
 0001:00025810       ?hasMoreTokens@XMLStringTokenizer@xercesc_2_2@@QAE_NXZ 12026810 f   XMLStringTokenizer.obj
 0001:00025870       ??0XMLUCS4Transcoder@xercesc_2_2@@QAE@QBGI_N@Z 12026870 f   XMLUCSTranscoder.obj
 0001:000258a0       ??_EXMLUCS4Transcoder@xercesc_2_2@@UAEPAXI@Z 120268a0 f i XMLUCSTranscoder.obj
 0001:00025900       ??1XMLUCS4Transcoder@xercesc_2_2@@UAE@XZ 12026900 f   XMLUCSTranscoder.obj
 0001:00025910       ?transcodeFrom@XMLUCS4Transcoder@xercesc_2_2@@UAEIQBEIQAGIAAIQAE@Z 12026910 f   XMLUCSTranscoder.obj
 0001:00025a00       ?transcodeTo@XMLUCS4Transcoder@xercesc_2_2@@UAEIQBGIQAEIAAIW4UnRepOpts@XMLTranscoder@2@@Z 12026a00 f   XMLUCSTranscoder.obj
 0001:00025b40       ?getUriText@XMLUri@xercesc_2_2@@QBEPBGXZ 12026b40 f i XMLUri.obj
 0001:00025b60       ?isReservedCharacter@XMLUri@xercesc_2_2@@CA_NG@Z 12026b60 f i XMLUri.obj
 0001:00025b80       ?isUnreservedCharacter@XMLUri@xercesc_2_2@@CA_NG@Z 12026b80 f i XMLUri.obj
 0001:00025bb0       ??0XMLUri@xercesc_2_2@@QAE@QBG@Z 12026bb0 f   XMLUri.obj
 0001:00025c30       ??_EXMLUri@xercesc_2_2@@UAEPAXI@Z 12026c30 f i XMLUri.obj
 0001:00025c90       ??0XMLUri@xercesc_2_2@@QAE@QBV01@QBG@Z 12026c90 f   XMLUri.obj
 0001:00025d20       ??0XMLUri@xercesc_2_2@@QAE@ABV01@@Z 12026d20 f   XMLUri.obj
 0001:00025f40       ??4XMLUri@xercesc_2_2@@QAEAAV01@ABV01@@Z 12026f40 f   XMLUri.obj
 0001:00026150       ??1XMLUri@xercesc_2_2@@UAE@XZ 12027150 f   XMLUri.obj
 0001:00026160       ?cleanUp@XMLUri@xercesc_2_2@@AAEXXZ 12027160 f   XMLUri.obj
 0001:000261e0       ?initialize@XMLUri@xercesc_2_2@@AAEXABV12@@Z 120271e0 f   XMLUri.obj
 0001:000263b0       ?initialize@XMLUri@xercesc_2_2@@AAEXQBV12@QBG@Z 120273b0 f   XMLUri.obj
 0001:00026e30       ?initializeAuthority@XMLUri@xercesc_2_2@@AAEXQBG@Z 12027e30 f   XMLUri.obj
 0001:00027000       ?initializeScheme@XMLUri@xercesc_2_2@@AAEXQBG@Z 12028000 f   XMLUri.obj
 0001:00027200       ?initializePath@XMLUri@xercesc_2_2@@AAEXQBG@Z 12028200 f   XMLUri.obj
 0001:00027720       ?setScheme@XMLUri@xercesc_2_2@@QAEXQBG@Z 12028720 f   XMLUri.obj
 0001:00027850       ?setUserInfo@XMLUri@xercesc_2_2@@QAEXQBG@Z 12028850 f   XMLUri.obj
 0001:00027960       ?setHost@XMLUri@xercesc_2_2@@QAEXQBG@Z 12028960 f   XMLUri.obj
 0001:00027a60       ?setPort@XMLUri@xercesc_2_2@@QAEXH@Z 12028a60 f   XMLUri.obj
 0001:00027b20       ?setPath@XMLUri@xercesc_2_2@@QAEXQBG@Z 12028b20 f   XMLUri.obj
 0001:00027b70       ?setFragment@XMLUri@xercesc_2_2@@QAEXQBG@Z 12028b70 f   XMLUri.obj
 0001:00027d30       ?setQueryString@XMLUri@xercesc_2_2@@QAEXQBG@Z 12028d30 f   XMLUri.obj
 0001:00027ef0       ?isConformantSchemeName@XMLUri@xercesc_2_2@@CA_NQBG@Z 12028ef0 f   XMLUri.obj
 0001:00027f60       ?isConformantUserInfo@XMLUri@xercesc_2_2@@CAXQBG@Z 12028f60 f   XMLUri.obj
 0001:00028090       ?isURIString@XMLUri@xercesc_2_2@@SA_NQBG@Z 12029090 f   XMLUri.obj
 0001:00028120       ?isWellFormedAddress@XMLUri@xercesc_2_2@@CA_NQBG@Z 12029120 f   XMLUri.obj
 0001:000283c0       ?isGenericURI@XMLUri@xercesc_2_2@@AAE_NXZ 120293c0 f   XMLUri.obj
 0001:000283d0       ?buildFullText@XMLUri@xercesc_2_2@@AAEXXZ 120293d0 f   XMLUri.obj
 0001:00028730       ?lookupByName@XMLURL@xercesc_2_2@@SA?AW4Protocols@12@QBG@Z 12029730 f   XMLURL.obj
 0001:00028780       ??0XMLURL@xercesc_2_2@@QAE@XZ 12029780 f   XMLURL.obj
 0001:000287b0       ??_EXMLURL@xercesc_2_2@@UAEPAXI@Z 120297b0 f i XMLURL.obj
 0001:00028810       ??0XMLURL@xercesc_2_2@@QAE@QBG0@Z 12029810 f   XMLURL.obj
 0001:00028930       ??0XMLURL@xercesc_2_2@@QAE@QBGQBD@Z 12029930 f   XMLURL.obj
 0001:00028a70       ??0XMLURL@xercesc_2_2@@QAE@ABV01@QBG@Z 12029a70 f   XMLURL.obj
 0001:00028b20       ??0XMLURL@xercesc_2_2@@QAE@ABV01@QBD@Z 12029b20 f   XMLURL.obj
 0001:00028bf0       ??0XMLURL@xercesc_2_2@@QAE@QBG@Z 12029bf0 f   XMLURL.obj
 0001:00028c80       ??0XMLURL@xercesc_2_2@@QAE@QBD@Z 12029c80 f   XMLURL.obj
 0001:00028d30       ??0XMLURL@xercesc_2_2@@QAE@ABV01@@Z 12029d30 f   XMLURL.obj
 0001:00028f00       ??1XMLURL@xercesc_2_2@@UAE@XZ 12029f00 f   XMLURL.obj
 0001:00028f10       ??4XMLURL@xercesc_2_2@@QAEAAV01@ABV01@@Z 12029f10 f   XMLURL.obj
 0001:000290e0       ??8XMLURL@xercesc_2_2@@QBE_NABV01@@Z 1202a0e0 f   XMLURL.obj
 0001:00029160       ?getPortNum@XMLURL@xercesc_2_2@@QBEIXZ 1202a160 f   XMLURL.obj
 0001:00029180       ?getProtocolName@XMLURL@xercesc_2_2@@QBEPBGXZ 1202a180 f   XMLURL.obj
 0001:000291c0       ?setURL@XMLURL@xercesc_2_2@@QAEXQBG@Z 1202a1c0 f   XMLURL.obj
 0001:000291e0       ?setURL@XMLURL@xercesc_2_2@@QAEXQBG0@Z 1202a1e0 f   XMLURL.obj
 0001:000292d0       ?setURL@XMLURL@xercesc_2_2@@QAEXABV12@QBG@Z 1202a2d0 f   XMLURL.obj
 0001:00029310       ?isRelative@XMLURL@xercesc_2_2@@QBE_NXZ 1202a310 f   XMLURL.obj
 0001:00029330       ?hasInvalidChar@XMLURL@xercesc_2_2@@QBE_NXZ 1202a330 f   XMLURL.obj
 0001:00029340       ?makeNewStream@XMLURL@xercesc_2_2@@QBEPAVBinInputStream@2@XZ 1202a340 f   XMLURL.obj
 0001:00029690       ?makeRelativeTo@XMLURL@xercesc_2_2@@QAEXQBG@Z 1202a690 f   XMLURL.obj
 0001:00029710       ?makeRelativeTo@XMLURL@xercesc_2_2@@QAEXABV12@@Z 1202a710 f   XMLURL.obj
 0001:00029740       ?buildFullText@XMLURL@xercesc_2_2@@AAEXXZ 1202a740 f   XMLURL.obj
 0001:00029af0       ?cleanup@XMLURL@xercesc_2_2@@AAEXXZ 1202aaf0 f   XMLURL.obj
 0001:00029b60       ?conglomerateWithBase@XMLURL@xercesc_2_2@@AAE_NABV12@_N@Z 1202ab60 f   XMLURL.obj
 0001:00029ef0       ?parse@XMLURL@xercesc_2_2@@AAEXQBG@Z 1202aef0 f   XMLURL.obj
 0001:0002a6a0       ??0XMLUTF16Transcoder@xercesc_2_2@@QAE@QBGI_N@Z 1202b6a0 f   XMLUTF16Transcoder.obj
 0001:0002a6d0       ??_EXMLUTF16Transcoder@xercesc_2_2@@UAEPAXI@Z 1202b6d0 f i XMLUTF16Transcoder.obj
 0001:0002a730       ??1XMLUTF16Transcoder@xercesc_2_2@@UAE@XZ 1202b730 f   XMLUTF16Transcoder.obj
 0001:0002a740       ?transcodeFrom@XMLUTF16Transcoder@xercesc_2_2@@UAEIQBEIQAGIAAIQAE@Z 1202b740 f   XMLUTF16Transcoder.obj
 0001:0002a7c0       ?transcodeTo@XMLUTF16Transcoder@xercesc_2_2@@UAEIQBGIQAEIAAIW4UnRepOpts@XMLTranscoder@2@@Z 1202b7c0 f   XMLUTF16Transcoder.obj
 0001:0002a840       ?canTranscodeTo@XMLChTranscoder@xercesc_2_2@@UBE_NI@Z 1202b840 f   XMLUTF16Transcoder.obj
 0001:0002a840       ?canTranscodeTo@XMLUCS4Transcoder@xercesc_2_2@@UBE_NI@Z 1202b840 f   XMLUTF16Transcoder.obj
 0001:0002a840       ?canTranscodeTo@XMLUTF16Transcoder@xercesc_2_2@@UBE_NI@Z 1202b840 f   XMLUTF16Transcoder.obj
 0001:0002a850       ??0XMLUTF8Transcoder@xercesc_2_2@@QAE@QBGI@Z 1202b850 f   XMLUTF8Transcoder.obj
 0001:0002a870       ??_EXMLUTF8Transcoder@xercesc_2_2@@UAEPAXI@Z 1202b870 f i XMLUTF8Transcoder.obj
 0001:0002a8d0       ??1XMLUTF8Transcoder@xercesc_2_2@@UAE@XZ 1202b8d0 f   XMLUTF8Transcoder.obj
 0001:0002a8e0       ?transcodeFrom@XMLUTF8Transcoder@xercesc_2_2@@UAEIQBEIQAGIAAIQAE@Z 1202b8e0 f   XMLUTF8Transcoder.obj
 0001:0002aac0       ?transcodeTo@XMLUTF8Transcoder@xercesc_2_2@@UAEIQBGIQAEIAAIW4UnRepOpts@XMLTranscoder@2@@Z 1202bac0 f   XMLUTF8Transcoder.obj
 0001:0002acb0       ?canTranscodeTo@XMLUTF8Transcoder@xercesc_2_2@@UBE_NI@Z 1202bcb0 f   XMLUTF8Transcoder.obj
 0001:0002acd0       ??0XMLWin1252Transcoder@xercesc_2_2@@QAE@QBGI@Z 1202bcd0 f   XMLWin1252Transcoder.obj
 0001:0002ad00       ??_EXMLWin1252Transcoder@xercesc_2_2@@UAEPAXI@Z 1202bd00 f i XMLWin1252Transcoder.obj
 0001:0002ad60       ??1XMLWin1252Transcoder@xercesc_2_2@@UAE@XZ 1202bd60 f   XMLWin1252Transcoder.obj
 0001:0002ad70       ??1XMLFormatTarget@xercesc_2_2@@UAE@XZ 1202bd70 f i LocalFileFormatTarget.obj
 0001:0002ad80       ??0XMLFormatTarget@xercesc_2_2@@IAE@XZ 1202bd80 f i LocalFileFormatTarget.obj
 0001:0002ad90       ??0XMLFormatTarget@xercesc_2_2@@IAE@ABV01@@Z 1202bd90 f i LocalFileFormatTarget.obj
 0001:0002ada0       ??_EXMLFormatTarget@xercesc_2_2@@UAEPAXI@Z 1202bda0 f i LocalFileFormatTarget.obj
 0001:0002ae00       ??0XMLInteger@xercesc_2_2@@QAE@H@Z 1202be00 f i LocalFileFormatTarget.obj
 0001:0002ae00       ??6XMLFormatter@xercesc_2_2@@QAEAAV01@W4EscapeFlags@01@@Z 1202be00 f i LocalFileFormatTarget.obj
 0001:0002ae10       ??6XMLFormatter@xercesc_2_2@@QAEAAV01@W4UnRepFlags@01@@Z 1202be10 f i LocalFileFormatTarget.obj
 0001:0002ae20       ??0LocalFileFormatTarget@xercesc_2_2@@QAE@QBG@Z 1202be20 f   LocalFileFormatTarget.obj
 0001:0002aee0       ??_ELocalFileFormatTarget@xercesc_2_2@@UAEPAXI@Z 1202bee0 f i LocalFileFormatTarget.obj
 0001:0002af40       ??0LocalFileFormatTarget@xercesc_2_2@@QAE@QBD@Z 1202bf40 f   LocalFileFormatTarget.obj
 0001:0002b000       ??1LocalFileFormatTarget@xercesc_2_2@@UAE@XZ 1202c000 f   LocalFileFormatTarget.obj
 0001:0002b0a0       ?writeChars@LocalFileFormatTarget@xercesc_2_2@@UAEXQBEIQAVXMLFormatter@2@@Z 1202c0a0 f   LocalFileFormatTarget.obj
 0001:0002b170       ?flushBuffer@LocalFileFormatTarget@xercesc_2_2@@AAEXXZ 1202c170 f   LocalFileFormatTarget.obj
 0001:0002b170       ?flush@LocalFileFormatTarget@xercesc_2_2@@UAEXXZ 1202c170 f   LocalFileFormatTarget.obj
 0001:0002b1c0       ?insureCapacity@LocalFileFormatTarget@xercesc_2_2@@AAEXI@Z 1202c1c0 f   LocalFileFormatTarget.obj
 0001:0002b260       ??0LocalFileInputSource@xercesc_2_2@@QAE@QBG0@Z 1202c260 f   LocalFileInputSource.obj
 0001:0002b2f0       ??_ELocalFileInputSource@xercesc_2_2@@UAEPAXI@Z 1202c2f0 f i LocalFileInputSource.obj
 0001:0002b350       ??0LocalFileInputSource@xercesc_2_2@@QAE@QBG@Z 1202c350 f   LocalFileInputSource.obj
 0001:0002b3d0       ??1LocalFileInputSource@xercesc_2_2@@UAE@XZ 1202c3d0 f   LocalFileInputSource.obj
 0001:0002b3e0       ?makeStream@LocalFileInputSource@xercesc_2_2@@UBEPAVBinInputStream@2@XZ 1202c3e0 f   LocalFileInputSource.obj
 0001:0002b460       ??_FMemBufFormatTarget@xercesc_2_2@@QAEXXZ 1202c460 f i MemBufFormatTarget.obj
 0001:0002b470       ??0MemBufFormatTarget@xercesc_2_2@@QAE@H@Z 1202c470 f   MemBufFormatTarget.obj
 0001:0002b4e0       ??_EMemBufFormatTarget@xercesc_2_2@@UAEPAXI@Z 1202c4e0 f i MemBufFormatTarget.obj
 0001:0002b540       ??1MemBufFormatTarget@xercesc_2_2@@UAE@XZ 1202c540 f   MemBufFormatTarget.obj
 0001:0002b590       ?writeChars@MemBufFormatTarget@xercesc_2_2@@UAEXQBEIQAVXMLFormatter@2@@Z 1202c590 f   MemBufFormatTarget.obj
 0001:0002b620       ?getRawBuffer@MemBufFormatTarget@xercesc_2_2@@QBEPBEXZ 1202c620 f   MemBufFormatTarget.obj
 0001:0002b650       ?reset@MemBufFormatTarget@xercesc_2_2@@QAEXXZ 1202c650 f   MemBufFormatTarget.obj
 0001:0002b680       ?insureCapacity@MemBufFormatTarget@xercesc_2_2@@AAEXI@Z 1202c680 f   MemBufFormatTarget.obj
 0001:0002b6e0       ??0MemBufInputSource@xercesc_2_2@@QAE@QBEIQBG_N@Z 1202c6e0 f   MemBufInputSource.obj
 0001:0002b720       ??_EMemBufInputSource@xercesc_2_2@@UAEPAXI@Z 1202c720 f i MemBufInputSource.obj
 0001:0002b780       ??0MemBufInputSource@xercesc_2_2@@QAE@QBEIQBD_N@Z 1202c780 f   MemBufInputSource.obj
 0001:0002b7c0       ??1MemBufInputSource@xercesc_2_2@@UAE@XZ 1202c7c0 f   MemBufInputSource.obj
 0001:0002b820       ?makeStream@MemBufInputSource@xercesc_2_2@@UBEPAVBinInputStream@2@XZ 1202c820 f   MemBufInputSource.obj
 0001:0002b890       ??0StdInInputSource@xercesc_2_2@@QAE@XZ 1202c890 f i StdInInputSource.obj
 0001:0002b8b0       ??_EStdInInputSource@xercesc_2_2@@UAEPAXI@Z 1202c8b0 f i StdInInputSource.obj
 0001:0002b910       ??1StdInInputSource@xercesc_2_2@@UAE@XZ 1202c910 f i StdInInputSource.obj
 0001:0002b920       ?makeStream@StdInInputSource@xercesc_2_2@@UBEPAVBinInputStream@2@XZ 1202c920 f   StdInInputSource.obj
 0001:0002b9a0       ??0StdOutFormatTarget@xercesc_2_2@@QAE@XZ 1202c9a0 f   StdOutFormatTarget.obj
 0001:0002b9b0       ??_EStdOutFormatTarget@xercesc_2_2@@UAEPAXI@Z 1202c9b0 f i StdOutFormatTarget.obj
 0001:0002ba10       ??1StdOutFormatTarget@xercesc_2_2@@UAE@XZ 1202ca10 f   StdOutFormatTarget.obj
 0001:0002ba20       ?flush@StdOutFormatTarget@xercesc_2_2@@UAEXXZ 1202ca20 f   StdOutFormatTarget.obj
 0001:0002ba30       ?writeChars@StdOutFormatTarget@xercesc_2_2@@UAEXQBEIQAVXMLFormatter@2@@Z 1202ca30 f   StdOutFormatTarget.obj
 0001:0002ba60       ?urlSrc@URLInputSource@xercesc_2_2@@QBEABVXMLURL@2@XZ 1202ca60 f i URLInputSource.obj
 0001:0002ba70       ??0URLInputSource@xercesc_2_2@@QAE@ABVXMLURL@1@@Z 1202ca70 f   URLInputSource.obj
 0001:0002baf0       ??_EURLInputSource@xercesc_2_2@@UAEPAXI@Z 1202caf0 f i URLInputSource.obj
 0001:0002bb50       ??0URLInputSource@xercesc_2_2@@QAE@QBG0@Z 1202cb50 f   URLInputSource.obj
 0001:0002bbd0       ??0URLInputSource@xercesc_2_2@@QAE@QBG00@Z 1202cbd0 f   URLInputSource.obj
 0001:0002bc50       ??0URLInputSource@xercesc_2_2@@QAE@QBGQBD@Z 1202cc50 f   URLInputSource.obj
 0001:0002bcd0       ??0URLInputSource@xercesc_2_2@@QAE@QBGQBD1@Z 1202ccd0 f   URLInputSource.obj
 0001:0002bd50       ??1URLInputSource@xercesc_2_2@@UAE@XZ 1202cd50 f   URLInputSource.obj
 0001:0002bdb0       ?makeStream@URLInputSource@xercesc_2_2@@UBEPAVBinInputStream@2@XZ 1202cdb0 f   URLInputSource.obj
 0001:0002bdc0       ??0DOMInputSource@xercesc_2_2@@IAE@XZ 1202cdc0 f i Wrapper4DOMInputSource.obj
 0001:0002bdd0       ??0DOMInputSource@xercesc_2_2@@IAE@ABV01@@Z 1202cdd0 f i Wrapper4DOMInputSource.obj
 0001:0002bde0       ??1DOMInputSource@xercesc_2_2@@UAE@XZ 1202cde0 f i Wrapper4DOMInputSource.obj
 0001:0002bdf0       ??_EDOMInputSource@xercesc_2_2@@UAEPAXI@Z 1202cdf0 f i Wrapper4DOMInputSource.obj
 0001:0002be50       ??0Wrapper4DOMInputSource@xercesc_2_2@@QAE@QAVDOMInputSource@1@_N@Z 1202ce50 f   Wrapper4DOMInputSource.obj
 0001:0002bef0       ??_EWrapper4DOMInputSource@xercesc_2_2@@UAEPAXI@Z 1202cef0 f i Wrapper4DOMInputSource.obj
 0001:0002bf50       ??1Wrapper4DOMInputSource@xercesc_2_2@@UAE@XZ 1202cf50 f   Wrapper4DOMInputSource.obj
 0001:0002bfb0       ?getIssueFatalErrorIfNotFound@Wrapper4DOMInputSource@xercesc_2_2@@UBE?B_NXZ 1202cfb0 f   Wrapper4DOMInputSource.obj
 0001:0002bfc0       ?getEncoding@Wrapper4DOMInputSource@xercesc_2_2@@UBEPBGXZ 1202cfc0 f   Wrapper4DOMInputSource.obj
 0001:0002bfd0       ?getSystemId@Wrapper4DOMInputSource@xercesc_2_2@@UBEPBGXZ 1202cfd0 f   Wrapper4DOMInputSource.obj
 0001:0002bfe0       ?getPublicId@Wrapper4DOMInputSource@xercesc_2_2@@UBEPBGXZ 1202cfe0 f   Wrapper4DOMInputSource.obj
 0001:0002bff0       ?setIssueFatalErrorIfNotFound@Wrapper4DOMInputSource@xercesc_2_2@@UAEX_N@Z 1202cff0 f   Wrapper4DOMInputSource.obj
 0001:0002c000       ?setEncoding@Wrapper4DOMInputSource@xercesc_2_2@@UAEXQBG@Z 1202d000 f   Wrapper4DOMInputSource.obj
 0001:0002c010       ?setPublicId@Wrapper4DOMInputSource@xercesc_2_2@@UAEXQBG@Z 1202d010 f   Wrapper4DOMInputSource.obj
 0001:0002c020       ?setSystemId@Wrapper4DOMInputSource@xercesc_2_2@@UAEXQBG@Z 1202d020 f   Wrapper4DOMInputSource.obj
 0001:0002c030       ?makeStream@Wrapper4DOMInputSource@xercesc_2_2@@UBEPAVBinInputStream@2@XZ 1202d030 f   Wrapper4DOMInputSource.obj
 0001:0002c040       ??0Wrapper4InputSource@xercesc_2_2@@QAE@QAVInputSource@1@_N@Z 1202d040 f   Wrapper4InputSource.obj
 0001:0002c0d0       ??_EWrapper4InputSource@xercesc_2_2@@UAEPAXI@Z 1202d0d0 f i Wrapper4InputSource.obj
 0001:0002c130       ??1Wrapper4InputSource@xercesc_2_2@@UAE@XZ 1202d130 f   Wrapper4InputSource.obj
 0001:0002c190       ?getIssueFatalErrorIfNotFound@Wrapper4InputSource@xercesc_2_2@@UBE?B_NXZ 1202d190 f   Wrapper4InputSource.obj
 0001:0002c1a0       ?getEncoding@Wrapper4InputSource@xercesc_2_2@@UBEPBGXZ 1202d1a0 f   Wrapper4InputSource.obj
 0001:0002c1b0       ?getSystemId@Wrapper4InputSource@xercesc_2_2@@UBEPBGXZ 1202d1b0 f   Wrapper4InputSource.obj
 0001:0002c1c0       ?getPublicId@Wrapper4InputSource@xercesc_2_2@@UBEPBGXZ 1202d1c0 f   Wrapper4InputSource.obj
 0001:0002c1d0       ?setIssueFatalErrorIfNotFound@Wrapper4InputSource@xercesc_2_2@@UAEX_N@Z 1202d1d0 f   Wrapper4InputSource.obj
 0001:0002c1e0       ?setEncoding@Wrapper4InputSource@xercesc_2_2@@UAEXQBG@Z 1202d1e0 f   Wrapper4InputSource.obj
 0001:0002c1f0       ?setPublicId@Wrapper4InputSource@xercesc_2_2@@UAEXQBG@Z 1202d1f0 f   Wrapper4InputSource.obj
 0001:0002c200       ?setSystemId@Wrapper4InputSource@xercesc_2_2@@UAEXQBG@Z 1202d200 f   Wrapper4InputSource.obj
 0001:0002c210       ?makeStream@Wrapper4InputSource@xercesc_2_2@@UBEPAVBinInputStream@2@XZ 1202d210 f   Wrapper4InputSource.obj
 0001:0002c220       ?release@DOMWriterImpl@xercesc_2_2@@UAEXXZ 1202d220 f   Wrapper4InputSource.obj
 0001:0002c220       ?unreferenced@DeepNodeListImpl@xercesc_2_2@@EAEXXZ 1202d220 f   Wrapper4InputSource.obj
 0001:0002c220       ?release@Wrapper4InputSource@xercesc_2_2@@UAEXXZ 1202d220 f   Wrapper4InputSource.obj
 0001:0002c230       ??_FXMLAttDef@xercesc_2_2@@QAEXXZ 1202d230 f i XMLAttDef.obj
 0001:0002c260       ?isExternal@XMLAttDef@xercesc_2_2@@QBE_NXZ 1202d260 f i XMLAttDef.obj
 0001:0002c270       ?setEnumeration@XMLAttDef@xercesc_2_2@@QAEXQBG@Z 1202d270 f i XMLAttDef.obj
 0001:0002c2f0       ?setValue@XMLAttDef@xercesc_2_2@@QAEXQBG@Z 1202d2f0 f i XMLAttDef.obj
 0001:0002c360       ?getAttTypeString@XMLAttDef@xercesc_2_2@@SAPBGW4AttTypes@12@@Z 1202d360 f   XMLAttDef.obj
 0001:0002c3a0       ?getDefAttTypeString@XMLAttDef@xercesc_2_2@@SAPBGW4DefAttTypes@12@@Z 1202d3a0 f   XMLAttDef.obj
 0001:0002c3e0       ??1XMLAttDef@xercesc_2_2@@UAE@XZ 1202d3e0 f   XMLAttDef.obj
 0001:0002c400       ??_EXMLAttDef@xercesc_2_2@@UAEPAXI@Z 1202d400 f i XMLAttDef.obj
 0001:0002c470       ??0XMLAttDef@xercesc_2_2@@IAE@W4AttTypes@01@W4DefAttTypes@01@@Z 1202d470 f   XMLAttDef.obj
 0001:0002c4b0       ??0XMLAttDef@xercesc_2_2@@IAE@QBGW4AttTypes@01@W4DefAttTypes@01@0@Z 1202d4b0 f   XMLAttDef.obj
 0001:0002c5f0       ?cleanUp@XMLAttDef@xercesc_2_2@@AAEXXZ 1202d5f0 f   XMLAttDef.obj
 0001:0002c610       ??1XMLAttr@xercesc_2_2@@QAE@XZ 1202d610 f i XMLAttr.obj
 0001:0002c640       ?getName@XMLAttr@xercesc_2_2@@QBEPBGXZ 1202d640 f i XMLAttr.obj
 0001:0002c650       ?getPrefix@XMLAttr@xercesc_2_2@@QBEPBGXZ 1202d650 f i XMLAttr.obj
 0001:0002c660       ?getDeclared@XMLRefInfo@xercesc_2_2@@QBE_NXZ 1202d660 f i XMLAttr.obj
 0001:0002c660       ?getSpecified@XMLAttr@xercesc_2_2@@QBE_NXZ 1202d660 f i XMLAttr.obj
 0001:0002c660       ?getAbstract@ComplexTypeInfo@xercesc_2_2@@QBE_NXZ 1202d660 f i XMLAttr.obj
 0001:0002c660       ?getCheckElementConsistency@XercesGroupInfo@xercesc_2_2@@QBE_NXZ 1202d660 f i XMLAttr.obj
 0001:0002c660       ?containsTypeWithId@XercesAttGroupInfo@xercesc_2_2@@QBE_NXZ 1202d660 f i XMLAttr.obj
 0001:0002c660       ?getMayMatch@IC_Field@xercesc_2_2@@QBE_NXZ 1202d660 f i XMLAttr.obj
 0001:0002c670       ?getURIId@XMLAttr@xercesc_2_2@@QBEIXZ 1202d670 f i XMLAttr.obj
 0001:0002c680       ?set@XMLAttr@xercesc_2_2@@QAEXIQBG00W4AttTypes@XMLAttDef@2@@Z 1202d680 f i XMLAttr.obj
 0001:0002c730       ?set@XMLAttr@xercesc_2_2@@QAEXIQBG0W4AttTypes@XMLAttDef@2@@Z 1202d730 f i XMLAttr.obj
 0001:0002c7e0       ?setDeclared@XMLRefInfo@xercesc_2_2@@QAEX_N@Z 1202d7e0 f i XMLAttr.obj
 0001:0002c7e0       ?setMayMatch@IC_Field@xercesc_2_2@@QAEX_N@Z 1202d7e0 f i XMLAttr.obj
 0001:0002c7e0       ?setSpecified@XMLAttr@xercesc_2_2@@QAEX_N@Z 1202d7e0 f i XMLAttr.obj
 0001:0002c7e0       ?setAbstract@ComplexTypeInfo@xercesc_2_2@@QAEX_N@Z 1202d7e0 f i XMLAttr.obj
 0001:0002c7e0       ?setTypeWithId@XercesAttGroupInfo@xercesc_2_2@@QAEX_N@Z 1202d7e0 f i XMLAttr.obj
 0001:0002c7e0       ?setCheckElementConsistency@XercesGroupInfo@xercesc_2_2@@QAEX_N@Z 1202d7e0 f i XMLAttr.obj
 0001:0002c7f0       ??0XMLAttr@xercesc_2_2@@QAE@XZ 1202d7f0 f   XMLAttr.obj
 0001:0002c870       ??0XMLAttr@xercesc_2_2@@QAE@IQBG00W4AttTypes@XMLAttDef@1@_N@Z 1202d870 f   XMLAttr.obj
 0001:0002c990       ??0XMLAttr@xercesc_2_2@@QAE@IQBG0W4AttTypes@XMLAttDef@1@_N@Z 1202d990 f   XMLAttr.obj
 0001:0002cab0       ?getQName@XMLAttr@xercesc_2_2@@QBEPBGXZ 1202dab0 f   XMLAttr.obj
 0001:0002cac0       ?setName@XMLAttr@xercesc_2_2@@QAEXIQBG0@Z 1202dac0 f   XMLAttr.obj
 0001:0002cae0       ?setURIId@XMLAttr@xercesc_2_2@@QAEXI@Z 1202dae0 f   XMLAttr.obj
 0001:0002caf0       ?cleanUp@XMLAttr@xercesc_2_2@@AAEXXZ 1202daf0 f   XMLAttr.obj
 0001:0002cb20       ?append@XMLBuffer@xercesc_2_2@@QAEXQBGI@Z 1202db20 f   XMLBuffer.obj
 0001:0002cbe0       ?set@XMLBuffer@xercesc_2_2@@QAEXQBGI@Z 1202dbe0 f   XMLBuffer.obj
 0001:0002cc90       ?expand@XMLBuffer@xercesc_2_2@@AAEXXZ 1202dc90 f   XMLBuffer.obj
 0001:0002cd10       ?insureCapacity@XMLBuffer@xercesc_2_2@@AAEXI@Z 1202dd10 f   XMLBuffer.obj
 0001:0002cd70       ??0XMLBufferMgr@xercesc_2_2@@QAE@XZ 1202dd70 f   XMLBufferMgr.obj
 0001:0002cdb0       ??1XMLBufferMgr@xercesc_2_2@@QAE@XZ 1202ddb0 f   XMLBufferMgr.obj
 0001:0002cdf0       ?bidOnBuffer@XMLBufferMgr@xercesc_2_2@@QAEAAVXMLBuffer@2@XZ 1202ddf0 f   XMLBufferMgr.obj
 0001:0002cf10       ?releaseBuffer@XMLBufferMgr@xercesc_2_2@@QAEXAAVXMLBuffer@2@@Z 1202df10 f   XMLBufferMgr.obj
 0001:0002cf60       ??1XMLContentModel@xercesc_2_2@@UAE@XZ 1202df60 f i XMLContentModel.obj
 0001:0002cf70       ??0XMLContentModel@xercesc_2_2@@IAE@XZ 1202df70 f i XMLContentModel.obj
 0001:0002cf80       ??_EXMLContentModel@xercesc_2_2@@UAEPAXI@Z 1202df80 f i XMLContentModel.obj
 0001:0002cfe0       ??1XMLAttDefList@xercesc_2_2@@UAE@XZ 1202dfe0 f i XMLElementDecl.obj
 0001:0002cff0       ??_EXMLAttDefList@xercesc_2_2@@UAEPAXI@Z 1202dff0 f i XMLElementDecl.obj
 0001:0002d050       ??0XMLAttDefList@xercesc_2_2@@IAE@XZ 1202e050 f i XMLElementDecl.obj
 0001:0002d060       ??0XMLAttDefList@xercesc_2_2@@IAE@ABV01@@Z 1202e060 f i XMLElementDecl.obj
 0001:0002d070       ?getBaseName@XMLElementDecl@xercesc_2_2@@QBEPBGXZ 1202e070 f i XMLElementDecl.obj
 0001:0002d070       ?getBaseName@XMLElementDecl@xercesc_2_2@@QAEPAGXZ 1202e070 f i XMLElementDecl.obj
 0001:0002d080       ?getURI@XMLElementDecl@xercesc_2_2@@QBEIXZ 1202e080 f i XMLElementDecl.obj
 0001:0002d090       ?getKey@DTDElementDecl@xercesc_2_2@@QBEPBGXZ 1202e090 f i XMLElementDecl.obj
 0001:0002d090       ?getFullName@XMLElementDecl@xercesc_2_2@@QBEPBGXZ 1202e090 f i XMLElementDecl.obj
 0001:0002d0a0       ?isDeclared@XMLElementDecl@xercesc_2_2@@QBE_NXZ 1202e0a0 f i XMLElementDecl.obj
 0001:0002d0b0       ??1XMLElementDecl@xercesc_2_2@@UAE@XZ 1202e0b0 f   XMLElementDecl.obj
 0001:0002d0d0       ??_EXMLElementDecl@xercesc_2_2@@UAEPAXI@Z 1202e0d0 f i XMLElementDecl.obj
 0001:0002d140       ?setElementName@XMLElementDecl@xercesc_2_2@@QAEXQBG0H@Z 1202e140 f   XMLElementDecl.obj
 0001:0002d1d0       ?setElementName@XMLElementDecl@xercesc_2_2@@QAEXQBGH@Z 1202e1d0 f   XMLElementDecl.obj
 0001:0002d260       ?setElementName@XMLElementDecl@xercesc_2_2@@QAEXQBVQName@2@@Z 1202e260 f   XMLElementDecl.obj
 0001:0002d2e0       ??0XMLElementDecl@xercesc_2_2@@IAE@XZ 1202e2e0 f   XMLElementDecl.obj
 0001:0002d300       ?isExternal@XMLEntityDecl@xercesc_2_2@@QBE_NXZ 1202e300 f i XMLEntityDecl.obj
 0001:0002d320       ?isUnparsed@XMLEntityDecl@xercesc_2_2@@QBE_NXZ 1202e320 f i XMLEntityDecl.obj
 0001:0002d330       ?setSystemId@XMLEntityDecl@xercesc_2_2@@QAEXQBG@Z 1202e330 f i XMLEntityDecl.obj
 0001:0002d3a0       ?setBaseURI@XMLEntityDecl@xercesc_2_2@@QAEXQBG@Z 1202e3a0 f i XMLEntityDecl.obj
 0001:0002d410       ?setValue@XMLEntityDecl@xercesc_2_2@@QAEXQBG@Z 1202e410 f i XMLEntityDecl.obj
 0001:0002d4b0       ??0XMLEntityDecl@xercesc_2_2@@QAE@XZ 1202e4b0 f   XMLEntityDecl.obj
 0001:0002d4d0       ??_EXMLEntityDecl@xercesc_2_2@@UAEPAXI@Z 1202e4d0 f i XMLEntityDecl.obj
 0001:0002d560       ??0XMLEntityDecl@xercesc_2_2@@QAE@QBG@Z 1202e560 f   XMLEntityDecl.obj
 0001:0002d5f0       ??0XMLEntityDecl@xercesc_2_2@@QAE@QBG0@Z 1202e5f0 f   XMLEntityDecl.obj
 0001:0002d770       ??0XMLEntityDecl@xercesc_2_2@@QAE@QBGG@Z 1202e770 f   XMLEntityDecl.obj
 0001:0002d890       ??1XMLEntityDecl@xercesc_2_2@@UAE@XZ 1202e890 f   XMLEntityDecl.obj
 0001:0002d8e0       ?setName@XMLEntityDecl@xercesc_2_2@@QAEXQBG@Z 1202e8e0 f   XMLEntityDecl.obj
 0001:0002d960       ?cleanUp@XMLEntityDecl@xercesc_2_2@@AAEXXZ 1202e960 f   XMLEntityDecl.obj
 0001:0002d9a0       ??0XMLFormatter@xercesc_2_2@@QAE@QBDQAVXMLFormatTarget@1@W4EscapeFlags@01@W4UnRepFlags@01@@Z 1202e9a0 f   XMLFormatter.obj
 0001:0002da70       ??0XMLFormatter@xercesc_2_2@@QAE@QBGQAVXMLFormatTarget@1@W4EscapeFlags@01@W4UnRepFlags@01@@Z 1202ea70 f   XMLFormatter.obj
 0001:0002db70       ??1XMLFormatter@xercesc_2_2@@QAE@XZ 1202eb70 f   XMLFormatter.obj
 0001:0002dbd0       ?formatBuf@XMLFormatter@xercesc_2_2@@QAEXQBGIW4EscapeFlags@12@W4UnRepFlags@12@@Z 1202ebd0 f   XMLFormatter.obj
 0001:0002de20       ??6XMLFormatter@xercesc_2_2@@QAEAAV01@QBG@Z 1202ee20 f   XMLFormatter.obj
 0001:0002de70       ??6XMLFormatter@xercesc_2_2@@QAEAAV01@G@Z 1202ee70 f   XMLFormatter.obj
 0001:0002deb0       ?writeBOM@XMLFormatter@xercesc_2_2@@QAEXQBEI@Z 1202eeb0 f   XMLFormatter.obj
 0001:0002ded0       ?getAposRef@XMLFormatter@xercesc_2_2@@AAEPBEAAI@Z 1202eed0 f   XMLFormatter.obj
 0001:0002dfa0       ?getAmpRef@XMLFormatter@xercesc_2_2@@AAEPBEAAI@Z 1202efa0 f   XMLFormatter.obj
 0001:0002e070       ?getGTRef@XMLFormatter@xercesc_2_2@@AAEPBEAAI@Z 1202f070 f   XMLFormatter.obj
 0001:0002e140       ?getLTRef@XMLFormatter@xercesc_2_2@@AAEPBEAAI@Z 1202f140 f   XMLFormatter.obj
 0001:0002e210       ?getQuoteRef@XMLFormatter@xercesc_2_2@@AAEPBEAAI@Z 1202f210 f   XMLFormatter.obj
 0001:0002e2e0       ?specialFormat@XMLFormatter@xercesc_2_2@@AAEXQBGIW4EscapeFlags@12@@Z 1202f2e0 f   XMLFormatter.obj
 0001:0002e3f0       ?setPublicId@XMLNotationDecl@xercesc_2_2@@QAEXQBG@Z 1202f3f0 f i XMLNotationDecl.obj
 0001:0002e460       ?setSystemId@XMLNotationDecl@xercesc_2_2@@QAEXQBG@Z 1202f460 f i XMLNotationDecl.obj
 0001:0002e460       ?setNotationName@XMLEntityDecl@xercesc_2_2@@QAEXQBG@Z 1202f460 f i XMLNotationDecl.obj
 0001:0002e460       ?setString@StringToken@xercesc_2_2@@QAEXQBG@Z 1202f460 f i XMLNotationDecl.obj
 0001:0002e4d0       ?setBaseURI@XMLNotationDecl@xercesc_2_2@@QAEXQBG@Z 1202f4d0 f i XMLNotationDecl.obj
 0001:0002e4d0       ?setPublicId@XMLEntityDecl@xercesc_2_2@@QAEXQBG@Z 1202f4d0 f i XMLNotationDecl.obj
 0001:0002e540       ??0XMLNotationDecl@xercesc_2_2@@QAE@XZ 1202f540 f   XMLNotationDecl.obj
 0001:0002e560       ??0XMLNotationDecl@xercesc_2_2@@QAE@QBG000@Z 1202f560 f   XMLNotationDecl.obj
 0001:0002e730       ?setName@XMLNotationDecl@xercesc_2_2@@QAEXQBG@Z 1202f730 f   XMLNotationDecl.obj
 0001:0002e7b0       ??1XMLNotationDecl@xercesc_2_2@@QAE@XZ 1202f7b0 f   XMLNotationDecl.obj
 0001:0002e7b0       ?cleanUp@XMLNotationDecl@xercesc_2_2@@AAEXXZ 1202f7b0 f   XMLNotationDecl.obj
 0001:0002e7e0       ?basicEncodingProbe@XMLRecognizer@xercesc_2_2@@SA?AW4Encodings@12@QBEI@Z 1202f7e0 f   XMLRecognizer.obj
 0001:0002e950       ?encodingForName@XMLRecognizer@xercesc_2_2@@SA?AW4Encodings@12@QBG@Z 1202f950 f   XMLRecognizer.obj
 0001:0002ead0       ?nameForEncoding@XMLRecognizer@xercesc_2_2@@SAPBGW4Encodings@12@@Z 1202fad0 f   XMLRecognizer.obj
 0001:0002eb10       ??0XMLRefInfo@xercesc_2_2@@QAE@QBG_N1@Z 1202fb10 f i XMLValidator.obj
 0001:0002eb80       ??1XMLRefInfo@xercesc_2_2@@QAE@XZ 1202fb80 f i XMLValidator.obj
 0001:0002eb90       ??1XMLValidator@xercesc_2_2@@UAE@XZ 1202fb90 f i XMLValidator.obj
 0001:0002eba0       ??_FXMLValidator@xercesc_2_2@@QAEXXZ 1202fba0 f i XMLValidator.obj
 0001:0002ebc0       ??_EXMLValidator@xercesc_2_2@@UAEPAXI@Z 1202fbc0 f i XMLValidator.obj
 0001:0002ec20       ?setScannerInfo@XMLValidator@xercesc_2_2@@QAEXQAVXMLScanner@2@QAVReaderMgr@2@QAVXMLBufferMgr@2@@Z 1202fc20 f i XMLValidator.obj
 0001:0002ec40       ??0Locator@xercesc_2_2@@QAE@XZ 1202fc40 f i XMLValidator.obj
 0001:0002ec50       ??_ELocator@xercesc_2_2@@UAEPAXI@Z 1202fc50 f i XMLValidator.obj
 0001:0002ecb0       ?getCurrentReaderNum@ReaderMgr@xercesc_2_2@@QBEIXZ 1202fcb0 f i XMLValidator.obj
 0001:0002ecc0       ?getName@ReaderMgr@xercesc_2_2@@QAE_NAAVXMLBuffer@2@@Z 1202fcc0 f i XMLValidator.obj
 0001:0002ece0       ?getNameToken@ReaderMgr@xercesc_2_2@@QAE_NAAVXMLBuffer@2@@Z 1202fce0 f i XMLValidator.obj
 0001:0002ed00       ?getNextCharIfNot@ReaderMgr@xercesc_2_2@@QAE_NGAAG@Z 1202fd00 f i XMLValidator.obj
 0001:0002ee20       ?movePlainContentChars@ReaderMgr@xercesc_2_2@@QAEXAAVXMLBuffer@2@@Z 1202fe20 f i XMLValidator.obj
 0001:0002ee80       ?getThrowEOE@ReaderMgr@xercesc_2_2@@QBE_NXZ 1202fe80 f i XMLValidator.obj
 0001:0002ee90       ?getSrcOffset@ReaderMgr@xercesc_2_2@@QBEIXZ 1202fe90 f i XMLValidator.obj
 0001:0002eea0       ?lookingAtChar@ReaderMgr@xercesc_2_2@@QAE_NG@Z 1202fea0 f i XMLValidator.obj
 0001:0002eec0       ?lookingAtSpace@ReaderMgr@xercesc_2_2@@QAE_NXZ 1202fec0 f i XMLValidator.obj
 0001:0002eef0       ?setCopyBufToStream@MemBufInputSource@xercesc_2_2@@QAEX_N@Z 1202fef0 f i XMLValidator.obj
 0001:0002eef0       ?setThrowEOE@ReaderMgr@xercesc_2_2@@QAEX_N@Z 1202fef0 f i XMLValidator.obj
 0001:0002ef00       ?skippedString@ReaderMgr@xercesc_2_2@@QAE_NQBG@Z 1202ff00 f i XMLValidator.obj
 0001:0002ef10       ?skipToChar@ReaderMgr@xercesc_2_2@@QAEXG@Z 1202ff10 f i XMLValidator.obj
 0001:0002ef10       ?skipPastChar@ReaderMgr@xercesc_2_2@@QAEXG@Z 1202ff10 f i XMLValidator.obj
 0001:0002ef30       ?peekString@ReaderMgr@xercesc_2_2@@QAE_NQBG@Z 1202ff30 f i XMLValidator.obj
 0001:0002ef40       ?setId@XMLElementDecl@xercesc_2_2@@QAEXI@Z 1202ff40 f i XMLValidator.obj
 0001:0002ef40       ?setOffset@DOMLocatorImpl@xercesc_2_2@@UAEXJ@Z 1202ff40 f i XMLValidator.obj
 0001:0002ef40       ?setUnRepFlags@XMLFormatter@xercesc_2_2@@QAEXW4UnRepFlags@12@@Z 1202ff40 f i XMLValidator.obj
 0001:0002ef40       ?setMax@ClosureToken@xercesc_2_2@@UAEXH@Z 1202ff40 f i XMLValidator.obj
 0001:0002ef40       ?setId@XMLAttDef@xercesc_2_2@@QAEXI@Z 1202ff40 f i XMLValidator.obj
 0001:0002ef40       ?setEntityHandler@ReaderMgr@xercesc_2_2@@QAEXQAVXMLEntityHandler@2@@Z 1202ff40 f i XMLValidator.obj
 0001:0002ef40       ?setFinalSet@ComplexTypeInfo@xercesc_2_2@@QAEXH@Z 1202ff40 f i XMLValidator.obj
 0001:0002ef50       ?setXMLVersion@ReaderMgr@xercesc_2_2@@QAEXW4XMLVersion@XMLReader@2@@Z 1202ff50 f i XMLValidator.obj
 0001:0002efa0       ??0ThrowEOEJanitor@xercesc_2_2@@QAE@PAVReaderMgr@1@_N@Z 1202ffa0 f i XMLValidator.obj
 0001:0002efc0       ??1ThrowEOEJanitor@xercesc_2_2@@QAE@XZ 1202ffc0 f i XMLValidator.obj
 0001:0002efd0       ??0XMLPScanToken@xercesc_2_2@@QAE@ABV01@@Z 1202ffd0 f i XMLValidator.obj
 0001:0002efd0       ??4DOMNodeImpl@xercesc_2_2@@QAEAAV01@ABV01@@Z 1202ffd0 f i XMLValidator.obj
 0001:0002efd0       ??4ThrowEOEJanitor@xercesc_2_2@@QAEAAV01@ABV01@@Z 1202ffd0 f i XMLValidator.obj
 0001:0002efd0       ??4XMLBufferMgr@xercesc_2_2@@QAEAAV01@ABV01@@Z 1202ffd0 f i XMLValidator.obj
 0001:0002efd0       ??0EndOfEntityException@xercesc_2_2@@QAE@ABV01@@Z 1202ffd0 f i XMLValidator.obj
 0001:0002efd0       ??4EndOfEntityException@xercesc_2_2@@QAEAAV01@ABV01@@Z 1202ffd0 f i XMLValidator.obj
 0001:0002efd0       ??4DOMChildNode@xercesc_2_2@@QAEAAV01@ABV01@@Z 1202ffd0 f i XMLValidator.obj
 0001:0002efd0       ??4BitSet@xercesc_2_2@@QAEAAV01@ABV01@@Z 1202ffd0 f i XMLValidator.obj
 0001:0002efd0       ??4DOMCharacterDataImpl@xercesc_2_2@@QAEAAV01@ABV01@@Z 1202ffd0 f i XMLValidator.obj
 0001:0002efd0       ??4SubstitutionGroupComparator@xercesc_2_2@@QAEAAV01@ABV01@@Z 1202ffd0 f i XMLValidator.obj
 0001:0002eff0       ??0DTDEntityDecl@xercesc_2_2@@QAE@XZ 1202fff0 f i XMLValidator.obj
 0001:0002f010       ??_EDTDEntityDecl@xercesc_2_2@@UAEPAXI@Z 12030010 f i XMLValidator.obj
 0001:0002f070       ??0DTDEntityDecl@xercesc_2_2@@QAE@QBG_N@Z 12030070 f i XMLValidator.obj
 0001:0002f0a0       ??0DTDEntityDecl@xercesc_2_2@@QAE@QBG0_N@Z 120300a0 f i XMLValidator.obj
 0001:0002f0d0       ??0DTDEntityDecl@xercesc_2_2@@QAE@QBGG_N1@Z 120300d0 f i XMLValidator.obj
 0001:0002f110       ??1DTDEntityDecl@xercesc_2_2@@UAE@XZ 12030110 f i XMLValidator.obj
 0001:0002f120       ?getDeclaredInIntSubset@DTDEntityDecl@xercesc_2_2@@UBE_NXZ 12030120 f i XMLValidator.obj
 0001:0002f130       ?getIsParameter@DTDEntityDecl@xercesc_2_2@@UBE_NXZ 12030130 f i XMLValidator.obj
 0001:0002f140       ?getIsSpecialChar@DTDEntityDecl@xercesc_2_2@@UBE_NXZ 12030140 f i XMLValidator.obj
 0001:0002f150       ?setStandardUriConformant@ReaderMgr@xercesc_2_2@@QAEX_N@Z 12030150 f i XMLValidator.obj
 0001:0002f150       ?setDeclaredInIntSubset@DTDEntityDecl@xercesc_2_2@@QAEX_N@Z 12030150 f i XMLValidator.obj
 0001:0002f160       ?setIsParameter@DTDEntityDecl@xercesc_2_2@@QAEX_N@Z 12030160 f i XMLValidator.obj
 0001:0002f170       ?setIsSpecialChar@DTDEntityDecl@xercesc_2_2@@QAEX_N@Z 12030170 f i XMLValidator.obj
 0001:0002f180       ?getLineNo@XSDElementNSImpl@xercesc_2_2@@QBEJXZ 12030180 f i XMLValidator.obj
 0001:0002f180       ?getMemberTypeValidator@UnionDatatypeValidator@xercesc_2_2@@QBEPBVDatatypeValidator@2@XZ 12030180 f i XMLValidator.obj
 0001:0002f180       ?getDocHandler@XMLScanner@xercesc_2_2@@QAEPAVXMLDocumentHandler@2@XZ 12030180 f i XMLValidator.obj
 0001:0002f180       ?getGrammarResolver@AbstractDOMParser@xercesc_2_2@@IBEPAVGrammarResolver@2@XZ 12030180 f i XMLValidator.obj
 0001:0002f180       ?getErrorHandler@SAXParser@xercesc_2_2@@QBEPBVErrorHandler@2@XZ 12030180 f i XMLValidator.obj
 0001:0002f180       ?getMaxExclusive@AbstractNumericFacetValidator@xercesc_2_2@@QBEQAVXMLNumber@2@XZ 12030180 f i XMLValidator.obj
 0001:0002f180       ?getValidationAttempted@SchemaAttDef@xercesc_2_2@@QBE?AW4Validation@PSVIDefs@2@XZ 12030180 f i XMLValidator.obj
 0001:0002f180       ?getDocHandler@XMLScanner@xercesc_2_2@@QBEPBVXMLDocumentHandler@2@XZ 12030180 f i XMLValidator.obj
 0001:0002f180       ?getErrorHandler@SAXParser@xercesc_2_2@@QAEPAVErrorHandler@2@XZ 12030180 f i XMLValidator.obj
 0001:0002f190       ?getDoNamespaces@XMLScanner@xercesc_2_2@@QBE_NXZ 12030190 f i XMLValidator.obj
 0001:0002f1a0       ?getMinExclusive@AbstractNumericFacetValidator@xercesc_2_2@@QBEQAVXMLNumber@2@XZ 120301a0 f i XMLValidator.obj
 0001:0002f1a0       ?getContent@ListDatatypeValidator@xercesc_2_2@@ABEQBGXZ 120301a0 f i XMLValidator.obj
 0001:0002f1a0       ?getEntityHandler@XMLScanner@xercesc_2_2@@QAEPAVXMLEntityHandler@2@XZ 120301a0 f i XMLValidator.obj
 0001:0002f1a0       ?getScanner@SAXParser@xercesc_2_2@@IBEABVXMLScanner@2@XZ 120301a0 f i XMLValidator.obj
 0001:0002f1a0       ?getSubstitutionGroupElem@SchemaElementDecl@xercesc_2_2@@QBEPAV12@XZ 120301a0 f i XMLValidator.obj
 0001:0002f1a0       ?getEntityHandler@XMLScanner@xercesc_2_2@@QBEPBVXMLEntityHandler@2@XZ 120301a0 f i XMLValidator.obj
 0001:0002f1b0       ?getErrorReporter@XMLScanner@xercesc_2_2@@QAEPAVXMLErrorReporter@2@XZ 120301b0 f i XMLValidator.obj
 0001:0002f1b0       ?getValidity@SchemaElementDecl@xercesc_2_2@@QBE?AW4Validity@PSVIDefs@2@XZ 120301b0 f i XMLValidator.obj
 0001:0002f1b0       ?getEnumeration@AbstractNumericFacetValidator@xercesc_2_2@@QBEPAV?$RefVectorOf@VXMLNumber@xercesc_2_2@@@2@XZ 120301b0 f i XMLValidator.obj
 0001:0002f1b0       ?getErrorReporter@XMLScanner@xercesc_2_2@@QBEPBVXMLErrorReporter@2@XZ 120301b0 f i XMLValidator.obj
 0001:0002f1c0       ?getErrorHandler@XMLScanner@xercesc_2_2@@QAEPAVErrorHandler@2@XZ 120301c0 f i XMLValidator.obj
 0001:0002f1c0       ?getEntityResolver@XercesDOMParser@xercesc_2_2@@QBEPBVEntityResolver@2@XZ 120301c0 f i XMLValidator.obj
 0001:0002f1c0       ?getErrorHandler@XMLScanner@xercesc_2_2@@QBEPBVErrorHandler@2@XZ 120301c0 f i XMLValidator.obj
 0001:0002f1c0       ?getEntityResolver@XercesDOMParser@xercesc_2_2@@QAEPAVEntityResolver@2@XZ 120301c0 f i XMLValidator.obj
 0001:0002f1d0       ?getExitOnFirstFatal@XMLScanner@xercesc_2_2@@QBE_NXZ 120301d0 f i XMLValidator.obj
 0001:0002f1e0       ?getUsed@XMLRefInfo@xercesc_2_2@@QBE_NXZ 120301e0 f i XMLValidator.obj
 0001:0002f1e0       ?getValidationConstraintFatal@XMLScanner@xercesc_2_2@@QBE_NXZ 120301e0 f i XMLValidator.obj
 0001:0002f1f0       ?getInException@XMLScanner@xercesc_2_2@@QBE_NXZ 120301f0 f i XMLValidator.obj
 0001:0002f200       ?getReaderMgr@XMLScanner@xercesc_2_2@@QBEPBVReaderMgr@2@XZ 12030200 f i XMLValidator.obj
 0001:0002f200       ?getLocator@XMLScanner@xercesc_2_2@@QBEPBVLocator@2@XZ 12030200 f i XMLValidator.obj
 0001:0002f210       ?getSrcOffset@XMLScanner@xercesc_2_2@@QBEIXZ 12030210 f i XMLValidator.obj
 0001:0002f220       ?getStandalone@XMLScanner@xercesc_2_2@@QBE_NXZ 12030220 f i XMLValidator.obj
 0001:0002f230       ?getValidationScheme@XMLScanner@xercesc_2_2@@QBE?AW4ValSchemes@12@XZ 12030230 f i XMLValidator.obj
 0001:0002f240       ?getValidator@XMLScanner@xercesc_2_2@@QAEPAVXMLValidator@2@XZ 12030240 f i XMLValidator.obj
 0001:0002f240       ?getValidator@XMLScanner@xercesc_2_2@@QBEPBVXMLValidator@2@XZ 12030240 f i XMLValidator.obj
 0001:0002f250       ?getDoSchema@XMLScanner@xercesc_2_2@@QBE_NXZ 12030250 f i XMLValidator.obj
 0001:0002f260       ?getValidationSchemaFullChecking@XMLScanner@xercesc_2_2@@QBE_NXZ 12030260 f i XMLValidator.obj
 0001:0002f270       ?isValidatorFromUser@XMLScanner@xercesc_2_2@@QAE_NXZ 12030270 f i XMLValidator.obj
 0001:0002f280       ?getURIStringPool@XMLScanner@xercesc_2_2@@QAEPAVXMLStringPool@2@XZ 12030280 f i XMLValidator.obj
 0001:0002f280       ?getURIStringPool@XMLScanner@xercesc_2_2@@QBEPBVXMLStringPool@2@XZ 12030280 f i XMLValidator.obj
 0001:0002f290       ?getHasNoDTD@XMLScanner@xercesc_2_2@@QBE_NXZ 12030290 f i XMLValidator.obj
 0001:0002f2a0       ?getExternalSchemaLocation@XMLScanner@xercesc_2_2@@QBEPAGXZ 120302a0 f i XMLValidator.obj
 0001:0002f2b0       ?getExternalNoNamespaceSchemaLocation@XMLScanner@xercesc_2_2@@QBEPAGXZ 120302b0 f i XMLValidator.obj
 0001:0002f2c0       ?getIncludeIgnorableWhitespace@DOMParser@xercesc_2_2@@QBE_NXZ 120302c0 f i XMLValidator.obj
 0001:0002f2c0       ?getLoadExternalDTD@XMLScanner@xercesc_2_2@@QBE_NXZ 120302c0 f i XMLValidator.obj
 0001:0002f2d0       ?getNormalizeData@XMLScanner@xercesc_2_2@@QBE_NXZ 120302d0 f i XMLValidator.obj
 0001:0002f2d0       ?getParseInProgress@AbstractDOMParser@xercesc_2_2@@IBE_NXZ 120302d0 f i XMLValidator.obj
 0001:0002f2e0       ?isExternal@XMLElementDecl@xercesc_2_2@@QBE_NXZ 120302e0 f i XMLValidator.obj
 0001:0002f2e0       ?getIssueFatalErrorIfNotFound@InputSource@xercesc_2_2@@UBE?B_NXZ 120302e0 f i XMLValidator.obj
 0001:0002f2e0       ?getCreateEntityReferenceNodes@AbstractDOMParser@xercesc_2_2@@QBE_NXZ 120302e0 f i XMLValidator.obj
 0001:0002f2e0       ?getProvided@XMLAttDef@xercesc_2_2@@QBE_NXZ 120302e0 f i XMLValidator.obj
 0001:0002f2e0       ?getToCreateXMLDeclTypeNode@DOMParser@xercesc_2_2@@QBE_NXZ 120302e0 f i XMLValidator.obj
 0001:0002f2e0       ?isCachingGrammarFromParse@XMLScanner@xercesc_2_2@@QBE_NXZ 120302e0 f i XMLValidator.obj
 0001:0002f2f0       ?getCreateEntityReferenceNodes@DOMParser@xercesc_2_2@@QBE_NXZ 120302f0 f i XMLValidator.obj
 0001:0002f2f0       ?isUsingCachedGrammarInParse@XMLScanner@xercesc_2_2@@QBE_NXZ 120302f0 f i XMLValidator.obj
 0001:0002f2f0       ?getIncludeIgnorableWhitespace@AbstractDOMParser@xercesc_2_2@@QBE_NXZ 120302f0 f i XMLValidator.obj
 0001:0002f300       ?getCalculateSrcOfs@XMLScanner@xercesc_2_2@@QBE_NXZ 12030300 f i XMLValidator.obj
 0001:0002f310       ?getRootGrammar@XMLScanner@xercesc_2_2@@QBEPAVGrammar@2@XZ 12030310 f i XMLValidator.obj
 0001:0002f320       ?setValidationAttempted@SchemaAttDef@xercesc_2_2@@QAEXW4Validation@PSVIDefs@2@@Z 12030320 f i XMLValidator.obj
 0001:0002f320       ?setDocHandler@XMLScanner@xercesc_2_2@@QAEXQAVXMLDocumentHandler@2@@Z 12030320 f i XMLValidator.obj
 0001:0002f330       ?setDocTypeHandler@XMLScanner@xercesc_2_2@@QAEXQAVDocTypeHandler@2@@Z 12030330 f i XMLValidator.obj
 0001:0002f340       ?setEntityHandler@XMLScanner@xercesc_2_2@@QAEXQAVXMLEntityHandler@2@@Z 12030340 f i XMLValidator.obj
 0001:0002f350       ?setGrammarResolver@XMLScanner@xercesc_2_2@@QAEXQAVGrammarResolver@2@@Z 12030350 f i XMLValidator.obj
 0001:0002f360       ?setExitOnFirstFatal@XMLScanner@xercesc_2_2@@QAEX_N@Z 12030360 f i XMLValidator.obj
 0001:0002f370       ?setUsed@XMLRefInfo@xercesc_2_2@@QAEX_N@Z 12030370 f i XMLValidator.obj
 0001:0002f370       ?setValidationConstraintFatal@XMLScanner@xercesc_2_2@@QAEX_N@Z 12030370 f i XMLValidator.obj
 0001:0002f380       ?setValidationScheme@XMLScanner@xercesc_2_2@@QAEXW4ValSchemes@12@@Z 12030380 f i XMLValidator.obj
 0001:0002f3a0       ?setDoSchema@XMLScanner@xercesc_2_2@@QAEX_N@Z 120303a0 f i XMLValidator.obj
 0001:0002f3b0       ?setDoNamespaces@XMLScanner@xercesc_2_2@@QAEX_N@Z 120303b0 f i XMLValidator.obj
 0001:0002f3c0       ?setValidationSchemaFullChecking@XMLScanner@xercesc_2_2@@QAEX_N@Z 120303c0 f i XMLValidator.obj
 0001:0002f3d0       ?setHasNoDTD@XMLScanner@xercesc_2_2@@QAEX_N@Z 120303d0 f i XMLValidator.obj
 0001:0002f3e0       ?setRootElemName@XMLScanner@xercesc_2_2@@QAEXPAG@Z 120303e0 f i XMLValidator.obj
 0001:0002f460       ?setExternalSchemaLocation@XMLScanner@xercesc_2_2@@QAEXQBG@Z 12030460 f i XMLValidator.obj
 0001:0002f4e0       ?setExternalNoNamespaceSchemaLocation@XMLScanner@xercesc_2_2@@QAEXQBG@Z 120304e0 f i XMLValidator.obj
 0001:0002f560       ?setExternalSchemaLocation@XMLScanner@xercesc_2_2@@QAEXQBD@Z 12030560 f i XMLValidator.obj
 0001:0002f590       ?setExternalNoNamespaceSchemaLocation@XMLScanner@xercesc_2_2@@QAEXQBD@Z 12030590 f i XMLValidator.obj
 0001:0002f5c0       ?setLoadExternalDTD@XMLScanner@xercesc_2_2@@QAEX_N@Z 120305c0 f i XMLValidator.obj
 0001:0002f5c0       ?setIncludeIgnorableWhitespace@DOMParser@xercesc_2_2@@QAEX_N@Z 120305c0 f i XMLValidator.obj
 0001:0002f5d0       ?setNormalizeData@XMLScanner@xercesc_2_2@@QAEX_N@Z 120305d0 f i XMLValidator.obj
 0001:0002f5d0       ?setParseInProgress@AbstractDOMParser@xercesc_2_2@@IAEX_N@Z 120305d0 f i XMLValidator.obj
 0001:0002f5e0       ?setProvided@XMLAttDef@xercesc_2_2@@QAEX_N@Z 120305e0 f i XMLValidator.obj
 0001:0002f5e0       ?setExternalElemDeclaration@XMLElementDecl@xercesc_2_2@@QAEX_N@Z 120305e0 f i XMLValidator.obj
 0001:0002f5e0       ?cacheGrammarFromParse@XMLScanner@xercesc_2_2@@QAEX_N@Z 120305e0 f i XMLValidator.obj
 0001:0002f5e0       ?setCreateEntityReferenceNodes@AbstractDOMParser@xercesc_2_2@@QAEX_N@Z 120305e0 f i XMLValidator.obj
 0001:0002f5e0       ?setToCreateXMLDeclTypeNode@DOMParser@xercesc_2_2@@QAEX_N@Z 120305e0 f i XMLValidator.obj
 0001:0002f5e0       ?setIssueFatalErrorIfNotFound@InputSource@xercesc_2_2@@UAEX_N@Z 120305e0 f i XMLValidator.obj
 0001:0002f5f0       ?setIncludeIgnorableWhitespace@AbstractDOMParser@xercesc_2_2@@QAEX_N@Z 120305f0 f i XMLValidator.obj
 0001:0002f5f0       ?useCachedGrammarInParse@XMLScanner@xercesc_2_2@@QAEX_N@Z 120305f0 f i XMLValidator.obj
 0001:0002f5f0       ?setCreateEntityReferenceNodes@DOMParser@xercesc_2_2@@QAEX_N@Z 120305f0 f i XMLValidator.obj
 0001:0002f600       ?setCalculateSrcOfs@XMLScanner@xercesc_2_2@@QAEX_N@Z 12030600 f i XMLValidator.obj
 0001:0002f610       ?setStandardUriConformant@XMLScanner@xercesc_2_2@@QAEX_N@Z 12030610 f i XMLValidator.obj
 0001:0002f620       ?incrementErrorCount@XMLScanner@xercesc_2_2@@QAEXXZ 12030620 f i XMLValidator.obj
 0001:0002f630       ?setDoValidation@XMLScanner@xercesc_2_2@@QAEX_N@Z 12030630 f i XMLValidator.obj
 0001:0002f6a0       ?emitError@XMLValidator@xercesc_2_2@@QAEXW4Codes@XMLValid@2@@Z 120306a0 f   XMLValidator.obj
 0001:0002f930       ?emitError@XMLValidator@xercesc_2_2@@QAEXW4Codes@XMLValid@2@QBG111@Z 12030930 f   XMLValidator.obj
 0001:0002fa50       ?emitError@XMLValidator@xercesc_2_2@@QAEXW4Codes@XMLValid@2@QBD111@Z 12030a50 f   XMLValidator.obj
 0001:0002fb70       ??0XMLValidator@xercesc_2_2@@IAE@QAVXMLErrorReporter@1@@Z 12030b70 f   XMLValidator.obj
 0001:0002fb90       ?reinitMsgMutex@XMLValidator@xercesc_2_2@@SAXXZ 12030b90 f   XMLValidator.obj
 0001:0002fbc0       ?reinitMsgLoader@XMLValidator@xercesc_2_2@@SAXXZ 12030bc0 f   XMLValidator.obj
 0001:0002fbe0       ?isEmpty@ElemStack@xercesc_2_2@@QBE_NXZ 12030be0 f i DGXMLScanner.obj
 0001:0002fbf0       ?getValidationFlag@ElemStack@xercesc_2_2@@QAE_NXZ 12030bf0 f i DGXMLScanner.obj
 0001:0002fc00       ?setValidationFlag@ElemStack@xercesc_2_2@@QAEX_N@Z 12030c00 f i DGXMLScanner.obj
 0001:0002fc20       ?getCurrentScope@ElemStack@xercesc_2_2@@QAEHXZ 12030c20 f i DGXMLScanner.obj
 0001:0002fc30       ?setCurrentScope@ElemStack@xercesc_2_2@@QAEXH@Z 12030c30 f i DGXMLScanner.obj
 0001:0002fc50       ?getCurrentGrammar@ElemStack@xercesc_2_2@@QAEPAVGrammar@2@XZ 12030c50 f i DGXMLScanner.obj
 0001:0002fc60       ?setCurrentGrammar@ElemStack@xercesc_2_2@@QAEXPAVGrammar@2@@Z 12030c60 f i DGXMLScanner.obj
 0001:0002fc80       ?getCurrentURI@ElemStack@xercesc_2_2@@QAEIXZ 12030c80 f i DGXMLScanner.obj
 0001:0002fc90       ?setCurrentURI@ElemStack@xercesc_2_2@@QAEXI@Z 12030c90 f i DGXMLScanner.obj
 0001:0002fcb0       ?isEmpty@WFElemStack@xercesc_2_2@@QBE_NXZ 12030cb0 f i DGXMLScanner.obj
 0001:0002fcc0       ?getCurrentURI@WFElemStack@xercesc_2_2@@QAEIXZ 12030cc0 f i DGXMLScanner.obj
 0001:0002fcd0       ?setCurrentURI@WFElemStack@xercesc_2_2@@QAEXI@Z 12030cd0 f i DGXMLScanner.obj
 0001:0002fcf0       ??1Grammar@xercesc_2_2@@UAE@XZ 12030cf0 f i DGXMLScanner.obj
 0001:0002fd00       ??0Grammar@xercesc_2_2@@IAE@XZ 12030d00 f i DGXMLScanner.obj
 0001:0002fd10       ??0Grammar@xercesc_2_2@@QAE@ABV01@@Z 12030d10 f i DGXMLScanner.obj
 0001:0002fd20       ??_EGrammar@xercesc_2_2@@UAEPAXI@Z 12030d20 f i DGXMLScanner.obj
 0001:0002fd80       ?getName@DGXMLScanner@xercesc_2_2@@UBEPBGXZ 12030d80 f i DGXMLScanner.obj
 0001:0002fd90       ??1XMLDocumentHandler@xercesc_2_2@@UAE@XZ 12030d90 f i DGXMLScanner.obj
 0001:0002fda0       ??0XMLDocumentHandler@xercesc_2_2@@IAE@XZ 12030da0 f i DGXMLScanner.obj
 0001:0002fdb0       ??_EXMLDocumentHandler@xercesc_2_2@@UAEPAXI@Z 12030db0 f i DGXMLScanner.obj
 0001:0002fe10       ??1XMLEntityHandler@xercesc_2_2@@UAE@XZ 12030e10 f i DGXMLScanner.obj
 0001:0002fe20       ??0XMLEntityHandler@xercesc_2_2@@IAE@XZ 12030e20 f i DGXMLScanner.obj
 0001:0002fe30       ??_EXMLEntityHandler@xercesc_2_2@@UAEPAXI@Z 12030e30 f i DGXMLScanner.obj
 0001:0002fe90       ??0XMLPScanToken@xercesc_2_2@@QAE@XZ 12030e90 f i DGXMLScanner.obj
 0001:0002fea0       ??4XMLPScanToken@xercesc_2_2@@QAEAAV01@ABV01@@Z 12030ea0 f i DGXMLScanner.obj
 0001:0002fec0       ?set@XMLPScanToken@xercesc_2_2@@IAEXII@Z 12030ec0 f i DGXMLScanner.obj
 0001:0002fed0       ?getStringPool@GrammarResolver@xercesc_2_2@@QAEPAVXMLStringPool@2@XZ 12030ed0 f i DGXMLScanner.obj
 0001:0002fee0       ?setAdoptContentSpec@ComplexTypeInfo@xercesc_2_2@@QAEX_N@Z 12030ee0 f i DGXMLScanner.obj
 0001:0002fee0       ?setProcessed@SchemaInfo@xercesc_2_2@@QAEX_N@Z 12030ee0 f i DGXMLScanner.obj
 0001:0002fee0       ?useCachedGrammarInParse@GrammarResolver@xercesc_2_2@@QAEX_N@Z 12030ee0 f i DGXMLScanner.obj
 0001:0002fef0       ?orphanGrammar@GrammarResolver@xercesc_2_2@@QAEPAVGrammar@2@QBG@Z 12030ef0 f i DGXMLScanner.obj
 0001:00030080       ?endDocument@DefaultHandler@xercesc_2_2@@UAEXXZ 12031080 f i DGXMLScanner.obj
 0001:00030080       ??1EndOfEntityException@xercesc_2_2@@QAE@XZ 12031080 f i DGXMLScanner.obj
 0001:00030080       ??1XMLInteger@xercesc_2_2@@QAE@XZ 12031080 f i DGXMLScanner.obj
 0001:00030080       ?reset@DTDAttDef@xercesc_2_2@@UAEXXZ 12031080 f i DGXMLScanner.obj
 0001:00030080       ?resetDocument@HandlerBase@xercesc_2_2@@UAEXXZ 12031080 f i DGXMLScanner.obj
 0001:00030080       ?resetErrors@HandlerBase@xercesc_2_2@@UAEXXZ 12031080 f i DGXMLScanner.obj
 0001:00030080       ?startDocument@HandlerBase@xercesc_2_2@@UAEXXZ 12031080 f i DGXMLScanner.obj
 0001:00030080       ?resetDocType@HandlerBase@xercesc_2_2@@UAEXXZ 12031080 f i DGXMLScanner.obj
 0001:00030080       ?endDocument@HandlerBase@xercesc_2_2@@UAEXXZ 12031080 f i DGXMLScanner.obj
 0001:00030080       ?flush@XMLFormatTarget@xercesc_2_2@@UAEXXZ 12031080 f i DGXMLScanner.obj
 0001:00030080       ?resetEntities@XercesDOMParser@xercesc_2_2@@UAEXXZ 12031080 f i DGXMLScanner.obj
 0001:00030080       ?endCDATA@DefaultHandler@xercesc_2_2@@UAEXXZ 12031080 f i DGXMLScanner.obj
 0001:00030080       ?endDocument@ValueStoreCache@xercesc_2_2@@QAEXXZ 12031080 f i DGXMLScanner.obj
 0001:00030080       ?startDocument@DefaultHandler@xercesc_2_2@@UAEXXZ 12031080 f i DGXMLScanner.obj
 0001:00030080       ??3@YAXPAXPAVDOMDocument@xercesc_2_2@@@Z 12031080 f i DGXMLScanner.obj
 0001:00030080       ??1RegxUtil@xercesc_2_2@@QAE@XZ 12031080 f i DGXMLScanner.obj
 0001:00030080       ?resetErrors@DefaultHandler@xercesc_2_2@@UAEXXZ 12031080 f i DGXMLScanner.obj
 0001:00030080       ??1XUtil@xercesc_2_2@@IAE@XZ 12031080 f i DGXMLScanner.obj
 0001:00030080       ?resetDocument@DefaultHandler@xercesc_2_2@@UAEXXZ 12031080 f i DGXMLScanner.obj
 0001:00030080       ??1XMLPScanToken@xercesc_2_2@@QAE@XZ 12031080 f i DGXMLScanner.obj
 0001:00030080       ?endDTD@DefaultHandler@xercesc_2_2@@UAEXXZ 12031080 f i DGXMLScanner.obj
 0001:00030080       ??1DOMStringHandle@xercesc_2_2@@QAE@XZ 12031080 f i DGXMLScanner.obj
 0001:00030080       ?startCDATA@DefaultHandler@xercesc_2_2@@UAEXXZ 12031080 f i DGXMLScanner.obj
 0001:00030080       ??3@YAXPAXPAVDOMDocument@xercesc_2_2@@W4NodeObjectType@DOMDocumentImpl@1@@Z 12031080 f i DGXMLScanner.obj
 0001:00030080       ??1XMLUniCharacter@xercesc_2_2@@QAE@XZ 12031080 f i DGXMLScanner.obj
 0001:00030080       ?resetDocType@DefaultHandler@xercesc_2_2@@UAEXXZ 12031080 f i DGXMLScanner.obj
 0001:00030080       ?resetEntities@DOMParser@xercesc_2_2@@UAEXXZ 12031080 f i DGXMLScanner.obj
 0001:00030080       ??1SubstitutionGroupComparator@xercesc_2_2@@QAE@XZ 12031080 f i DGXMLScanner.obj
 0001:00030080       ?resetEntities@DOMBuilderImpl@xercesc_2_2@@UAEXXZ 12031080 f i DGXMLScanner.obj
 0001:00030090       ?getBaseDatatypeValidator@ComplexTypeInfo@xercesc_2_2@@QBEPAVDatatypeValidator@2@XZ 12031090 f i DGXMLScanner.obj
 0001:00030090       ?getMiscFlags@SchemaElementDecl@xercesc_2_2@@QBEHXZ 12031090 f i DGXMLScanner.obj
 0001:00030090       ?getErrorHandler@DOMParser@xercesc_2_2@@QAEPAVErrorHandler@2@XZ 12031090 f i DGXMLScanner.obj
 0001:00030090       ?getErrorHandler@DOMParser@xercesc_2_2@@QBEPBVErrorHandler@2@XZ 12031090 f i DGXMLScanner.obj
 0001:00030090       ?getFullName@DTDAttDef@xercesc_2_2@@UBEPBGXZ 12031090 f i DGXMLScanner.obj
 0001:00030090       ?getCurrentNode@AbstractDOMParser@xercesc_2_2@@IAEPAVDOMNode@2@XZ 12031090 f i DGXMLScanner.obj
 0001:00030090       ?getAttName@SchemaAttDef@xercesc_2_2@@QBEPAVQName@2@XZ 12031090 f i DGXMLScanner.obj
 0001:00030090       ?getTypeName@DatatypeValidator@xercesc_2_2@@QBEPBGXZ 12031090 f i DGXMLScanner.obj
 0001:000300a0       ?getDOMTypeInfoName@DTDAttDef@xercesc_2_2@@UBEPBGXZ 120310a0 f i DGXMLScanner.obj
 0001:000300b0       ?getContentModel@DTDElementDecl@xercesc_2_2@@UAEPAVXMLContentModel@2@XZ 120310b0 f i DGXMLScanner.obj
 0001:000300d0       ?setContentModel@DTDElementDecl@xercesc_2_2@@UAEXQAVXMLContentModel@2@@Z 120310d0 f i DGXMLScanner.obj
 0001:00030100       ??0DocTypeHandler@xercesc_2_2@@QAE@XZ 12031100 f i DGXMLScanner.obj
 0001:00030110       ??1DocTypeHandler@xercesc_2_2@@UAE@XZ 12031110 f i DGXMLScanner.obj
 0001:00030120       ??_EDocTypeHandler@xercesc_2_2@@UAEPAXI@Z 12031120 f i DGXMLScanner.obj
 0001:00030180       ??0DTDGrammar@xercesc_2_2@@QAE@ABV01@@Z 12031180 f i DGXMLScanner.obj
 0001:000301c0       ??4DTDGrammar@xercesc_2_2@@QAEAAV01@ABV01@@Z 120311c0 f i DGXMLScanner.obj
 0001:000301f0       ??_EDTDGrammar@xercesc_2_2@@UAEPAXI@Z 120311f0 f i DGXMLScanner.obj
 0001:00030250       ?getElemEnumerator@DTDGrammar@xercesc_2_2@@QBE?AV?$NameIdPoolEnumerator@VDTDElementDecl@xercesc_2_2@@@2@XZ 12031250 f i DGXMLScanner.obj
 0001:00030280       ?getEntityEnumerator@DTDGrammar@xercesc_2_2@@QBE?AV?$NameIdPoolEnumerator@VDTDEntityDecl@xercesc_2_2@@@2@XZ 12031280 f i DGXMLScanner.obj
 0001:000302b0       ?getNotationEnumerator@DTDGrammar@xercesc_2_2@@QBE?AV?$NameIdPoolEnumerator@VXMLNotationDecl@xercesc_2_2@@@2@XZ 120312b0 f i DGXMLScanner.obj
 0001:000302e0       ?getEntityDecl@DTDGrammar@xercesc_2_2@@QBEPBVDTDEntityDecl@2@QBG@Z 120312e0 f i DGXMLScanner.obj
 0001:000302e0       ?getEntityDecl@DTDGrammar@xercesc_2_2@@QAEPAVDTDEntityDecl@2@QBG@Z 120312e0 f i DGXMLScanner.obj
 0001:00030390       ?putEntityDecl@DTDGrammar@xercesc_2_2@@QBEIQAVDTDEntityDecl@2@@Z 12031390 f i DGXMLScanner.obj
 0001:000303a0       ?size@Token@xercesc_2_2@@UBEHXZ 120313a0 f i DGXMLScanner.obj
 0001:000303a0       ?getDOMTypeInfoUri@DTDElementDecl@xercesc_2_2@@UBEPBGXZ 120313a0 f i DGXMLScanner.obj
 0001:000303a0       ?getGrammarType@DTDGrammar@xercesc_2_2@@UBE?AW4GrammarType@Grammar@2@XZ 120313a0 f i DGXMLScanner.obj
 0001:000303a0       ?getDOMTypeInfoName@DTDElementDecl@xercesc_2_2@@UBEPBGXZ 120313a0 f i DGXMLScanner.obj
 0001:000303a0       ?getDOMTypeInfoUri@DTDAttDef@xercesc_2_2@@UBEPBGXZ 120313a0 f i DGXMLScanner.obj
 0001:000303a0       ?getBaseURI@Wrapper4InputSource@xercesc_2_2@@UBEPBGXZ 120313a0 f i DGXMLScanner.obj
 0001:000303a0       ?getReferenceNo@Token@xercesc_2_2@@UBEHXZ 120313a0 f i DGXMLScanner.obj
 0001:000303a0       ?getRelatedException@DOMErrorImpl@xercesc_2_2@@UBEPAXXZ 120313a0 f i DGXMLScanner.obj
 0001:000303a0       ?getContentLeafNameTypeVector@MixedContentModel@xercesc_2_2@@UBEPAVContentLeafNameTypeVector@2@XZ 120313a0 f i DGXMLScanner.obj
 0001:000303a0       ?getNoParen@Token@xercesc_2_2@@UBEHXZ 120313a0 f i DGXMLScanner.obj
 0001:000303a0       ?getString@Token@xercesc_2_2@@UBEPBGXZ 120313a0 f i DGXMLScanner.obj
 0001:000303a0       ?getContentLeafNameTypeVector@AllContentModel@xercesc_2_2@@UBEPAVContentLeafNameTypeVector@2@XZ 120313a0 f i DGXMLScanner.obj
 0001:000303b0       ?getTargetNamespace@DTDGrammar@xercesc_2_2@@UBEPBGXZ 120313b0 f i DGXMLScanner.obj
 0001:000303c0       ?getElemId@DTDGrammar@xercesc_2_2@@UBEIIQBG0I@Z 120313c0 f i DGXMLScanner.obj
 0001:00030490       ?getElemDecl@DTDGrammar@xercesc_2_2@@UBEPBVXMLElementDecl@2@IQBG0I@Z 12031490 f i DGXMLScanner.obj
 0001:00030490       ?getElemDecl@DTDGrammar@xercesc_2_2@@UAEPAVXMLElementDecl@2@IQBG0I@Z 12031490 f i DGXMLScanner.obj
 0001:000305f0       ?getElemDecl@DTDGrammar@xercesc_2_2@@UAEPAVXMLElementDecl@2@I@Z 120315f0 f i DGXMLScanner.obj
 0001:000305f0       ?getElemDecl@DTDGrammar@xercesc_2_2@@UBEPBVXMLElementDecl@2@I@Z 120315f0 f i DGXMLScanner.obj
 0001:00030640       ?putElemDecl@DTDGrammar@xercesc_2_2@@UBEIQAVXMLElementDecl@2@_N@Z 12031640 f i DGXMLScanner.obj
 0001:00030670       ?getNotationDecl@DTDGrammar@xercesc_2_2@@UBEPBVXMLNotationDecl@2@QBG@Z 12031670 f i DGXMLScanner.obj
 0001:00030670       ?getNotationDecl@DTDGrammar@xercesc_2_2@@UAEPAVXMLNotationDecl@2@QBG@Z 12031670 f i DGXMLScanner.obj
 0001:00030720       ?putNotationDecl@DTDGrammar@xercesc_2_2@@UBEIQAVXMLNotationDecl@2@@Z 12031720 f i DGXMLScanner.obj
 0001:00030730       ?getValidated@DTDGrammar@xercesc_2_2@@UBE_NXZ 12031730 f i DGXMLScanner.obj
 0001:00030740       ?setValidated@DTDGrammar@xercesc_2_2@@UAEX_N@Z 12031740 f i DGXMLScanner.obj
 0001:00030750       ??0DTDScanner@xercesc_2_2@@QAE@ABV01@@Z 12031750 f i DGXMLScanner.obj
 0001:000307b0       ??4DTDScanner@xercesc_2_2@@QAEAAV01@ABV01@@Z 120317b0 f i DGXMLScanner.obj
 0001:00030810       ??_EDTDScanner@xercesc_2_2@@UAEPAXI@Z 12031810 f i DGXMLScanner.obj
 0001:00030870       ?setScope@XercesGroupInfo@xercesc_2_2@@QAEXH@Z 12031870 f i DGXMLScanner.obj
 0001:00030870       ?setType@XMLAttr@xercesc_2_2@@QAEXW4AttTypes@XMLAttDef@2@@Z 12031870 f i DGXMLScanner.obj
 0001:00030870       ?setDerivedBy@ComplexTypeInfo@xercesc_2_2@@QAEXH@Z 12031870 f i DGXMLScanner.obj
 0001:00030870       ?setDocTypeHandler@DTDScanner@xercesc_2_2@@QAEXQAVDocTypeHandler@2@@Z 12031870 f i DGXMLScanner.obj
 0001:00030870       ?setMatcherStack@FieldActivator@xercesc_2_2@@QAEXQAVXPathMatcherStack@2@@Z 12031870 f i DGXMLScanner.obj
 0001:00030870       ?setLineNumber@DOMLocatorImpl@xercesc_2_2@@UAEXJ@Z 12031870 f i DGXMLScanner.obj
 0001:00030870       ?setDefaultType@XMLAttDef@xercesc_2_2@@QAEXW4DefAttTypes@12@@Z 12031870 f i DGXMLScanner.obj
 0001:00030870       ?setId@XMLEntityDecl@xercesc_2_2@@QAEXI@Z 12031870 f i DGXMLScanner.obj
 0001:00030870       ?setBlockDefault@SchemaInfo@xercesc_2_2@@QAEXH@Z 12031870 f i DGXMLScanner.obj
 0001:00030880       ?isReadingExternalEntity@DTDScanner@xercesc_2_2@@AAE_NXZ 12031880 f i DGXMLScanner.obj
 0001:000308a0       ??_FDTDValidator@xercesc_2_2@@QAEXXZ 120318a0 f i DGXMLScanner.obj
 0001:000308b0       ?getGrammar@SchemaValidator@xercesc_2_2@@UBEPAVGrammar@2@XZ 120318b0 f i DGXMLScanner.obj
 0001:000308b0       ?getGrammar@DTDValidator@xercesc_2_2@@UBEPAVGrammar@2@XZ 120318b0 f i DGXMLScanner.obj
 0001:000308b0       ?getLocator@XercesGroupInfo@xercesc_2_2@@QBEPAVXSDLocator@2@XZ 120318b0 f i DGXMLScanner.obj
 0001:000308b0       ?getNamespaceScopeLevel@SchemaInfo@xercesc_2_2@@QBEIXZ 120318b0 f i DGXMLScanner.obj
 0001:000308b0       ?getSystemId@XMLEntityDecl@xercesc_2_2@@QBEPBGXZ 120318b0 f i DGXMLScanner.obj
 0001:000308b0       ?getRootElemId@DTDGrammar@xercesc_2_2@@QAEIXZ 120318b0 f i DGXMLScanner.obj
 0001:000308b0       ?getErrorCount@XMLScanner@xercesc_2_2@@QAEHXZ 120318b0 f i DGXMLScanner.obj
 0001:000308b0       ?getTokenFactory@RangeTokenMap@xercesc_2_2@@QBEPAVTokenFactory@2@XZ 120318b0 f i DGXMLScanner.obj
 0001:000308b0       ?getPath@XMLUri@xercesc_2_2@@QBEPBGXZ 120318b0 f i DGXMLScanner.obj
 0001:000308b0       ?getKey@IC_KeyRef@xercesc_2_2@@QBEPAVIdentityConstraint@2@XZ 120318b0 f i DGXMLScanner.obj
 0001:000308b0       ?getBaseValidator@DatatypeValidator@xercesc_2_2@@QBEPAV12@XZ 120318b0 f i DGXMLScanner.obj
 0001:000308b0       ?getElementId@ComplexTypeInfo@xercesc_2_2@@QBEIXZ 120318b0 f i DGXMLScanner.obj
 0001:000308b0       ?getType@XMLAttDef@xercesc_2_2@@QBE?AW4AttTypes@12@XZ 120318b0 f i DGXMLScanner.obj
 0001:000308b0       ?getURI@DOMLocatorImpl@xercesc_2_2@@UBEPBGXZ 120318b0 f i DGXMLScanner.obj
 0001:000308c0       ?setElementId@ComplexTypeInfo@xercesc_2_2@@QAEXI@Z 120318c0 f i DGXMLScanner.obj
 0001:000308c0       ?setGrammar@DTDValidator@xercesc_2_2@@UAEXPAVGrammar@2@@Z 120318c0 f i DGXMLScanner.obj
 0001:000308c0       ?setType@XMLAttDef@xercesc_2_2@@QAEXW4AttTypes@12@@Z 120318c0 f i DGXMLScanner.obj
 0001:000308c0       ?setGrammar@SchemaValidator@xercesc_2_2@@UAEXPAVGrammar@2@@Z 120318c0 f i DGXMLScanner.obj
 0001:000308c0       ?setURI@DOMLocatorImpl@xercesc_2_2@@UAEXQBG@Z 120318c0 f i DGXMLScanner.obj
 0001:000308c0       ?setRootElemId@DTDGrammar@xercesc_2_2@@QAEXI@Z 120318c0 f i DGXMLScanner.obj
 0001:000308c0       ?setModelType@SchemaElementDecl@xercesc_2_2@@QAEXW4ModelTypes@12@@Z 120318c0 f i DGXMLScanner.obj
 0001:000308d0       ?startEntity@DefaultHandler@xercesc_2_2@@UAEXQBG@Z 120318d0 f i DGXMLScanner.obj
 0001:000308d0       ?setDocumentLocator@HandlerBase@xercesc_2_2@@UAEXQBVLocator@2@@Z 120318d0 f i DGXMLScanner.obj
 0001:000308d0       ?error@HandlerBase@xercesc_2_2@@UAEXABVSAXParseException@2@@Z 120318d0 f i DGXMLScanner.obj
 0001:000308d0       ?setContentModel@SchemaElementDecl@xercesc_2_2@@UAEXQAVXMLContentModel@2@@Z 120318d0 f i DGXMLScanner.obj
 0001:000308d0       ?setBaseURI@Wrapper4InputSource@xercesc_2_2@@UAEXQBG@Z 120318d0 f i DGXMLScanner.obj
 0001:000308d0       ?error@DefaultHandler@xercesc_2_2@@UAEXABVSAXParseException@2@@Z 120318d0 f i DGXMLScanner.obj
 0001:000308d0       ?setMin@Token@xercesc_2_2@@UAEXH@Z 120318d0 f i DGXMLScanner.obj
 0001:000308d0       ?skippedEntity@DefaultHandler@xercesc_2_2@@UAEXQBG@Z 120318d0 f i DGXMLScanner.obj
 0001:000308d0       ?endElement@HandlerBase@xercesc_2_2@@UAEXQBG@Z 120318d0 f i DGXMLScanner.obj
 0001:000308d0       ?startInputSource@DOMParser@xercesc_2_2@@UAEXABVInputSource@2@@Z 120318d0 f i DGXMLScanner.obj
 0001:000308d0       ?startInputSource@XercesDOMParser@xercesc_2_2@@UAEXABVInputSource@2@@Z 120318d0 f i DGXMLScanner.obj
 0001:000308d0       ?warning@DefaultHandler@xercesc_2_2@@UAEXABVSAXParseException@2@@Z 120318d0 f i DGXMLScanner.obj
 0001:000308d0       ?endEntity@DefaultHandler@xercesc_2_2@@UAEXQBG@Z 120318d0 f i DGXMLScanner.obj
 0001:000308d0       ?validateElement@DTDValidator@xercesc_2_2@@UAEXPBVXMLElementDecl@2@@Z 120318d0 f i DGXMLScanner.obj
 0001:000308d0       ?endInputSource@DOMBuilderImpl@xercesc_2_2@@UAEXABVInputSource@2@@Z 120318d0 f i DGXMLScanner.obj
 0001:000308d0       ?startInputSource@DOMBuilderImpl@xercesc_2_2@@UAEXABVInputSource@2@@Z 120318d0 f i DGXMLScanner.obj
 0001:000308d0       ?endInputSource@DOMParser@xercesc_2_2@@UAEXABVInputSource@2@@Z 120318d0 f i DGXMLScanner.obj
 0001:000308d0       ?setDocumentLocator@DefaultHandler@xercesc_2_2@@UAEXQBVLocator@2@@Z 120318d0 f i DGXMLScanner.obj
 0001:000308d0       ?endPrefixMapping@DefaultHandler@xercesc_2_2@@UAEXQBG@Z 120318d0 f i DGXMLScanner.obj
 0001:000308d0       ?endInputSource@XercesDOMParser@xercesc_2_2@@UAEXABVInputSource@2@@Z 120318d0 f i DGXMLScanner.obj
 0001:000308d0       ??4XMLFormatTarget@xercesc_2_2@@IAEXABV01@@Z 120318d0 f i DGXMLScanner.obj
 0001:000308d0       ?setContentSpec@SchemaElementDecl@xercesc_2_2@@UAEXPAVContentSpecNode@2@@Z 120318d0 f i DGXMLScanner.obj
 0001:000308d0       ?warning@HandlerBase@xercesc_2_2@@UAEXABVSAXParseException@2@@Z 120318d0 f i DGXMLScanner.obj
 0001:000308d0       ?setMax@Token@xercesc_2_2@@UAEXH@Z 120318d0 f i DGXMLScanner.obj
 0001:000308d0       ?validate@AnySimpleTypeDatatypeValidator@xercesc_2_2@@UAEXQBG@Z 120318d0 f i DGXMLScanner.obj
 0001:000308e0       ?isAtomic@DatatypeValidator@xercesc_2_2@@UBE_NXZ 120318e0 f i DGXMLScanner.obj
 0001:000308e0       ?handlesSchema@SchemaValidator@xercesc_2_2@@UBE_NXZ 120318e0 f i DGXMLScanner.obj
 0001:000308e0       ?handlesDTD@DTDValidator@xercesc_2_2@@UBE_NXZ 120318e0 f i DGXMLScanner.obj
 0001:000308f0       ?handlesDTD@SchemaValidator@xercesc_2_2@@UBE_NXZ 120318f0 f i DGXMLScanner.obj
 0001:000308f0       ?handlesSchema@DTDValidator@xercesc_2_2@@UBE_NXZ 120318f0 f i DGXMLScanner.obj
 0001:000308f0       ?isAtomic@ListDatatypeValidator@xercesc_2_2@@UBE_NXZ 120318f0 f i DGXMLScanner.obj
 0001:000308f0       ?isAtomic@AnySimpleTypeDatatypeValidator@xercesc_2_2@@UBE_NXZ 120318f0 f i DGXMLScanner.obj
 0001:00030900       ??0DGXMLScanner@xercesc_2_2@@QAE@QAVXMLValidator@1@@Z 12031900 f   DGXMLScanner.obj
 0001:00030a70       ??_EDGXMLScanner@xercesc_2_2@@UAEPAXI@Z 12031a70 f i DGXMLScanner.obj
 0001:00030ad0       ??0DGXMLScanner@xercesc_2_2@@QAE@QAVXMLDocumentHandler@1@QAVDocTypeHandler@1@QAVXMLEntityHandler@1@QAVXMLErrorReporter@1@QAVXMLValidator@1@@Z 12031ad0 f   DGXMLScanner.obj
 0001:00030c50       ??1DGXMLScanner@xercesc_2_2@@UAE@XZ 12031c50 f   DGXMLScanner.obj
 0001:00030ce0       ?getEntityDeclPool@DGXMLScanner@xercesc_2_2@@UBEPBV?$NameIdPool@VDTDEntityDecl@xercesc_2_2@@@2@XZ 12031ce0 f   DGXMLScanner.obj
 0001:00030ce0       ?getEntityDeclPool@DGXMLScanner@xercesc_2_2@@UAEPAV?$NameIdPool@VDTDEntityDecl@xercesc_2_2@@@2@XZ 12031ce0 f   DGXMLScanner.obj
 0001:00030cf0       ?scanDocument@DGXMLScanner@xercesc_2_2@@UAEXABVInputSource@2@@Z 12031cf0 f   DGXMLScanner.obj
 0001:00030eb0       ?scanNext@DGXMLScanner@xercesc_2_2@@UAE_NAAVXMLPScanToken@2@@Z 12031eb0 f   DGXMLScanner.obj
 0001:000311e0       ?scanContent@DGXMLScanner@xercesc_2_2@@AAE_N_N@Z 120321e0 f   DGXMLScanner.obj
 0001:00031380       ?scanEndTag@DGXMLScanner@xercesc_2_2@@AAEXAA_N@Z 12032380 f   DGXMLScanner.obj
 0001:00031660       ?scanDocTypeDecl@DGXMLScanner@xercesc_2_2@@EAEXXZ 12032660 f   DGXMLScanner.obj
 0001:00031fa0       ??1XMLBufBid@xercesc_2_2@@QAE@XZ 12032fa0 f i DGXMLScanner.obj
 0001:00031fb0       ?scanStartTag@DGXMLScanner@xercesc_2_2@@AAE_NAA_N@Z 12032fb0 f   DGXMLScanner.obj
 0001:000329a0       ?resolveQName@DGXMLScanner@xercesc_2_2@@UAEIQBGAAVXMLBuffer@2@FAAH@Z 120339a0 f   DGXMLScanner.obj
 0001:00032b20       ?loadGrammar@DGXMLScanner@xercesc_2_2@@UAEPAVGrammar@2@ABVInputSource@2@F_N@Z 12033b20 f   DGXMLScanner.obj
 0001:00032cb0       ?loadDTDGrammar@DGXMLScanner@xercesc_2_2@@AAEPAVGrammar@2@ABVInputSource@2@_N@Z 12033cb0 f   DGXMLScanner.obj
 0001:00033110       ?commonInit@DGXMLScanner@xercesc_2_2@@AAEXXZ 12034110 f   DGXMLScanner.obj
 0001:000331d0       ?cleanUp@DGXMLScanner@xercesc_2_2@@AAEXXZ 120341d0 f   DGXMLScanner.obj
 0001:00033210       ?buildAttList@DGXMLScanner@xercesc_2_2@@AAEIIPAVXMLElementDecl@2@AAV?$RefVectorOf@VXMLAttr@xercesc_2_2@@@2@@Z 12034210 f   DGXMLScanner.obj
 0001:000336f0       ?resolvePrefix@DGXMLScanner@xercesc_2_2@@AAEIQBGW4MapModes@ElemStack@2@@Z 120346f0 f   DGXMLScanner.obj
 0001:000337e0       ?scanReset@DGXMLScanner@xercesc_2_2@@EAEXABVInputSource@2@@Z 120347e0 f   DGXMLScanner.obj
 0001:00033a90       ?sendCharData@DGXMLScanner@xercesc_2_2@@EAEXAAVXMLBuffer@2@@Z 12034a90 f   DGXMLScanner.obj
 0001:00033b90       ?updateNSMap@DGXMLScanner@xercesc_2_2@@AAEXQBG00@Z 12034b90 f   DGXMLScanner.obj
 0001:00033df0       ?scanAttrListforNameSpaces@DGXMLScanner@xercesc_2_2@@AAEXPAV?$RefVectorOf@VXMLAttr@xercesc_2_2@@@2@H@Z 12034df0 f   DGXMLScanner.obj
 0001:00033ff0       ?resolveSystemId@DGXMLScanner@xercesc_2_2@@AAEPAVInputSource@2@QBG@Z 12034ff0 f   DGXMLScanner.obj
 0001:00034230       ?scanAttValue@DGXMLScanner@xercesc_2_2@@AAE_NQBVXMLAttDef@2@AAVXMLBuffer@2@@Z 12035230 f   DGXMLScanner.obj
 0001:00034680       ?scanCDSection@DGXMLScanner@xercesc_2_2@@EAEXXZ 12035680 f   DGXMLScanner.obj
 0001:00034930       ?scanCharData@DGXMLScanner@xercesc_2_2@@EAEXAAVXMLBuffer@2@@Z 12035930 f   DGXMLScanner.obj
 0001:00034c70       ?scanEntityRef@DGXMLScanner@xercesc_2_2@@EAE?AW4EntityExpRes@XMLScanner@2@_NAAG1AA_N@Z 12035c70 f   DGXMLScanner.obj
 0001:00035150       ?orphanKey@?$RefHashTableOf@VGrammar@xercesc_2_2@@@xercesc_2_2@@QAEPAVGrammar@2@QBX@Z 12036150 f i DGXMLScanner.obj
 0001:00035220       ?hasMoreElements@?$NameIdPoolEnumerator@VXMLNotationDecl@xercesc_2_2@@@xercesc_2_2@@UBE_NXZ 12036220 f i DGXMLScanner.obj
 0001:00035220       ?hasMoreElements@?$NameIdPoolEnumerator@VDTDEntityDecl@xercesc_2_2@@@xercesc_2_2@@UBE_NXZ 12036220 f i DGXMLScanner.obj
 0001:00035220       ?hasMoreElements@?$NameIdPoolEnumerator@VDTDElementDecl@xercesc_2_2@@@xercesc_2_2@@UBE_NXZ 12036220 f i DGXMLScanner.obj
 0001:00035240       ?nextElement@?$NameIdPoolEnumerator@VXMLNotationDecl@xercesc_2_2@@@xercesc_2_2@@UAEAAVXMLNotationDecl@2@XZ 12036240 f i DGXMLScanner.obj
 0001:00035240       ?nextElement@?$NameIdPoolEnumerator@VDTDEntityDecl@xercesc_2_2@@@xercesc_2_2@@UAEAAVDTDEntityDecl@2@XZ 12036240 f i DGXMLScanner.obj
 0001:00035240       ?nextElement@?$NameIdPoolEnumerator@VDTDElementDecl@xercesc_2_2@@@xercesc_2_2@@UAEAAVDTDElementDecl@2@XZ 12036240 f i DGXMLScanner.obj
 0001:00035290       ?Reset@?$NameIdPoolEnumerator@VDTDElementDecl@xercesc_2_2@@@xercesc_2_2@@UAEXXZ 12036290 f i DGXMLScanner.obj
 0001:00035290       ?Reset@?$NameIdPoolEnumerator@VDTDEntityDecl@xercesc_2_2@@@xercesc_2_2@@UAEXXZ 12036290 f i DGXMLScanner.obj
 0001:00035290       ?Reset@?$NameIdPoolEnumerator@VXMLNotationDecl@xercesc_2_2@@@xercesc_2_2@@UAEXXZ 12036290 f i DGXMLScanner.obj
 0001:000352a0       ?put@?$NameIdPool@VDTDEntityDecl@xercesc_2_2@@@xercesc_2_2@@QAEIQAVDTDEntityDecl@2@@Z 120362a0 f i DGXMLScanner.obj
 0001:00035460       ?put@?$NameIdPool@VDTDElementDecl@xercesc_2_2@@@xercesc_2_2@@QAEIQAVDTDElementDecl@2@@Z 12036460 f i DGXMLScanner.obj
 0001:00035630       ?put@?$NameIdPool@VXMLNotationDecl@xercesc_2_2@@@xercesc_2_2@@QAEIQAVXMLNotationDecl@2@@Z 12036630 f i DGXMLScanner.obj
 0001:000357f0       ??1?$Janitor@VXMLDateTime@xercesc_2_2@@@xercesc_2_2@@QAE@XZ 120367f0 f i DGXMLScanner.obj
 0001:000357f0       ??1?$Janitor@VInputSource@xercesc_2_2@@@xercesc_2_2@@QAE@XZ 120367f0 f i DGXMLScanner.obj
 0001:000357f0       ??1?$Janitor@VDTDElementDecl@xercesc_2_2@@@xercesc_2_2@@QAE@XZ 120367f0 f i DGXMLScanner.obj
 0001:000357f0       ??1?$Janitor@V?$RefArrayVectorOf@G@xercesc_2_2@@@xercesc_2_2@@QAE@XZ 120367f0 f i DGXMLScanner.obj
 0001:000357f0       ??1?$Janitor@VSchemaAttDef@xercesc_2_2@@@xercesc_2_2@@QAE@XZ 120367f0 f i DGXMLScanner.obj
 0001:000357f0       ??1?$Janitor@VIC_Key@xercesc_2_2@@@xercesc_2_2@@QAE@XZ 120367f0 f i DGXMLScanner.obj
 0001:000357f0       ??1?$Janitor@VDTDEntityDecl@xercesc_2_2@@@xercesc_2_2@@QAE@XZ 120367f0 f i DGXMLScanner.obj
 0001:000357f0       ??1?$Janitor@V?$RefVectorOf@VXercesStep@xercesc_2_2@@@xercesc_2_2@@@xercesc_2_2@@QAE@XZ 120367f0 f i DGXMLScanner.obj
 0001:000357f0       ??1?$Janitor@VXMLFloat@xercesc_2_2@@@xercesc_2_2@@QAE@XZ 120367f0 f i DGXMLScanner.obj
 0001:000357f0       ??1?$Janitor@V?$RefVectorOf@VMatch@xercesc_2_2@@@xercesc_2_2@@@xercesc_2_2@@QAE@XZ 120367f0 f i DGXMLScanner.obj
 0001:000357f0       ??1?$Janitor@VXMLDouble@xercesc_2_2@@@xercesc_2_2@@QAE@XZ 120367f0 f i DGXMLScanner.obj
 0001:000357f0       ??1?$Janitor@V?$RefVectorOf@VDatatypeValidator@xercesc_2_2@@@xercesc_2_2@@@xercesc_2_2@@QAE@XZ 120367f0 f i DGXMLScanner.obj
 0001:000357f0       ??1?$Janitor@V?$BaseRefVectorOf@G@xercesc_2_2@@@xercesc_2_2@@QAE@XZ 120367f0 f i DGXMLScanner.obj
 0001:000357f0       ??1?$Janitor@VXMLBigDecimal@xercesc_2_2@@@xercesc_2_2@@QAE@XZ 120367f0 f i DGXMLScanner.obj
 0001:000357f0       ??1?$Janitor@VRegxParser@xercesc_2_2@@@xercesc_2_2@@QAE@XZ 120367f0 f i DGXMLScanner.obj
 0001:000357f0       ??1?$Janitor@VIC_Unique@xercesc_2_2@@@xercesc_2_2@@QAE@XZ 120367f0 f i DGXMLScanner.obj
 0001:000357f0       ??1?$Janitor@VIC_KeyRef@xercesc_2_2@@@xercesc_2_2@@QAE@XZ 120367f0 f i DGXMLScanner.obj
 0001:00035810       ??_E?$NameIdPoolEnumerator@VDTDElementDecl@xercesc_2_2@@@xercesc_2_2@@UAEPAXI@Z 12036810 f i DGXMLScanner.obj
 0001:00035810       ??_G?$NameIdPoolEnumerator@VDTDElementDecl@xercesc_2_2@@@xercesc_2_2@@UAEPAXI@Z 12036810 f i DGXMLScanner.obj
 0001:00035830       ??1?$NameIdPoolEnumerator@VDTDElementDecl@xercesc_2_2@@@xercesc_2_2@@UAE@XZ 12036830 f i DGXMLScanner.obj
 0001:00035840       ??_E?$XMLEnumerator@VDTDElementDecl@xercesc_2_2@@@xercesc_2_2@@UAEPAXI@Z 12036840 f i DGXMLScanner.obj
 0001:00035840       ??_G?$XMLEnumerator@VDTDElementDecl@xercesc_2_2@@@xercesc_2_2@@UAEPAXI@Z 12036840 f i DGXMLScanner.obj
 0001:00035860       ??_E?$NameIdPoolEnumerator@VDTDEntityDecl@xercesc_2_2@@@xercesc_2_2@@UAEPAXI@Z 12036860 f i DGXMLScanner.obj
 0001:00035860       ??_G?$NameIdPoolEnumerator@VDTDEntityDecl@xercesc_2_2@@@xercesc_2_2@@UAEPAXI@Z 12036860 f i DGXMLScanner.obj
 0001:00035880       ??1?$NameIdPoolEnumerator@VDTDEntityDecl@xercesc_2_2@@@xercesc_2_2@@UAE@XZ 12036880 f i DGXMLScanner.obj
 0001:00035890       ??_E?$XMLEnumerator@VDTDEntityDecl@xercesc_2_2@@@xercesc_2_2@@UAEPAXI@Z 12036890 f i DGXMLScanner.obj
 0001:00035890       ??_G?$XMLEnumerator@VDTDEntityDecl@xercesc_2_2@@@xercesc_2_2@@UAEPAXI@Z 12036890 f i DGXMLScanner.obj
 0001:000358b0       ??_E?$NameIdPoolEnumerator@VXMLNotationDecl@xercesc_2_2@@@xercesc_2_2@@UAEPAXI@Z 120368b0 f i DGXMLScanner.obj
 0001:000358b0       ??_G?$NameIdPoolEnumerator@VXMLNotationDecl@xercesc_2_2@@@xercesc_2_2@@UAEPAXI@Z 120368b0 f i DGXMLScanner.obj
 0001:000358d0       ??1?$NameIdPoolEnumerator@VXMLNotationDecl@xercesc_2_2@@@xercesc_2_2@@UAE@XZ 120368d0 f i DGXMLScanner.obj
 0001:000358e0       ??_E?$XMLEnumerator@VXMLNotationDecl@xercesc_2_2@@@xercesc_2_2@@UAEPAXI@Z 120368e0 f i DGXMLScanner.obj
 0001:000358e0       ??_G?$XMLEnumerator@VXMLNotationDecl@xercesc_2_2@@@xercesc_2_2@@UAEPAXI@Z 120368e0 f i DGXMLScanner.obj
 0001:00035900       ?findBucketElem@?$NameIdPool@VDTDEntityDecl@xercesc_2_2@@@xercesc_2_2@@AAEPAU?$NameIdPoolBucketElem@VDTDEntityDecl@xercesc_2_2@@@2@QBGAAI@Z 12036900 f i DGXMLScanner.obj
 0001:000359b0       ??0ElemStack@xercesc_2_2@@QAE@XZ 120369b0 f   ElemStack.obj
 0001:00035a40       ??1ElemStack@xercesc_2_2@@QAE@XZ 12036a40 f   ElemStack.obj
 0001:00035ae0       ?addLevel@ElemStack@xercesc_2_2@@QAEIXZ 12036ae0 f   ElemStack.obj
 0001:00035c50       ?addLevel@ElemStack@xercesc_2_2@@QAEIQAVXMLElementDecl@2@I@Z 12036c50 f   ElemStack.obj
 0001:00035dc0       ?popTop@ElemStack@xercesc_2_2@@QAEPBUStackElem@12@XZ 12036dc0 f   ElemStack.obj
 0001:00035e00       ?setElement@ElemStack@xercesc_2_2@@QAEXQAVXMLElementDecl@2@I@Z 12036e00 f   ElemStack.obj
 0001:00035e60       ?addChild@ElemStack@xercesc_2_2@@QAEIQAVQName@2@_N@Z 12036e60 f   ElemStack.obj
 0001:00035f70       ?topElement@ElemStack@xercesc_2_2@@QBEPBUStackElem@12@XZ 12036f70 f   ElemStack.obj
 0001:00035fb0       ?addPrefix@ElemStack@xercesc_2_2@@QAEXQBGI@Z 12036fb0 f   ElemStack.obj
 0001:000360e0       ?mapPrefixToURI@ElemStack@xercesc_2_2@@QBEIQBGW4MapModes@12@AA_N@Z 120370e0 f   ElemStack.obj
 0001:000361d0       ?reset@ElemStack@xercesc_2_2@@QAEXIIII@Z 120371d0 f   ElemStack.obj
 0001:00036240       ?expandMap@ElemStack@xercesc_2_2@@AAEXQAUStackElem@12@@Z 12037240 f   ElemStack.obj
 0001:000362d0       ?expandStack@ElemStack@xercesc_2_2@@AAEXXZ 120372d0 f   ElemStack.obj
 0001:00036370       ??0WFElemStack@xercesc_2_2@@QAE@XZ 12037370 f   ElemStack.obj
 0001:00036410       ??1WFElemStack@xercesc_2_2@@QAE@XZ 12037410 f   ElemStack.obj
 0001:000364b0       ?addLevel@WFElemStack@xercesc_2_2@@QAEIXZ 120374b0 f   ElemStack.obj
 0001:000365e0       ?addLevel@WFElemStack@xercesc_2_2@@QAEIQBGII@Z 120375e0 f   ElemStack.obj
 0001:00036780       ?popTop@WFElemStack@xercesc_2_2@@QAEPBUStackElem@12@XZ 12037780 f   ElemStack.obj
 0001:000367c0       ?setElement@WFElemStack@xercesc_2_2@@QAEXQBGII@Z 120377c0 f   ElemStack.obj
 0001:00036880       ?topElement@WFElemStack@xercesc_2_2@@QBEPBUStackElem@12@XZ 12037880 f   ElemStack.obj
 0001:000368c0       ?addPrefix@WFElemStack@xercesc_2_2@@QAEXQBGI@Z 120378c0 f   ElemStack.obj
 0001:00036a00       ?mapPrefixToURI@WFElemStack@xercesc_2_2@@QBEIQBGW4MapModes@12@AA_N@Z 12037a00 f   ElemStack.obj
 0001:00036aa0       ?reset@WFElemStack@xercesc_2_2@@QAEXIIII@Z 12037aa0 f   ElemStack.obj
 0001:00036b10       ?expandMap@WFElemStack@xercesc_2_2@@AAEXXZ 12037b10 f   ElemStack.obj
 0001:00036bc0       ?expandStack@WFElemStack@xercesc_2_2@@AAEXXZ 12037bc0 f   ElemStack.obj
 0001:00036c60       ??0DatatypeValidator@xercesc_2_2@@QAE@ABV01@@Z 12037c60 f i IGXMLScanner.obj
 0001:00036cc0       ??_EDatatypeValidator@xercesc_2_2@@UAEPAXI@Z 12037cc0 f i IGXMLScanner.obj
 0001:00036d20       ?cleanUp@DatatypeValidator@xercesc_2_2@@AAEXXZ 12037d20 f i IGXMLScanner.obj
 0001:00036e00       ?compare@DatatypeValidator@xercesc_2_2@@UAEHQBG0@Z 12037e00 f i IGXMLScanner.obj
 0001:00036e20       ?isSubstitutableBy@DatatypeValidator@xercesc_2_2@@UAE_NQBV12@@Z 12037e20 f i IGXMLScanner.obj
 0001:00036e40       ?setFacetsDefined@DatatypeValidator@xercesc_2_2@@IAEXH@Z 12037e40 f i IGXMLScanner.obj
 0001:00036e50       ?setFixed@DatatypeValidator@xercesc_2_2@@IAEXH@Z 12037e50 f i IGXMLScanner.obj
 0001:00036e60       ?setPattern@DatatypeValidator@xercesc_2_2@@IAEXPBG@Z 12037e60 f i IGXMLScanner.obj
 0001:00036ed0       ?getTypeLocalName@DatatypeValidator@xercesc_2_2@@QBEPBGXZ 12037ed0 f i IGXMLScanner.obj
 0001:00036f50       ?getTypeUri@DatatypeValidator@xercesc_2_2@@QBEPBGXZ 12037f50 f i IGXMLScanner.obj
 0001:00036fa0       ?setTypeName@DatatypeValidator@xercesc_2_2@@QAEXQBG0@Z 12037fa0 f i IGXMLScanner.obj
 0001:00037180       ?setTypeName@DatatypeValidator@xercesc_2_2@@QAEXQBG@Z 12038180 f i IGXMLScanner.obj
 0001:00037320       ?setAnonymous@DatatypeValidator@xercesc_2_2@@QAEXXZ 12038320 f i IGXMLScanner.obj
 0001:00037330       ?getAnonymous@DatatypeValidator@xercesc_2_2@@QBE_NXZ 12038330 f i IGXMLScanner.obj
 0001:00037340       ??0UnionDatatypeValidator@xercesc_2_2@@QAE@ABV01@@Z 12038340 f i IGXMLScanner.obj
 0001:000373c0       ??4UnionDatatypeValidator@xercesc_2_2@@QAEAAV01@ABV01@@Z 120383c0 f i IGXMLScanner.obj
 0001:00037430       ??_EUnionDatatypeValidator@xercesc_2_2@@UAEPAXI@Z 12038430 f i IGXMLScanner.obj
 0001:00037490       ?newInstance@UnionDatatypeValidator@xercesc_2_2@@UAEPAVDatatypeValidator@2@QAV?$RefHashTableOf@VKVStringPair@xercesc_2_2@@@2@QAV?$RefArrayVectorOf@G@2@H@Z 12038490 f i IGXMLScanner.obj
 0001:00037500       ?validate@UnionDatatypeValidator@xercesc_2_2@@UAEXQBG@Z 12038500 f i IGXMLScanner.obj
 0001:00037510       ?cleanUp@UnionDatatypeValidator@xercesc_2_2@@AAEXXZ 12038510 f i IGXMLScanner.obj
 0001:00037540       ?setEnumeration@UnionDatatypeValidator@xercesc_2_2@@AAEXPAV?$RefArrayVectorOf@G@2@_N@Z 12038540 f i IGXMLScanner.obj
 0001:00037580       ?getMemberTypeValidators@UnionDatatypeValidator@xercesc_2_2@@QBEPAV?$RefVectorOf@VDatatypeValidator@xercesc_2_2@@@2@XZ 12038580 f i IGXMLScanner.obj
 0001:000375a0       ?isAtomic@UnionDatatypeValidator@xercesc_2_2@@UBE_NXZ 120385a0 f i IGXMLScanner.obj
 0001:00037620       ?isSubstitutableBy@UnionDatatypeValidator@xercesc_2_2@@UAE_NQBVDatatypeValidator@2@@Z 12038620 f i IGXMLScanner.obj
 0001:000376a0       ?getMemberTypeName@UnionDatatypeValidator@xercesc_2_2@@QBEPBGXZ 120386a0 f i IGXMLScanner.obj
 0001:00037730       ?getMemberTypeUri@UnionDatatypeValidator@xercesc_2_2@@QBEPBGXZ 12038730 f i IGXMLScanner.obj
 0001:00037780       ?getMemberTypeAnonymous@UnionDatatypeValidator@xercesc_2_2@@QBE_NXZ 12038780 f i IGXMLScanner.obj
 0001:00037790       ?reset@UnionDatatypeValidator@xercesc_2_2@@QAEXXZ 12038790 f i IGXMLScanner.obj
 0001:000377a0       ?getTypeName@SchemaAttDef@xercesc_2_2@@QBEPBGXZ 120387a0 f i IGXMLScanner.obj
 0001:000378b0       ?getTypeUri@SchemaAttDef@xercesc_2_2@@QBEPBGXZ 120388b0 f i IGXMLScanner.obj
 0001:00037910       ?getMemberTypeName@SchemaAttDef@xercesc_2_2@@QBEPBGXZ 12038910 f i IGXMLScanner.obj
 0001:000379a0       ?getMemberTypeUri@SchemaAttDef@xercesc_2_2@@QBEPBGXZ 120389a0 f i IGXMLScanner.obj
 0001:000379f0       ?getDOMTypeInfoName@SchemaAttDef@xercesc_2_2@@UBEPBGXZ 120389f0 f i IGXMLScanner.obj
 0001:00037bc0       ?getDOMTypeInfoUri@SchemaAttDef@xercesc_2_2@@UBEPBGXZ 12038bc0 f i IGXMLScanner.obj
 0001:00037ca0       ?getTypeAnonymous@SchemaAttDef@xercesc_2_2@@QBE_NXZ 12038ca0 f i IGXMLScanner.obj
 0001:00037cc0       ?getMemberTypeAnonymous@SchemaAttDef@xercesc_2_2@@QBE_NXZ 12038cc0 f i IGXMLScanner.obj
 0001:00037cd0       ?isTypeDefinitionUnion@SchemaAttDef@xercesc_2_2@@QBE_NXZ 12038cd0 f i IGXMLScanner.obj
 0001:00037d00       ?resetNamespaceList@SchemaAttDef@xercesc_2_2@@QAEXXZ 12038d00 f i IGXMLScanner.obj
 0001:00037d20       ?setNamespaceList@SchemaAttDef@xercesc_2_2@@QAEXQBV?$ValueVectorOf@I@2@@Z 12038d20 f i IGXMLScanner.obj
 0001:00037e70       ?reset@SchemaAttDef@xercesc_2_2@@UAEXXZ 12038e70 f i IGXMLScanner.obj
 0001:00037eb0       ?getProcessed@SchemaInfo@xercesc_2_2@@QBE_NXZ 12038eb0 f i IGXMLScanner.obj
 0001:00037eb0       ?getAdoptContentSpec@ComplexTypeInfo@xercesc_2_2@@QBE_NXZ 12038eb0 f i IGXMLScanner.obj
 0001:00037ec0       ?containsAttWithTypeId@ComplexTypeInfo@xercesc_2_2@@QBE_NXZ 12038ec0 f i IGXMLScanner.obj
 0001:00037ed0       ?getPreprocessed@ComplexTypeInfo@xercesc_2_2@@QBE_NXZ 12038ed0 f i IGXMLScanner.obj
 0001:00037ee0       ?getValidSubstitutionGroups@SchemaGrammar@xercesc_2_2@@QBEPAV?$RefHash2KeysTableOf@V?$ValueVectorOf@PAVSchemaElementDecl@xercesc_2_2@@@xercesc_2_2@@@2@XZ 12038ee0 f i IGXMLScanner.obj
 0001:00037ee0       ?getScanner@DOMParser@xercesc_2_2@@QBEABVXMLScanner@2@XZ 12038ee0 f i IGXMLScanner.obj
 0001:00037ee0       ?getBaseComplexTypeInfo@ComplexTypeInfo@xercesc_2_2@@QBEPAV12@XZ 12038ee0 f i IGXMLScanner.obj
 0001:00037ef0       ?getAttDef@ComplexTypeInfo@xercesc_2_2@@QAEPAVSchemaAttDef@2@QBGH@Z 12038ef0 f i IGXMLScanner.obj
 0001:00037ef0       ?getAttDef@ComplexTypeInfo@xercesc_2_2@@QBEPBVSchemaAttDef@2@QBGH@Z 12038ef0 f i IGXMLScanner.obj
 0001:00037fa0       ?elementAt@ComplexTypeInfo@xercesc_2_2@@QBEPBVSchemaElementDecl@2@I@Z 12038fa0 f i IGXMLScanner.obj
 0001:00037fa0       ?elementAt@ComplexTypeInfo@xercesc_2_2@@QAEPAVSchemaElementDecl@2@I@Z 12038fa0 f i IGXMLScanner.obj
 0001:00037ff0       ?getContentModel@ComplexTypeInfo@xercesc_2_2@@QAEPAVXMLContentModel@2@_N@Z 12038ff0 f i IGXMLScanner.obj
 0001:00038010       ?getLexicalHandler@SAX2XMLReaderImpl@xercesc_2_2@@UBEPAVLexicalHandler@2@XZ 12039010 f i IGXMLScanner.obj
 0001:00038010       ?getLocator@ComplexTypeInfo@xercesc_2_2@@QBEPAVXSDLocator@2@XZ 12039010 f i IGXMLScanner.obj
 0001:00038020       ?getAnonymous@ComplexTypeInfo@xercesc_2_2@@QBE_NXZ 12039020 f i IGXMLScanner.obj
 0001:00038030       ?getTypeLocalName@ComplexTypeInfo@xercesc_2_2@@QBEPBGXZ 12039030 f i IGXMLScanner.obj
 0001:000380b0       ?getTypeUri@ComplexTypeInfo@xercesc_2_2@@QBEPBGXZ 120390b0 f i IGXMLScanner.obj
 0001:00038100       ?setAttWithTypeId@ComplexTypeInfo@xercesc_2_2@@QAEX_N@Z 12039100 f i IGXMLScanner.obj
 0001:00038110       ?setPreprocessed@ComplexTypeInfo@xercesc_2_2@@QAEX_N@Z 12039110 f i IGXMLScanner.obj
 0001:00038120       ?setTypeName@ComplexTypeInfo@xercesc_2_2@@QAEXQBG@Z 12039120 f i IGXMLScanner.obj
 0001:000381a0       ?addElement@ComplexTypeInfo@xercesc_2_2@@QAEXQAVSchemaElementDecl@2@@Z 120391a0 f i IGXMLScanner.obj
 0001:000382e0       ?setAttWildCard@ComplexTypeInfo@xercesc_2_2@@QAEXQAVSchemaAttDef@2@@Z 120392e0 f i IGXMLScanner.obj
 0001:00038310       ?setContentModel@ComplexTypeInfo@xercesc_2_2@@QAEXQAVXMLContentModel@2@@Z 12039310 f i IGXMLScanner.obj
 0001:00038340       ?setAnonymous@ComplexTypeInfo@xercesc_2_2@@QAEXXZ 12039340 f i IGXMLScanner.obj
 0001:00038350       ?hasAttDefs@ComplexTypeInfo@xercesc_2_2@@QBE_NXZ 12039350 f i IGXMLScanner.obj
 0001:00038390       ?contains@ComplexTypeInfo@xercesc_2_2@@QAE_NQBG@Z 12039390 f i IGXMLScanner.obj
 0001:00038590       ??0XPathMatcher@xercesc_2_2@@QAE@ABV01@@Z 12039590 f i IGXMLScanner.obj
 0001:000385d0       ??4XPathMatcher@xercesc_2_2@@QAEAAV01@ABV01@@Z 120395d0 f i IGXMLScanner.obj
 0001:00038610       ??_EXPathMatcher@xercesc_2_2@@UAEPAXI@Z 12039610 f i IGXMLScanner.obj
 0001:00038670       ?cleanUp@XPathMatcher@xercesc_2_2@@AAEXXZ 12039670 f i IGXMLScanner.obj
 0001:000386a0       ??1FieldMatcher@xercesc_2_2@@UAE@XZ 120396a0 f i IGXMLScanner.obj
 0001:000386b0       ??_EFieldMatcher@xercesc_2_2@@UAEPAXI@Z 120396b0 f i IGXMLScanner.obj
 0001:00038710       ?getFieldCount@IdentityConstraint@xercesc_2_2@@QBEHXZ 12039710 f i IGXMLScanner.obj
 0001:00038720       ?addField@IdentityConstraint@xercesc_2_2@@QAEXQAVIC_Field@2@@Z 12039720 f i IGXMLScanner.obj
 0001:00038840       ?getFieldAt@IdentityConstraint@xercesc_2_2@@QAEPAVIC_Field@2@I@Z 12039840 f i IGXMLScanner.obj
 0001:00038840       ?getFieldAt@IdentityConstraint@xercesc_2_2@@QBEPBVIC_Field@2@I@Z 12039840 f i IGXMLScanner.obj
 0001:00038890       ?getContentSpec@SchemaElementDecl@xercesc_2_2@@UAEPAVContentSpecNode@2@XZ 12039890 f i IGXMLScanner.obj
 0001:00038890       ?getContentSpec@SchemaElementDecl@xercesc_2_2@@UBEPBVContentSpecNode@2@XZ 12039890 f i IGXMLScanner.obj
 0001:000388b0       ?getContentModel@SchemaElementDecl@xercesc_2_2@@UAEPAVXMLContentModel@2@XZ 120398b0 f i IGXMLScanner.obj
 0001:000388e0       ?getModelType@SchemaElementDecl@xercesc_2_2@@QBE?AW4ModelTypes@12@XZ 120398e0 f i IGXMLScanner.obj
 0001:00038900       ?getDatatypeValidator@SchemaElementDecl@xercesc_2_2@@QBEPAVDatatypeValidator@2@XZ 12039900 f i IGXMLScanner.obj
 0001:00038910       ?getComplexTypeInfo@SchemaElementDecl@xercesc_2_2@@QBEPAVComplexTypeInfo@2@XZ 12039910 f i IGXMLScanner.obj
 0001:00038920       ?getAttWildCard@SchemaElementDecl@xercesc_2_2@@QBEPBVSchemaAttDef@2@XZ 12039920 f i IGXMLScanner.obj
 0001:00038920       ?getAttWildCard@SchemaElementDecl@xercesc_2_2@@QAEPAVSchemaAttDef@2@XZ 12039920 f i IGXMLScanner.obj
 0001:00038940       ?isGlobalDecl@SchemaElementDecl@xercesc_2_2@@UBE_NXZ 12039940 f i IGXMLScanner.obj
 0001:00038950       ?getTypeName@SchemaElementDecl@xercesc_2_2@@QBEPBGXZ 12039950 f i IGXMLScanner.obj
 0001:00038b80       ?getTypeType@SchemaElementDecl@xercesc_2_2@@QBE?AW4Complexity@PSVIDefs@2@XZ 12039b80 f i IGXMLScanner.obj
 0001:00038bc0       ?getTypeUri@SchemaElementDecl@xercesc_2_2@@QBEPBGXZ 12039bc0 f i IGXMLScanner.obj
 0001:00038c90       ?getMemberTypeName@SchemaElementDecl@xercesc_2_2@@QBEPBGXZ 12039c90 f i IGXMLScanner.obj
 0001:00038dc0       ?getMemberTypeUri@SchemaElementDecl@xercesc_2_2@@QBEPBGXZ 12039dc0 f i IGXMLScanner.obj
 0001:00038e30       ?getMemberTypeAnonymous@SchemaElementDecl@xercesc_2_2@@QBE_NXZ 12039e30 f i IGXMLScanner.obj
 0001:00038e70       ?isTypeDefinitionUnion@SchemaElementDecl@xercesc_2_2@@QBE_NXZ 12039e70 f i IGXMLScanner.obj
 0001:00038ea0       ?getValidationAttempted@SchemaElementDecl@xercesc_2_2@@QBE?AW4Validation@PSVIDefs@2@XZ 12039ea0 f i IGXMLScanner.obj
 0001:00038ee0       ?getTypeAnonymous@SchemaElementDecl@xercesc_2_2@@QBE_NXZ 12039ee0 f i IGXMLScanner.obj
 0001:00038f10       ?getDOMTypeInfoName@SchemaElementDecl@xercesc_2_2@@UBEPBGXZ 12039f10 f i IGXMLScanner.obj
 0001:000390f0       ?getDOMTypeInfoUri@SchemaElementDecl@xercesc_2_2@@UBEPBGXZ 1203a0f0 f i IGXMLScanner.obj
 0001:00039290       ?setCurrentNode@AbstractDOMParser@xercesc_2_2@@IAEXPAVDOMNode@2@@Z 1203a290 f i IGXMLScanner.obj
 0001:00039290       ?setBaseDatatypeValidator@ComplexTypeInfo@xercesc_2_2@@QAEXQAVDatatypeValidator@2@@Z 1203a290 f i IGXMLScanner.obj
 0001:00039290       ?setMiscFlags@SchemaElementDecl@xercesc_2_2@@QAEXH@Z 1203a290 f i IGXMLScanner.obj
 0001:000392a0       ?setDefaultValue@SchemaElementDecl@xercesc_2_2@@QAEXQBG@Z 1203a2a0 f i IGXMLScanner.obj
 0001:00039320       ?setAttWildCard@SchemaElementDecl@xercesc_2_2@@QAEXQAVSchemaAttDef@2@@Z 1203a320 f i IGXMLScanner.obj
 0001:00039350       ?setSubstitutionGroupElem@SchemaElementDecl@xercesc_2_2@@QAEXQAV12@@Z 1203a350 f i IGXMLScanner.obj
 0001:00039350       ?setContent@ListDatatypeValidator@xercesc_2_2@@AAEXQBG@Z 1203a350 f i IGXMLScanner.obj
 0001:00039360       ?setIDRefList@GeneralAttributeCheck@xercesc_2_2@@QAEXQAV?$RefHashTableOf@VXMLRefInfo@xercesc_2_2@@@2@@Z 1203a360 f i IGXMLScanner.obj
 0001:00039360       ?setErrorHandler@XMLScanner@xercesc_2_2@@QAEXQAVErrorHandler@2@@Z 1203a360 f i IGXMLScanner.obj
 0001:00039360       ?setValidationAttempted@SchemaElementDecl@xercesc_2_2@@QAEXW4Validation@PSVIDefs@2@@Z 1203a360 f i IGXMLScanner.obj
 0001:00039370       ?updateValidityFromAttribute@SchemaElementDecl@xercesc_2_2@@QAEXPBVSchemaAttDef@2@@Z 1203a370 f i IGXMLScanner.obj
 0001:000393b0       ?updateValidityFromElement@SchemaElementDecl@xercesc_2_2@@QAEXPBVXMLElementDecl@2@W4GrammarType@Grammar@2@@Z 1203a3b0 f i IGXMLScanner.obj
 0001:00039420       ?reset@SchemaElementDecl@xercesc_2_2@@QAEXXZ 1203a420 f i IGXMLScanner.obj
 0001:00039460       ?addIdentityConstraint@SchemaElementDecl@xercesc_2_2@@QAEXQAVIdentityConstraint@2@@Z 1203a460 f i IGXMLScanner.obj
 0001:00039580       ?getIdentityConstraintCount@SchemaElementDecl@xercesc_2_2@@QBEIXZ 1203a580 f i IGXMLScanner.obj
 0001:00039580       ?elementCount@ComplexTypeInfo@xercesc_2_2@@QBEIXZ 1203a580 f i IGXMLScanner.obj
 0001:00039590       ?getIdentityConstraintAt@SchemaElementDecl@xercesc_2_2@@QBEPAVIdentityConstraint@2@I@Z 1203a590 f i IGXMLScanner.obj
 0001:000395e0       ?getName@IGXMLScanner@xercesc_2_2@@UBEPBGXZ 1203a5e0 f i IGXMLScanner.obj
 0001:000395f0       ??0AbstractStringValidator@xercesc_2_2@@QAE@ABV01@@Z 1203a5f0 f i IGXMLScanner.obj
 0001:00039670       ??_EAbstractStringValidator@xercesc_2_2@@UAEPAXI@Z 1203a670 f i IGXMLScanner.obj
 0001:000396d0       ?getNodeIDMap@DocumentImpl@xercesc_2_2@@QAEPAVNodeIDMap@2@XZ 1203a6d0 f i IGXMLScanner.obj
 0001:000396d0       ?getAttWildCard@ComplexTypeInfo@xercesc_2_2@@QBEPBVSchemaAttDef@2@XZ 1203a6d0 f i IGXMLScanner.obj
 0001:000396d0       ?getMaxLength@AbstractStringValidator@xercesc_2_2@@QBEIXZ 1203a6d0 f i IGXMLScanner.obj
 0001:000396d0       ?getAttWildCard@ComplexTypeInfo@xercesc_2_2@@QAEPAVSchemaAttDef@2@XZ 1203a6d0 f i IGXMLScanner.obj
 0001:000396d0       ?getEnumeration@UnionDatatypeValidator@xercesc_2_2@@ABEPAV?$RefArrayVectorOf@G@2@XZ 1203a6d0 f i IGXMLScanner.obj
 0001:000396d0       ?getRecursingAnonTypes@SchemaInfo@xercesc_2_2@@QBEPAV?$ValueVectorOf@PBVDOMElement@xercesc_2_2@@@2@XZ 1203a6d0 f i IGXMLScanner.obj
 0001:000396d0       ?getNamespaceList@SchemaAttDef@xercesc_2_2@@QBEPAV?$ValueVectorOf@I@2@XZ 1203a6d0 f i IGXMLScanner.obj
 0001:000396e0       ?getEntityResolver@SAXParser@xercesc_2_2@@QBEPBVEntityResolver@2@XZ 1203a6e0 f i IGXMLScanner.obj
 0001:000396e0       ?getEntityResolver@SAXParser@xercesc_2_2@@QAEPAVEntityResolver@2@XZ 1203a6e0 f i IGXMLScanner.obj
 0001:000396e0       ?getMinLength@AbstractStringValidator@xercesc_2_2@@QBEIXZ 1203a6e0 f i IGXMLScanner.obj
 0001:000396e0       ?getRecursingTypeNames@SchemaInfo@xercesc_2_2@@QBEPAV?$ValueVectorOf@PBG@2@XZ 1203a6e0 f i IGXMLScanner.obj
 0001:000396e0       ?getValidity@SchemaAttDef@xercesc_2_2@@QBE?AW4Validity@PSVIDefs@2@XZ 1203a6e0 f i IGXMLScanner.obj
 0001:000396e0       ?getContentHandler@SAX2XMLReaderImpl@xercesc_2_2@@UBEPAVContentHandler@2@XZ 1203a6e0 f i IGXMLScanner.obj
 0001:000396e0       ?getMaxInclusive@AbstractNumericFacetValidator@xercesc_2_2@@QBEQAVXMLNumber@2@XZ 1203a6e0 f i IGXMLScanner.obj
 0001:000396f0       ?getEnumeration@AbstractStringValidator@xercesc_2_2@@QBEPAV?$RefArrayVectorOf@G@2@XZ 1203a6f0 f i IGXMLScanner.obj
 0001:000396f0       ?getMinInclusive@AbstractNumericFacetValidator@xercesc_2_2@@QBEQAVXMLNumber@2@XZ 1203a6f0 f i IGXMLScanner.obj
 0001:000396f0       ?getColumnNo@XSDElementNSImpl@xercesc_2_2@@QBEJXZ 1203a6f0 f i IGXMLScanner.obj
 0001:000396f0       ?getDocTypeHandler@XMLScanner@xercesc_2_2@@QBEPBVDocTypeHandler@2@XZ 1203a6f0 f i IGXMLScanner.obj
 0001:000396f0       ?getDocTypeHandler@XMLScanner@xercesc_2_2@@QAEPAVDocTypeHandler@2@XZ 1203a6f0 f i IGXMLScanner.obj
 0001:00039700       ?setMembertypeValidator@SchemaAttDef@xercesc_2_2@@QAEXPBVDatatypeValidator@2@@Z 1203a700 f i IGXMLScanner.obj
 0001:00039700       ?setLength@AbstractStringValidator@xercesc_2_2@@IAEXI@Z 1203a700 f i IGXMLScanner.obj
 0001:00039710       ?setMaxLength@AbstractStringValidator@xercesc_2_2@@IAEXI@Z 1203a710 f i IGXMLScanner.obj
 0001:00039710       ?setXsiComplexTypeInfo@SchemaElementDecl@xercesc_2_2@@QAEXQAVComplexTypeInfo@2@@Z 1203a710 f i IGXMLScanner.obj
 0001:00039720       ?setXsiSimpleTypeInfo@SchemaElementDecl@xercesc_2_2@@QAEXQBVDatatypeValidator@2@@Z 1203a720 f i IGXMLScanner.obj
 0001:00039720       ?setValidity@SchemaAttDef@xercesc_2_2@@QAEXW4Validity@PSVIDefs@2@@Z 1203a720 f i IGXMLScanner.obj
 0001:00039720       ?setMinLength@AbstractStringValidator@xercesc_2_2@@IAEXI@Z 1203a720 f i IGXMLScanner.obj
 0001:00039730       ?setEnumeration@AbstractStringValidator@xercesc_2_2@@IAEXPAV?$RefArrayVectorOf@G@2@_N@Z 1203a730 f i IGXMLScanner.obj
 0001:00039770       ??0StringDatatypeValidator@xercesc_2_2@@QAE@ABV01@@Z 1203a770 f i IGXMLScanner.obj
 0001:00039800       ??_EStringDatatypeValidator@xercesc_2_2@@UAEPAXI@Z 1203a800 f i IGXMLScanner.obj
 0001:00039860       ?setWhiteSpace@StringDatatypeValidator@xercesc_2_2@@AAEXF@Z 1203a860 f i IGXMLScanner.obj
 0001:00039870       ??0IDDatatypeValidator@xercesc_2_2@@QAE@ABV01@@Z 1203a870 f i IGXMLScanner.obj
 0001:00039910       ??_EIDDatatypeValidator@xercesc_2_2@@UAEPAXI@Z 1203a910 f i IGXMLScanner.obj
 0001:00039970       ?setIDRefList@IDREFDatatypeValidator@xercesc_2_2@@QAEXPAV?$RefHashTableOf@VXMLRefInfo@xercesc_2_2@@@2@@Z 1203a970 f i IGXMLScanner.obj
 0001:00039970       ?setValidity@SchemaElementDecl@xercesc_2_2@@QAEXW4Validity@PSVIDefs@2@@Z 1203a970 f i IGXMLScanner.obj
 0001:00039970       ?setIDRefList@IDDatatypeValidator@xercesc_2_2@@QAEXPAV?$RefHashTableOf@VXMLRefInfo@xercesc_2_2@@@2@@Z 1203a970 f i IGXMLScanner.obj
 0001:00039970       ?setErrorReporter@XMLScanner@xercesc_2_2@@QAEXQAVXMLErrorReporter@2@@Z 1203a970 f i IGXMLScanner.obj
 0001:00039970       ?setEntityDeclPool@ENTITYDatatypeValidator@xercesc_2_2@@QAEXQAV?$NameIdPool@VDTDEntityDecl@xercesc_2_2@@@2@@Z 1203a970 f i IGXMLScanner.obj
 0001:00039980       ??4EncodingValidator@xercesc_2_2@@QAEAAV01@ABV01@@Z 1203a980 f i IGXMLScanner.obj
 0001:00039980       ??4XMLInteger@xercesc_2_2@@QAEAAV01@ABV01@@Z 1203a980 f i IGXMLScanner.obj
 0001:00039980       ??4DatatypeValidatorFactory@xercesc_2_2@@QAEAAV01@ABV01@@Z 1203a980 f i IGXMLScanner.obj
 0001:00039990       ?getDatatypeValidator@DatatypeValidatorFactory@xercesc_2_2@@QBEPAVDatatypeValidator@2@QBG@Z 1203a990 f i IGXMLScanner.obj
 0001:00039b70       ?getSign@XMLBigInteger@xercesc_2_2@@QBEHXZ 1203ab70 f i IGXMLScanner.obj
 0001:00039b70       ?getPrefix@QName@xercesc_2_2@@QBEPBGXZ 1203ab70 f i IGXMLScanner.obj
 0001:00039b70       ?getEntity@EndOfEntityException@xercesc_2_2@@QBEABVXMLEntityDecl@2@XZ 1203ab70 f i IGXMLScanner.obj
 0001:00039b70       ?intValue@XMLInteger@xercesc_2_2@@QBEHXZ 1203ab70 f i IGXMLScanner.obj
 0001:00039b70       ?getUserDefinedRegistry@DatatypeValidatorFactory@xercesc_2_2@@QBEPAV?$RefHashTableOf@VDatatypeValidator@xercesc_2_2@@@2@XZ 1203ab70 f i IGXMLScanner.obj
 0001:00039b70       ?getMatcherCount@XPathMatcherStack@xercesc_2_2@@QBEIXZ 1203ab70 f i IGXMLScanner.obj
 0001:00039b70       ?getXPath@IC_Selector@xercesc_2_2@@QBEPAVXercesXPath@2@XZ 1203ab70 f i IGXMLScanner.obj
 0001:00039b70       ?getPrefix@QName@xercesc_2_2@@QAEPAGXZ 1203ab70 f i IGXMLScanner.obj
 0001:00039b70       ?getCategoryId@RangeTokenElemMap@xercesc_2_2@@QBEIXZ 1203ab70 f i IGXMLScanner.obj
 0001:00039b70       ?getEntity@EndOfEntityException@xercesc_2_2@@QAEAAVXMLEntityDecl@2@XZ 1203ab70 f i IGXMLScanner.obj
 0001:00039b70       ?getId@XMLNotationDecl@xercesc_2_2@@QBEIXZ 1203ab70 f i IGXMLScanner.obj
 0001:00039b80       ?getBuiltInRegistry@DatatypeValidatorFactory@xercesc_2_2@@QBEPAV?$RefHashTableOf@VDatatypeValidator@xercesc_2_2@@@2@XZ 1203ab80 f i IGXMLScanner.obj
 0001:00039b90       ?cleanUp@DatatypeValidatorFactory@xercesc_2_2@@AAEXXZ 1203ab90 f i IGXMLScanner.obj
 0001:00039c20       ??0SchemaGrammar@xercesc_2_2@@QAE@ABV01@@Z 1203ac20 f i IGXMLScanner.obj
 0001:00039c90       ??4SchemaGrammar@xercesc_2_2@@QAEAAV01@ABV01@@Z 1203ac90 f i IGXMLScanner.obj
 0001:00039cf0       ??_ESchemaGrammar@xercesc_2_2@@UAEPAXI@Z 1203acf0 f i IGXMLScanner.obj
 0001:00039d50       ?getElemEnumerator@SchemaGrammar@xercesc_2_2@@QBE?AV?$RefHash3KeysIdPoolEnumerator@VSchemaElementDecl@xercesc_2_2@@@2@XZ 1203ad50 f i IGXMLScanner.obj
 0001:00039df0       ?getValue@XMLAttDef@xercesc_2_2@@QBEPBGXZ 1203adf0 f i IGXMLScanner.obj
 0001:00039df0       ?getCurrentSchemaURL@SchemaInfo@xercesc_2_2@@QBEPAGXZ 1203adf0 f i IGXMLScanner.obj
 0001:00039df0       ?getQueryString@XMLUri@xercesc_2_2@@QBEPBGXZ 1203adf0 f i IGXMLScanner.obj
 0001:00039df0       ?getContentType@ComplexTypeInfo@xercesc_2_2@@QBEHXZ 1203adf0 f i IGXMLScanner.obj
 0001:00039df0       ?getFacets@DatatypeValidator@xercesc_2_2@@QBEPAV?$RefHashTableOf@VKVStringPair@xercesc_2_2@@@2@XZ 1203adf0 f i IGXMLScanner.obj
 0001:00039df0       ?getURI@QName@xercesc_2_2@@QBEIXZ 1203adf0 f i IGXMLScanner.obj
 0001:00039df0       ?getAttributeDeclRegistry@SchemaGrammar@xercesc_2_2@@QBEPAV?$RefHashTableOf@VXMLAttDef@xercesc_2_2@@@2@XZ 1203adf0 f i IGXMLScanner.obj
 0001:00039df0       ?getProtocol@XMLURL@xercesc_2_2@@QBE?AW4Protocols@12@XZ 1203adf0 f i IGXMLScanner.obj
 0001:00039df0       ?getValue@XMLEntityDecl@xercesc_2_2@@QBEPBGXZ 1203adf0 f i IGXMLScanner.obj
 0001:00039df0       ?getEmptyNamespaceId@XMLScanner@xercesc_2_2@@QBEIXZ 1203adf0 f i IGXMLScanner.obj
 0001:00039e00       ?getFragment@XMLUri@xercesc_2_2@@QBEPBGXZ 1203ae00 f i IGXMLScanner.obj
 0001:00039e00       ?getComplexTypeRegistry@SchemaGrammar@xercesc_2_2@@QBEPAV?$RefHashTableOf@VComplexTypeInfo@xercesc_2_2@@@2@XZ 1203ae00 f i IGXMLScanner.obj
 0001:00039e00       ?getIdentityConstraint@XPathMatcher@xercesc_2_2@@QBEPAVIdentityConstraint@2@XZ 1203ae00 f i IGXMLScanner.obj
 0001:00039e00       ?getUnknownNamespaceId@XMLScanner@xercesc_2_2@@QBEIXZ 1203ae00 f i IGXMLScanner.obj
 0001:00039e00       ?getQuery@XMLURL@xercesc_2_2@@QBEPBGXZ 1203ae00 f i IGXMLScanner.obj
 0001:00039e00       ?getTargetNSURIString@SchemaInfo@xercesc_2_2@@QBEQBGXZ 1203ae00 f i IGXMLScanner.obj
 0001:00039e00       ?getString@Context@RegularExpression@xercesc_2_2@@QBEPBGXZ 1203ae00 f i IGXMLScanner.obj
 0001:00039e00       ?getContentSpec@DTDElementDecl@xercesc_2_2@@UAEPAVContentSpecNode@2@XZ 1203ae00 f i IGXMLScanner.obj
 0001:00039e00       ?getEnclosingScope@SchemaElementDecl@xercesc_2_2@@QBEHXZ 1203ae00 f i IGXMLScanner.obj
 0001:00039e00       ?getValueLen@XMLEntityDecl@xercesc_2_2@@QBEIXZ 1203ae00 f i IGXMLScanner.obj
 0001:00039e00       ?getContentSpec@DTDElementDecl@xercesc_2_2@@UBEPBVContentSpecNode@2@XZ 1203ae00 f i IGXMLScanner.obj
 0001:00039e00       ?getPattern@DatatypeValidator@xercesc_2_2@@IBEPBGXZ 1203ae00 f i IGXMLScanner.obj
 0001:00039e00       ?getTypeName@ComplexTypeInfo@xercesc_2_2@@QBEPAGXZ 1203ae00 f i IGXMLScanner.obj
 0001:00039e00       ?getCreateReason@XMLAttDef@xercesc_2_2@@QBE?AW4CreateReasons@12@XZ 1203ae00 f i IGXMLScanner.obj
 0001:00039e10       ?getValueStore@FieldMatcher@xercesc_2_2@@QBEPAVValueStore@2@XZ 1203ae10 f i IGXMLScanner.obj
 0001:00039e10       ?getFinalSet@SchemaElementDecl@xercesc_2_2@@QBEHXZ 1203ae10 f i IGXMLScanner.obj
 0001:00039e10       ?getBaseURI@XMLEntityDecl@xercesc_2_2@@QBEPBGXZ 1203ae10 f i IGXMLScanner.obj
 0001:00039e10       ?getUser@XMLURL@xercesc_2_2@@QBEPBGXZ 1203ae10 f i IGXMLScanner.obj
 0001:00039e10       ?getCharData@RegxParser@xercesc_2_2@@QBEHXZ 1203ae10 f i IGXMLScanner.obj
 0001:00039e10       ?getGroupInfoRegistry@SchemaGrammar@xercesc_2_2@@QBEPAV?$RefHashTableOf@VXercesGroupInfo@xercesc_2_2@@@2@XZ 1203ae10 f i IGXMLScanner.obj
 0001:00039e10       ?getXMLNamespaceId@XMLScanner@xercesc_2_2@@QBEIXZ 1203ae10 f i IGXMLScanner.obj
 0001:00039e10       ?getInitialDepth@SelectorMatcher@xercesc_2_2@@UBEHXZ 1203ae10 f i IGXMLScanner.obj
 0001:00039e10       ?getScanner@AbstractDOMParser@xercesc_2_2@@IBEPAVXMLScanner@2@XZ 1203ae10 f i IGXMLScanner.obj
 0001:00039e10       ?getModelType@DTDElementDecl@xercesc_2_2@@QBE?AW4ModelTypes@12@XZ 1203ae10 f i IGXMLScanner.obj
 0001:00039e10       ?getRoot@SchemaInfo@xercesc_2_2@@QBEPBVDOMElement@2@XZ 1203ae10 f i IGXMLScanner.obj
 0001:00039e10       ?getRegex@DatatypeValidator@xercesc_2_2@@IBEPAVRegularExpression@2@XZ 1203ae10 f i IGXMLScanner.obj
 0001:00039e20       ?getXMLNSNamespaceId@XMLScanner@xercesc_2_2@@QBEIXZ 1203ae20 f i IGXMLScanner.obj
 0001:00039e20       ?getElemId@SchemaAttDef@xercesc_2_2@@QBEIXZ 1203ae20 f i IGXMLScanner.obj
 0001:00039e20       ?getEntityResolver@DOMParser@xercesc_2_2@@QAEPAVEntityResolver@2@XZ 1203ae20 f i IGXMLScanner.obj
 0001:00039e20       ?getNodeIDMap@DOMDocumentImpl@xercesc_2_2@@QAEPAVDOMNodeIDMap@2@XZ 1203ae20 f i IGXMLScanner.obj
 0001:00039e20       ?getBlockSet@SchemaElementDecl@xercesc_2_2@@QBEHXZ 1203ae20 f i IGXMLScanner.obj
 0001:00039e20       ?getElemId@DTDAttDef@xercesc_2_2@@QBEIXZ 1203ae20 f i IGXMLScanner.obj
 0001:00039e20       ?getField@FieldMatcher@xercesc_2_2@@QBEPAVIC_Field@2@XZ 1203ae20 f i IGXMLScanner.obj
 0001:00039e20       ?getEntityResolver@DOMParser@xercesc_2_2@@QBEPBVEntityResolver@2@XZ 1203ae20 f i IGXMLScanner.obj
 0001:00039e20       ?getAttGroupInfoRegistry@SchemaGrammar@xercesc_2_2@@QBEPAV?$RefHashTableOf@VXercesAttGroupInfo@xercesc_2_2@@@2@XZ 1203ae20 f i IGXMLScanner.obj
 0001:00039e30       ?getDatatypeRegistry@SchemaGrammar@xercesc_2_2@@QAEPAVDatatypeValidatorFactory@2@XZ 1203ae30 f i IGXMLScanner.obj
 0001:00039e40       ?getNamespaceScope@SchemaGrammar@xercesc_2_2@@QBEPAVNamespaceScope@2@XZ 1203ae40 f i IGXMLScanner.obj
 0001:00039e40       ?getTokenFactory@RegxParser@xercesc_2_2@@QBEPAVTokenFactory@2@XZ 1203ae40 f i IGXMLScanner.obj
 0001:00039e40       ?getDatatypeValidator@ComplexTypeInfo@xercesc_2_2@@QBEPAVDatatypeValidator@2@XZ 1203ae40 f i IGXMLScanner.obj
 0001:00039e40       ?getDatatypeValidator@SchemaAttDef@xercesc_2_2@@QBEPAVDatatypeValidator@2@XZ 1203ae40 f i IGXMLScanner.obj
 0001:00039e40       ?getDefaultValue@SchemaElementDecl@xercesc_2_2@@QBEPAGXZ 1203ae40 f i IGXMLScanner.obj
 0001:00039e50       ?getDocumentHandler@SAXParser@xercesc_2_2@@QBEPBVDocumentHandler@2@XZ 1203ae50 f i IGXMLScanner.obj
 0001:00039e50       ?getDocumentHandler@SAXParser@xercesc_2_2@@QAEPAVDocumentHandler@2@XZ 1203ae50 f i IGXMLScanner.obj
 0001:00039e50       ?getLength@AbstractStringValidator@xercesc_2_2@@QBEIXZ 1203ae50 f i IGXMLScanner.obj
 0001:00039e50       ?getIDRefList@SchemaGrammar@xercesc_2_2@@QBEPAV?$RefHashTableOf@VXMLRefInfo@xercesc_2_2@@@2@XZ 1203ae50 f i IGXMLScanner.obj
 0001:00039e50       ?getContentSpec@ComplexTypeInfo@xercesc_2_2@@QBEPAVContentSpecNode@2@XZ 1203ae50 f i IGXMLScanner.obj
 0001:00039e60       ?setTargetNamespace@SchemaGrammar@xercesc_2_2@@QAEXQBG@Z 1203ae60 f i IGXMLScanner.obj
 0001:00039ed0       ?setURI@QName@xercesc_2_2@@QAEXI@Z 1203aed0 f i IGXMLScanner.obj
 0001:00039ed0       ?setContentType@ComplexTypeInfo@xercesc_2_2@@QAEXH@Z 1203aed0 f i IGXMLScanner.obj
 0001:00039ed0       ?setDatatypeValidator@SchemaElementDecl@xercesc_2_2@@QAEXPAVDatatypeValidator@2@@Z 1203aed0 f i IGXMLScanner.obj
 0001:00039ed0       ?setAttributeDeclRegistry@SchemaGrammar@xercesc_2_2@@QAEXQAV?$RefHashTableOf@VXMLAttDef@xercesc_2_2@@@2@@Z 1203aed0 f i IGXMLScanner.obj
 0001:00039ed0       ?setGrammarResolver@SchemaValidator@xercesc_2_2@@QAEXPAVGrammarResolver@2@@Z 1203aed0 f i IGXMLScanner.obj
 0001:00039ee0       ?setEnclosingScope@SchemaElementDecl@xercesc_2_2@@QAEXH@Z 1203aee0 f i IGXMLScanner.obj
 0001:00039ee0       ?setCreateReason@XMLAttDef@xercesc_2_2@@QAEXW4CreateReasons@12@@Z 1203aee0 f i IGXMLScanner.obj
 0001:00039ee0       ?setComplexTypeRegistry@SchemaGrammar@xercesc_2_2@@QAEXQAV?$RefHashTableOf@VComplexTypeInfo@xercesc_2_2@@@2@@Z 1203aee0 f i IGXMLScanner.obj
 0001:00039ef0       ?setRegex@DatatypeValidator@xercesc_2_2@@IAEXQAVRegularExpression@2@@Z 1203aef0 f i IGXMLScanner.obj
 0001:00039ef0       ?setFinalSet@SchemaElementDecl@xercesc_2_2@@QAEXH@Z 1203aef0 f i IGXMLScanner.obj
 0001:00039ef0       ?setModelType@DTDElementDecl@xercesc_2_2@@QAEXW4ModelTypes@12@@Z 1203aef0 f i IGXMLScanner.obj
 0001:00039ef0       ?setGroupInfoRegistry@SchemaGrammar@xercesc_2_2@@QAEXQAV?$RefHashTableOf@VXercesGroupInfo@xercesc_2_2@@@2@@Z 1203aef0 f i IGXMLScanner.obj
 0001:00039f00       ?setElemId@SchemaAttDef@xercesc_2_2@@QAEXI@Z 1203af00 f i IGXMLScanner.obj
 0001:00039f00       ?setElemId@DTDAttDef@xercesc_2_2@@QAEXI@Z 1203af00 f i IGXMLScanner.obj
 0001:00039f00       ?setBlockSet@SchemaElementDecl@xercesc_2_2@@QAEXH@Z 1203af00 f i IGXMLScanner.obj
 0001:00039f00       ?setAttGroupInfoRegistry@SchemaGrammar@xercesc_2_2@@QAEXQAV?$RefHashTableOf@VXercesAttGroupInfo@xercesc_2_2@@@2@@Z 1203af00 f i IGXMLScanner.obj
 0001:00039f10       ?setDatatypeValidator@ComplexTypeInfo@xercesc_2_2@@QAEXQAVDatatypeValidator@2@@Z 1203af10 f i IGXMLScanner.obj
 0001:00039f10       ?setDatatypeValidator@SchemaAttDef@xercesc_2_2@@QAEXPAVDatatypeValidator@2@@Z 1203af10 f i IGXMLScanner.obj
 0001:00039f10       ?setTokenFactory@RegxParser@xercesc_2_2@@QAEXQAVTokenFactory@2@@Z 1203af10 f i IGXMLScanner.obj
 0001:00039f10       ?setNamespaceScope@SchemaGrammar@xercesc_2_2@@QAEXQAVNamespaceScope@2@@Z 1203af10 f i IGXMLScanner.obj
 0001:00039f20       ?setDocument@AbstractDOMParser@xercesc_2_2@@IAEXPAVDOMDocument@2@@Z 1203af20 f i IGXMLScanner.obj
 0001:00039f20       ?setValidSubstitutionGroups@SchemaGrammar@xercesc_2_2@@QAEXQAV?$RefHash2KeysTableOf@V?$ValueVectorOf@PAVSchemaElementDecl@xercesc_2_2@@@xercesc_2_2@@@2@@Z 1203af20 f i IGXMLScanner.obj
 0001:00039f20       ?setComplexTypeInfo@SchemaElementDecl@xercesc_2_2@@QAEXQAVComplexTypeInfo@2@@Z 1203af20 f i IGXMLScanner.obj
 0001:00039f20       ?setAnyDatatypeValidator@SchemaAttDef@xercesc_2_2@@QAEXPAVDatatypeValidator@2@@Z 1203af20 f i IGXMLScanner.obj
 0001:00039f20       ?setBaseComplexTypeInfo@ComplexTypeInfo@xercesc_2_2@@QAEXQAV12@@Z 1203af20 f i IGXMLScanner.obj
 0001:00039f30       ?size@ModifierToken@xercesc_2_2@@UBEHXZ 1203af30 f i IGXMLScanner.obj
 0001:00039f30       ?getGrammarType@SchemaGrammar@xercesc_2_2@@UBE?AW4GrammarType@Grammar@2@XZ 1203af30 f i IGXMLScanner.obj
 0001:00039f30       ?size@ClosureToken@xercesc_2_2@@UBEHXZ 1203af30 f i IGXMLScanner.obj
 0001:00039f30       ?getTypeType@SchemaAttDef@xercesc_2_2@@QBE?AW4Complexity@PSVIDefs@2@XZ 1203af30 f i IGXMLScanner.obj
 0001:00039f30       ?size@ParenToken@xercesc_2_2@@UBEHXZ 1203af30 f i IGXMLScanner.obj
 0001:00039f40       ?getElementName@XMLElementDecl@xercesc_2_2@@QAEPAVQName@2@XZ 1203af40 f i IGXMLScanner.obj
 0001:00039f40       ?getBufMgr@XMLValidator@xercesc_2_2@@IAEPAVXMLBufferMgr@2@XZ 1203af40 f i IGXMLScanner.obj
 0001:00039f40       ?getKey@XMLNotationDecl@xercesc_2_2@@QBEPBGXZ 1203af40 f i IGXMLScanner.obj
 0001:00039f40       ?getLineNumber@XSDLocator@xercesc_2_2@@UBEJXZ 1203af40 f i IGXMLScanner.obj
 0001:00039f40       ?getLen@XMLBuffer@xercesc_2_2@@QBEIXZ 1203af40 f i IGXMLScanner.obj
 0001:00039f40       ?getRefName@XMLRefInfo@xercesc_2_2@@QBEPBGXZ 1203af40 f i IGXMLScanner.obj
 0001:00039f40       ?getType@XMLAttr@xercesc_2_2@@QBE?AW4AttTypes@XMLAttDef@2@XZ 1203af40 f i IGXMLScanner.obj
 0001:00039f40       ?getBufMgr@XMLValidator@xercesc_2_2@@IBEPBVXMLBufferMgr@2@XZ 1203af40 f i IGXMLScanner.obj
 0001:00039f40       ?getDocTypeHandler@DTDScanner@xercesc_2_2@@QBEPBVDocTypeHandler@2@XZ 1203af40 f i IGXMLScanner.obj
 0001:00039f40       ?getCode@XMLException@xercesc_2_2@@QBE?AW4Codes@XMLExcepts@2@XZ 1203af40 f i IGXMLScanner.obj
 0001:00039f40       ?getDerivedBy@ComplexTypeInfo@xercesc_2_2@@QBEHXZ 1203af40 f i IGXMLScanner.obj
 0001:00039f40       ?getNodeTest@XercesStep@xercesc_2_2@@QBEPAVXercesNodeTest@2@XZ 1203af40 f i IGXMLScanner.obj
 0001:00039f40       ?getMessage@SAXException@xercesc_2_2@@UBEPBGXZ 1203af40 f i IGXMLScanner.obj
 0001:00039f40       ?getId@XMLEntityDecl@xercesc_2_2@@QBEIXZ 1203af40 f i IGXMLScanner.obj
 0001:00039f40       ?getBlockSize@XMLTranscoder@xercesc_2_2@@QBEIXZ 1203af40 f i IGXMLScanner.obj
 0001:00039f40       ?getIdentityConstraint@IC_Selector@xercesc_2_2@@QBEPAVIdentityConstraint@2@XZ 1203af40 f i IGXMLScanner.obj
 0001:00039f40       ?getFragment@XMLURL@xercesc_2_2@@QBEPBGXZ 1203af40 f i IGXMLScanner.obj
 0001:00039f40       ?getDefaultType@XMLAttDef@xercesc_2_2@@QBE?AW4DefAttTypes@12@XZ 1203af40 f i IGXMLScanner.obj
 0001:00039f40       ?getElementName@XMLElementDecl@xercesc_2_2@@QBEPBVQName@2@XZ 1203af40 f i IGXMLScanner.obj
 0001:00039f40       ?getValue@XMLBigDecimal@xercesc_2_2@@QBEPAVXMLBigInteger@2@XZ 1203af40 f i IGXMLScanner.obj
 0001:00039f40       ?getReaderNum@EndOfEntityException@xercesc_2_2@@QBEIXZ 1203af40 f i IGXMLScanner.obj
 0001:00039f40       ?getScope@XercesGroupInfo@xercesc_2_2@@QBEHXZ 1203af40 f i IGXMLScanner.obj
 0001:00039f40       ?getName@XercesNodeTest@xercesc_2_2@@QBEPAVQName@2@XZ 1203af40 f i IGXMLScanner.obj
 0001:00039f40       ?getLineNumber@DOMLocatorImpl@xercesc_2_2@@UBEJXZ 1203af40 f i IGXMLScanner.obj
 0001:00039f40       ?getXPath@IC_Field@xercesc_2_2@@QBEPAVXercesXPath@2@XZ 1203af40 f i IGXMLScanner.obj
 0001:00039f40       ?getName@XMLNotationDecl@xercesc_2_2@@QBEPBGXZ 1203af40 f i IGXMLScanner.obj
 0001:00039f40       ?getFinalSet@DatatypeValidator@xercesc_2_2@@QBEHXZ 1203af40 f i IGXMLScanner.obj
 0001:00039f40       ?getEncodingName@XMLFormatter@xercesc_2_2@@QBEPBGXZ 1203af40 f i IGXMLScanner.obj
 0001:00039f40       ?getEncoding@InputSource@xercesc_2_2@@UBEPBGXZ 1203af40 f i IGXMLScanner.obj
 0001:00039f40       ?getIdentityConstraintName@IdentityConstraint@xercesc_2_2@@QBEPAGXZ 1203af40 f i IGXMLScanner.obj
 0001:00039f40       ?getDocTypeHandler@DTDScanner@xercesc_2_2@@QAEPAVDocTypeHandler@2@XZ 1203af40 f i IGXMLScanner.obj
 0001:00039f40       ?getTargetNamespace@SchemaGrammar@xercesc_2_2@@UBEPBGXZ 1203af40 f i IGXMLScanner.obj
 0001:00039f40       ?getScheme@XMLUri@xercesc_2_2@@QBEPBGXZ 1203af40 f i IGXMLScanner.obj
 0001:00039f40       ?getBlockDefault@SchemaInfo@xercesc_2_2@@QBEHXZ 1203af40 f i IGXMLScanner.obj
 0001:00039f50       ?getElemId@SchemaGrammar@xercesc_2_2@@UBEIIQBG0I@Z 1203af50 f i IGXMLScanner.obj
 0001:0003a080       ?getElemDecl@SchemaGrammar@xercesc_2_2@@UAEPAVXMLElementDecl@2@IQBG0I@Z 1203b080 f i IGXMLScanner.obj
 0001:0003a080       ?getElemDecl@SchemaGrammar@xercesc_2_2@@UBEPBVXMLElementDecl@2@IQBG0I@Z 1203b080 f i IGXMLScanner.obj
 0001:0003a220       ?getElemDecl@SchemaGrammar@xercesc_2_2@@UAEPAVXMLElementDecl@2@I@Z 1203b220 f i IGXMLScanner.obj
 0001:0003a220       ?getElemDecl@SchemaGrammar@xercesc_2_2@@UBEPBVXMLElementDecl@2@I@Z 1203b220 f i IGXMLScanner.obj
 0001:0003a2a0       ?putElemDecl@SchemaGrammar@xercesc_2_2@@UBEIQAVXMLElementDecl@2@_N@Z 1203b2a0 f i IGXMLScanner.obj
 0001:0003a2e0       ?putGroupElemDecl@SchemaGrammar@xercesc_2_2@@QBEIQAVXMLElementDecl@2@@Z 1203b2e0 f i IGXMLScanner.obj
 0001:0003a310       ?getNotationDecl@SchemaGrammar@xercesc_2_2@@UAEPAVXMLNotationDecl@2@QBG@Z 1203b310 f i IGXMLScanner.obj
 0001:0003a310       ?getNotationDecl@SchemaGrammar@xercesc_2_2@@UBEPBVXMLNotationDecl@2@QBG@Z 1203b310 f i IGXMLScanner.obj
 0001:0003a3c0       ?putNotationDecl@SchemaGrammar@xercesc_2_2@@UBEIQAVXMLNotationDecl@2@@Z 1203b3c0 f i IGXMLScanner.obj
 0001:0003a3d0       ?getValidated@SchemaGrammar@xercesc_2_2@@UBE_NXZ 1203b3d0 f i IGXMLScanner.obj
 0001:0003a3e0       ?setValidated@SchemaGrammar@xercesc_2_2@@UAEX_N@Z 1203b3e0 f i IGXMLScanner.obj
 0001:0003a3f0       ??1XSDErrorReporter@xercesc_2_2@@UAE@XZ 1203b3f0 f i IGXMLScanner.obj
 0001:0003a400       ??_FXSDErrorReporter@xercesc_2_2@@QAEXXZ 1203b400 f i IGXMLScanner.obj
 0001:0003a410       ??_EXSDErrorReporter@xercesc_2_2@@UAEPAXI@Z 1203b410 f i IGXMLScanner.obj
 0001:0003a470       ?getExitOnFirstFatal@XSDErrorReporter@xercesc_2_2@@QBE_NXZ 1203b470 f i IGXMLScanner.obj
 0001:0003a470       ?getStandardUriConformant@XMLScanner@xercesc_2_2@@QBE_NXZ 1203b470 f i IGXMLScanner.obj
 0001:0003a470       ?hasBackReferences@RegxParser@xercesc_2_2@@QBE_NXZ 1203b470 f i IGXMLScanner.obj
 0001:0003a480       ?setExitOnFirstFatal@XSDErrorReporter@xercesc_2_2@@QAEX_N@Z 1203b480 f i IGXMLScanner.obj
 0001:0003a480       ?setAdoptLocation@DOMErrorImpl@xercesc_2_2@@QAEX_N@Z 1203b480 f i IGXMLScanner.obj
 0001:0003a490       ?setContentSpec@XercesGroupInfo@xercesc_2_2@@QAEXQAVContentSpecNode@2@@Z 1203b490 f i IGXMLScanner.obj
 0001:0003a490       ?setColumnNumber@DOMLocatorImpl@xercesc_2_2@@UAEXJ@Z 1203b490 f i IGXMLScanner.obj
 0001:0003a490       ?setMin@ClosureToken@xercesc_2_2@@UAEXH@Z 1203b490 f i IGXMLScanner.obj
 0001:0003a490       ?setMessage@DOMErrorImpl@xercesc_2_2@@UAEXQBG@Z 1203b490 f i IGXMLScanner.obj
 0001:0003a490       ?setErrorReporter@XSDErrorReporter@xercesc_2_2@@QAEXQAVXMLErrorReporter@2@@Z 1203b490 f i IGXMLScanner.obj
 0001:0003a490       ?setFinalDefault@SchemaInfo@xercesc_2_2@@QAEXH@Z 1203b490 f i IGXMLScanner.obj
 0001:0003a490       ?setBlockSet@ComplexTypeInfo@xercesc_2_2@@QAEXH@Z 1203b490 f i IGXMLScanner.obj
 0001:0003a490       ?setCreateReason@XMLElementDecl@xercesc_2_2@@QAEXW4CreateReasons@12@@Z 1203b490 f i IGXMLScanner.obj
 0001:0003a490       ?setErrorReporter@XMLValidator@xercesc_2_2@@QAEXQAVXMLErrorReporter@2@@Z 1203b490 f i IGXMLScanner.obj
 0001:0003a490       ?setNextOp@Op@xercesc_2_2@@QAEXQBV12@@Z 1203b490 f i IGXMLScanner.obj
 0001:0003a4a0       ??_FSchemaValidator@xercesc_2_2@@QAEXXZ 1203b4a0 f i IGXMLScanner.obj
 0001:0003a4b0       ?setXsiType@SchemaValidator@xercesc_2_2@@QAEXQBG0I@Z 1203b4b0 f i IGXMLScanner.obj
 0001:0003a530       ?setExternalAttDeclaration@XMLAttDef@xercesc_2_2@@QAEX_N@Z 1203b530 f i IGXMLScanner.obj
 0001:0003a530       ?setNillable@SchemaValidator@xercesc_2_2@@QAEX_N@Z 1203b530 f i IGXMLScanner.obj
 0001:0003a540       ?setExitOnFirstFatal@SchemaValidator@xercesc_2_2@@QAEX_N@Z 1203b540 f i IGXMLScanner.obj
 0001:0003a550       ?setDatatypeBuffer@SchemaValidator@xercesc_2_2@@QAEXQBG@Z 1203b550 f i IGXMLScanner.obj
 0001:0003a570       ?getCurrentTypeInfo@SchemaValidator@xercesc_2_2@@QBEPAVComplexTypeInfo@2@XZ 1203b570 f i IGXMLScanner.obj
 0001:0003a5e0       ?setErrorReporter@SchemaValidator@xercesc_2_2@@QAEXQAVXMLErrorReporter@2@@Z 1203b5e0 f i IGXMLScanner.obj
 0001:0003a5f0       ?isOccurrenceRangeOK@SchemaValidator@xercesc_2_2@@AAE_NHHHH@Z 1203b5f0 f i IGXMLScanner.obj
 0001:0003a620       ?size@XPathMatcherStack@xercesc_2_2@@QBEIXZ 1203b620 f i IGXMLScanner.obj
 0001:0003a620       ?getSign@XMLBigDecimal@xercesc_2_2@@UBEHXZ 1203b620 f i IGXMLScanner.obj
 0001:0003a630       ?pushContext@XPathMatcherStack@xercesc_2_2@@QAEXXZ 1203b630 f i IGXMLScanner.obj
 0001:0003a6d0       ?popContext@XPathMatcherStack@xercesc_2_2@@QAEXXZ 1203b6d0 f i IGXMLScanner.obj
 0001:0003a790       ?addMatcher@XPathMatcherStack@xercesc_2_2@@QAEXQAVXPathMatcher@2@@Z 1203b790 f i IGXMLScanner.obj
 0001:0003a890       ?setScopeDefined@ComplexTypeInfo@xercesc_2_2@@QAEXH@Z 1203b890 f i IGXMLScanner.obj
 0001:0003a890       ?setBaseGroup@XercesGroupInfo@xercesc_2_2@@QAEXQAV12@@Z 1203b890 f i IGXMLScanner.obj
 0001:0003a890       ?setScopeCount@SchemaInfo@xercesc_2_2@@QAEXH@Z 1203b890 f i IGXMLScanner.obj
 0001:0003a890       ?setErrorNode@DOMLocatorImpl@xercesc_2_2@@UAEXQAVDOMNode@2@@Z 1203b890 f i IGXMLScanner.obj
 0001:0003a890       ?setType@DatatypeValidator@xercesc_2_2@@IAEXW4ValidatorType@12@@Z 1203b890 f i IGXMLScanner.obj
 0001:0003a890       ?setScanner@ValueStoreCache@xercesc_2_2@@QAEXQAVXMLScanner@2@@Z 1203b890 f i IGXMLScanner.obj
 0001:0003a8a0       ?getValueStoreFor@ValueStoreCache@xercesc_2_2@@QAEPAVValueStore@2@QBVIC_Field@2@H@Z 1203b8a0 f i IGXMLScanner.obj
 0001:0003a940       ?getValueStoreFor@ValueStoreCache@xercesc_2_2@@QAEPAVValueStore@2@QBVIdentityConstraint@2@H@Z 1203b940 f i IGXMLScanner.obj
 0001:0003a9e0       ?getGlobalValueStoreFor@ValueStoreCache@xercesc_2_2@@QAEPAVValueStore@2@QBVIdentityConstraint@2@@Z 1203b9e0 f i IGXMLScanner.obj
 0001:0003aa70       ??1SelectorMatcher@xercesc_2_2@@UAE@XZ 1203ba70 f i IGXMLScanner.obj
 0001:0003aa80       ??_ESelectorMatcher@xercesc_2_2@@UAEPAXI@Z 1203ba80 f i IGXMLScanner.obj
 0001:0003aae0       ?getDatatypeValidatorAt@FieldValueMap@xercesc_2_2@@QBEPAVDatatypeValidator@2@I@Z 1203bae0 f i IGXMLScanner.obj
 0001:0003ab30       ?getDatatypeValidatorFor@FieldValueMap@xercesc_2_2@@QBEPAVDatatypeValidator@2@QBVIC_Field@2@@Z 1203bb30 f i IGXMLScanner.obj
 0001:0003ab90       ?anyAttributeAt@XercesAttGroupInfo@xercesc_2_2@@QBEPBVSchemaAttDef@2@I@Z 1203bb90 f i IGXMLScanner.obj
 0001:0003ab90       ?anyAttributeAt@XercesAttGroupInfo@xercesc_2_2@@QAEPAVSchemaAttDef@2@I@Z 1203bb90 f i IGXMLScanner.obj
 0001:0003ab90       ?getValueAt@FieldValueMap@xercesc_2_2@@QBEPAGI@Z 1203bb90 f i IGXMLScanner.obj
 0001:0003abe0       ?getValueFor@FieldValueMap@xercesc_2_2@@QBEPAGQBVIC_Field@2@@Z 1203bbe0 f i IGXMLScanner.obj
 0001:0003ac40       ?keyAt@FieldValueMap@xercesc_2_2@@QBEPAVIC_Field@2@I@Z 1203bc40 f i IGXMLScanner.obj
 0001:0003ac90       ?size@FieldValueMap@xercesc_2_2@@QBEIXZ 1203bc90 f i IGXMLScanner.obj
 0001:0003aca0       ?put@FieldValueMap@xercesc_2_2@@QAEXQAVIC_Field@2@QAVDatatypeValidator@2@QBG@Z 1203bca0 f i IGXMLScanner.obj
 0001:0003af40       ??0IGXMLScanner@xercesc_2_2@@QAE@QAVXMLValidator@1@@Z 1203bf40 f   IGXMLScanner.obj
 0001:0003b040       ??_EIGXMLScanner@xercesc_2_2@@UAEPAXI@Z 1203c040 f i IGXMLScanner.obj
 0001:0003b0a0       ??0IGXMLScanner@xercesc_2_2@@QAE@QAVXMLDocumentHandler@1@QAVDocTypeHandler@1@QAVXMLEntityHandler@1@QAVXMLErrorReporter@1@QAVXMLValidator@1@@Z 1203c0a0 f   IGXMLScanner.obj
 0001:0003b1b0       ??1IGXMLScanner@xercesc_2_2@@UAE@XZ 1203c1b0 f   IGXMLScanner.obj
 0001:0003b230       ?getEntityDeclPool@IGXMLScanner@xercesc_2_2@@UAEPAV?$NameIdPool@VDTDEntityDecl@xercesc_2_2@@@2@XZ 1203c230 f   IGXMLScanner.obj
 0001:0003b230       ?getEntityDeclPool@IGXMLScanner@xercesc_2_2@@UBEPBV?$NameIdPool@VDTDEntityDecl@xercesc_2_2@@@2@XZ 1203c230 f   IGXMLScanner.obj
 0001:0003b240       ?scanDocument@IGXMLScanner@xercesc_2_2@@UAEXABVInputSource@2@@Z 1203c240 f   IGXMLScanner.obj
 0001:0003b400       ?scanNext@IGXMLScanner@xercesc_2_2@@UAE_NAAVXMLPScanToken@2@@Z 1203c400 f   IGXMLScanner.obj
 0001:0003b740       ?commonInit@IGXMLScanner@xercesc_2_2@@AAEXXZ 1203c740 f   IGXMLScanner.obj
 0001:0003b910       ?cleanUp@IGXMLScanner@xercesc_2_2@@AAEXXZ 1203c910 f   IGXMLScanner.obj
 0001:0003b9b0       ?rawAttrScan@IGXMLScanner@xercesc_2_2@@AAEIQBGAAV?$RefVectorOf@VKVStringPair@xercesc_2_2@@@2@AA_N@Z 1203c9b0 f   IGXMLScanner.obj
 0001:0003bed0       ?scanContent@IGXMLScanner@xercesc_2_2@@AAE_N_N@Z 1203ced0 f   IGXMLScanner.obj
 0001:0003c090       ?scanEndTag@IGXMLScanner@xercesc_2_2@@AAEXAA_N@Z 1203d090 f   IGXMLScanner.obj
 0001:0003c8b0       ?scanDocTypeDecl@IGXMLScanner@xercesc_2_2@@EAEXXZ 1203d8b0 f   IGXMLScanner.obj
 0001:0003d200       ?scanStartTag@IGXMLScanner@xercesc_2_2@@AAE_NAA_N@Z 1203e200 f   IGXMLScanner.obj
 0001:0003dc10       ?scanStartTagNS@IGXMLScanner@xercesc_2_2@@AAE_NAA_N@Z 1203ec10 f   IGXMLScanner.obj
 0001:0003f120       ?activateSelectorFor@IGXMLScanner@xercesc_2_2@@AAEXQAVIdentityConstraint@2@H@Z 12040120 f   IGXMLScanner.obj
 0001:0003f120       ?activateSelectorFor@SGXMLScanner@xercesc_2_2@@AAEXQAVIdentityConstraint@2@H@Z 12040120 f   IGXMLScanner.obj
 0001:0003f250       ?loadGrammar@IGXMLScanner@xercesc_2_2@@UAEPAVGrammar@2@ABVInputSource@2@F_N@Z 12040250 f   IGXMLScanner.obj
 0001:0003f410       ?loadDTDGrammar@IGXMLScanner@xercesc_2_2@@AAEPAVGrammar@2@ABVInputSource@2@_N@Z 12040410 f   IGXMLScanner.obj
 0001:0003f900       ??1?$XMLEnumerator@VSchemaAttDef@xercesc_2_2@@@xercesc_2_2@@UAE@XZ 12040900 f i IGXMLScanner.obj
 0001:0003f910       ??1?$XMLEnumerator@VSchemaElementDecl@xercesc_2_2@@@xercesc_2_2@@UAE@XZ 12040910 f i IGXMLScanner.obj
 0001:0003f920       ??_E?$XMLEnumerator@VSchemaAttDef@xercesc_2_2@@@xercesc_2_2@@UAEPAXI@Z 12040920 f i IGXMLScanner.obj
 0001:0003f920       ??_G?$XMLEnumerator@VSchemaAttDef@xercesc_2_2@@@xercesc_2_2@@UAEPAXI@Z 12040920 f i IGXMLScanner.obj
 0001:0003f940       ??_E?$XMLEnumerator@VSchemaElementDecl@xercesc_2_2@@@xercesc_2_2@@UAEPAXI@Z 12040940 f i IGXMLScanner.obj
 0001:0003f940       ??_G?$XMLEnumerator@VSchemaElementDecl@xercesc_2_2@@@xercesc_2_2@@UAEPAXI@Z 12040940 f i IGXMLScanner.obj
 0001:0003f960       ??1?$RefHash2KeysTableOfEnumerator@VSchemaAttDef@xercesc_2_2@@@xercesc_2_2@@UAE@XZ 12040960 f i IGXMLScanner.obj
 0001:0003fa40       ?nextElement@?$RefHash2KeysTableOfEnumerator@VSchemaAttDef@xercesc_2_2@@@xercesc_2_2@@UAEAAVSchemaAttDef@2@XZ 12040a40 f i IGXMLScanner.obj
 0001:0003fac0       ?Reset@?$RefHashTableOfEnumerator@VXercesGroupInfo@xercesc_2_2@@@xercesc_2_2@@UAEXXZ 12040ac0 f i IGXMLScanner.obj
 0001:0003fac0       ?Reset@?$RefHashTableOfEnumerator@VDTDAttDef@xercesc_2_2@@@xercesc_2_2@@UAEXXZ 12040ac0 f i IGXMLScanner.obj
 0001:0003fac0       ?Reset@?$RefHashTableOfEnumerator@VComplexTypeInfo@xercesc_2_2@@@xercesc_2_2@@UAEXXZ 12040ac0 f i IGXMLScanner.obj
 0001:0003fac0       ?Reset@?$RefHashTableOfEnumerator@VKVStringPair@xercesc_2_2@@@xercesc_2_2@@UAEXXZ 12040ac0 f i IGXMLScanner.obj
 0001:0003fac0       ?Reset@?$RefHashTableOfEnumerator@VGrammar@xercesc_2_2@@@xercesc_2_2@@UAEXXZ 12040ac0 f i IGXMLScanner.obj
 0001:0003fac0       ?Reset@?$RefHashTableOfEnumerator@VXMLRefInfo@xercesc_2_2@@@xercesc_2_2@@UAEXXZ 12040ac0 f i IGXMLScanner.obj
 0001:0003fac0       ?Reset@?$RefHash2KeysTableOfEnumerator@VSchemaAttDef@xercesc_2_2@@@xercesc_2_2@@UAEXXZ 12040ac0 f i IGXMLScanner.obj
 0001:0003fac0       ?Reset@?$RefHashTableOfEnumerator@VValueStore@xercesc_2_2@@@xercesc_2_2@@UAEXXZ 12040ac0 f i IGXMLScanner.obj
 0001:0003fac0       ?Reset@?$RefHashTableOfEnumerator@V?$KeyRefPair@XVDOMUserDataHandler@xercesc_2_2@@@xercesc_2_2@@@xercesc_2_2@@UAEXXZ 12040ac0 f i IGXMLScanner.obj
 0001:0003fb00       ?hasMoreElements@?$RefHash3KeysIdPoolEnumerator@VSchemaElementDecl@xercesc_2_2@@@xercesc_2_2@@UBE_NXZ 12040b00 f i IGXMLScanner.obj
 0001:0003fb20       ?nextElement@?$RefHash3KeysIdPoolEnumerator@VSchemaElementDecl@xercesc_2_2@@@xercesc_2_2@@UAEAAVSchemaElementDecl@2@XZ 12040b20 f i IGXMLScanner.obj
 0001:0003fb70       ?put@?$RefHash3KeysIdPool@VSchemaElementDecl@xercesc_2_2@@@xercesc_2_2@@QAEIPAXHHQAVSchemaElementDecl@2@@Z 12040b70 f i IGXMLScanner.obj
 0001:0003fd20       ?setElementAt@?$BaseRefVectorOf@VXPathMatcher@xercesc_2_2@@@xercesc_2_2@@QAEXQAVXPathMatcher@2@I@Z 12040d20 f i IGXMLScanner.obj
 0001:0003fd80       ??_E?$RefVectorOf@VSchemaElementDecl@xercesc_2_2@@@xercesc_2_2@@UAEPAXI@Z 12040d80 f i IGXMLScanner.obj
 0001:0003fd80       ??_G?$RefVectorOf@VSchemaElementDecl@xercesc_2_2@@@xercesc_2_2@@UAEPAXI@Z 12040d80 f i IGXMLScanner.obj
 0001:0003fda0       ??1?$RefVectorOf@VSchemaElementDecl@xercesc_2_2@@@xercesc_2_2@@UAE@XZ 12040da0 f i IGXMLScanner.obj
 0001:0003fe20       ??1?$BaseRefVectorOf@VSchemaElementDecl@xercesc_2_2@@@xercesc_2_2@@UAE@XZ 12040e20 f i IGXMLScanner.obj
 0001:0003fe30       ??_E?$RefHash2KeysTableOfEnumerator@VSchemaAttDef@xercesc_2_2@@@xercesc_2_2@@UAEPAXI@Z 12040e30 f i IGXMLScanner.obj
 0001:0003fe30       ??_G?$RefHash2KeysTableOfEnumerator@VSchemaAttDef@xercesc_2_2@@@xercesc_2_2@@UAEPAXI@Z 12040e30 f i IGXMLScanner.obj
 0001:0003fe50       ??_E?$RefVectorOf@VIC_Field@xercesc_2_2@@@xercesc_2_2@@UAEPAXI@Z 12040e50 f i IGXMLScanner.obj
 0001:0003fe50       ??_G?$RefVectorOf@VIC_Field@xercesc_2_2@@@xercesc_2_2@@UAEPAXI@Z 12040e50 f i IGXMLScanner.obj
 0001:0003fe70       ??1?$RefVectorOf@VIC_Field@xercesc_2_2@@@xercesc_2_2@@UAE@XZ 12040e70 f i IGXMLScanner.obj
 0001:0003ff00       ??1?$BaseRefVectorOf@VIC_Field@xercesc_2_2@@@xercesc_2_2@@UAE@XZ 12040f00 f i IGXMLScanner.obj
 0001:0003ff10       ??_G?$RefVectorOf@VIdentityConstraint@xercesc_2_2@@@xercesc_2_2@@UAEPAXI@Z 12040f10 f i IGXMLScanner.obj
 0001:0003ff10       ??_E?$RefVectorOf@VIdentityConstraint@xercesc_2_2@@@xercesc_2_2@@UAEPAXI@Z 12040f10 f i IGXMLScanner.obj
 0001:0003ff30       ??1?$RefVectorOf@VIdentityConstraint@xercesc_2_2@@@xercesc_2_2@@UAE@XZ 12040f30 f i IGXMLScanner.obj
 0001:0003ffb0       ??1?$BaseRefVectorOf@VIdentityConstraint@xercesc_2_2@@@xercesc_2_2@@UAE@XZ 12040fb0 f i IGXMLScanner.obj
 0001:0003ffc0       ??_G?$RefHash3KeysIdPoolEnumerator@VSchemaElementDecl@xercesc_2_2@@@xercesc_2_2@@UAEPAXI@Z 12040fc0 f i IGXMLScanner.obj
 0001:0003ffc0       ??_E?$RefHash3KeysIdPoolEnumerator@VSchemaElementDecl@xercesc_2_2@@@xercesc_2_2@@UAEPAXI@Z 12040fc0 f i IGXMLScanner.obj
 0001:0003ffe0       ??1?$RefHash3KeysIdPoolEnumerator@VSchemaElementDecl@xercesc_2_2@@@xercesc_2_2@@UAE@XZ 12040fe0 f i IGXMLScanner.obj
 0001:000400d0       ??_E?$RefVectorOf@VKVStringPair@xercesc_2_2@@@xercesc_2_2@@UAEPAXI@Z 120410d0 f i IGXMLScanner.obj
 0001:000400d0       ??_G?$RefVectorOf@VKVStringPair@xercesc_2_2@@@xercesc_2_2@@UAEPAXI@Z 120410d0 f i IGXMLScanner.obj
 0001:000400f0       ??1?$RefVectorOf@VKVStringPair@xercesc_2_2@@@xercesc_2_2@@UAE@XZ 120410f0 f i IGXMLScanner.obj
 0001:00040180       ??1?$BaseRefVectorOf@VKVStringPair@xercesc_2_2@@@xercesc_2_2@@UAE@XZ 12041180 f i IGXMLScanner.obj
 0001:00040190       ??0?$BaseRefVectorOf@G@xercesc_2_2@@QAE@I_N@Z 12041190 f i IGXMLScanner.obj
 0001:000401f0       ?ensureExtraCapacity@?$ValueVectorOf@PAVDatatypeValidator@xercesc_2_2@@@xercesc_2_2@@QAEXI@Z 120411f0 f i IGXMLScanner.obj
 0001:000401f0       ?ensureExtraCapacity@?$ValueVectorOf@H@xercesc_2_2@@QAEXI@Z 120411f0 f i IGXMLScanner.obj
 0001:000401f0       ?ensureExtraCapacity@?$ValueVectorOf@PAVXMLAttr@xercesc_2_2@@@xercesc_2_2@@QAEXI@Z 120411f0 f i IGXMLScanner.obj
 0001:000401f0       ?ensureExtraCapacity@?$ValueVectorOf@PAVQName@xercesc_2_2@@@xercesc_2_2@@QAEXI@Z 120411f0 f i IGXMLScanner.obj
 0001:000401f0       ?ensureExtraCapacity@?$ValueVectorOf@PBVDOMElement@xercesc_2_2@@@xercesc_2_2@@QAEXI@Z 120411f0 f i IGXMLScanner.obj
 0001:000401f0       ?ensureExtraCapacity@?$ValueVectorOf@PAVXercesAttGroupInfo@xercesc_2_2@@@xercesc_2_2@@QAEXI@Z 120411f0 f i IGXMLScanner.obj
 0001:000401f0       ?ensureExtraCapacity@?$ValueVectorOf@PAVIC_Field@xercesc_2_2@@@xercesc_2_2@@QAEXI@Z 120411f0 f i IGXMLScanner.obj
 0001:000401f0       ?ensureExtraCapacity@?$ValueVectorOf@PAG@xercesc_2_2@@QAEXI@Z 120411f0 f i IGXMLScanner.obj
 0001:000401f0       ?ensureExtraCapacity@?$ValueVectorOf@PAVComplexTypeInfo@xercesc_2_2@@@xercesc_2_2@@QAEXI@Z 120411f0 f i IGXMLScanner.obj
 0001:000401f0       ?ensureExtraCapacity@?$ValueVectorOf@PAVDOMElement@xercesc_2_2@@@xercesc_2_2@@QAEXI@Z 120411f0 f i IGXMLScanner.obj
 0001:000401f0       ?ensureExtraCapacity@?$ValueVectorOf@I@xercesc_2_2@@QAEXI@Z 120411f0 f i IGXMLScanner.obj
 0001:000401f0       ?ensureExtraCapacity@?$ValueVectorOf@PAVSchemaElementDecl@xercesc_2_2@@@xercesc_2_2@@QAEXI@Z 120411f0 f i IGXMLScanner.obj
 0001:00040280       ??0DOMNode@xercesc_2_2@@IAE@XZ 12041280 f i IGXMLScanner2.obj
 0001:00040290       ??0DOMNode@xercesc_2_2@@IAE@ABV01@@Z 12041290 f i IGXMLScanner2.obj
 0001:000402a0       ??_EDOMNode@xercesc_2_2@@UAEPAXI@Z 120412a0 f i IGXMLScanner2.obj
 0001:00040300       ??0DOMElement@xercesc_2_2@@IAE@XZ 12041300 f i IGXMLScanner2.obj
 0001:00040310       ??0DOMElement@xercesc_2_2@@IAE@ABV01@@Z 12041310 f i IGXMLScanner2.obj
 0001:00040320       ??0DOMAttr@xercesc_2_2@@IAE@XZ 12041320 f i IGXMLScanner2.obj
 0001:00040330       ??0DOMAttr@xercesc_2_2@@IAE@ABV01@@Z 12041330 f i IGXMLScanner2.obj
 0001:00040340       ??4SchemaInfo@xercesc_2_2@@QAEAAV01@ABV01@@Z 12041340 f i IGXMLScanner2.obj
 0001:00040360       ?getElemAttrDefaultQualified@SchemaInfo@xercesc_2_2@@QBEGXZ 12041360 f i IGXMLScanner2.obj
 0001:00040370       ?getImportingListEnumerator@SchemaInfo@xercesc_2_2@@QBE?AV?$BaseRefVectorEnumerator@VSchemaInfo@xercesc_2_2@@@2@XZ 12041370 f i IGXMLScanner2.obj
 0001:000403a0       ?setElemAttrDefaultQualified@SchemaInfo@xercesc_2_2@@QAEXG@Z 120413a0 f i IGXMLScanner2.obj
 0001:000403b0       ?addImportedNS@SchemaInfo@xercesc_2_2@@QAEXH@Z 120413b0 f i IGXMLScanner2.obj
 0001:000404e0       ?addSchemaInfo@SchemaInfo@xercesc_2_2@@QAEXQAV12@W4ListType@12@@Z 120414e0 f i IGXMLScanner2.obj
 0001:00040740       ?getImportInfo@SchemaInfo@xercesc_2_2@@QBEPAV12@I@Z 12041740 f i IGXMLScanner2.obj
 0001:000407b0       ?containsInfo@SchemaInfo@xercesc_2_2@@QBE_NQBV12@W4ListType@12@@Z 120417b0 f i IGXMLScanner2.obj
 0001:00040820       ?circularImportExist@SchemaInfo@xercesc_2_2@@QAE_NI@Z 12041820 f i IGXMLScanner2.obj
 0001:00040890       ?isFailedRedefine@SchemaInfo@xercesc_2_2@@QAE_NQBVDOMElement@2@@Z 12041890 f i IGXMLScanner2.obj
 0001:000408d0       ?addFailedRedefine@SchemaInfo@xercesc_2_2@@QAEXQBVDOMElement@2@@Z 120418d0 f i IGXMLScanner2.obj
 0001:000409e0       ?isImportingNS@SchemaInfo@xercesc_2_2@@QAE_NH@Z 120419e0 f i IGXMLScanner2.obj
 0001:00040a20       ?addRecursingType@SchemaInfo@xercesc_2_2@@QAEXQBVDOMElement@2@QBG@Z 12041a20 f i IGXMLScanner2.obj
 0001:00040bf0       ?clearTopLevelComponents@SchemaInfo@xercesc_2_2@@AAEXXZ 12041bf0 f i IGXMLScanner2.obj
 0001:00040c30       ?getFacetId@GeneralAttributeCheck@xercesc_2_2@@QAEGQBG@Z 12041c30 f i IGXMLScanner2.obj
 0001:00040cd0       ?getPrefix@TraverseSchema@xercesc_2_2@@AAEPBGQBG@Z 12041cd0 f i IGXMLScanner2.obj
 0001:00040d30       ?getLocalPart@TraverseSchema@xercesc_2_2@@AAEPBGQBG@Z 12041d30 f i IGXMLScanner2.obj
 0001:00040dc0       ?isValidRefDeclaration@TraverseSchema@xercesc_2_2@@AAE_NQBVDOMElement@2@@Z 12041dc0 f i IGXMLScanner2.obj
 0001:00040f90       ?getElementAttValue@TraverseSchema@xercesc_2_2@@AAEPBGQBVDOMElement@2@QBG_N@Z 12041f90 f i IGXMLScanner2.obj
 0001:00041010       ?checkForEmptyTargetNamespace@TraverseSchema@xercesc_2_2@@AAEXQBVDOMElement@2@@Z 12042010 f i IGXMLScanner2.obj
 0001:00041060       ?isBaseFromAnotherSchema@TraverseSchema@xercesc_2_2@@AAE_NQBG@Z 12042060 f i IGXMLScanner2.obj
 0001:00041110       ?isAttrOrAttrGroup@TraverseSchema@xercesc_2_2@@AAE_NQBVDOMElement@2@@Z 12042110 f i IGXMLScanner2.obj
 0001:00041230       ?genAnonTypeName@TraverseSchema@xercesc_2_2@@AAEPBGQBG@Z 12042230 f i IGXMLScanner2.obj
 0001:000412a0       ?popCurrentTypeNameStack@TraverseSchema@xercesc_2_2@@AAEXXZ 120422a0 f i IGXMLScanner2.obj
 0001:00041300       ?copyWildCardData@TraverseSchema@xercesc_2_2@@AAEXQBVSchemaAttDef@2@QAV32@@Z 12042300 f i IGXMLScanner2.obj
 0001:00041330       ?getRedefineNewTypeName@TraverseSchema@xercesc_2_2@@AAEXQBGHAAVXMLBuffer@2@@Z 12042330 f i IGXMLScanner2.obj
 0001:00041370       ?normalizeURI@TraverseSchema@xercesc_2_2@@AAEXQBGAAVXMLBuffer@2@@Z 12042370 f i IGXMLScanner2.obj
 0001:00041400       ??0SubstitutionGroupComparator@xercesc_2_2@@QAE@QAVGrammarResolver@1@QAVXMLStringPool@1@@Z 12042400 f i IGXMLScanner2.obj
 0001:00041400       ??0EndOfEntityException@xercesc_2_2@@QAE@PAVXMLEntityDecl@1@I@Z 12042400 f i IGXMLScanner2.obj
 0001:00041420       ??0DOMDocumentRange@xercesc_2_2@@IAE@XZ 12042420 f i IGXMLScanner2.obj
 0001:00041430       ??0DOMDocumentRange@xercesc_2_2@@IAE@ABV01@@Z 12042430 f i IGXMLScanner2.obj
 0001:00041440       ??1DOMDocumentRange@xercesc_2_2@@UAE@XZ 12042440 f i IGXMLScanner2.obj
 0001:00041450       ??_EDOMDocumentRange@xercesc_2_2@@UAEPAXI@Z 12042450 f i IGXMLScanner2.obj
 0001:000414b0       ??0DOMDocumentTraversal@xercesc_2_2@@IAE@XZ 120424b0 f i IGXMLScanner2.obj
 0001:000414c0       ??0DOMDocumentTraversal@xercesc_2_2@@IAE@ABV01@@Z 120424c0 f i IGXMLScanner2.obj
 0001:000414d0       ??1DOMDocumentTraversal@xercesc_2_2@@UAE@XZ 120424d0 f i IGXMLScanner2.obj
 0001:000414e0       ??_EDOMDocumentTraversal@xercesc_2_2@@UAEPAXI@Z 120424e0 f i IGXMLScanner2.obj
 0001:00041540       ??0DOMDocument@xercesc_2_2@@IAE@XZ 12042540 f i IGXMLScanner2.obj
 0001:00041570       ??0DOMDocument@xercesc_2_2@@IAE@ABV01@@Z 12042570 f i IGXMLScanner2.obj
 0001:000415a0       ??1DOMDocument@xercesc_2_2@@UAE@XZ 120425a0 f i IGXMLScanner2.obj
 0001:000415e0       ??_EDOMDocument@xercesc_2_2@@UAEPAXI@Z 120425e0 f i IGXMLScanner2.obj
 0001:00041640       ??0DOMDocumentType@xercesc_2_2@@IAE@XZ 12042640 f i IGXMLScanner2.obj
 0001:00041650       ??0DOMDocumentType@xercesc_2_2@@IAE@ABV01@@Z 12042650 f i IGXMLScanner2.obj
 0001:00041660       ??_EDOMProcessingInstruction@xercesc_2_2@@UAEPAXI@Z 12042660 f i IGXMLScanner2.obj
 0001:00041660       ??_EDOMEntityReference@xercesc_2_2@@UAEPAXI@Z 12042660 f i IGXMLScanner2.obj
 0001:00041660       ??_EDOMComment@xercesc_2_2@@UAEPAXI@Z 12042660 f i IGXMLScanner2.obj
 0001:00041660       ??_EDOMCharacterData@xercesc_2_2@@UAEPAXI@Z 12042660 f i IGXMLScanner2.obj
 0001:00041660       ??_EDOMDocumentFragment@xercesc_2_2@@UAEPAXI@Z 12042660 f i IGXMLScanner2.obj
 0001:00041660       ??_EDOMAttr@xercesc_2_2@@UAEPAXI@Z 12042660 f i IGXMLScanner2.obj
 0001:00041660       ??_EDOMNotation@xercesc_2_2@@UAEPAXI@Z 12042660 f i IGXMLScanner2.obj
 0001:00041660       ??_EDOMElement@xercesc_2_2@@UAEPAXI@Z 12042660 f i IGXMLScanner2.obj
 0001:00041660       ??_EDOMEntity@xercesc_2_2@@UAEPAXI@Z 12042660 f i IGXMLScanner2.obj
 0001:00041660       ??_EDOMDocumentType@xercesc_2_2@@UAEPAXI@Z 12042660 f i IGXMLScanner2.obj
 0001:00041660       ??_EDOMText@xercesc_2_2@@UAEPAXI@Z 12042660 f i IGXMLScanner2.obj
 0001:00041660       ??_EDOMCDATASection@xercesc_2_2@@UAEPAXI@Z 12042660 f i IGXMLScanner2.obj
 0001:000416c0       ??_FAbstractDOMParser@xercesc_2_2@@QAEXXZ 120426c0 f i IGXMLScanner2.obj
 0001:000416d0       ?getExpandEntityReferences@AbstractDOMParser@xercesc_2_2@@QBE_NXZ 120426d0 f i IGXMLScanner2.obj
 0001:000416e0       ?setExpandEntityReferences@AbstractDOMParser@xercesc_2_2@@QAEX_N@Z 120426e0 f i IGXMLScanner2.obj
 0001:000416f0       ??_FXercesDOMParser@xercesc_2_2@@QAEXXZ 120426f0 f i IGXMLScanner2.obj
 0001:00041700       ??_FXSDDOMParser@xercesc_2_2@@QAEXXZ 12042700 f i IGXMLScanner2.obj
 0001:00041710       ?getSawFatal@XSDDOMParser@xercesc_2_2@@QBE_NXZ 12042710 f i IGXMLScanner2.obj
 0001:00041720       ?buildAttList@IGXMLScanner@xercesc_2_2@@AAEIABV?$RefVectorOf@VKVStringPair@xercesc_2_2@@@2@IPAVXMLElementDecl@2@AAV?$RefVectorOf@VXMLAttr@xercesc_2_2@@@2@@Z 12042720 f   IGXMLScanner2.obj
 0001:000425e0       ?normalizeAttValue@IGXMLScanner@xercesc_2_2@@AAE_NQBVXMLAttDef@2@QBGAAVXMLBuffer@2@@Z 120435e0 f   IGXMLScanner2.obj
 0001:000428b0       ?normalizeAttRawValue@IGXMLScanner@xercesc_2_2@@AAE_NQBG0AAVXMLBuffer@2@@Z 120438b0 f   IGXMLScanner2.obj
 0001:000428b0       ?normalizeAttRawValue@SGXMLScanner@xercesc_2_2@@AAE_NQBG0AAVXMLBuffer@2@@Z 120438b0 f   IGXMLScanner2.obj
 0001:00042980       ?resolvePrefix@IGXMLScanner@xercesc_2_2@@AAEIQBGW4MapModes@ElemStack@2@@Z 12043980 f   IGXMLScanner2.obj
 0001:00042980       ?resolvePrefix@SGXMLScanner@xercesc_2_2@@AAEIQBGW4MapModes@ElemStack@2@@Z 12043980 f   IGXMLScanner2.obj
 0001:00042a70       ?scanReset@IGXMLScanner@xercesc_2_2@@EAEXABVInputSource@2@@Z 12043a70 f   IGXMLScanner2.obj
 0001:00042df0       ?sendCharData@IGXMLScanner@xercesc_2_2@@EAEXAAVXMLBuffer@2@@Z 12043df0 f   IGXMLScanner2.obj
 0001:00043220       ?updateNSMap@IGXMLScanner@xercesc_2_2@@AAEXQBG0@Z 12044220 f   IGXMLScanner2.obj
 0001:00043500       ?scanRawAttrListforNameSpaces@IGXMLScanner@xercesc_2_2@@AAEXPBV?$RefVectorOf@VKVStringPair@xercesc_2_2@@@2@H@Z 12044500 f   IGXMLScanner2.obj
 0001:00043a90       ?parseSchemaLocation@IGXMLScanner@xercesc_2_2@@AAEXQBG@Z 12044a90 f   IGXMLScanner2.obj
 0001:00043b50       ?resolveSchemaGrammar@IGXMLScanner@xercesc_2_2@@AAEXQBG0@Z 12044b50 f   IGXMLScanner2.obj
 0001:00044200       ?resolveSystemId@IGXMLScanner@xercesc_2_2@@AAEPAVInputSource@2@QBG@Z 12045200 f   IGXMLScanner2.obj
 0001:00044440       ?loadXMLSchemaGrammar@IGXMLScanner@xercesc_2_2@@AAEPAVGrammar@2@ABVInputSource@2@_N@Z 12045440 f   IGXMLScanner2.obj
 0001:000446d0       ?basicAttrValueScan@IGXMLScanner@xercesc_2_2@@AAE_NQBGAAVXMLBuffer@2@@Z 120456d0 f   IGXMLScanner2.obj
 0001:00044970       ?scanAttValue@IGXMLScanner@xercesc_2_2@@AAE_NQBVXMLAttDef@2@AAVXMLBuffer@2@@Z 12045970 f   IGXMLScanner2.obj
 0001:00044e30       ?scanCDSection@IGXMLScanner@xercesc_2_2@@EAEXXZ 12045e30 f   IGXMLScanner2.obj
 0001:00045200       ?scanCharData@IGXMLScanner@xercesc_2_2@@EAEXAAVXMLBuffer@2@@Z 12046200 f   IGXMLScanner2.obj
 0001:00045550       ?scanEntityRef@IGXMLScanner@xercesc_2_2@@EAE?AW4EntityExpRes@XMLScanner@2@_NAAG1AA_N@Z 12046550 f   IGXMLScanner2.obj
 0001:00045a30       ?switchGrammar@IGXMLScanner@xercesc_2_2@@AAE_NQBG@Z 12046a30 f   IGXMLScanner2.obj
 0001:00045b30       ?laxElementValidation@IGXMLScanner@xercesc_2_2@@AAE_NPAVQName@2@PAVContentLeafNameTypeVector@2@QBVXMLContentModel@2@I@Z 12046b30 f   IGXMLScanner2.obj
 0001:00045d60       ?anyAttributeValidation@IGXMLScanner@xercesc_2_2@@AAE_NPAVSchemaAttDef@2@IAA_N1@Z 12046d60 f   IGXMLScanner2.obj
 0001:00045e40       ?normalizeURI@IGXMLScanner@xercesc_2_2@@AAEXQBGAAVXMLBuffer@2@@Z 12046e40 f   IGXMLScanner2.obj
 0001:00045e40       ?normalizeURI@SGXMLScanner@xercesc_2_2@@AAEXQBGAAVXMLBuffer@2@@Z 12046e40 f   IGXMLScanner2.obj
 0001:00045ed0       ?hasMoreElements@?$BaseRefVectorEnumerator@VSchemaInfo@xercesc_2_2@@@xercesc_2_2@@UBE_NXZ 12046ed0 f i IGXMLScanner2.obj
 0001:00045ee0       ?nextElement@?$BaseRefVectorEnumerator@VSchemaInfo@xercesc_2_2@@@xercesc_2_2@@UAEAAVSchemaInfo@2@XZ 12046ee0 f i IGXMLScanner2.obj
 0001:00045f30       ?Reset@?$BaseRefVectorEnumerator@VSchemaInfo@xercesc_2_2@@@xercesc_2_2@@UAEXXZ 12046f30 f i IGXMLScanner2.obj
 0001:00045f30       ?Reset@?$RefHash3KeysIdPoolEnumerator@VSchemaElementDecl@xercesc_2_2@@@xercesc_2_2@@UAEXXZ 12046f30 f i IGXMLScanner2.obj
 0001:00045f40       ??_G?$BaseRefVectorEnumerator@VSchemaInfo@xercesc_2_2@@@xercesc_2_2@@UAEPAXI@Z 12046f40 f i IGXMLScanner2.obj
 0001:00045f40       ??_E?$BaseRefVectorEnumerator@VSchemaInfo@xercesc_2_2@@@xercesc_2_2@@UAEPAXI@Z 12046f40 f i IGXMLScanner2.obj
 0001:00045f60       ??1?$BaseRefVectorEnumerator@VSchemaInfo@xercesc_2_2@@@xercesc_2_2@@UAE@XZ 12046f60 f i IGXMLScanner2.obj
 0001:00045fc0       ??1?$XMLEnumerator@VSchemaInfo@xercesc_2_2@@@xercesc_2_2@@UAE@XZ 12046fc0 f i IGXMLScanner2.obj
 0001:00045fd0       ??_E?$XMLEnumerator@VSchemaInfo@xercesc_2_2@@@xercesc_2_2@@UAEPAXI@Z 12046fd0 f i IGXMLScanner2.obj
 0001:00045fd0       ??_G?$XMLEnumerator@VSchemaInfo@xercesc_2_2@@@xercesc_2_2@@UAEPAXI@Z 12046fd0 f i IGXMLScanner2.obj
 0001:00045ff0       ??_G?$RefVectorOf@VSchemaInfo@xercesc_2_2@@@xercesc_2_2@@UAEPAXI@Z 12046ff0 f i IGXMLScanner2.obj
 0001:00045ff0       ??_E?$RefVectorOf@VSchemaInfo@xercesc_2_2@@@xercesc_2_2@@UAEPAXI@Z 12046ff0 f i IGXMLScanner2.obj
 0001:00046010       ??1?$RefVectorOf@VSchemaInfo@xercesc_2_2@@@xercesc_2_2@@UAE@XZ 12047010 f i IGXMLScanner2.obj
 0001:000460a0       ??1?$BaseRefVectorOf@VSchemaInfo@xercesc_2_2@@@xercesc_2_2@@UAE@XZ 120470a0 f i IGXMLScanner2.obj
 0001:000460b0       ??0?$BaseRefVectorOf@VSchemaInfo@xercesc_2_2@@@xercesc_2_2@@QAE@I_N@Z 120470b0 f i IGXMLScanner2.obj
 0001:00046110       ??_EDOMDocument@xercesc_2_2@@W3AEPAXI@Z 12047110 f i IGXMLScanner2.obj
 0001:00046120       ??_EDOMDocument@xercesc_2_2@@W7AEPAXI@Z 12047120 f i IGXMLScanner2.obj
 0001:00046130       ??0ReaderMgr@xercesc_2_2@@QAE@XZ 12047130 f   ReaderMgr.obj
 0001:00046160       ??_EReaderMgr@xercesc_2_2@@UAEPAXI@Z 12047160 f i ReaderMgr.obj
 0001:000461c0       ??1ReaderMgr@xercesc_2_2@@UAE@XZ 120471c0 f   ReaderMgr.obj
 0001:000462e0       ?isEmpty@ReaderMgr@xercesc_2_2@@QBE_NXZ 120472e0 f   ReaderMgr.obj
 0001:000462f0       ?getNextChar@ReaderMgr@xercesc_2_2@@QAEGXZ 120472f0 f   ReaderMgr.obj
 0001:000464c0       ?getSpaces@ReaderMgr@xercesc_2_2@@QAEXAAVXMLBuffer@2@@Z 120474c0 f   ReaderMgr.obj
 0001:00046500       ?getUpToCharOrWS@ReaderMgr@xercesc_2_2@@QAEXAAVXMLBuffer@2@G@Z 12047500 f   ReaderMgr.obj
 0001:00046540       ?peekNextChar@ReaderMgr@xercesc_2_2@@QAEGXZ 12047540 f   ReaderMgr.obj
 0001:00046600       ?skippedChar@ReaderMgr@xercesc_2_2@@QAE_NG@Z 12047600 f   ReaderMgr.obj
 0001:00046640       ?skippedSpace@ReaderMgr@xercesc_2_2@@QAE_NXZ 12047640 f   ReaderMgr.obj
 0001:00046680       ?skipIfQuote@ReaderMgr@xercesc_2_2@@QAE_NAAG@Z 12047680 f   ReaderMgr.obj
 0001:000466c0       ?skipPastSpaces@ReaderMgr@xercesc_2_2@@QAE_NXZ 120476c0 f   ReaderMgr.obj
 0001:00046710       ?skipQuotedString@ReaderMgr@xercesc_2_2@@QAEXG@Z 12047710 f   ReaderMgr.obj
 0001:00046890       ?skipUntilIn@ReaderMgr@xercesc_2_2@@QAEGQBG@Z 12047890 f   ReaderMgr.obj
 0001:00046b10       ?skipUntilInOrWS@ReaderMgr@xercesc_2_2@@QAEGQBG@Z 12047b10 f   ReaderMgr.obj
 0001:00046da0       ?atEOF@ReaderMgr@xercesc_2_2@@QBE_NXZ 12047da0 f   ReaderMgr.obj
 0001:00046dc0       ?cleanStackBackTo@ReaderMgr@xercesc_2_2@@QAEXI@Z 12047dc0 f   ReaderMgr.obj
 0001:00046f70       ?createReader@ReaderMgr@xercesc_2_2@@QAEPAVXMLReader@2@ABVInputSource@2@_NW4RefFrom@32@W4Types@32@W4Sources@32@1@Z 12047f70 f   ReaderMgr.obj
 0001:000470e0       ?createReader@ReaderMgr@xercesc_2_2@@QAEPAVXMLReader@2@QBG0_NW4RefFrom@32@W4Types@32@W4Sources@32@AAPAVInputSource@2@1@Z 120480e0 f   ReaderMgr.obj
 0001:000473b0       ?createReader@ReaderMgr@xercesc_2_2@@QAEPAVXMLReader@2@QBG00_NW4RefFrom@32@W4Types@32@W4Sources@32@AAPAVInputSource@2@1@Z 120483b0 f   ReaderMgr.obj
 0001:00047690       ?createIntEntReader@ReaderMgr@xercesc_2_2@@QAEPAVXMLReader@2@QBGW4RefFrom@32@W4Types@32@0I_N3@Z 12048690 f   ReaderMgr.obj
 0001:000477a0       ?getCurrentEncodingStr@ReaderMgr@xercesc_2_2@@QBEPBGXZ 120487a0 f   ReaderMgr.obj
 0001:000477c0       ?getFirstChild@DOMParentNode@xercesc_2_2@@QBEPAVDOMNode@2@XZ 120487c0 f   ReaderMgr.obj
 0001:000477c0       ?getName@DOMTypeInfoImpl@xercesc_2_2@@UBEPBGXZ 120487c0 f   ReaderMgr.obj
 0001:000477c0       ?getRoot@DOMNodeIteratorImpl@xercesc_2_2@@UAEPAVDOMNode@2@XZ 120487c0 f   ReaderMgr.obj
 0001:000477c0       ?getCurrentEntity@ReaderMgr@xercesc_2_2@@QBEPBVXMLEntityDecl@2@XZ 120487c0 f   ReaderMgr.obj
 0001:000477c0       ?getNextSibling@DOMChildNode@xercesc_2_2@@QBEPAVDOMNode@2@XZ 120487c0 f   ReaderMgr.obj
 0001:000477c0       ?getWhatToShow@DOMTreeWalkerImpl@xercesc_2_2@@UAEKXZ 120487c0 f   ReaderMgr.obj
 0001:000477c0       ?getCurrentEntity@ReaderMgr@xercesc_2_2@@QAEPAVXMLEntityDecl@2@XZ 120487c0 f   ReaderMgr.obj
 0001:000477d0       ?getCurrentReader@ReaderMgr@xercesc_2_2@@QBEPBVXMLReader@2@XZ 120487d0 f   ReaderMgr.obj
 0001:000477d0       ?getWhatToShow@TreeWalkerImpl@xercesc_2_2@@QAEKXZ 120487d0 f   ReaderMgr.obj
 0001:000477d0       ?size@NodeVector@xercesc_2_2@@QAEIXZ 120487d0 f   ReaderMgr.obj
 0001:000477d0       ?getValue@KVStringPair@xercesc_2_2@@QAEPAGXZ 120487d0 f   ReaderMgr.obj
 0001:000477d0       ?getEncoding@DOMWriterImpl@xercesc_2_2@@UBEPBGXZ 120487d0 f   ReaderMgr.obj
 0001:000477d0       ?getColumnNumber@SAXParseException@xercesc_2_2@@QBEJXZ 120487d0 f   ReaderMgr.obj
 0001:000477d0       ?getNamespace@DOMTypeInfoImpl@xercesc_2_2@@UBEPBGXZ 120487d0 f   ReaderMgr.obj
 0001:000477d0       ?getFilter@DOMTreeWalkerImpl@xercesc_2_2@@UAEPAVDOMNodeFilter@2@XZ 120487d0 f   ReaderMgr.obj
 0001:000477d0       ?getLength@VecAttrListImpl@xercesc_2_2@@UBEIXZ 120487d0 f   ReaderMgr.obj
 0001:000477d0       ?getLeafCount@ContentLeafNameTypeVector@xercesc_2_2@@QBE?BIXZ 120487d0 f   ReaderMgr.obj
 0001:000477d0       ?getValue@KVStringPair@xercesc_2_2@@QBEPBGXZ 120487d0 f   ReaderMgr.obj
 0001:000477d0       ?size@DOMNodeVector@xercesc_2_2@@QAEKXZ 120487d0 f   ReaderMgr.obj
 0001:000477d0       ?getCurrentReader@ReaderMgr@xercesc_2_2@@QAEPAVXMLReader@2@XZ 120487d0 f   ReaderMgr.obj
 0001:000477d0       ?getLength@VecAttributesImpl@xercesc_2_2@@UBEIXZ 120487d0 f   ReaderMgr.obj
 0001:000477e0       ?getReaderDepth@ReaderMgr@xercesc_2_2@@QBEIXZ 120487e0 f   ReaderMgr.obj
 0001:00047800       ?getLastExtEntityInfo@ReaderMgr@xercesc_2_2@@QBEXAAULastExtEntityInfo@12@@Z 12048800 f   ReaderMgr.obj
 0001:00047860       ?isScanningPERefOutOfLiteral@ReaderMgr@xercesc_2_2@@QBE_NXZ 12048860 f   ReaderMgr.obj
 0001:00047890       ?pushReader@ReaderMgr@xercesc_2_2@@QAE_NQAVXMLReader@2@QAVXMLEntityDecl@2@@Z 12048890 f   ReaderMgr.obj
 0001:00047ae0       ?reset@ReaderMgr@xercesc_2_2@@QAEXXZ 12048ae0 f   ReaderMgr.obj
 0001:00047b90       ?getPublicId@ReaderMgr@xercesc_2_2@@UBEPBGXZ 12048b90 f   ReaderMgr.obj
 0001:00047bc0       ?getSystemId@ReaderMgr@xercesc_2_2@@UBEPBGXZ 12048bc0 f   ReaderMgr.obj
 0001:00047bf0       ?getColumnNumber@ReaderMgr@xercesc_2_2@@UBEJXZ 12048bf0 f   ReaderMgr.obj
 0001:00047c20       ?getLineNumber@ReaderMgr@xercesc_2_2@@UBEJXZ 12048c20 f   ReaderMgr.obj
 0001:00047c50       ?getLastExtEntity@ReaderMgr@xercesc_2_2@@ABEPBVXMLReader@2@AAPBVXMLEntityDecl@2@@Z 12048c50 f   ReaderMgr.obj
 0001:00047dc0       ?popReader@ReaderMgr@xercesc_2_2@@AAE_NXZ 12048dc0 f   ReaderMgr.obj
 0001:00048040       ??1?$BaseRefVectorOf@VXMLReader@xercesc_2_2@@@xercesc_2_2@@UAE@XZ 12049040 f i ReaderMgr.obj
 0001:00048050       ??1?$BaseRefVectorOf@VXMLEntityDecl@xercesc_2_2@@@xercesc_2_2@@UAE@XZ 12049050 f i ReaderMgr.obj
 0001:00048060       ??_G?$RefVectorOf@VXMLReader@xercesc_2_2@@@xercesc_2_2@@UAEPAXI@Z 12049060 f i ReaderMgr.obj
 0001:00048060       ??_E?$RefVectorOf@VXMLReader@xercesc_2_2@@@xercesc_2_2@@UAEPAXI@Z 12049060 f i ReaderMgr.obj
 0001:00048080       ??1?$RefVectorOf@VXMLReader@xercesc_2_2@@@xercesc_2_2@@UAE@XZ 12049080 f i ReaderMgr.obj
 0001:00048110       ??_E?$RefVectorOf@VXMLEntityDecl@xercesc_2_2@@@xercesc_2_2@@UAEPAXI@Z 12049110 f i ReaderMgr.obj
 0001:00048110       ??_G?$RefVectorOf@VXMLEntityDecl@xercesc_2_2@@@xercesc_2_2@@UAEPAXI@Z 12049110 f i ReaderMgr.obj
 0001:00048130       ??1?$RefVectorOf@VXMLEntityDecl@xercesc_2_2@@@xercesc_2_2@@UAE@XZ 12049130 f i ReaderMgr.obj
 0001:000481b0       ?elementAt@?$BaseRefVectorOf@VXMLEntityDecl@xercesc_2_2@@@xercesc_2_2@@QBEPBVXMLEntityDecl@2@I@Z 120491b0 f i ReaderMgr.obj
 0001:000481f0       ??0?$BaseRefVectorOf@VXMLReader@xercesc_2_2@@@xercesc_2_2@@QAE@I_N@Z 120491f0 f i ReaderMgr.obj
 0001:00048250       ??0?$BaseRefVectorOf@VXMLEntityDecl@xercesc_2_2@@@xercesc_2_2@@QAE@I_N@Z 12049250 f i ReaderMgr.obj
 0001:000482b0       ?getName@SGXMLScanner@xercesc_2_2@@UBEPBGXZ 120492b0 f i SGXMLScanner.obj
 0001:000482c0       ??0SGXMLScanner@xercesc_2_2@@QAE@QAVXMLValidator@1@@Z 120492c0 f   SGXMLScanner.obj
 0001:00048400       ??_ESGXMLScanner@xercesc_2_2@@UAEPAXI@Z 12049400 f i SGXMLScanner.obj
 0001:00048460       ??0SGXMLScanner@xercesc_2_2@@QAE@QAVXMLDocumentHandler@1@QAVDocTypeHandler@1@QAVXMLEntityHandler@1@QAVXMLErrorReporter@1@QAVXMLValidator@1@@Z 12049460 f   SGXMLScanner.obj
 0001:000485b0       ??1SGXMLScanner@xercesc_2_2@@UAE@XZ 120495b0 f   SGXMLScanner.obj
 0001:00048630       ?scanDocument@SGXMLScanner@xercesc_2_2@@UAEXABVInputSource@2@@Z 12049630 f   SGXMLScanner.obj
 0001:000487f0       ?scanNext@SGXMLScanner@xercesc_2_2@@UAE_NAAVXMLPScanToken@2@@Z 120497f0 f   SGXMLScanner.obj
 0001:00048b20       ?rawAttrScan@SGXMLScanner@xercesc_2_2@@AAEIQBGAAV?$RefVectorOf@VKVStringPair@xercesc_2_2@@@2@AA_N@Z 12049b20 f   SGXMLScanner.obj
 0001:00049060       ?scanContent@SGXMLScanner@xercesc_2_2@@AAE_N_N@Z 1204a060 f   SGXMLScanner.obj
 0001:00049200       ?scanEndTag@SGXMLScanner@xercesc_2_2@@AAEXAA_N@Z 1204a200 f   SGXMLScanner.obj
 0001:000498e0       ?scanDocTypeDecl@SGXMLScanner@xercesc_2_2@@EAEXXZ 1204a8e0 f   SGXMLScanner.obj
 0001:00049920       ?scanStartTag@SGXMLScanner@xercesc_2_2@@AAE_NAA_N@Z 1204a920 f   SGXMLScanner.obj
 0001:0004ae10       ?resolveQName@SGXMLScanner@xercesc_2_2@@UAEIQBGAAVXMLBuffer@2@FAAH@Z 1204be10 f   SGXMLScanner.obj
 0001:0004ae10       ?resolveQName@IGXMLScanner@xercesc_2_2@@UAEIQBGAAVXMLBuffer@2@FAAH@Z 1204be10 f   SGXMLScanner.obj
 0001:0004af90       ?loadGrammar@SGXMLScanner@xercesc_2_2@@UAEPAVGrammar@2@ABVInputSource@2@F_N@Z 1204bf90 f   SGXMLScanner.obj
 0001:0004b120       ?commonInit@SGXMLScanner@xercesc_2_2@@AAEXXZ 1204c120 f   SGXMLScanner.obj
 0001:0004b4e0       ?cleanUp@SGXMLScanner@xercesc_2_2@@AAEXXZ 1204c4e0 f   SGXMLScanner.obj
 0001:0004b5e0       ?resizeElemState@IGXMLScanner@xercesc_2_2@@AAEXXZ 1204c5e0 f   SGXMLScanner.obj
 0001:0004b5e0       ?resizeElemState@SGXMLScanner@xercesc_2_2@@AAEXXZ 1204c5e0 f   SGXMLScanner.obj
 0001:0004b660       ?buildAttList@SGXMLScanner@xercesc_2_2@@AAEIABV?$RefVectorOf@VKVStringPair@xercesc_2_2@@@2@IPAVXMLElementDecl@2@AAV?$RefVectorOf@VXMLAttr@xercesc_2_2@@@2@@Z 1204c660 f   SGXMLScanner.obj
 0001:0004c3b0       ?normalizeAttValue@SGXMLScanner@xercesc_2_2@@AAE_NQBVXMLAttDef@2@QBGAAVXMLBuffer@2@@Z 1204d3b0 f   SGXMLScanner.obj
 0001:0004c660       ?resolvePrefix@SGXMLScanner@xercesc_2_2@@AAEIQBGAAVXMLBuffer@2@W4MapModes@ElemStack@2@@Z 1204d660 f   SGXMLScanner.obj
 0001:0004c660       ?resolvePrefix@IGXMLScanner@xercesc_2_2@@AAEIQBGAAVXMLBuffer@2@W4MapModes@ElemStack@2@@Z 1204d660 f   SGXMLScanner.obj
 0001:0004c760       ?scanReset@SGXMLScanner@xercesc_2_2@@EAEXABVInputSource@2@@Z 1204d760 f   SGXMLScanner.obj
 0001:0004c9e0       ?sendCharData@SGXMLScanner@xercesc_2_2@@EAEXAAVXMLBuffer@2@@Z 1204d9e0 f   SGXMLScanner.obj
 0001:0004cdd0       ?updateNSMap@SGXMLScanner@xercesc_2_2@@AAEXQBG0@Z 1204ddd0 f   SGXMLScanner.obj
 0001:0004d0b0       ?scanRawAttrListforNameSpaces@SGXMLScanner@xercesc_2_2@@AAEXPBV?$RefVectorOf@VKVStringPair@xercesc_2_2@@@2@H@Z 1204e0b0 f   SGXMLScanner.obj
 0001:0004d640       ?parseSchemaLocation@SGXMLScanner@xercesc_2_2@@AAEXQBG@Z 1204e640 f   SGXMLScanner.obj
 0001:0004d700       ?resolveSchemaGrammar@SGXMLScanner@xercesc_2_2@@AAEXQBG0@Z 1204e700 f   SGXMLScanner.obj
 0001:0004dcc0       ?resolveSystemId@SGXMLScanner@xercesc_2_2@@AAEPAVInputSource@2@QBG@Z 1204ecc0 f   SGXMLScanner.obj
 0001:0004df00       ?loadXMLSchemaGrammar@SGXMLScanner@xercesc_2_2@@AAEPAVGrammar@2@ABVInputSource@2@_N@Z 1204ef00 f   SGXMLScanner.obj
 0001:0004e110       ?basicAttrValueScan@SGXMLScanner@xercesc_2_2@@AAE_NQBGAAVXMLBuffer@2@@Z 1204f110 f   SGXMLScanner.obj
 0001:0004e3b0       ?scanCDSection@SGXMLScanner@xercesc_2_2@@EAEXXZ 1204f3b0 f   SGXMLScanner.obj
 0001:0004e750       ?scanCharData@SGXMLScanner@xercesc_2_2@@EAEXAAVXMLBuffer@2@@Z 1204f750 f   SGXMLScanner.obj
 0001:0004eaa0       ?scanEntityRef@SGXMLScanner@xercesc_2_2@@EAE?AW4EntityExpRes@XMLScanner@2@_NAAG1AA_N@Z 1204faa0 f   SGXMLScanner.obj
 0001:0004ed80       ?switchGrammar@SGXMLScanner@xercesc_2_2@@AAE_NQBG@Z 1204fd80 f   SGXMLScanner.obj
 0001:0004ee10       ?laxElementValidation@SGXMLScanner@xercesc_2_2@@AAE_NPAVQName@2@PAVContentLeafNameTypeVector@2@QBVXMLContentModel@2@I@Z 1204fe10 f   SGXMLScanner.obj
 0001:0004f040       ?anyAttributeValidation@SGXMLScanner@xercesc_2_2@@AAE_NPAVSchemaAttDef@2@IAA_N1@Z 12050040 f   SGXMLScanner.obj
 0001:0004f130       ?put@?$ValueHashTableOf@G@xercesc_2_2@@QAEXPAXABG@Z 12050130 f i SGXMLScanner.obj
 0001:0004f220       ??0?$ValueHashTableBucketElem@G@xercesc_2_2@@QAE@PAXABGPAU01@@Z 12050220 f i SGXMLScanner.obj
 0001:0004f240       ?elementAt@?$ValueVectorOf@PBG@xercesc_2_2@@QAEAAPBGI@Z 12050240 f i SGXMLScanner.obj
 0001:0004f240       ?elementAt@?$ValueVectorOf@H@xercesc_2_2@@QAEAAHI@Z 12050240 f i SGXMLScanner.obj
 0001:0004f240       ?elementAt@?$ValueVectorOf@PAVComplexTypeInfo@xercesc_2_2@@@xercesc_2_2@@QAEAAPAVComplexTypeInfo@2@I@Z 12050240 f i SGXMLScanner.obj
 0001:0004f240       ?elementAt@?$ValueVectorOf@I@xercesc_2_2@@QAEAAII@Z 12050240 f i SGXMLScanner.obj
 0001:0004f240       ?elementAt@?$ValueVectorOf@PBVDOMElement@xercesc_2_2@@@xercesc_2_2@@QAEAAPBVDOMElement@2@I@Z 12050240 f i SGXMLScanner.obj
 0001:0004f240       ?elementAt@?$ValueVectorOf@PAVContentSpecNode@xercesc_2_2@@@xercesc_2_2@@QAEAAPAVContentSpecNode@2@I@Z 12050240 f i SGXMLScanner.obj
 0001:0004f280       ?findBucketElem@?$ValueHashTableOf@G@xercesc_2_2@@ABEPBU?$ValueHashTableBucketElem@G@2@QBXAAI@Z 12050280 f i SGXMLScanner.obj
 0001:0004f300       ?findBucketElem@?$ValueHashTableOf@G@xercesc_2_2@@AAEPAU?$ValueHashTableBucketElem@G@2@QBXAAI@Z 12050300 f i SGXMLScanner.obj
 0001:0004f380       ??0?$BaseRefVectorOf@VKVStringPair@xercesc_2_2@@@xercesc_2_2@@QAE@I_N@Z 12050380 f i SGXMLScanner.obj
 0001:0004f3e0       ??0Attributes@xercesc_2_2@@QAE@XZ 120503e0 f i VecAttributesImpl.obj
 0001:0004f3f0       ??1Attributes@xercesc_2_2@@UAE@XZ 120503f0 f i VecAttributesImpl.obj
 0001:0004f400       ??_EAttributes@xercesc_2_2@@UAEPAXI@Z 12050400 f i VecAttributesImpl.obj
 0001:0004f460       ??0VecAttributesImpl@xercesc_2_2@@QAE@XZ 12050460 f   VecAttributesImpl.obj
 0001:0004f480       ??_EVecAttributesImpl@xercesc_2_2@@UAEPAXI@Z 12050480 f i VecAttributesImpl.obj
 0001:0004f4e0       ??1VecAttributesImpl@xercesc_2_2@@UAE@XZ 120504e0 f   VecAttributesImpl.obj
 0001:0004f540       ?getURI@VecAttributesImpl@xercesc_2_2@@UBEPBGI@Z 12050540 f   VecAttributesImpl.obj
 0001:0004f5a0       ?getLocalName@VecAttributesImpl@xercesc_2_2@@UBEPBGI@Z 120505a0 f   VecAttributesImpl.obj
 0001:0004f600       ?getIndex@VecAttributesImpl@xercesc_2_2@@UBEHQBG0@Z 12050600 f   VecAttributesImpl.obj
 0001:0004f7b0       ?getIndex@VecAttributesImpl@xercesc_2_2@@UBEHQBG@Z 120507b0 f   VecAttributesImpl.obj
 0001:0004f860       ?getType@VecAttributesImpl@xercesc_2_2@@UBEPBGQBG0@Z 12050860 f   VecAttributesImpl.obj
 0001:0004f890       ?getType@VecAttributesImpl@xercesc_2_2@@UBEPBGQBG@Z 12050890 f   VecAttributesImpl.obj
 0001:0004f8c0       ?getValue@VecAttributesImpl@xercesc_2_2@@UBEPBGQBG0@Z 120508c0 f   VecAttributesImpl.obj
 0001:0004f8f0       ?getValue@VecAttributesImpl@xercesc_2_2@@UBEPBGQBG@Z 120508f0 f   VecAttributesImpl.obj
 0001:0004f920       ?setVector@VecAttributesImpl@xercesc_2_2@@QAEXQBV?$RefVectorOf@VXMLAttr@xercesc_2_2@@@2@IQBVXMLScanner@2@_N@Z 12050920 f   VecAttributesImpl.obj
 0001:0004f960       ??0AttributeList@xercesc_2_2@@QAE@XZ 12050960 f i VecAttrListImpl.obj
 0001:0004f970       ??1AttributeList@xercesc_2_2@@UAE@XZ 12050970 f i VecAttrListImpl.obj
 0001:0004f980       ??_EAttributeList@xercesc_2_2@@UAEPAXI@Z 12050980 f i VecAttrListImpl.obj
 0001:0004f9e0       ??0VecAttrListImpl@xercesc_2_2@@QAE@XZ 120509e0 f   VecAttrListImpl.obj
 0001:0004fa00       ??_EVecAttrListImpl@xercesc_2_2@@UAEPAXI@Z 12050a00 f i VecAttrListImpl.obj
 0001:0004fa60       ??1VecAttrListImpl@xercesc_2_2@@UAE@XZ 12050a60 f   VecAttrListImpl.obj
 0001:0004fac0       ?getQName@VecAttributesImpl@xercesc_2_2@@UBEPBGI@Z 12050ac0 f   VecAttrListImpl.obj
 0001:0004fac0       ?getName@VecAttrListImpl@xercesc_2_2@@UBEPBGI@Z 12050ac0 f   VecAttrListImpl.obj
 0001:0004fb20       ?getType@VecAttributesImpl@xercesc_2_2@@UBEPBGI@Z 12050b20 f   VecAttrListImpl.obj
 0001:0004fb20       ?getType@VecAttrListImpl@xercesc_2_2@@UBEPBGI@Z 12050b20 f   VecAttrListImpl.obj
 0001:0004fb80       ?getValue@VecAttrListImpl@xercesc_2_2@@UBEPBGI@Z 12050b80 f   VecAttrListImpl.obj
 0001:0004fb80       ?getValue@VecAttributesImpl@xercesc_2_2@@UBEPBGI@Z 12050b80 f   VecAttrListImpl.obj
 0001:0004fbe0       ?getType@VecAttrListImpl@xercesc_2_2@@UBEPBGQBG@Z 12050be0 f   VecAttrListImpl.obj
 0001:0004fca0       ?getValue@VecAttrListImpl@xercesc_2_2@@UBEPBGQBG@Z 12050ca0 f   VecAttrListImpl.obj
 0001:0004fd50       ?getValue@VecAttrListImpl@xercesc_2_2@@UBEPBGQBD@Z 12050d50 f   VecAttrListImpl.obj
 0001:0004fe70       ?setVector@VecAttrListImpl@xercesc_2_2@@QAEXQBV?$RefVectorOf@VXMLAttr@xercesc_2_2@@@2@I_N@Z 12050e70 f   VecAttrListImpl.obj
 0001:0004fea0       ?getName@WFXMLScanner@xercesc_2_2@@UBEPBGXZ 12050ea0 f i WFXMLScanner.obj
 0001:0004feb0       ??0WFXMLScanner@xercesc_2_2@@QAE@QAVXMLValidator@1@@Z 12050eb0 f   WFXMLScanner.obj
 0001:00050070       ??_EWFXMLScanner@xercesc_2_2@@UAEPAXI@Z 12051070 f i WFXMLScanner.obj
 0001:000500d0       ??0WFXMLScanner@xercesc_2_2@@QAE@QAVXMLDocumentHandler@1@QAVDocTypeHandler@1@QAVXMLEntityHandler@1@QAVXMLErrorReporter@1@QAVXMLValidator@1@@Z 120510d0 f   WFXMLScanner.obj
 0001:000502a0       ??1WFXMLScanner@xercesc_2_2@@UAE@XZ 120512a0 f   WFXMLScanner.obj
 0001:00050420       ?scanDocument@WFXMLScanner@xercesc_2_2@@UAEXABVInputSource@2@@Z 12051420 f   WFXMLScanner.obj
 0001:000505d0       ?scanNext@WFXMLScanner@xercesc_2_2@@UAE_NAAVXMLPScanToken@2@@Z 120515d0 f   WFXMLScanner.obj
 0001:00050910       ?commonInit@WFXMLScanner@xercesc_2_2@@AAEXXZ 12051910 f   WFXMLScanner.obj
 0001:00050c30       ?cleanUp@WFXMLScanner@xercesc_2_2@@AAEXXZ 12051c30 f   WFXMLScanner.obj
 0001:00050d60       ?resolvePrefix@WFXMLScanner@xercesc_2_2@@AAEIQBGW4MapModes@ElemStack@2@@Z 12051d60 f   WFXMLScanner.obj
 0001:00050e50       ?scanReset@WFXMLScanner@xercesc_2_2@@EAEXABVInputSource@2@@Z 12051e50 f   WFXMLScanner.obj
 0001:00050fb0       ?sendCharData@WFXMLScanner@xercesc_2_2@@EAEXAAVXMLBuffer@2@@Z 12051fb0 f   WFXMLScanner.obj
 0001:00050ff0       ?scanContent@WFXMLScanner@xercesc_2_2@@AAE_N_N@Z 12051ff0 f   WFXMLScanner.obj
 0001:000511b0       ?scanEndTag@WFXMLScanner@xercesc_2_2@@AAEXAA_N@Z 120521b0 f   WFXMLScanner.obj
 0001:00051330       ?scanDocTypeDecl@WFXMLScanner@xercesc_2_2@@EAEXXZ 12052330 f   WFXMLScanner.obj
 0001:00051370       ?scanStartTag@WFXMLScanner@xercesc_2_2@@AAE_NAA_N@Z 12052370 f   WFXMLScanner.obj
 0001:00051cc0       ?scanStartTagNS@WFXMLScanner@xercesc_2_2@@AAE_NAA_N@Z 12052cc0 f   WFXMLScanner.obj
 0001:00052af0       ?resolveQName@WFXMLScanner@xercesc_2_2@@UAEIQBGAAVXMLBuffer@2@FAAH@Z 12053af0 f   WFXMLScanner.obj
 0001:00052c70       ?scanAttValue@WFXMLScanner@xercesc_2_2@@AAE_NQBGAAVXMLBuffer@2@@Z 12053c70 f   WFXMLScanner.obj
 0001:00052f30       ?scanCDSection@WFXMLScanner@xercesc_2_2@@EAEXXZ 12053f30 f   WFXMLScanner.obj
 0001:00053150       ?scanCharData@WFXMLScanner@xercesc_2_2@@EAEXAAVXMLBuffer@2@@Z 12054150 f   WFXMLScanner.obj
 0001:00053430       ?scanEntityRef@WFXMLScanner@xercesc_2_2@@EAE?AW4EntityExpRes@XMLScanner@2@_NAAG1AA_N@Z 12054430 f   WFXMLScanner.obj
 0001:00053710       ?loadGrammar@WFXMLScanner@xercesc_2_2@@UAEPAVGrammar@2@ABVInputSource@2@F_N@Z 12054710 f   WFXMLScanner.obj
 0001:00053720       ??_G?$RefVectorOf@VXMLElementDecl@xercesc_2_2@@@xercesc_2_2@@UAEPAXI@Z 12054720 f i WFXMLScanner.obj
 0001:00053720       ??_E?$RefVectorOf@VXMLElementDecl@xercesc_2_2@@@xercesc_2_2@@UAEPAXI@Z 12054720 f i WFXMLScanner.obj
 0001:00053740       ??1?$RefVectorOf@VXMLElementDecl@xercesc_2_2@@@xercesc_2_2@@UAE@XZ 12054740 f i WFXMLScanner.obj
 0001:000537c0       ??1?$BaseRefVectorOf@VXMLElementDecl@xercesc_2_2@@@xercesc_2_2@@UAE@XZ 120547c0 f i WFXMLScanner.obj
 0001:000537d0       ??0?$BaseRefVectorOf@VXMLElementDecl@xercesc_2_2@@@xercesc_2_2@@QAE@I_N@Z 120547d0 f i WFXMLScanner.obj
 0001:00053830       ?isAllSpaces@XMLReader@xercesc_2_2@@QAE_NQBGI@Z 12054830 f   XMLReader.obj
 0001:00053870       ?containsWhiteSpace@XMLReader@xercesc_2_2@@QAE_NQBGI@Z 12054870 f   XMLReader.obj
 0001:000538b0       ?isPublicIdChar@XMLReader@xercesc_2_2@@QAE_NG@Z 120548b0 f   XMLReader.obj
 0001:000538e0       ??0XMLReader@xercesc_2_2@@QAE@QBG0QAVBinInputStream@1@W4RefFrom@01@W4Types@01@W4Sources@01@_N5W4XMLVersion@01@@Z 120548e0 f   XMLReader.obj
 0001:00053b60       ??0XMLReader@xercesc_2_2@@QAE@QBG0QAVBinInputStream@1@0W4RefFrom@01@W4Types@01@W4Sources@01@_N5W4XMLVersion@01@@Z 12054b60 f   XMLReader.obj
 0001:00053e80       ??0XMLReader@xercesc_2_2@@QAE@QBG0QAVBinInputStream@1@W4Encodings@XMLRecognizer@1@W4RefFrom@01@W4Types@01@W4Sources@01@_N6W4XMLVersion@01@@Z 12054e80 f   XMLReader.obj
 0001:00054180       ??1XMLReader@xercesc_2_2@@QAE@XZ 12055180 f   XMLReader.obj
 0001:000541d0       ?getSrcOffset@XMLReader@xercesc_2_2@@QBEIXZ 120551d0 f   XMLReader.obj
 0001:00054240       ?refreshCharBuffer@XMLReader@xercesc_2_2@@QAE_NXZ 12055240 f   XMLReader.obj
 0001:000544d0       ?getName@XMLReader@xercesc_2_2@@QAE_NAAVXMLBuffer@2@_N@Z 120554d0 f   XMLReader.obj
 0001:000546d0       ?getSpaces@XMLReader@xercesc_2_2@@QAE_NAAVXMLBuffer@2@@Z 120556d0 f   XMLReader.obj
 0001:00054800       ?getUpToCharOrWS@XMLReader@xercesc_2_2@@QAE_NAAVXMLBuffer@2@G@Z 12055800 f   XMLReader.obj
 0001:00054940       ?skipIfQuote@XMLReader@xercesc_2_2@@QAE_NAAG@Z 12055940 f   XMLReader.obj
 0001:000549a0       ?skipSpaces@XMLReader@xercesc_2_2@@QAE_NAA_N@Z 120559a0 f   XMLReader.obj
 0001:00054b20       ?skippedChar@XMLReader@xercesc_2_2@@QAE_NG@Z 12055b20 f   XMLReader.obj
 0001:00054b60       ?skippedSpace@XMLReader@xercesc_2_2@@QAE_NXZ 12055b60 f   XMLReader.obj
 0001:00054c50       ?skippedString@XMLReader@xercesc_2_2@@QAE_NQBG@Z 12055c50 f   XMLReader.obj
 0001:00054cf0       ?peekString@XMLReader@xercesc_2_2@@QAE_NQBG@Z 12055cf0 f   XMLReader.obj
 0001:00054d70       ?setEncoding@XMLReader@xercesc_2_2@@QAE_NQBG@Z 12055d70 f   XMLReader.obj
 0001:00055170       ?checkForSwapped@XMLReader@xercesc_2_2@@AAEXXZ 12056170 f   XMLReader.obj
 0001:00055190       ?doInitDecode@XMLReader@xercesc_2_2@@AAEXXZ 12056190 f   XMLReader.obj
 0001:000555b0       ?refreshRawBuffer@XMLReader@xercesc_2_2@@AAEXXZ 120565b0 f   XMLReader.obj
 0001:00055620       ?xcodeMoreChars@XMLReader@xercesc_2_2@@AAEIQAGQAEI@Z 12056620 f   XMLReader.obj
 0001:00055730       ?reinitMsgLoader@XMLScanner@xercesc_2_2@@SAXXZ 12056730 f   XMLScanner.obj
 0001:00055750       ?reinitScannerMutex@XMLScanner@xercesc_2_2@@SAXXZ 12056750 f   XMLScanner.obj
 0001:00055780       ??0XMLScanner@xercesc_2_2@@QAE@QAVXMLValidator@1@@Z 12056780 f   XMLScanner.obj
 0001:00055ae0       ??_GXMLMutex@xercesc_2_2@@QAEPAXI@Z 12056ae0 f i XMLScanner.obj
 0001:00055b00       ??_EXMLScanner@xercesc_2_2@@UAEPAXI@Z 12056b00 f i XMLScanner.obj
 0001:00055b60       ??0XMLScanner@xercesc_2_2@@QAE@QAVXMLDocumentHandler@1@QAVDocTypeHandler@1@QAVXMLEntityHandler@1@QAVXMLErrorReporter@1@QAVXMLValidator@1@@Z 12056b60 f   XMLScanner.obj
 0001:00055ed0       ??1XMLScanner@xercesc_2_2@@UAE@XZ 12056ed0 f   XMLScanner.obj
 0001:00055ff0       ?setValidator@XMLScanner@xercesc_2_2@@QAEXQAVXMLValidator@2@@Z 12056ff0 f   XMLScanner.obj
 0001:00056040       ?scanDocument@XMLScanner@xercesc_2_2@@QAEXQBG@Z 12057040 f   XMLScanner.obj
 0001:00056320       ?scanDocument@XMLScanner@xercesc_2_2@@QAEXQBD@Z 12057320 f   XMLScanner.obj
 0001:00056380       ?scanFirst@XMLScanner@xercesc_2_2@@QAE_NQBGAAVXMLPScanToken@2@@Z 12057380 f   XMLScanner.obj
 0001:00056670       ?scanFirst@XMLScanner@xercesc_2_2@@QAE_NQBDAAVXMLPScanToken@2@@Z 12057670 f   XMLScanner.obj
 0001:000566e0       ?scanFirst@XMLScanner@xercesc_2_2@@QAE_NABVInputSource@2@AAVXMLPScanToken@2@@Z 120576e0 f   XMLScanner.obj
 0001:00056870       ?scanReset@XMLScanner@xercesc_2_2@@QAEXAAVXMLPScanToken@2@@Z 12057870 f   XMLScanner.obj
 0001:000568d0       ?setParseSettings@XMLScanner@xercesc_2_2@@QAEXQAV12@@Z 120578d0 f   XMLScanner.obj
 0001:00056a30       ?commonInit@XMLScanner@xercesc_2_2@@AAEXXZ 12057a30 f   XMLScanner.obj
 0001:00056c80       ?initValidator@XMLScanner@xercesc_2_2@@IAEXPAVXMLValidator@2@@Z 12057c80 f   XMLScanner.obj
 0001:00056ca0       ?emitError@XMLScanner@xercesc_2_2@@QAEXW4Codes@XMLErrs@2@@Z 12057ca0 f   XMLScanner.obj
 0001:00056f50       ?emitError@XMLScanner@xercesc_2_2@@QAEXW4Codes@XMLErrs@2@QBG111@Z 12057f50 f   XMLScanner.obj
 0001:00057070       ?emitError@XMLScanner@xercesc_2_2@@QAEXW4Codes@XMLErrs@2@QBD111@Z 12058070 f   XMLScanner.obj
 0001:00057190       ?scanMiscellaneous@XMLScanner@xercesc_2_2@@IAEXXZ 12058190 f   XMLScanner.obj
 0001:00057340       ?scanPI@XMLScanner@xercesc_2_2@@IAEXXZ 12058340 f   XMLScanner.obj
 0001:00057690       ?scanProlog@XMLScanner@xercesc_2_2@@IAEXXZ 12058690 f   XMLScanner.obj
 0001:00057890       ?scanXMLDecl@XMLScanner@xercesc_2_2@@IAEXW4DeclTypes@12@@Z 12058890 f   XMLScanner.obj
 0001:00058110       ?getURIText@XMLScanner@xercesc_2_2@@QBEPBGI@Z 12059110 f   XMLScanner.obj
 0001:00058150       ?getURIText@XMLScanner@xercesc_2_2@@QBE_NIAAVXMLBuffer@2@@Z 12059150 f   XMLScanner.obj
 0001:000581a0       ?checkXMLDecl@XMLScanner@xercesc_2_2@@QAE_N_N@Z 120591a0 f   XMLScanner.obj
 0001:00058320       ?loadGrammar@XMLScanner@xercesc_2_2@@QAEPAVGrammar@2@QBGF_N@Z 12059320 f   XMLScanner.obj
 0001:00058630       ?loadGrammar@XMLScanner@xercesc_2_2@@QAEPAVGrammar@2@QBDF_N@Z 12059630 f   XMLScanner.obj
 0001:000586a0       ?setURIStringPool@XMLScanner@xercesc_2_2@@QAEXQAVXMLStringPool@2@@Z 120596a0 f   XMLScanner.obj
 0001:00058700       ?checkIDRefs@XMLScanner@xercesc_2_2@@IAEXXZ 12059700 f   XMLScanner.obj
 0001:000588d0       ?isLegalToken@XMLScanner@xercesc_2_2@@IAE_NABVXMLPScanToken@2@@Z 120598d0 f   XMLScanner.obj
 0001:000588f0       ?senseNextToken@XMLScanner@xercesc_2_2@@IAE?AW4XMLTokens@12@AAI@Z 120598f0 f   XMLScanner.obj
 0001:00058a80       ?getQuotedString@XMLScanner@xercesc_2_2@@AAE_NAAVXMLBuffer@2@@Z 12059a80 f   XMLScanner.obj
 0001:00058af0       ?scanCharRef@XMLScanner@xercesc_2_2@@IAE_NAAG0@Z 12059af0 f   XMLScanner.obj
 0001:00058d30       ?scanComment@XMLScanner@xercesc_2_2@@IAEXXZ 12059d30 f   XMLScanner.obj
 0001:00058f90       ?scanEq@XMLScanner@xercesc_2_2@@IAE_NXZ 12059f90 f   XMLScanner.obj
 0001:00058fc0       ?scanUpToWSOr@XMLScanner@xercesc_2_2@@AAEIAAVXMLBuffer@2@G@Z 12059fc0 f   XMLScanner.obj
 0001:00058fe0       ??1?$XMLEnumerator@VXMLRefInfo@xercesc_2_2@@@xercesc_2_2@@UAE@XZ 12059fe0 f i XMLScanner.obj
 0001:00058ff0       ??_G?$XMLEnumerator@VXMLRefInfo@xercesc_2_2@@@xercesc_2_2@@UAEPAXI@Z 12059ff0 f i XMLScanner.obj
 0001:00058ff0       ??_E?$XMLEnumerator@VXMLRefInfo@xercesc_2_2@@@xercesc_2_2@@UAEPAXI@Z 12059ff0 f i XMLScanner.obj
 0001:00059010       ??0?$RefHashTableOf@VXMLRefInfo@xercesc_2_2@@@xercesc_2_2@@QAE@I@Z 1205a010 f i XMLScanner.obj
 0001:000590f0       ??1?$RefHashTableOfEnumerator@VXMLRefInfo@xercesc_2_2@@@xercesc_2_2@@UAE@XZ 1205a0f0 f i XMLScanner.obj
 0001:000591d0       ?nextElement@?$RefHashTableOfEnumerator@VComplexTypeInfo@xercesc_2_2@@@xercesc_2_2@@UAEAAVComplexTypeInfo@2@XZ 1205a1d0 f i XMLScanner.obj
 0001:000591d0       ?nextElement@?$RefHashTableOfEnumerator@VKVStringPair@xercesc_2_2@@@xercesc_2_2@@UAEAAVKVStringPair@2@XZ 1205a1d0 f i XMLScanner.obj
 0001:000591d0       ?nextElement@?$RefHashTableOfEnumerator@VXercesGroupInfo@xercesc_2_2@@@xercesc_2_2@@UAEAAVXercesGroupInfo@2@XZ 1205a1d0 f i XMLScanner.obj
 0001:000591d0       ?nextElement@?$RefHashTableOfEnumerator@VGrammar@xercesc_2_2@@@xercesc_2_2@@UAEAAVGrammar@2@XZ 1205a1d0 f i XMLScanner.obj
 0001:000591d0       ?nextElement@?$RefHashTableOfEnumerator@VValueStore@xercesc_2_2@@@xercesc_2_2@@UAEAAVValueStore@2@XZ 1205a1d0 f i XMLScanner.obj
 0001:000591d0       ?nextElement@?$RefHashTableOfEnumerator@V?$KeyRefPair@XVDOMUserDataHandler@xercesc_2_2@@@xercesc_2_2@@@xercesc_2_2@@UAEAAV?$KeyRefPair@XVDOMUserDataHandler@xercesc_2_2@@@2@XZ 1205a1d0 f i XMLScanner.obj
 0001:000591d0       ?nextElement@?$RefHashTableOfEnumerator@VXMLRefInfo@xercesc_2_2@@@xercesc_2_2@@UAEAAVXMLRefInfo@2@XZ 1205a1d0 f i XMLScanner.obj
 0001:000591d0       ?nextElement@?$RefHashTableOfEnumerator@VDTDAttDef@xercesc_2_2@@@xercesc_2_2@@UAEAAVDTDAttDef@2@XZ 1205a1d0 f i XMLScanner.obj
 0001:00059250       ??_G?$RefVectorOf@VXMLAttr@xercesc_2_2@@@xercesc_2_2@@UAEPAXI@Z 1205a250 f i XMLScanner.obj
 0001:00059250       ??_E?$RefVectorOf@VXMLAttr@xercesc_2_2@@@xercesc_2_2@@UAEPAXI@Z 1205a250 f i XMLScanner.obj
 0001:00059270       ??1?$RefVectorOf@VXMLAttr@xercesc_2_2@@@xercesc_2_2@@UAE@XZ 1205a270 f i XMLScanner.obj
 0001:00059300       ??1?$BaseRefVectorOf@VXMLAttr@xercesc_2_2@@@xercesc_2_2@@UAE@XZ 1205a300 f i XMLScanner.obj
 0001:00059310       ??_E?$RefHashTableOfEnumerator@VXMLRefInfo@xercesc_2_2@@@xercesc_2_2@@UAEPAXI@Z 1205a310 f i XMLScanner.obj
 0001:00059310       ??_G?$RefHashTableOfEnumerator@VXMLRefInfo@xercesc_2_2@@@xercesc_2_2@@UAEPAXI@Z 1205a310 f i XMLScanner.obj
 0001:00059330       ??0?$BaseRefVectorOf@VXMLAttr@xercesc_2_2@@@xercesc_2_2@@QAE@I_N@Z 1205a330 f i XMLScanner.obj
 0001:00059390       ?removeAll@?$RefHashTableOf@VXMLRefInfo@xercesc_2_2@@@xercesc_2_2@@QAEXXZ 1205a390 f i XMLScanner.obj
 0001:00059400       ??_GXMLRefInfo@xercesc_2_2@@QAEPAXI@Z 1205a400 f i XMLScanner.obj
 0001:00059430       ?getDefaultScanner@XMLScannerResolver@xercesc_2_2@@SAPAVXMLScanner@2@QAVXMLValidator@2@@Z 1205a430 f   XMLScannerResolver.obj
 0001:00059490       ?resolveScanner@XMLScannerResolver@xercesc_2_2@@SAPAVXMLScanner@2@QBGQAVXMLValidator@2@@Z 1205a490 f   XMLScannerResolver.obj
 0001:00059720       ?resolveScanner@XMLScannerResolver@xercesc_2_2@@SAPAVXMLScanner@2@QBGQAVXMLDocumentHandler@2@QAVDocTypeHandler@2@QAVXMLEntityHandler@2@QAVXMLErrorReporter@2@QAVXMLValidator@2@@Z 1205a720 f   XMLScannerResolver.obj
 0001:00059a00       ??0DocumentHandler@xercesc_2_2@@QAE@XZ 1205aa00 f i Dummy.obj
 0001:00059a10       ??1DocumentHandler@xercesc_2_2@@UAE@XZ 1205aa10 f i Dummy.obj
 0001:00059a20       ??_EDocumentHandler@xercesc_2_2@@UAEPAXI@Z 1205aa20 f i Dummy.obj
 0001:00059a80       ??0DTDHandler@xercesc_2_2@@QAE@XZ 1205aa80 f i Dummy.obj
 0001:00059a90       ??1DTDHandler@xercesc_2_2@@UAE@XZ 1205aa90 f i Dummy.obj
 0001:00059aa0       ??_EDTDHandler@xercesc_2_2@@UAEPAXI@Z 1205aaa0 f i Dummy.obj
 0001:00059b00       ??0EntityResolver@xercesc_2_2@@QAE@XZ 1205ab00 f i Dummy.obj
 0001:00059b10       ??1EntityResolver@xercesc_2_2@@UAE@XZ 1205ab10 f i Dummy.obj
 0001:00059b20       ??_EEntityResolver@xercesc_2_2@@UAEPAXI@Z 1205ab20 f i Dummy.obj
 0001:00059b80       ??0ErrorHandler@xercesc_2_2@@QAE@XZ 1205ab80 f i Dummy.obj
 0001:00059b90       ??1ErrorHandler@xercesc_2_2@@UAE@XZ 1205ab90 f i Dummy.obj
 0001:00059ba0       ??_EErrorHandler@xercesc_2_2@@UAEPAXI@Z 1205aba0 f i Dummy.obj
 0001:00059c00       ??0SAXException@xercesc_2_2@@QAE@XZ 1205ac00 f i Dummy.obj
 0001:00059c70       ??0SAXException@xercesc_2_2@@QAE@QBG@Z 1205ac70 f i Dummy.obj
 0001:00059ce0       ??0SAXException@xercesc_2_2@@QAE@QBD@Z 1205ace0 f i Dummy.obj
 0001:00059d00       ??0SAXException@xercesc_2_2@@QAE@ABV01@@Z 1205ad00 f i Dummy.obj
 0001:00059d70       ??_ESAXException@xercesc_2_2@@UAEPAXI@Z 1205ad70 f i Dummy.obj
 0001:00059dd0       ??0SAXNotSupportedException@xercesc_2_2@@QAE@ABV01@@Z 1205add0 f i Dummy.obj
 0001:00059e40       ??4SAXException@xercesc_2_2@@QAEAAV01@ABV01@@Z 1205ae40 f i Dummy.obj
 0001:00059e40       ??4SAXNotRecognizedException@xercesc_2_2@@QAEAAV01@ABV01@@Z 1205ae40 f i Dummy.obj
 0001:00059e40       ??4SAXNotSupportedException@xercesc_2_2@@QAEAAV01@ABV01@@Z 1205ae40 f i Dummy.obj
 0001:00059eb0       ??0SAXNotRecognizedException@xercesc_2_2@@QAE@ABV01@@Z 1205aeb0 f i Dummy.obj
 0001:00059f20       ??1SAXException@xercesc_2_2@@UAE@XZ 1205af20 f i Dummy.obj
 0001:00059f20       ??1SAXNotSupportedException@xercesc_2_2@@UAE@XZ 1205af20 f i Dummy.obj
 0001:00059f20       ??1SAXNotRecognizedException@xercesc_2_2@@UAE@XZ 1205af20 f i Dummy.obj
 0001:00059f40       ??_ESAXNotSupportedException@xercesc_2_2@@UAEPAXI@Z 1205af40 f i Dummy.obj
 0001:00059f40       ??_ESAXNotRecognizedException@xercesc_2_2@@UAEPAXI@Z 1205af40 f i Dummy.obj
 0001:00059fa0       ??0HandlerBase@xercesc_2_2@@QAE@XZ 1205afa0 f i Dummy.obj
 0001:00059fe0       ??1HandlerBase@xercesc_2_2@@UAE@XZ 1205afe0 f i Dummy.obj
 0001:0005a030       ??_EHandlerBase@xercesc_2_2@@UAEPAXI@Z 1205b030 f i Dummy.obj
 0001:0005a090       ??0Parser@xercesc_2_2@@QAE@XZ 1205b090 f i Dummy.obj
 0001:0005a0a0       ??1Parser@xercesc_2_2@@UAE@XZ 1205b0a0 f i Dummy.obj
 0001:0005a0b0       ??_EParser@xercesc_2_2@@UAEPAXI@Z 1205b0b0 f i Dummy.obj
 0001:0005a110       ??_EHandlerBase@xercesc_2_2@@W3AEPAXI@Z 1205b110 f i Dummy.obj
 0001:0005a120       ??_EHandlerBase@xercesc_2_2@@W7AEPAXI@Z 1205b120 f i Dummy.obj
 0001:0005a130       ??_EHandlerBase@xercesc_2_2@@WM@AEPAXI@Z 1205b130 f i Dummy.obj
 0001:0005a140       ??1InputSource@xercesc_2_2@@UAE@XZ 1205b140 f   InputSource.obj
 0001:0005a170       ??_EInputSource@xercesc_2_2@@UAEPAXI@Z 1205b170 f i InputSource.obj
 0001:0005a1f0       ?setEncoding@InputSource@xercesc_2_2@@UAEXQBG@Z 1205b1f0 f   InputSource.obj
 0001:0005a260       ?setEncoding@DOMWriterImpl@xercesc_2_2@@UAEXQBG@Z 1205b260 f   InputSource.obj
 0001:0005a260       ?setPublicId@InputSource@xercesc_2_2@@UAEXQBG@Z 1205b260 f   InputSource.obj
 0001:0005a2d0       ??0InputSource@xercesc_2_2@@IAE@XZ 1205b2d0 f   InputSource.obj
 0001:0005a2f0       ??0InputSource@xercesc_2_2@@IAE@QBG@Z 1205b2f0 f   InputSource.obj
 0001:0005a360       ??0InputSource@xercesc_2_2@@IAE@QBG0@Z 1205b360 f   InputSource.obj
 0001:0005a420       ??0InputSource@xercesc_2_2@@IAE@QBD@Z 1205b420 f   InputSource.obj
 0001:0005a450       ??0InputSource@xercesc_2_2@@IAE@QBD0@Z 1205b450 f   InputSource.obj
 0001:0005a490       ??0SAXNotSupportedException@xercesc_2_2@@QAE@XZ 1205b490 f   SAXException.obj
 0001:0005a500       ??0SAXNotSupportedException@xercesc_2_2@@QAE@QBG@Z 1205b500 f   SAXException.obj
 0001:0005a570       ??0SAXNotSupportedException@xercesc_2_2@@QAE@QBD@Z 1205b570 f   SAXException.obj
 0001:0005a590       ??0SAXNotSupportedException@xercesc_2_2@@QAE@ABVSAXException@1@@Z 1205b590 f   SAXException.obj
 0001:0005a600       ??0SAXNotRecognizedException@xercesc_2_2@@QAE@XZ 1205b600 f   SAXException.obj
 0001:0005a670       ??0SAXNotRecognizedException@xercesc_2_2@@QAE@QBG@Z 1205b670 f   SAXException.obj
 0001:0005a6e0       ??0SAXNotRecognizedException@xercesc_2_2@@QAE@QBD@Z 1205b6e0 f   SAXException.obj
 0001:0005a700       ??0SAXNotRecognizedException@xercesc_2_2@@QAE@ABVSAXException@1@@Z 1205b700 f   SAXException.obj
 0001:0005a770       ??0SAXParseException@xercesc_2_2@@QAE@QBGABVLocator@1@@Z 1205b770 f   SAXParseException.obj
 0001:0005a8d0       ??_ESAXParseException@xercesc_2_2@@UAEPAXI@Z 1205b8d0 f i SAXParseException.obj
 0001:0005a930       ??0SAXParseException@xercesc_2_2@@QAE@QBG00JJ@Z 1205b930 f   SAXParseException.obj
 0001:0005aa80       ??0SAXParseException@xercesc_2_2@@QAE@ABV01@@Z 1205ba80 f   SAXParseException.obj
 0001:0005abd0       ??1SAXParseException@xercesc_2_2@@UAE@XZ 1205bbd0 f   SAXParseException.obj
 0001:0005ac40       ??4SAXParseException@xercesc_2_2@@QAEAAV01@ABV01@@Z 1205bc40 f   SAXParseException.obj
 0001:0005ad70       ??0DOMImplementationLS@xercesc_2_2@@IAE@XZ 1205bd70 f i AbstractDOMParser.obj
 0001:0005ad80       ??0DOMImplementationLS@xercesc_2_2@@IAE@ABV01@@Z 1205bd80 f i AbstractDOMParser.obj
 0001:0005ad90       ??_EDOMImplementationLS@xercesc_2_2@@UAEPAXI@Z 1205bd90 f i AbstractDOMParser.obj
 0001:0005adf0       ??0DOMImplementation@xercesc_2_2@@IAE@XZ 1205bdf0 f i AbstractDOMParser.obj
 0001:0005ae00       ??0DOMImplementation@xercesc_2_2@@IAE@ABV01@@Z 1205be00 f i AbstractDOMParser.obj
 0001:0005ae10       ??1DOMImplementationLS@xercesc_2_2@@UAE@XZ 1205be10 f i AbstractDOMParser.obj
 0001:0005ae10       ??1DOMImplementation@xercesc_2_2@@UAE@XZ 1205be10 f i AbstractDOMParser.obj
 0001:0005ae20       ??_EDOMImplementation@xercesc_2_2@@UAEPAXI@Z 1205be20 f i AbstractDOMParser.obj
 0001:0005ae80       ??0DOMNodeList@xercesc_2_2@@IAE@XZ 1205be80 f i AbstractDOMParser.obj
 0001:0005ae90       ??0DOMNodeList@xercesc_2_2@@IAE@ABV01@@Z 1205be90 f i AbstractDOMParser.obj
 0001:0005aea0       ??1DOMNodeList@xercesc_2_2@@UAE@XZ 1205bea0 f i AbstractDOMParser.obj
 0001:0005aeb0       ??_EDOMNodeList@xercesc_2_2@@UAEPAXI@Z 1205beb0 f i AbstractDOMParser.obj
 0001:0005af10       ??1DOMParentNode@xercesc_2_2@@QAE@XZ 1205bf10 f i AbstractDOMParser.obj
 0001:0005af20       ??0DOMUserDataHandler@xercesc_2_2@@IAE@XZ 1205bf20 f i AbstractDOMParser.obj
 0001:0005af30       ??0DOMUserDataHandler@xercesc_2_2@@IAE@ABV01@@Z 1205bf30 f i AbstractDOMParser.obj
 0001:0005af40       ??1DOMUserDataHandler@xercesc_2_2@@UAE@XZ 1205bf40 f i AbstractDOMParser.obj
 0001:0005af50       ??_EDOMUserDataHandler@xercesc_2_2@@UAEPAXI@Z 1205bf50 f i AbstractDOMParser.obj
 0001:0005afb0       ?isReadOnly@DOMNodeImpl@xercesc_2_2@@QBE_NXZ 1205bfb0 f i AbstractDOMParser.obj
 0001:0005afd0       ?isReadOnly@DOMNodeImpl@xercesc_2_2@@QAEX_N@Z 1205bfd0 f i AbstractDOMParser.obj
 0001:0005b010       ?needsSyncData@DOMNodeImpl@xercesc_2_2@@QBE_NXZ 1205c010 f i AbstractDOMParser.obj
 0001:0005b030       ?needsSyncData@DOMNodeImpl@xercesc_2_2@@QAEX_N@Z 1205c030 f i AbstractDOMParser.obj
 0001:0005b070       ?needsSyncChildren@DOMNodeImpl@xercesc_2_2@@QBE_NXZ 1205c070 f i AbstractDOMParser.obj
 0001:0005b090       ?needsSyncChildren@DOMNodeImpl@xercesc_2_2@@QAEX_N@Z 1205c090 f i AbstractDOMParser.obj
 0001:0005b0d0       ?isOwned@DOMNodeImpl@xercesc_2_2@@QBE_NXZ 1205c0d0 f i AbstractDOMParser.obj
 0001:0005b0f0       ?isOwned@DOMNodeImpl@xercesc_2_2@@QAEX_N@Z 1205c0f0 f i AbstractDOMParser.obj
 0001:0005b130       ?isFirstChild@DOMNodeImpl@xercesc_2_2@@QBE_NXZ 1205c130 f i AbstractDOMParser.obj
 0001:0005b150       ?isFirstChild@DOMNodeImpl@xercesc_2_2@@QAEX_N@Z 1205c150 f i AbstractDOMParser.obj
 0001:0005b190       ?isSpecified@DOMNodeImpl@xercesc_2_2@@QBE_NXZ 1205c190 f i AbstractDOMParser.obj
 0001:0005b1b0       ?isSpecified@DOMNodeImpl@xercesc_2_2@@QAEX_N@Z 1205c1b0 f i AbstractDOMParser.obj
 0001:0005b1f0       ?ignorableWhitespace@DOMNodeImpl@xercesc_2_2@@QBE_NXZ 1205c1f0 f i AbstractDOMParser.obj
 0001:0005b210       ?ignorableWhitespace@DOMNodeImpl@xercesc_2_2@@QAEX_N@Z 1205c210 f i AbstractDOMParser.obj
 0001:0005b250       ?setValue@DOMNodeImpl@xercesc_2_2@@QBE_NXZ 1205c250 f i AbstractDOMParser.obj
 0001:0005b270       ?setValue@DOMNodeImpl@xercesc_2_2@@QAEX_N@Z 1205c270 f i AbstractDOMParser.obj
 0001:0005b2b0       ?isIdAttr@DOMNodeImpl@xercesc_2_2@@QBE_NXZ 1205c2b0 f i AbstractDOMParser.obj
 0001:0005b2d0       ?isIdAttr@DOMNodeImpl@xercesc_2_2@@QAEX_N@Z 1205c2d0 f i AbstractDOMParser.obj
 0001:0005b310       ?hasUserData@DOMNodeImpl@xercesc_2_2@@QBE_NXZ 1205c310 f i AbstractDOMParser.obj
 0001:0005b330       ?hasUserData@DOMNodeImpl@xercesc_2_2@@QAEX_N@Z 1205c330 f i AbstractDOMParser.obj
 0001:0005b370       ?isLeafNode@DOMNodeImpl@xercesc_2_2@@QBE_NXZ 1205c370 f i AbstractDOMParser.obj
 0001:0005b390       ?setIsLeafNode@DOMNodeImpl@xercesc_2_2@@QAEX_N@Z 1205c390 f i AbstractDOMParser.obj
 0001:0005b3d0       ?isChildNode@DOMNodeImpl@xercesc_2_2@@QBE_NXZ 1205c3d0 f i AbstractDOMParser.obj
 0001:0005b3f0       ?setIsChildNode@DOMNodeImpl@xercesc_2_2@@QAEX_N@Z 1205c3f0 f i AbstractDOMParser.obj
 0001:0005b430       ?isToBeReleased@DOMNodeImpl@xercesc_2_2@@QBE_NXZ 1205c430 f i AbstractDOMParser.obj
 0001:0005b450       ?isToBeReleased@DOMNodeImpl@xercesc_2_2@@QAEX_N@Z 1205c450 f i AbstractDOMParser.obj
 0001:0005b490       ?setErrorChecking@DOMDocumentImpl@xercesc_2_2@@QAEX_N@Z 1205c490 f i AbstractDOMParser.obj
 0001:0005b4a0       ?getErrorChecking@DOMDocumentImpl@xercesc_2_2@@QBE_NXZ 1205c4a0 f i AbstractDOMParser.obj
 0001:0005b4b0       ??0DOMDocumentImpl@xercesc_2_2@@QAE@ABV01@@Z 1205c4b0 f i AbstractDOMParser.obj
 0001:0005b5c0       ??_EDOMDocumentImpl@xercesc_2_2@@UAEPAXI@Z 1205c5c0 f i AbstractDOMParser.obj
 0001:0005b620       ??0DOMTypeInfo@xercesc_2_2@@IAE@XZ 1205c620 f i AbstractDOMParser.obj
 0001:0005b630       ??0DOMTypeInfo@xercesc_2_2@@IAE@ABV01@@Z 1205c630 f i AbstractDOMParser.obj
 0001:0005b640       ??1DOMTypeInfo@xercesc_2_2@@UAE@XZ 1205c640 f i AbstractDOMParser.obj
 0001:0005b640       ??1DOMTypeInfoImpl@xercesc_2_2@@UAE@XZ 1205c640 f i AbstractDOMParser.obj
 0001:0005b650       ??_EDOMTypeInfo@xercesc_2_2@@UAEPAXI@Z 1205c650 f i AbstractDOMParser.obj
 0001:0005b6b0       ??_ODOMAttrImpl@xercesc_2_2@@QAEXABV01@@Z 1205c6b0 f i AbstractDOMParser.obj
 0001:0005b6c0       ?removeAttrFromIDNodeMap@DOMAttrImpl@xercesc_2_2@@UAEXXZ 1205c6c0 f i AbstractDOMParser.obj
 0001:0005b6f0       ?addAttrToIDNodeMap@DOMAttrImpl@xercesc_2_2@@UAEXXZ 1205c6f0 f i AbstractDOMParser.obj
 0001:0005b780       ??0DOMCharacterData@xercesc_2_2@@IAE@XZ 1205c780 f i AbstractDOMParser.obj
 0001:0005b790       ??0DOMCharacterData@xercesc_2_2@@IAE@ABV01@@Z 1205c790 f i AbstractDOMParser.obj
 0001:0005b7a0       ??0DOMText@xercesc_2_2@@IAE@XZ 1205c7a0 f i AbstractDOMParser.obj
 0001:0005b7b0       ??0DOMText@xercesc_2_2@@IAE@ABV01@@Z 1205c7b0 f i AbstractDOMParser.obj
 0001:0005b7c0       ??0DOMCDATASection@xercesc_2_2@@IAE@XZ 1205c7c0 f i AbstractDOMParser.obj
 0001:0005b7d0       ??0DOMCDATASection@xercesc_2_2@@IAE@ABV01@@Z 1205c7d0 f i AbstractDOMParser.obj
 0001:0005b7e0       ??0DOMComment@xercesc_2_2@@IAE@XZ 1205c7e0 f i AbstractDOMParser.obj
 0001:0005b7f0       ??0DOMComment@xercesc_2_2@@IAE@ABV01@@Z 1205c7f0 f i AbstractDOMParser.obj
 0001:0005b800       ??4DOMTextImpl@xercesc_2_2@@QAEAAV01@ABV01@@Z 1205c800 f i AbstractDOMParser.obj
 0001:0005b800       ??4DOMNotationImpl@xercesc_2_2@@QAEAAV01@ABV01@@Z 1205c800 f i AbstractDOMParser.obj
 0001:0005b800       ??4DOMCommentImpl@xercesc_2_2@@QAEAAV01@ABV01@@Z 1205c800 f i AbstractDOMParser.obj
 0001:0005b830       ??_ODOMTextImpl@xercesc_2_2@@QAEXABV01@@Z 1205c830 f i AbstractDOMParser.obj
 0001:0005b840       ??0DOMDocumentTypeImpl@xercesc_2_2@@QAE@ABV01@@Z 1205c840 f i AbstractDOMParser.obj
 0001:0005b8f0       ??_EDOMDocumentTypeImpl@xercesc_2_2@@UAEPAXI@Z 1205c8f0 f i AbstractDOMParser.obj
 0001:0005b950       ??0DOMNamedNodeMap@xercesc_2_2@@IAE@XZ 1205c950 f i AbstractDOMParser.obj
 0001:0005b960       ??0DOMNamedNodeMap@xercesc_2_2@@IAE@ABV01@@Z 1205c960 f i AbstractDOMParser.obj
 0001:0005b970       ??1DOMNamedNodeMap@xercesc_2_2@@UAE@XZ 1205c970 f i AbstractDOMParser.obj
 0001:0005b980       ??_EDOMNamedNodeMap@xercesc_2_2@@UAEPAXI@Z 1205c980 f i AbstractDOMParser.obj
 0001:0005b9e0       ??0DOMNamedNodeMapImpl@xercesc_2_2@@QAE@ABV01@@Z 1205c9e0 f i AbstractDOMParser.obj
 0001:0005ba10       ??_EDOMNamedNodeMapImpl@xercesc_2_2@@UAEPAXI@Z 1205ca10 f i AbstractDOMParser.obj
 0001:0005ba70       ??0DOMAttrMapImpl@xercesc_2_2@@QAE@ABV01@@Z 1205ca70 f i AbstractDOMParser.obj
 0001:0005baa0       ??4DOMAttrMapImpl@xercesc_2_2@@QAEAAV01@ABV01@@Z 1205caa0 f i AbstractDOMParser.obj
 0001:0005bac0       ??_EDOMAttrMapImpl@xercesc_2_2@@UAEPAXI@Z 1205cac0 f i AbstractDOMParser.obj
 0001:0005bb20       ??_ODOMElementImpl@xercesc_2_2@@QAEXABV01@@Z 1205cb20 f i AbstractDOMParser.obj
 0001:0005bb30       ??0DOMEntity@xercesc_2_2@@IAE@XZ 1205cb30 f i AbstractDOMParser.obj
 0001:0005bb40       ??0DOMEntity@xercesc_2_2@@IAE@ABV01@@Z 1205cb40 f i AbstractDOMParser.obj
 0001:0005bb50       ??_ODOMEntityImpl@xercesc_2_2@@QAEXABV01@@Z 1205cb50 f i AbstractDOMParser.obj
 0001:0005bb60       ??0DOMEntityReference@xercesc_2_2@@IAE@XZ 1205cb60 f i AbstractDOMParser.obj
 0001:0005bb70       ??0DOMEntityReference@xercesc_2_2@@IAE@ABV01@@Z 1205cb70 f i AbstractDOMParser.obj
 0001:0005bb80       ??_ODOMEntityReferenceImpl@xercesc_2_2@@QAEXABV01@@Z 1205cb80 f i AbstractDOMParser.obj
 0001:0005bb90       ??0DOMNotation@xercesc_2_2@@IAE@XZ 1205cb90 f i AbstractDOMParser.obj
 0001:0005bba0       ??0DOMNotation@xercesc_2_2@@IAE@ABV01@@Z 1205cba0 f i AbstractDOMParser.obj
 0001:0005bbb0       ??_ODOMNotationImpl@xercesc_2_2@@QAEXABV01@@Z 1205cbb0 f i AbstractDOMParser.obj
 0001:0005bbc0       ??0DOMProcessingInstruction@xercesc_2_2@@IAE@XZ 1205cbc0 f i AbstractDOMParser.obj
 0001:0005bbd0       ??0DOMProcessingInstruction@xercesc_2_2@@IAE@ABV01@@Z 1205cbd0 f i AbstractDOMParser.obj
 0001:0005bbe0       ??4DOMProcessingInstructionImpl@xercesc_2_2@@QAEAAV01@ABV01@@Z 1205cbe0 f i AbstractDOMParser.obj
 0001:0005bc20       ??_ODOMProcessingInstructionImpl@xercesc_2_2@@QAEXABV01@@Z 1205cc20 f i AbstractDOMParser.obj
 0001:0005bc30       ??0AbstractDOMParser@xercesc_2_2@@IAE@QAVXMLValidator@1@@Z 1205cc30 f   AbstractDOMParser.obj
 0001:0005bd20       ??_EAbstractDOMParser@xercesc_2_2@@UAEPAXI@Z 1205cd20 f i AbstractDOMParser.obj
 0001:0005bd80       ??1AbstractDOMParser@xercesc_2_2@@UAE@XZ 1205cd80 f   AbstractDOMParser.obj
 0001:0005be20       ?initialize@AbstractDOMParser@xercesc_2_2@@AAEXXZ 1205ce20 f   AbstractDOMParser.obj
 0001:0005bf40       ?cleanUp@AbstractDOMParser@xercesc_2_2@@AAEXXZ 1205cf40 f   AbstractDOMParser.obj
 0001:0005bfd0       ?reset@AbstractDOMParser@xercesc_2_2@@QAEXXZ 1205cfd0 f   AbstractDOMParser.obj
 0001:0005c140       ?resetPool@AbstractDOMParser@xercesc_2_2@@IAEXXZ 1205d140 f   AbstractDOMParser.obj
 0001:0005c1e0       ?isDocumentAdopted@AbstractDOMParser@xercesc_2_2@@IBE_NXZ 1205d1e0 f   AbstractDOMParser.obj
 0001:0005c1f0       ?adoptDocument@AbstractDOMParser@xercesc_2_2@@QAEPAVDOMDocument@2@XZ 1205d1f0 f   AbstractDOMParser.obj
 0001:0005c200       ?getValidator@AbstractDOMParser@xercesc_2_2@@QBEABVXMLValidator@2@XZ 1205d200 f   AbstractDOMParser.obj
 0001:0005c210       ?getDoNamespaces@AbstractDOMParser@xercesc_2_2@@QBE_NXZ 1205d210 f   AbstractDOMParser.obj
 0001:0005c220       ?getExitOnFirstFatalError@AbstractDOMParser@xercesc_2_2@@QBE_NXZ 1205d220 f   AbstractDOMParser.obj
 0001:0005c230       ?getValidationConstraintFatal@AbstractDOMParser@xercesc_2_2@@QBE_NXZ 1205d230 f   AbstractDOMParser.obj
 0001:0005c240       ?getValidationScheme@AbstractDOMParser@xercesc_2_2@@QBE?AW4ValSchemes@12@XZ 1205d240 f   AbstractDOMParser.obj
 0001:0005c260       ?getDoSchema@AbstractDOMParser@xercesc_2_2@@QBE_NXZ 1205d260 f   AbstractDOMParser.obj
 0001:0005c270       ?getValidationSchemaFullChecking@AbstractDOMParser@xercesc_2_2@@QBE_NXZ 1205d270 f   AbstractDOMParser.obj
 0001:0005c280       ?getErrorCount@AbstractDOMParser@xercesc_2_2@@QBEHXZ 1205d280 f   AbstractDOMParser.obj
 0001:0005c290       ?getExternalSchemaLocation@AbstractDOMParser@xercesc_2_2@@QBEPAGXZ 1205d290 f   AbstractDOMParser.obj
 0001:0005c2a0       ?getExternalNoNamespaceSchemaLocation@AbstractDOMParser@xercesc_2_2@@QBEPAGXZ 1205d2a0 f   AbstractDOMParser.obj
 0001:0005c2b0       ?getLoadExternalDTD@AbstractDOMParser@xercesc_2_2@@QBE_NXZ 1205d2b0 f   AbstractDOMParser.obj
 0001:0005c2c0       ?getCalculateSrcOfs@AbstractDOMParser@xercesc_2_2@@QBE_NXZ 1205d2c0 f   AbstractDOMParser.obj
 0001:0005c2d0       ?getStandardUriConformant@AbstractDOMParser@xercesc_2_2@@QBE_NXZ 1205d2d0 f   AbstractDOMParser.obj
 0001:0005c2e0       ?setDoNamespaces@AbstractDOMParser@xercesc_2_2@@QAEX_N@Z 1205d2e0 f   AbstractDOMParser.obj
 0001:0005c2f0       ?setExitOnFirstFatalError@AbstractDOMParser@xercesc_2_2@@QAEX_N@Z 1205d2f0 f   AbstractDOMParser.obj
 0001:0005c300       ?setValidationConstraintFatal@AbstractDOMParser@xercesc_2_2@@QAEX_N@Z 1205d300 f   AbstractDOMParser.obj
 0001:0005c310       ?setValidationScheme@AbstractDOMParser@xercesc_2_2@@QAEXW4ValSchemes@12@@Z 1205d310 f   AbstractDOMParser.obj
 0001:0005c360       ?setDoSchema@AbstractDOMParser@xercesc_2_2@@QAEX_N@Z 1205d360 f   AbstractDOMParser.obj
 0001:0005c370       ?setValidationSchemaFullChecking@AbstractDOMParser@xercesc_2_2@@QAEX_N@Z 1205d370 f   AbstractDOMParser.obj
 0001:0005c380       ?setExternalSchemaLocation@AbstractDOMParser@xercesc_2_2@@QAEXQBG@Z 1205d380 f   AbstractDOMParser.obj
 0001:0005c400       ?setExternalNoNamespaceSchemaLocation@AbstractDOMParser@xercesc_2_2@@QAEXQBG@Z 1205d400 f   AbstractDOMParser.obj
 0001:0005c480       ?setExternalSchemaLocation@AbstractDOMParser@xercesc_2_2@@QAEXQBD@Z 1205d480 f   AbstractDOMParser.obj
 0001:0005c4b0       ?setExternalNoNamespaceSchemaLocation@AbstractDOMParser@xercesc_2_2@@QAEXQBD@Z 1205d4b0 f   AbstractDOMParser.obj
 0001:0005c4e0       ?setLoadExternalDTD@AbstractDOMParser@xercesc_2_2@@QAEX_N@Z 1205d4e0 f   AbstractDOMParser.obj
 0001:0005c4f0       ?setCalculateSrcOfs@AbstractDOMParser@xercesc_2_2@@QAEX_N@Z 1205d4f0 f   AbstractDOMParser.obj
 0001:0005c500       ?setStandardUriConformant@AbstractDOMParser@xercesc_2_2@@QAEX_N@Z 1205d500 f   AbstractDOMParser.obj
 0001:0005c510       ?useScanner@AbstractDOMParser@xercesc_2_2@@QAEXQBG@Z 1205d510 f   AbstractDOMParser.obj
 0001:0005c560       ?parse@AbstractDOMParser@xercesc_2_2@@QAEXABVInputSource@2@@Z 1205d560 f   AbstractDOMParser.obj
 0001:0005c610       ?parse@AbstractDOMParser@xercesc_2_2@@QAEXQBG@Z 1205d610 f   AbstractDOMParser.obj
 0001:0005c6c0       ?parse@AbstractDOMParser@xercesc_2_2@@QAEXQBD@Z 1205d6c0 f   AbstractDOMParser.obj
 0001:0005c770       ?parseFirst@AbstractDOMParser@xercesc_2_2@@QAE_NQBGAAVXMLPScanToken@2@@Z 1205d770 f   AbstractDOMParser.obj
 0001:0005c7c0       ?parseFirst@AbstractDOMParser@xercesc_2_2@@QAE_NQBDAAVXMLPScanToken@2@@Z 1205d7c0 f   AbstractDOMParser.obj
 0001:0005c810       ?parseFirst@AbstractDOMParser@xercesc_2_2@@QAE_NABVInputSource@2@AAVXMLPScanToken@2@@Z 1205d810 f   AbstractDOMParser.obj
 0001:0005c860       ?parseNext@AbstractDOMParser@xercesc_2_2@@QAE_NAAVXMLPScanToken@2@@Z 1205d860 f   AbstractDOMParser.obj
 0001:0005c870       ?parseReset@AbstractDOMParser@xercesc_2_2@@QAEXAAVXMLPScanToken@2@@Z 1205d870 f   AbstractDOMParser.obj
 0001:0005c890       ?docCharacters@AbstractDOMParser@xercesc_2_2@@UAEXQBGI_N@Z 1205d890 f   AbstractDOMParser.obj
 0001:0005c920       ?docComment@AbstractDOMParser@xercesc_2_2@@UAEXQBG@Z 1205d920 f   AbstractDOMParser.obj
 0001:0005c950       ?docPI@AbstractDOMParser@xercesc_2_2@@UAEXQBG0@Z 1205d950 f   AbstractDOMParser.obj
 0001:0005c980       ?endEntityReference@AbstractDOMParser@xercesc_2_2@@UAEXABVXMLEntityDecl@2@@Z 1205d980 f   AbstractDOMParser.obj
 0001:0005cc80       ?endElement@AbstractDOMParser@xercesc_2_2@@UAEXABVXMLElementDecl@2@I_NQBG@Z 1205dc80 f   AbstractDOMParser.obj
 0001:0005cd70       ?ignorableWhitespace@AbstractDOMParser@xercesc_2_2@@UAEXQBGI_N@Z 1205dd70 f   AbstractDOMParser.obj
 0001:0005ce00       ?resetDocument@AbstractDOMParser@xercesc_2_2@@UAEXXZ 1205de00 f   AbstractDOMParser.obj
 0001:0005ce10       ?startDocument@AbstractDOMParser@xercesc_2_2@@UAEXXZ 1205de10 f   AbstractDOMParser.obj
 0001:0005ce80       ?endDocument@AbstractDOMParser@xercesc_2_2@@UAEXXZ 1205de80 f   AbstractDOMParser.obj
 0001:0005ceb0       ?startElement@AbstractDOMParser@xercesc_2_2@@UAEXABVXMLElementDecl@2@IQBGABV?$RefVectorOf@VXMLAttr@xercesc_2_2@@@2@I_N3@Z 1205deb0 f   AbstractDOMParser.obj
 0001:0005d7e0       ?startEntityReference@AbstractDOMParser@xercesc_2_2@@UAEXABVXMLEntityDecl@2@@Z 1205e7e0 f   AbstractDOMParser.obj
 0001:0005d900       ?XMLDecl@AbstractDOMParser@xercesc_2_2@@UAEXQBG000@Z 1205e900 f   AbstractDOMParser.obj
 0001:0005d9a0       ?createElementNSNode@AbstractDOMParser@xercesc_2_2@@MAEPAVDOMElement@2@PBG0@Z 1205e9a0 f   AbstractDOMParser.obj
 0001:0005d9c0       ?getDoValidation@AbstractDOMParser@xercesc_2_2@@QBE_NXZ 1205e9c0 f   AbstractDOMParser.obj
 0001:0005d9d0       ?setDoValidation@AbstractDOMParser@xercesc_2_2@@QAEX_N@Z 1205e9d0 f   AbstractDOMParser.obj
 0001:0005da00       ?attDef@AbstractDOMParser@xercesc_2_2@@UAEXABVDTDElementDecl@2@ABVDTDAttDef@2@_N@Z 1205ea00 f   AbstractDOMParser.obj
 0001:0005de90       ?doctypeComment@AbstractDOMParser@xercesc_2_2@@UAEXQBG@Z 1205ee90 f   AbstractDOMParser.obj
 0001:0005df80       ?doctypeDecl@AbstractDOMParser@xercesc_2_2@@UAEXABVDTDElementDecl@2@QBG1_N2@Z 1205ef80 f   AbstractDOMParser.obj
 0001:0005dfc0       ?doctypePI@AbstractDOMParser@xercesc_2_2@@UAEXQBG0@Z 1205efc0 f   AbstractDOMParser.obj
 0001:0005e0a0       ?doctypeWhitespace@AbstractDOMParser@xercesc_2_2@@UAEXQBGI@Z 1205f0a0 f   AbstractDOMParser.obj
 0001:0005e0d0       ?elementDecl@AbstractDOMParser@xercesc_2_2@@UAEXABVDTDElementDecl@2@_N@Z 1205f0d0 f   AbstractDOMParser.obj
 0001:0005e1e0       ?endAttList@AbstractDOMParser@xercesc_2_2@@UAEXABVDTDElementDecl@2@@Z 1205f1e0 f   AbstractDOMParser.obj
 0001:0005e4d0       ?endIntSubset@AbstractDOMParser@xercesc_2_2@@UAEXXZ 1205f4d0 f   AbstractDOMParser.obj
 0001:0005e500       ?entityDecl@AbstractDOMParser@xercesc_2_2@@UAEXABVDTDEntityDecl@2@_N1@Z 1205f500 f   AbstractDOMParser.obj
 0001:0005e890       ?resetDocType@AbstractDOMParser@xercesc_2_2@@UAEXXZ 1205f890 f   AbstractDOMParser.obj
 0001:0005e8a0       ?notationDecl@AbstractDOMParser@xercesc_2_2@@UAEXABVXMLNotationDecl@2@_N@Z 1205f8a0 f   AbstractDOMParser.obj
 0001:0005eb30       ?startAttList@AbstractDOMParser@xercesc_2_2@@UAEXABVDTDElementDecl@2@@Z 1205fb30 f   AbstractDOMParser.obj
 0001:0005ebe0       ?startIntSubset@AbstractDOMParser@xercesc_2_2@@UAEXXZ 1205fbe0 f   AbstractDOMParser.obj
 0001:0005ebf0       ?TextDecl@AbstractDOMParser@xercesc_2_2@@UAEXQBG0@Z 1205fbf0 f   AbstractDOMParser.obj
 0001:0005ec20       ??_G?$RefVectorOf@VDOMDocumentImpl@xercesc_2_2@@@xercesc_2_2@@UAEPAXI@Z 1205fc20 f i AbstractDOMParser.obj
 0001:0005ec20       ??_E?$RefVectorOf@VDOMDocumentImpl@xercesc_2_2@@@xercesc_2_2@@UAEPAXI@Z 1205fc20 f i AbstractDOMParser.obj
 0001:0005ec40       ??1?$RefVectorOf@VDOMDocumentImpl@xercesc_2_2@@@xercesc_2_2@@UAE@XZ 1205fc40 f i AbstractDOMParser.obj
 0001:0005ecc0       ??1?$BaseRefVectorOf@VDOMDocumentImpl@xercesc_2_2@@@xercesc_2_2@@UAE@XZ 1205fcc0 f i AbstractDOMParser.obj
 0001:0005ecd0       ??_EDOMDocumentImpl@xercesc_2_2@@W3AEPAXI@Z 1205fcd0 f i AbstractDOMParser.obj
 0001:0005ece0       ??_EDOMDocumentImpl@xercesc_2_2@@W7AEPAXI@Z 1205fce0 f i AbstractDOMParser.obj
 0001:0005ecf0       ??_EAbstractDOMParser@xercesc_2_2@@W3AEPAXI@Z 1205fcf0 f i AbstractDOMParser.obj
 0001:0005ed00       ??_EAbstractDOMParser@xercesc_2_2@@W7AEPAXI@Z 1205fd00 f i AbstractDOMParser.obj
 0001:0005ed10       ??_EAbstractDOMParser@xercesc_2_2@@WM@AEPAXI@Z 1205fd10 f i AbstractDOMParser.obj
 0001:0005ed20       ??0DOMBuilder@xercesc_2_2@@IAE@XZ 1205fd20 f i DOMBuilderImpl.obj
 0001:0005ed30       ??0DOMBuilder@xercesc_2_2@@IAE@ABV01@@Z 1205fd30 f i DOMBuilderImpl.obj
 0001:0005ed40       ??1DOMBuilder@xercesc_2_2@@UAE@XZ 1205fd40 f i DOMBuilderImpl.obj
 0001:0005ed50       ??_EDOMBuilder@xercesc_2_2@@UAEPAXI@Z 1205fd50 f i DOMBuilderImpl.obj
 0001:0005edb0       ??_FDOMBuilderImpl@xercesc_2_2@@QAEXXZ 1205fdb0 f i DOMBuilderImpl.obj
 0001:0005edc0       ??0DOMEntityResolver@xercesc_2_2@@IAE@XZ 1205fdc0 f i DOMBuilderImpl.obj
 0001:0005edd0       ??0DOMEntityResolver@xercesc_2_2@@IAE@ABV01@@Z 1205fdd0 f i DOMBuilderImpl.obj
 0001:0005ede0       ??1DOMEntityResolver@xercesc_2_2@@UAE@XZ 1205fde0 f i DOMBuilderImpl.obj
 0001:0005edf0       ??_EDOMEntityResolver@xercesc_2_2@@UAEPAXI@Z 1205fdf0 f i DOMBuilderImpl.obj
 0001:0005ee50       ??0DOMErrorHandler@xercesc_2_2@@IAE@XZ 1205fe50 f i DOMBuilderImpl.obj
 0001:0005ee60       ??0DOMErrorHandler@xercesc_2_2@@IAE@ABV01@@Z 1205fe60 f i DOMBuilderImpl.obj
 0001:0005ee70       ??1DOMErrorHandler@xercesc_2_2@@UAE@XZ 1205fe70 f i DOMBuilderImpl.obj
 0001:0005ee80       ??_EDOMErrorHandler@xercesc_2_2@@UAEPAXI@Z 1205fe80 f i DOMBuilderImpl.obj
 0001:0005eee0       ??0DOMError@xercesc_2_2@@IAE@XZ 1205fee0 f i DOMBuilderImpl.obj
 0001:0005eef0       ??0DOMError@xercesc_2_2@@IAE@ABV01@@Z 1205fef0 f i DOMBuilderImpl.obj
 0001:0005ef00       ??1DOMError@xercesc_2_2@@UAE@XZ 1205ff00 f i DOMBuilderImpl.obj
 0001:0005ef10       ??_EDOMError@xercesc_2_2@@UAEPAXI@Z 1205ff10 f i DOMBuilderImpl.obj
 0001:0005ef70       ?getSeverity@DOMErrorImpl@xercesc_2_2@@UBEFXZ 1205ff70 f i DOMBuilderImpl.obj
 0001:0005ef80       ?setSeverity@DOMErrorImpl@xercesc_2_2@@UAEXF@Z 1205ff80 f i DOMBuilderImpl.obj
 0001:0005ef90       ??0DOMLocator@xercesc_2_2@@IAE@XZ 1205ff90 f i DOMBuilderImpl.obj
 0001:0005efa0       ??0DOMLocator@xercesc_2_2@@IAE@ABV01@@Z 1205ffa0 f i DOMBuilderImpl.obj
 0001:0005efb0       ??1DOMLocator@xercesc_2_2@@UAE@XZ 1205ffb0 f i DOMBuilderImpl.obj
 0001:0005efc0       ??_EDOMLocator@xercesc_2_2@@UAEPAXI@Z 1205ffc0 f i DOMBuilderImpl.obj
 0001:0005f020       ??0DOMBuilderImpl@xercesc_2_2@@QAE@QAVXMLValidator@1@@Z 12060020 f   DOMBuilderImpl.obj
 0001:0005f080       ??_EDOMBuilderImpl@xercesc_2_2@@UAEPAXI@Z 12060080 f i DOMBuilderImpl.obj
 0001:0005f0e0       ??1DOMBuilderImpl@xercesc_2_2@@UAE@XZ 120600e0 f   DOMBuilderImpl.obj
 0001:0005f120       ?setErrorHandler@DOMBuilderImpl@xercesc_2_2@@UAEXQAVDOMErrorHandler@2@@Z 12060120 f   DOMBuilderImpl.obj
 0001:0005f160       ?setEntityResolver@DOMBuilderImpl@xercesc_2_2@@UAEXQAVDOMEntityResolver@2@@Z 12060160 f   DOMBuilderImpl.obj
 0001:0005f190       ?setFeature@DOMBuilderImpl@xercesc_2_2@@UAEXQBG_N@Z 12060190 f   DOMBuilderImpl.obj
 0001:0005f570       ?getFeature@DOMBuilderImpl@xercesc_2_2@@UBE_NQBG@Z 12060570 f   DOMBuilderImpl.obj
 0001:0005f860       ?canSetFeature@DOMBuilderImpl@xercesc_2_2@@UBE_NQBG_N@Z 12060860 f   DOMBuilderImpl.obj
 0001:0005fa70       ?setProperty@DOMBuilderImpl@xercesc_2_2@@UAEXQBGPAX@Z 12060a70 f   DOMBuilderImpl.obj
 0001:0005fb50       ?getProperty@DOMBuilderImpl@xercesc_2_2@@UBEPAXQBG@Z 12060b50 f   DOMBuilderImpl.obj
 0001:0005fbc0       ?release@DOMBuilderImpl@xercesc_2_2@@UAEXXZ 12060bc0 f   DOMBuilderImpl.obj
 0001:0005fbd0       ?resetDocumentPool@DOMBuilderImpl@xercesc_2_2@@UAEXXZ 12060bd0 f   DOMBuilderImpl.obj
 0001:0005fbe0       ?parse@DOMBuilderImpl@xercesc_2_2@@UAEPAVDOMDocument@2@ABVDOMInputSource@2@@Z 12060be0 f   DOMBuilderImpl.obj
 0001:0005fc60       ?parseURI@DOMBuilderImpl@xercesc_2_2@@UAEPAVDOMDocument@2@QBG@Z 12060c60 f   DOMBuilderImpl.obj
 0001:0005fc90       ?parseURI@DOMBuilderImpl@xercesc_2_2@@UAEPAVDOMDocument@2@QBD@Z 12060c90 f   DOMBuilderImpl.obj
 0001:0005fcc0       ?error@DOMBuilderImpl@xercesc_2_2@@UAEXIQBGW4ErrTypes@XMLErrorReporter@2@000JJ@Z 12060cc0 f   DOMBuilderImpl.obj
 0001:0005fdb0       ?resolveEntity@DOMBuilderImpl@xercesc_2_2@@UAEPAVInputSource@2@QBG00@Z 12060db0 f   DOMBuilderImpl.obj
 0001:0005fe40       ?loadGrammar@DOMBuilderImpl@xercesc_2_2@@UAEPAVGrammar@2@QBDF_N@Z 12060e40 f   DOMBuilderImpl.obj
 0001:0005ff10       ?loadGrammar@DOMBuilderImpl@xercesc_2_2@@UAEPAVGrammar@2@QBGF_N@Z 12060f10 f   DOMBuilderImpl.obj
 0001:0005ffe0       ?loadGrammar@DOMBuilderImpl@xercesc_2_2@@UAEPAVGrammar@2@ABVDOMInputSource@2@F_N@Z 12060fe0 f   DOMBuilderImpl.obj
 0001:000600d0       ?resetCachedGrammarPool@DOMBuilderImpl@xercesc_2_2@@UAEXXZ 120610d0 f   DOMBuilderImpl.obj
 0001:000600e0       ?getGrammar@DOMBuilderImpl@xercesc_2_2@@UBEPAVGrammar@2@QBG@Z 120610e0 f   DOMBuilderImpl.obj
 0001:000600f0       ?getRootGrammar@DOMBuilderImpl@xercesc_2_2@@UBEPAVGrammar@2@XZ 120610f0 f   DOMBuilderImpl.obj
 0001:00060100       ?getURIText@DOMBuilderImpl@xercesc_2_2@@UBEPBGI@Z 12061100 f   DOMBuilderImpl.obj
 0001:00060110       ?getSrcOffset@DOMBuilderImpl@xercesc_2_2@@UBEIXZ 12061110 f   DOMBuilderImpl.obj
 0001:00060120       ??_EDOMBuilderImpl@xercesc_2_2@@W3AEPAXI@Z 12061120 f i DOMBuilderImpl.obj
 0001:00060130       ??_EDOMBuilderImpl@xercesc_2_2@@W7AEPAXI@Z 12061130 f i DOMBuilderImpl.obj
 0001:00060140       ??_EDOMBuilderImpl@xercesc_2_2@@WM@AEPAXI@Z 12061140 f i DOMBuilderImpl.obj
 0001:00060150       ??_EDOMBuilderImpl@xercesc_2_2@@WFA@AEPAXI@Z 12061150 f i DOMBuilderImpl.obj
 0001:00060160       ??0ContentHandler@xercesc_2_2@@QAE@XZ 12061160 f i SAX2XMLReaderImpl.obj
 0001:00060170       ??1ContentHandler@xercesc_2_2@@UAE@XZ 12061170 f i SAX2XMLReaderImpl.obj
 0001:00060180       ??_EContentHandler@xercesc_2_2@@UAEPAXI@Z 12061180 f i SAX2XMLReaderImpl.obj
 0001:000601e0       ??0LexicalHandler@xercesc_2_2@@QAE@XZ 120611e0 f i SAX2XMLReaderImpl.obj
 0001:000601f0       ??1LexicalHandler@xercesc_2_2@@UAE@XZ 120611f0 f i SAX2XMLReaderImpl.obj
 0001:00060200       ??_ELexicalHandler@xercesc_2_2@@UAEPAXI@Z 12061200 f i SAX2XMLReaderImpl.obj
 0001:00060260       ??0DeclHandler@xercesc_2_2@@QAE@XZ 12061260 f i SAX2XMLReaderImpl.obj
 0001:00060270       ??1DeclHandler@xercesc_2_2@@UAE@XZ 12061270 f i SAX2XMLReaderImpl.obj
 0001:00060280       ??_EDeclHandler@xercesc_2_2@@UAEPAXI@Z 12061280 f i SAX2XMLReaderImpl.obj
 0001:000602e0       ??_FSAXParser@xercesc_2_2@@QAEXXZ 120612e0 f i SAX2XMLReaderImpl.obj
 0001:000602f0       ??0SAX2XMLReader@xercesc_2_2@@QAE@XZ 120612f0 f i SAX2XMLReaderImpl.obj
 0001:00060300       ??1SAX2XMLReader@xercesc_2_2@@UAE@XZ 12061300 f i SAX2XMLReaderImpl.obj
 0001:00060310       ??_ESAX2XMLReader@xercesc_2_2@@UAEPAXI@Z 12061310 f i SAX2XMLReaderImpl.obj
 0001:00060370       ?getErrorHandler@SAX2XMLReaderImpl@xercesc_2_2@@UBEPAVErrorHandler@2@XZ 12061370 f i SAX2XMLReaderImpl.obj
 0001:00060380       ?getDeclarationHandler@SAX2XMLReaderImpl@xercesc_2_2@@UBEPAVDeclHandler@2@XZ 12061380 f i SAX2XMLReaderImpl.obj
 0001:00060390       ?getExitOnFirstFatalError@SAX2XMLReaderImpl@xercesc_2_2@@UBE_NXZ 12061390 f i SAX2XMLReaderImpl.obj
 0001:000603a0       ?getValidationConstraintFatal@SAX2XMLReaderImpl@xercesc_2_2@@UBE_NXZ 120613a0 f i SAX2XMLReaderImpl.obj
 0001:000603b0       ?getRootGrammar@SAX2XMLReaderImpl@xercesc_2_2@@UAEPAVGrammar@2@XZ 120613b0 f i SAX2XMLReaderImpl.obj
 0001:000603c0       ?getURIText@SAX2XMLReaderImpl@xercesc_2_2@@UBEPBGI@Z 120613c0 f i SAX2XMLReaderImpl.obj
 0001:000603d0       ?getSrcOffset@SAX2XMLReaderImpl@xercesc_2_2@@UBEIXZ 120613d0 f i SAX2XMLReaderImpl.obj
 0001:000603e0       ??0SAX2XMLReaderImpl@xercesc_2_2@@QAE@XZ 120613e0 f   SAX2XMLReaderImpl.obj
 0001:000604e0       ??_ESAX2XMLReaderImpl@xercesc_2_2@@UAEPAXI@Z 120614e0 f i SAX2XMLReaderImpl.obj
 0001:00060540       ??1SAX2XMLReaderImpl@xercesc_2_2@@UAE@XZ 12061540 f   SAX2XMLReaderImpl.obj
 0001:00060610       ?initialize@SAX2XMLReaderImpl@xercesc_2_2@@AAEXXZ 12061610 f   SAX2XMLReaderImpl.obj
 0001:00060800       ?cleanUp@SAX2XMLReaderImpl@xercesc_2_2@@AAEXXZ 12061800 f   SAX2XMLReaderImpl.obj
 0001:00060890       ?installAdvDocHandler@SAX2XMLReaderImpl@xercesc_2_2@@UAEXQAVXMLDocumentHandler@2@@Z 12061890 f   SAX2XMLReaderImpl.obj
 0001:00060970       ?removeAdvDocHandler@SAX2XMLReaderImpl@xercesc_2_2@@UAE_NQAVXMLDocumentHandler@2@@Z 12061970 f   SAX2XMLReaderImpl.obj
 0001:000609f0       ?setValidator@SAX2XMLReaderImpl@xercesc_2_2@@UAEXPAVXMLValidator@2@@Z 120619f0 f   SAX2XMLReaderImpl.obj
 0001:00060a10       ?getValidator@SAX2XMLReaderImpl@xercesc_2_2@@UBEPAVXMLValidator@2@XZ 12061a10 f   SAX2XMLReaderImpl.obj
 0001:00060a20       ?getErrorCount@SAX2XMLReaderImpl@xercesc_2_2@@UBEHXZ 12061a20 f   SAX2XMLReaderImpl.obj
 0001:00060a30       ?setContentHandler@SAX2XMLReaderImpl@xercesc_2_2@@UAEXQAVContentHandler@2@@Z 12061a30 f   SAX2XMLReaderImpl.obj
 0001:00060a70       ?setDTDHandler@SAX2XMLReaderImpl@xercesc_2_2@@UAEXQAVDTDHandler@2@@Z 12061a70 f   SAX2XMLReaderImpl.obj
 0001:00060ab0       ?setErrorHandler@SAX2XMLReaderImpl@xercesc_2_2@@UAEXQAVErrorHandler@2@@Z 12061ab0 f   SAX2XMLReaderImpl.obj
 0001:00060af0       ?setLexicalHandler@SAX2XMLReaderImpl@xercesc_2_2@@UAEXQAVLexicalHandler@2@@Z 12061af0 f   SAX2XMLReaderImpl.obj
 0001:00060b30       ?setDeclarationHandler@SAX2XMLReaderImpl@xercesc_2_2@@UAEXQAVDeclHandler@2@@Z 12061b30 f   SAX2XMLReaderImpl.obj
 0001:00060b70       ?setEntityResolver@SAX2XMLReaderImpl@xercesc_2_2@@UAEXQAVEntityResolver@2@@Z 12061b70 f   SAX2XMLReaderImpl.obj
 0001:00060b90       ?setExitOnFirstFatalError@SAX2XMLReaderImpl@xercesc_2_2@@UAEX_N@Z 12061b90 f   SAX2XMLReaderImpl.obj
 0001:00060ba0       ?setValidationConstraintFatal@SAX2XMLReaderImpl@xercesc_2_2@@UAEX_N@Z 12061ba0 f   SAX2XMLReaderImpl.obj
 0001:00060bb0       ?parse@SAX2XMLReaderImpl@xercesc_2_2@@UAEXABVInputSource@2@@Z 12061bb0 f   SAX2XMLReaderImpl.obj
 0001:00060c60       ?parse@SAX2XMLReaderImpl@xercesc_2_2@@UAEXQBG@Z 12061c60 f   SAX2XMLReaderImpl.obj
 0001:00060d10       ?parse@SAX2XMLReaderImpl@xercesc_2_2@@UAEXQBD@Z 12061d10 f   SAX2XMLReaderImpl.obj
 0001:00060dc0       ?parseFirst@SAX2XMLReaderImpl@xercesc_2_2@@UAE_NQBGAAVXMLPScanToken@2@@Z 12061dc0 f   SAX2XMLReaderImpl.obj
 0001:00060e10       ?parseFirst@SAX2XMLReaderImpl@xercesc_2_2@@UAE_NQBDAAVXMLPScanToken@2@@Z 12061e10 f   SAX2XMLReaderImpl.obj
 0001:00060e60       ?parseFirst@SAX2XMLReaderImpl@xercesc_2_2@@UAE_NABVInputSource@2@AAVXMLPScanToken@2@@Z 12061e60 f   SAX2XMLReaderImpl.obj
 0001:00060eb0       ?parseNext@SAX2XMLReaderImpl@xercesc_2_2@@UAE_NAAVXMLPScanToken@2@@Z 12061eb0 f   SAX2XMLReaderImpl.obj
 0001:00060ec0       ?parseReset@SAX2XMLReaderImpl@xercesc_2_2@@UAEXAAVXMLPScanToken@2@@Z 12061ec0 f   SAX2XMLReaderImpl.obj
 0001:00060ed0       ?docCharacters@SAX2XMLReaderImpl@xercesc_2_2@@UAEXQBGI_N@Z 12061ed0 f   SAX2XMLReaderImpl.obj
 0001:00060f50       ?docComment@SAX2XMLReaderImpl@xercesc_2_2@@UAEXQBG@Z 12061f50 f   SAX2XMLReaderImpl.obj
 0001:00060fb0       ?XMLDecl@SAX2XMLReaderImpl@xercesc_2_2@@UAEXQBG000@Z 12061fb0 f   SAX2XMLReaderImpl.obj
 0001:00060ff0       ?docPI@SAX2XMLReaderImpl@xercesc_2_2@@UAEXQBG0@Z 12061ff0 f   SAX2XMLReaderImpl.obj
 0001:00061040       ?endDocument@SAX2XMLReaderImpl@xercesc_2_2@@UAEXXZ 12062040 f   SAX2XMLReaderImpl.obj
 0001:00061070       ?endEntityReference@SAX2XMLReaderImpl@xercesc_2_2@@UAEXABVXMLEntityDecl@2@@Z 12062070 f   SAX2XMLReaderImpl.obj
 0001:000610b0       ?ignorableWhitespace@SAX2XMLReaderImpl@xercesc_2_2@@UAEXQBGI_N@Z 120620b0 f   SAX2XMLReaderImpl.obj
 0001:00061100       ?resetDocument@SAX2XMLReaderImpl@xercesc_2_2@@UAEXXZ 12062100 f   SAX2XMLReaderImpl.obj
 0001:00061290       ?startDocument@SAX2XMLReaderImpl@xercesc_2_2@@UAEXXZ 12062290 f   SAX2XMLReaderImpl.obj
 0001:000612d0       ?startElement@SAX2XMLReaderImpl@xercesc_2_2@@UAEXABVXMLElementDecl@2@IQBGABV?$RefVectorOf@VXMLAttr@xercesc_2_2@@@2@I_N3@Z 120622d0 f   SAX2XMLReaderImpl.obj
 0001:00061820       ?endElement@SAX2XMLReaderImpl@xercesc_2_2@@UAEXABVXMLElementDecl@2@I_NQBG@Z 12062820 f   SAX2XMLReaderImpl.obj
 0001:00061a60       ?startEntityReference@SAX2XMLReaderImpl@xercesc_2_2@@UAEXABVXMLEntityDecl@2@@Z 12062a60 f   SAX2XMLReaderImpl.obj
 0001:00061aa0       ?attDef@SAX2XMLReaderImpl@xercesc_2_2@@UAEXABVDTDElementDecl@2@ABVDTDAttDef@2@_N@Z 12062aa0 f   SAX2XMLReaderImpl.obj
 0001:00061cf0       ?doctypeComment@SAX2XMLReaderImpl@xercesc_2_2@@UAEXQBG@Z 12062cf0 f   SAX2XMLReaderImpl.obj
 0001:00061d40       ?doctypeDecl@SAX2XMLReaderImpl@xercesc_2_2@@UAEXABVDTDElementDecl@2@QBG1_N2@Z 12062d40 f   SAX2XMLReaderImpl.obj
 0001:00061da0       ?elementDecl@SAX2XMLReaderImpl@xercesc_2_2@@UAEXABVDTDElementDecl@2@_N@Z 12062da0 f   SAX2XMLReaderImpl.obj
 0001:00061de0       ?endIntSubset@SAX2XMLReaderImpl@xercesc_2_2@@UAEXXZ 12062de0 f   SAX2XMLReaderImpl.obj
 0001:00061e00       ?endExtSubset@SAX2XMLReaderImpl@xercesc_2_2@@UAEXXZ 12062e00 f   SAX2XMLReaderImpl.obj
 0001:00061e20       ?entityDecl@SAX2XMLReaderImpl@xercesc_2_2@@UAEXABVDTDEntityDecl@2@_N1@Z 12062e20 f   SAX2XMLReaderImpl.obj
 0001:00061f30       ?resetDocType@SAX2XMLReaderImpl@xercesc_2_2@@UAEXXZ 12062f30 f   SAX2XMLReaderImpl.obj
 0001:00061f50       ?notationDecl@SAX2XMLReaderImpl@xercesc_2_2@@UAEXABVXMLNotationDecl@2@_N@Z 12062f50 f   SAX2XMLReaderImpl.obj
 0001:00061f80       ?startExtSubset@SAX2XMLReaderImpl@xercesc_2_2@@UAEXXZ 12062f80 f   SAX2XMLReaderImpl.obj
 0001:00061fa0       ?resolveEntity@SAX2XMLReaderImpl@xercesc_2_2@@UAEPAVInputSource@2@QBG00@Z 12062fa0 f   SAX2XMLReaderImpl.obj
 0001:00061fc0       ?resetErrors@SAX2XMLReaderImpl@xercesc_2_2@@UAEXXZ 12062fc0 f   SAX2XMLReaderImpl.obj
 0001:00061fd0       ?error@SAX2XMLReaderImpl@xercesc_2_2@@UAEXIQBGW4ErrTypes@XMLErrorReporter@2@000JJ@Z 12062fd0 f   SAX2XMLReaderImpl.obj
 0001:00062090       ?setFeature@SAX2XMLReaderImpl@xercesc_2_2@@UAEXQBG_N@Z 12063090 f   SAX2XMLReaderImpl.obj
 0001:00062320       ?getFeature@SAX2XMLReaderImpl@xercesc_2_2@@UBE_NQBG@Z 12063320 f   SAX2XMLReaderImpl.obj
 0001:000624f0       ?setProperty@SAX2XMLReaderImpl@xercesc_2_2@@UAEXQBGPAX@Z 120634f0 f   SAX2XMLReaderImpl.obj
 0001:000626e0       ?getProperty@SAX2XMLReaderImpl@xercesc_2_2@@UBEPAXQBG@Z 120636e0 f   SAX2XMLReaderImpl.obj
 0001:000627b0       ?setValidationScheme@SAX2XMLReaderImpl@xercesc_2_2@@AAEXW4ValSchemes@SAX2XMLReader@2@@Z 120637b0 f   SAX2XMLReaderImpl.obj
 0001:00062800       ?setDoNamespaces@SAX2XMLReaderImpl@xercesc_2_2@@AAEX_N@Z 12063800 f   SAX2XMLReaderImpl.obj
 0001:00062810       ?getDoNamespaces@SAX2XMLReaderImpl@xercesc_2_2@@ABE_NXZ 12063810 f   SAX2XMLReaderImpl.obj
 0001:00062820       ?setDoSchema@SAX2XMLReaderImpl@xercesc_2_2@@AAEX_N@Z 12063820 f   SAX2XMLReaderImpl.obj
 0001:00062830       ?getDoSchema@SAX2XMLReaderImpl@xercesc_2_2@@ABE_NXZ 12063830 f   SAX2XMLReaderImpl.obj
 0001:00062840       ?loadGrammar@SAX2XMLReaderImpl@xercesc_2_2@@UAEPAVGrammar@2@QBDF_N@Z 12063840 f   SAX2XMLReaderImpl.obj
 0001:000628f0       ?loadGrammar@SAX2XMLReaderImpl@xercesc_2_2@@UAEPAVGrammar@2@QBGF_N@Z 120638f0 f   SAX2XMLReaderImpl.obj
 0001:000629a0       ?loadGrammar@SAX2XMLReaderImpl@xercesc_2_2@@UAEPAVGrammar@2@ABVInputSource@2@F_N@Z 120639a0 f   SAX2XMLReaderImpl.obj
 0001:00062a50       ?resetCachedGrammarPool@SAX2XMLReaderImpl@xercesc_2_2@@UAEXXZ 12063a50 f   SAX2XMLReaderImpl.obj
 0001:00062a60       ?getGrammar@SAX2XMLReaderImpl@xercesc_2_2@@UAEPAVGrammar@2@QBG@Z 12063a60 f   SAX2XMLReaderImpl.obj
 0001:00062a70       ??1?$RefStackOf@VXMLBuffer@xercesc_2_2@@@xercesc_2_2@@QAE@XZ 12063a70 f i SAX2XMLReaderImpl.obj
 0001:00062b00       ??1?$BaseRefVectorOf@VXMLBuffer@xercesc_2_2@@@xercesc_2_2@@UAE@XZ 12063b00 f i SAX2XMLReaderImpl.obj
 0001:00062b10       ??1?$ValueVectorOf@W4NodeTypes@ContentSpecNode@xercesc_2_2@@@xercesc_2_2@@QAE@XZ 12063b10 f i SAX2XMLReaderImpl.obj
 0001:00062b10       ??1?$ValueVectorOf@I@xercesc_2_2@@QAE@XZ 12063b10 f i SAX2XMLReaderImpl.obj
 0001:00062b10       ??1?$ValueVectorOf@PAVQName@xercesc_2_2@@@xercesc_2_2@@QAE@XZ 12063b10 f i SAX2XMLReaderImpl.obj
 0001:00062b10       ??1?$ValueStackOf@I@xercesc_2_2@@QAE@XZ 12063b10 f i SAX2XMLReaderImpl.obj
 0001:00062b10       ??1?$ValueStackOf@PAVDOMNode@xercesc_2_2@@@xercesc_2_2@@QAE@XZ 12063b10 f i SAX2XMLReaderImpl.obj
 0001:00062b10       ??1?$ValueVectorOf@PAVXercesAttGroupInfo@xercesc_2_2@@@xercesc_2_2@@QAE@XZ 12063b10 f i SAX2XMLReaderImpl.obj
 0001:00062b10       ??1?$ValueVectorOf@_N@xercesc_2_2@@QAE@XZ 12063b10 f i SAX2XMLReaderImpl.obj
 0001:00062b10       ??1?$ValueVectorOf@H@xercesc_2_2@@QAE@XZ 12063b10 f i SAX2XMLReaderImpl.obj
 0001:00062b10       ??1?$ValueStackOf@H@xercesc_2_2@@QAE@XZ 12063b10 f i SAX2XMLReaderImpl.obj
 0001:00062b10       ??1?$ValueVectorOf@PAVContentSpecNode@xercesc_2_2@@@xercesc_2_2@@QAE@XZ 12063b10 f i SAX2XMLReaderImpl.obj
 0001:00062b10       ??1?$ValueVectorOf@PAG@xercesc_2_2@@QAE@XZ 12063b10 f i SAX2XMLReaderImpl.obj
 0001:00062b20       ??_G?$RefVectorOf@VXMLBuffer@xercesc_2_2@@@xercesc_2_2@@UAEPAXI@Z 12063b20 f i SAX2XMLReaderImpl.obj
 0001:00062b20       ??_E?$RefVectorOf@VXMLBuffer@xercesc_2_2@@@xercesc_2_2@@UAEPAXI@Z 12063b20 f i SAX2XMLReaderImpl.obj
 0001:00062b40       ??1?$RefVectorOf@VXMLBuffer@xercesc_2_2@@@xercesc_2_2@@UAE@XZ 12063b40 f i SAX2XMLReaderImpl.obj
 0001:00062bd0       ?orphanElementAt@?$BaseRefVectorOf@VXMLReader@xercesc_2_2@@@xercesc_2_2@@QAEPAVXMLReader@2@I@Z 12063bd0 f i SAX2XMLReaderImpl.obj
 0001:00062bd0       ?orphanElementAt@?$BaseRefVectorOf@V?$RefHashTableOf@VValueStore@xercesc_2_2@@@xercesc_2_2@@@xercesc_2_2@@QAEPAV?$RefHashTableOf@VValueStore@xercesc_2_2@@@2@I@Z 12063bd0 f i SAX2XMLReaderImpl.obj
 0001:00062bd0       ?orphanElementAt@?$BaseRefVectorOf@VXMLEntityDecl@xercesc_2_2@@@xercesc_2_2@@QAEPAVXMLEntityDecl@2@I@Z 12063bd0 f i SAX2XMLReaderImpl.obj
 0001:00062bd0       ?orphanElementAt@?$BaseRefVectorOf@VXMLBuffer@xercesc_2_2@@@xercesc_2_2@@QAEPAVXMLBuffer@2@I@Z 12063bd0 f i SAX2XMLReaderImpl.obj
 0001:00062c60       ??_ESAX2XMLReaderImpl@xercesc_2_2@@W3AEPAXI@Z 12063c60 f i SAX2XMLReaderImpl.obj
 0001:00062c70       ??_ESAX2XMLReaderImpl@xercesc_2_2@@W7AEPAXI@Z 12063c70 f i SAX2XMLReaderImpl.obj
 0001:00062c80       ??_ESAX2XMLReaderImpl@xercesc_2_2@@WM@AEPAXI@Z 12063c80 f i SAX2XMLReaderImpl.obj
 0001:00062c90       ??_ESAX2XMLReaderImpl@xercesc_2_2@@WBA@AEPAXI@Z 12063c90 f i SAX2XMLReaderImpl.obj
 0001:00062ca0       ??0SAXParser@xercesc_2_2@@QAE@QAVXMLValidator@1@@Z 12063ca0 f   SAXParser.obj
 0001:00062df0       ??_ESAXParser@xercesc_2_2@@UAEPAXI@Z 12063df0 f i SAXParser.obj
 0001:00062e50       ??1SAXParser@xercesc_2_2@@UAE@XZ 12063e50 f   SAXParser.obj
 0001:00062f80       ?initialize@SAXParser@xercesc_2_2@@AAEXXZ 12063f80 f   SAXParser.obj
 0001:00063060       ?cleanUp@SAXParser@xercesc_2_2@@AAEXXZ 12064060 f   SAXParser.obj
 0001:000630c0       ?installAdvDocHandler@SAXParser@xercesc_2_2@@QAEXQAVXMLDocumentHandler@2@@Z 120640c0 f   SAXParser.obj
 0001:000631a0       ?removeAdvDocHandler@SAXParser@xercesc_2_2@@QAE_NQAVXMLDocumentHandler@2@@Z 120641a0 f   SAXParser.obj
 0001:00063220       ?getValidator@SAXParser@xercesc_2_2@@QBEABVXMLValidator@2@XZ 12064220 f   SAXParser.obj
 0001:00063230       ?getDoNamespaces@SAXParser@xercesc_2_2@@QBE_NXZ 12064230 f   SAXParser.obj
 0001:00063240       ?getExitOnFirstFatalError@SAXParser@xercesc_2_2@@QBE_NXZ 12064240 f   SAXParser.obj
 0001:00063250       ?getValidationConstraintFatal@SAXParser@xercesc_2_2@@QBE_NXZ 12064250 f   SAXParser.obj
 0001:00063260       ?getValidationScheme@SAXParser@xercesc_2_2@@QBE?AW4ValSchemes@12@XZ 12064260 f   SAXParser.obj
 0001:00063280       ?getDoSchema@SAXParser@xercesc_2_2@@QBE_NXZ 12064280 f   SAXParser.obj
 0001:00063290       ?getValidationSchemaFullChecking@SAXParser@xercesc_2_2@@QBE_NXZ 12064290 f   SAXParser.obj
 0001:000632a0       ?getErrorCount@SAXParser@xercesc_2_2@@QBEHXZ 120642a0 f   SAXParser.obj
 0001:000632b0       ?getExternalSchemaLocation@SAXParser@xercesc_2_2@@QBEPAGXZ 120642b0 f   SAXParser.obj
 0001:000632c0       ?getExternalNoNamespaceSchemaLocation@SAXParser@xercesc_2_2@@QBEPAGXZ 120642c0 f   SAXParser.obj
 0001:000632d0       ?getLoadExternalDTD@SAXParser@xercesc_2_2@@QBE_NXZ 120642d0 f   SAXParser.obj
 0001:000632e0       ?isCachingGrammarFromParse@SAXParser@xercesc_2_2@@QBE_NXZ 120642e0 f   SAXParser.obj
 0001:000632f0       ?isUsingCachedGrammarInParse@SAXParser@xercesc_2_2@@QBE_NXZ 120642f0 f   SAXParser.obj
 0001:00063300       ?getCalculateSrcOfs@SAXParser@xercesc_2_2@@QBE_NXZ 12064300 f   SAXParser.obj
 0001:00063310       ?getStandardUriConformant@SAXParser@xercesc_2_2@@QBE_NXZ 12064310 f   SAXParser.obj
 0001:00063320       ?getGrammar@SAXParser@xercesc_2_2@@QAEPAVGrammar@2@QBG@Z 12064320 f   SAXParser.obj
 0001:00063330       ?getRootGrammar@SAXParser@xercesc_2_2@@QAEPAVGrammar@2@XZ 12064330 f   SAXParser.obj
 0001:00063340       ?getURIText@SAXParser@xercesc_2_2@@QBEPBGI@Z 12064340 f   SAXParser.obj
 0001:00063350       ?getSrcOffset@SAXParser@xercesc_2_2@@QBEIXZ 12064350 f   SAXParser.obj
 0001:00063360       ?setDoNamespaces@SAXParser@xercesc_2_2@@QAEX_N@Z 12064360 f   SAXParser.obj
 0001:00063370       ?setExitOnFirstFatalError@SAXParser@xercesc_2_2@@QAEX_N@Z 12064370 f   SAXParser.obj
 0001:00063380       ?setValidationConstraintFatal@SAXParser@xercesc_2_2@@QAEX_N@Z 12064380 f   SAXParser.obj
 0001:00063390       ?setValidationScheme@SAXParser@xercesc_2_2@@QAEXW4ValSchemes@12@@Z 12064390 f   SAXParser.obj
 0001:000633e0       ?setDoSchema@SAXParser@xercesc_2_2@@QAEX_N@Z 120643e0 f   SAXParser.obj
 0001:000633f0       ?setValidationSchemaFullChecking@SAXParser@xercesc_2_2@@QAEX_N@Z 120643f0 f   SAXParser.obj
 0001:00063400       ?setExternalSchemaLocation@SAXParser@xercesc_2_2@@QAEXQBG@Z 12064400 f   SAXParser.obj
 0001:00063480       ?setExternalNoNamespaceSchemaLocation@SAXParser@xercesc_2_2@@QAEXQBG@Z 12064480 f   SAXParser.obj
 0001:00063500       ?setExternalSchemaLocation@SAXParser@xercesc_2_2@@QAEXQBD@Z 12064500 f   SAXParser.obj
 0001:00063530       ?setExternalNoNamespaceSchemaLocation@SAXParser@xercesc_2_2@@QAEXQBD@Z 12064530 f   SAXParser.obj
 0001:00063560       ?setLoadExternalDTD@SAXParser@xercesc_2_2@@QAEX_N@Z 12064560 f   SAXParser.obj
 0001:00063570       ?cacheGrammarFromParse@SAXParser@xercesc_2_2@@QAEX_N@Z 12064570 f   SAXParser.obj
 0001:00063590       ?useCachedGrammarInParse@SAXParser@xercesc_2_2@@QAEX_N@Z 12064590 f   SAXParser.obj
 0001:000635b0       ?setCalculateSrcOfs@SAXParser@xercesc_2_2@@QAEX_N@Z 120645b0 f   SAXParser.obj
 0001:000635c0       ?setStandardUriConformant@SAXParser@xercesc_2_2@@QAEX_N@Z 120645c0 f   SAXParser.obj
 0001:000635d0       ?useScanner@SAXParser@xercesc_2_2@@QAEXQBG@Z 120645d0 f   SAXParser.obj
 0001:00063620       ?parse@SAXParser@xercesc_2_2@@UAEXABVInputSource@2@@Z 12064620 f   SAXParser.obj
 0001:000636d0       ?parse@SAXParser@xercesc_2_2@@UAEXQBG@Z 120646d0 f   SAXParser.obj
 0001:00063780       ?parse@SAXParser@xercesc_2_2@@UAEXQBD@Z 12064780 f   SAXParser.obj
 0001:00063830       ?setDocumentHandler@SAXParser@xercesc_2_2@@UAEXQAVDocumentHandler@2@@Z 12064830 f   SAXParser.obj
 0001:00063870       ?setDTDHandler@SAXParser@xercesc_2_2@@UAEXQAVDTDHandler@2@@Z 12064870 f   SAXParser.obj
 0001:000638b0       ?setErrorHandler@SAXParser@xercesc_2_2@@UAEXQAVErrorHandler@2@@Z 120648b0 f   SAXParser.obj
 0001:000638f0       ?setEntityResolver@SAXParser@xercesc_2_2@@UAEXQAVEntityResolver@2@@Z 120648f0 f   SAXParser.obj
 0001:00063910       ?parseFirst@SAXParser@xercesc_2_2@@QAE_NQBGAAVXMLPScanToken@2@@Z 12064910 f   SAXParser.obj
 0001:00063960       ?parseFirst@SAXParser@xercesc_2_2@@QAE_NQBDAAVXMLPScanToken@2@@Z 12064960 f   SAXParser.obj
 0001:000639b0       ?parseFirst@SAXParser@xercesc_2_2@@QAE_NABVInputSource@2@AAVXMLPScanToken@2@@Z 120649b0 f   SAXParser.obj
 0001:00063a00       ?parseNext@SAXParser@xercesc_2_2@@QAE_NAAVXMLPScanToken@2@@Z 12064a00 f   SAXParser.obj
 0001:00063a10       ?parseReset@SAXParser@xercesc_2_2@@QAEXAAVXMLPScanToken@2@@Z 12064a10 f   SAXParser.obj
 0001:00063a20       ?docCharacters@SAXParser@xercesc_2_2@@UAEXQBGI_N@Z 12064a20 f   SAXParser.obj
 0001:00063a70       ?docComment@SAXParser@xercesc_2_2@@UAEXQBG@Z 12064a70 f   SAXParser.obj
 0001:00063aa0       ?XMLDecl@SAXParser@xercesc_2_2@@UAEXQBG000@Z 12064aa0 f   SAXParser.obj
 0001:00063ae0       ?docPI@SAXParser@xercesc_2_2@@UAEXQBG0@Z 12064ae0 f   SAXParser.obj
 0001:00063b30       ?endDocument@SAXParser@xercesc_2_2@@UAEXXZ 12064b30 f   SAXParser.obj
 0001:00063b60       ?endElement@SAXParser@xercesc_2_2@@UAEXABVXMLElementDecl@2@I_NQBG@Z 12064b60 f   SAXParser.obj
 0001:00063c40       ?endEntityReference@SAXParser@xercesc_2_2@@UAEXABVXMLEntityDecl@2@@Z 12064c40 f   SAXParser.obj
 0001:00063c70       ?ignorableWhitespace@SAXParser@xercesc_2_2@@UAEXQBGI_N@Z 12064c70 f   SAXParser.obj
 0001:00063cc0       ?resetDocument@SAXParser@xercesc_2_2@@UAEXXZ 12064cc0 f   SAXParser.obj
 0001:00063d00       ?startDocument@SAXParser@xercesc_2_2@@UAEXXZ 12064d00 f   SAXParser.obj
 0001:00063d40       ?startElement@SAXParser@xercesc_2_2@@UAEXABVXMLElementDecl@2@IQBGABV?$RefVectorOf@VXMLAttr@xercesc_2_2@@@2@I_N3@Z 12064d40 f   SAXParser.obj
 0001:00063ea0       ?startEntityReference@SAXParser@xercesc_2_2@@UAEXABVXMLEntityDecl@2@@Z 12064ea0 f   SAXParser.obj
 0001:00063ed0       ?doctypeDecl@SAXParser@xercesc_2_2@@UAEXABVDTDElementDecl@2@QBG1_N2@Z 12064ed0 f   SAXParser.obj
 0001:00063ee0       ?entityDecl@SAXParser@xercesc_2_2@@UAEXABVDTDEntityDecl@2@_N1@Z 12064ee0 f   SAXParser.obj
 0001:00063f20       ?resetDocType@SAXParser@xercesc_2_2@@UAEXXZ 12064f20 f   SAXParser.obj
 0001:00063f30       ?notationDecl@SAXParser@xercesc_2_2@@UAEXABVXMLNotationDecl@2@_N@Z 12064f30 f   SAXParser.obj
 0001:00063f60       ?doctypePI@SAX2XMLReaderImpl@xercesc_2_2@@UAEXQBG0@Z 12064f60 f   SAXParser.obj
 0001:00063f60       ?doctypeWhitespace@SAX2XMLReaderImpl@xercesc_2_2@@UAEXQBGI@Z 12064f60 f   SAXParser.obj
 0001:00063f60       ?doctypePI@SAXParser@xercesc_2_2@@UAEXQBG0@Z 12064f60 f   SAXParser.obj
 0001:00063f60       ?doctypeWhitespace@SAXParser@xercesc_2_2@@UAEXQBGI@Z 12064f60 f   SAXParser.obj
 0001:00063f60       ?TextDecl@SAXParser@xercesc_2_2@@UAEXQBG0@Z 12064f60 f   SAXParser.obj
 0001:00063f60       ?TextDecl@DOMParser@xercesc_2_2@@UAEXQBG0@Z 12064f60 f   SAXParser.obj
 0001:00063f60       ?elementDecl@SAXParser@xercesc_2_2@@UAEXABVDTDElementDecl@2@_N@Z 12064f60 f   SAXParser.obj
 0001:00063f60       ?TextDecl@SAX2XMLReaderImpl@xercesc_2_2@@UAEXQBG0@Z 12064f60 f   SAXParser.obj
 0001:00063f70       ?resetErrors@SAXParser@xercesc_2_2@@UAEXXZ 12064f70 f   SAXParser.obj
 0001:00063f80       ?error@SAXParser@xercesc_2_2@@UAEXIQBGW4ErrTypes@XMLErrorReporter@2@000JJ@Z 12064f80 f   SAXParser.obj
 0001:00064040       ?resolveEntity@SAXParser@xercesc_2_2@@UAEPAVInputSource@2@QBG00@Z 12065040 f   SAXParser.obj
 0001:00064060       ?getDoValidation@SAXParser@xercesc_2_2@@QBE_NXZ 12065060 f   SAXParser.obj
 0001:00064070       ?setDoValidation@SAXParser@xercesc_2_2@@QAEX_N@Z 12065070 f   SAXParser.obj
 0001:000640a0       ?loadGrammar@SAXParser@xercesc_2_2@@QAEPAVGrammar@2@QBDF_N@Z 120650a0 f   SAXParser.obj
 0001:00064150       ?loadGrammar@SAXParser@xercesc_2_2@@QAEPAVGrammar@2@QBGF_N@Z 12065150 f   SAXParser.obj
 0001:00064200       ?loadGrammar@SAXParser@xercesc_2_2@@QAEPAVGrammar@2@ABVInputSource@2@F_N@Z 12065200 f   SAXParser.obj
 0001:000642b0       ?resetCachedGrammarPool@SAXParser@xercesc_2_2@@QAEXXZ 120652b0 f   SAXParser.obj
 0001:000642c0       ??_ESAXParser@xercesc_2_2@@W3AEPAXI@Z 120652c0 f i SAXParser.obj
 0001:000642d0       ??_ESAXParser@xercesc_2_2@@W7AEPAXI@Z 120652d0 f i SAXParser.obj
 0001:000642e0       ??_ESAXParser@xercesc_2_2@@WM@AEPAXI@Z 120652e0 f i SAXParser.obj
 0001:000642f0       ??_ESAXParser@xercesc_2_2@@WBA@AEPAXI@Z 120652f0 f i SAXParser.obj
 0001:00064300       ??0XercesDOMParser@xercesc_2_2@@QAE@QAVXMLValidator@1@@Z 12065300 f   XercesDOMParser.obj
 0001:00064340       ??_EXercesDOMParser@xercesc_2_2@@UAEPAXI@Z 12065340 f i XercesDOMParser.obj
 0001:000643a0       ??1XercesDOMParser@xercesc_2_2@@UAE@XZ 120653a0 f   XercesDOMParser.obj
 0001:000643c0       ?isCachingGrammarFromParse@XercesDOMParser@xercesc_2_2@@QBE_NXZ 120653c0 f   XercesDOMParser.obj
 0001:000643d0       ?isUsingCachedGrammarInParse@XercesDOMParser@xercesc_2_2@@QBE_NXZ 120653d0 f   XercesDOMParser.obj
 0001:000643e0       ?getGrammar@XercesDOMParser@xercesc_2_2@@QAEPAVGrammar@2@QBG@Z 120653e0 f   XercesDOMParser.obj
 0001:000643f0       ?getRootGrammar@XercesDOMParser@xercesc_2_2@@QAEPAVGrammar@2@XZ 120653f0 f   XercesDOMParser.obj
 0001:00064400       ?getURIText@XercesDOMParser@xercesc_2_2@@QBEPBGI@Z 12065400 f   XercesDOMParser.obj
 0001:00064410       ?getSrcOffset@XercesDOMParser@xercesc_2_2@@QBEIXZ 12065410 f   XercesDOMParser.obj
 0001:00064420       ?setErrorHandler@XercesDOMParser@xercesc_2_2@@QAEXQAVErrorHandler@2@@Z 12065420 f   XercesDOMParser.obj
 0001:00064460       ?setEntityResolver@XercesDOMParser@xercesc_2_2@@QAEXQAVEntityResolver@2@@Z 12065460 f   XercesDOMParser.obj
 0001:00064480       ?cacheGrammarFromParse@XercesDOMParser@xercesc_2_2@@QAEX_N@Z 12065480 f   XercesDOMParser.obj
 0001:000644a0       ?useCachedGrammarInParse@XercesDOMParser@xercesc_2_2@@QAEX_N@Z 120654a0 f   XercesDOMParser.obj
 0001:000644c0       ?resetDocumentPool@XercesDOMParser@xercesc_2_2@@QAEXXZ 120654c0 f   XercesDOMParser.obj
 0001:000644d0       ?error@XercesDOMParser@xercesc_2_2@@UAEXIQBGW4ErrTypes@XMLErrorReporter@2@000JJ@Z 120654d0 f   XercesDOMParser.obj
 0001:00064590       ?resolveEntity@XercesDOMParser@xercesc_2_2@@UAEPAVInputSource@2@QBG00@Z 12065590 f   XercesDOMParser.obj
 0001:000645b0       ?loadGrammar@XercesDOMParser@xercesc_2_2@@QAEPAVGrammar@2@QBDF_N@Z 120655b0 f   XercesDOMParser.obj
 0001:00064660       ?loadGrammar@XercesDOMParser@xercesc_2_2@@QAEPAVGrammar@2@QBGF_N@Z 12065660 f   XercesDOMParser.obj
 0001:00064710       ?loadGrammar@XercesDOMParser@xercesc_2_2@@QAEPAVGrammar@2@ABVInputSource@2@F_N@Z 12065710 f   XercesDOMParser.obj
 0001:000647c0       ?resetCachedGrammarPool@XercesDOMParser@xercesc_2_2@@QAEXXZ 120657c0 f   XercesDOMParser.obj
 0001:000647d0       ??_EXercesDOMParser@xercesc_2_2@@W3AEPAXI@Z 120657d0 f i XercesDOMParser.obj
 0001:000647e0       ??_EXercesDOMParser@xercesc_2_2@@W7AEPAXI@Z 120657e0 f i XercesDOMParser.obj
 0001:000647f0       ??_EXercesDOMParser@xercesc_2_2@@WM@AEPAXI@Z 120657f0 f i XercesDOMParser.obj
 0001:00064800       ??0AllContentModel@xercesc_2_2@@QAE@QAVContentSpecNode@1@_N@Z 12065800 f   AllContentModel.obj
 0001:000649f0       ?getNextState@SimpleContentModel@xercesc_2_2@@UBEIII@Z 120659f0 f i AllContentModel.obj
 0001:000649f0       ?getNextState@MixedContentModel@xercesc_2_2@@UBEIII@Z 120659f0 f i AllContentModel.obj
 0001:000649f0       ?getNextState@AllContentModel@xercesc_2_2@@UBEIII@Z 120659f0 f i AllContentModel.obj
 0001:00064a00       ??_EAllContentModel@xercesc_2_2@@UAEPAXI@Z 12065a00 f i AllContentModel.obj
 0001:00064a00       ??_GAllContentModel@xercesc_2_2@@UAEPAXI@Z 12065a00 f i AllContentModel.obj
 0001:00064a20       ??1AllContentModel@xercesc_2_2@@UAE@XZ 12065a20 f   AllContentModel.obj
 0001:00064a80       ?validateContent@AllContentModel@xercesc_2_2@@UBEHQAPAVQName@2@II@Z 12065a80 f   AllContentModel.obj
 0001:00064bf0       ?validateContentSpecial@AllContentModel@xercesc_2_2@@UBEHQAPAVQName@2@IIQAVGrammarResolver@2@QAVXMLStringPool@2@@Z 12065bf0 f   AllContentModel.obj
 0001:00064d30       ?checkUniqueParticleAttribution@AllContentModel@xercesc_2_2@@UAEXQAVSchemaGrammar@2@QAVGrammarResolver@2@QAVXMLStringPool@2@QAVXMLValidator@2@QAI@Z 12065d30 f   AllContentModel.obj
 0001:00064e50       ?buildChildList@AllContentModel@xercesc_2_2@@AAEXQAVContentSpecNode@2@AAV?$ValueVectorOf@PAVQName@xercesc_2_2@@@2@AAV?$ValueVectorOf@_N@2@@Z 12065e50 f   AllContentModel.obj
 0001:00065030       ?ensureExtraCapacity@?$ValueVectorOf@_N@xercesc_2_2@@QAEXI@Z 12066030 f i AllContentModel.obj
 0001:000650b0       ??0CMAny@xercesc_2_2@@QAE@W4NodeTypes@ContentSpecNode@1@II@Z 120660b0 f   CMAny.obj
 0001:00065170       ??1CMNode@xercesc_2_2@@UAE@XZ 12066170 f i CMAny.obj
 0001:000651c0       ??_ECMNode@xercesc_2_2@@UAEPAXI@Z 120661c0 f i CMAny.obj
 0001:000651c0       ??_GCMNode@xercesc_2_2@@UAEPAXI@Z 120661c0 f i CMAny.obj
 0001:00065230       ??_ECMAny@xercesc_2_2@@UAEPAXI@Z 12066230 f i CMAny.obj
 0001:00065230       ??_GCMAny@xercesc_2_2@@UAEPAXI@Z 12066230 f i CMAny.obj
 0001:00065250       ??1CMAny@xercesc_2_2@@UAE@XZ 12066250 f   CMAny.obj
 0001:000652a0       ?isNullable@CMAny@xercesc_2_2@@UBE_NXZ 120662a0 f   CMAny.obj
 0001:000652b0       ?calcFirstPos@CMAny@xercesc_2_2@@MBEXAAVCMStateSet@2@@Z 120662b0 f   CMAny.obj
 0001:000652b0       ?calcLastPos@CMAny@xercesc_2_2@@MBEXAAVCMStateSet@2@@Z 120662b0 f   CMAny.obj
 0001:000653a0       ??0CMBinaryOp@xercesc_2_2@@QAE@W4NodeTypes@ContentSpecNode@1@QAVCMNode@1@1@Z 120663a0 f   CMBinaryOp.obj
 0001:00065450       ??_GCMBinaryOp@xercesc_2_2@@UAEPAXI@Z 12066450 f i CMBinaryOp.obj
 0001:00065450       ??_ECMBinaryOp@xercesc_2_2@@UAEPAXI@Z 12066450 f i CMBinaryOp.obj
 0001:00065470       ??1CMBinaryOp@xercesc_2_2@@UAE@XZ 12066470 f   CMBinaryOp.obj
 0001:00065520       ?isNullable@CMBinaryOp@xercesc_2_2@@UBE_NXZ 12066520 f   CMBinaryOp.obj
 0001:00065570       ?calcFirstPos@CMBinaryOp@xercesc_2_2@@MBEXAAVCMStateSet@2@@Z 12066570 f   CMBinaryOp.obj
 0001:00065730       ?getFirstPos@CMNode@xercesc_2_2@@QBEABVCMStateSet@2@XZ 12066730 f i CMBinaryOp.obj
 0001:00065800       ?calcLastPos@CMBinaryOp@xercesc_2_2@@MBEXAAVCMStateSet@2@@Z 12066800 f   CMBinaryOp.obj
 0001:000659c0       ?getLastPos@CMNode@xercesc_2_2@@QBEABVCMStateSet@2@XZ 120669c0 f i CMBinaryOp.obj
 0001:00065a90       ??0CMUnaryOp@xercesc_2_2@@QAE@W4NodeTypes@ContentSpecNode@1@QAVCMNode@1@@Z 12066a90 f   CMUnaryOp.obj
 0001:00065b40       ??_ECMUnaryOp@xercesc_2_2@@UAEPAXI@Z 12066b40 f i CMUnaryOp.obj
 0001:00065b40       ??_GCMUnaryOp@xercesc_2_2@@UAEPAXI@Z 12066b40 f i CMUnaryOp.obj
 0001:00065b60       ??1CMUnaryOp@xercesc_2_2@@UAE@XZ 12066b60 f   CMUnaryOp.obj
 0001:00065c00       ?isNullable@CMUnaryOp@xercesc_2_2@@UBE_NXZ 12066c00 f   CMUnaryOp.obj
 0001:00065c20       ?calcFirstPos@CMUnaryOp@xercesc_2_2@@MBEXAAVCMStateSet@2@@Z 12066c20 f   CMUnaryOp.obj
 0001:00065ca0       ?calcLastPos@CMUnaryOp@xercesc_2_2@@MBEXAAVCMStateSet@2@@Z 12066ca0 f   CMUnaryOp.obj
 0001:00065d20       ??1ContentLeafNameTypeVector@xercesc_2_2@@QAE@XZ 12066d20 f   ContentLeafNameTypeVector.obj
 0001:00065d40       ?setValues@ContentLeafNameTypeVector@xercesc_2_2@@QAEXQAPAVQName@2@QAW4NodeTypes@ContentSpecNode@2@I@Z 12066d40 f   ContentLeafNameTypeVector.obj
 0001:00065db0       ?getLeafNameAt@ContentLeafNameTypeVector@xercesc_2_2@@QBEPAVQName@2@I@Z 12066db0 f   ContentLeafNameTypeVector.obj
 0001:00065df0       ?getLeafTypeAt@ContentLeafNameTypeVector@xercesc_2_2@@QBE?BW4NodeTypes@ContentSpecNode@2@I@Z 12066df0 f   ContentLeafNameTypeVector.obj
 0001:00065e30       ??0ContentSpecNode@xercesc_2_2@@QAE@ABV01@@Z 12066e30 f   ContentSpecNode.obj
 0001:00065f50       ?formatSpec@ContentSpecNode@xercesc_2_2@@QBEXAAVXMLBuffer@2@@Z 12066f50 f   ContentSpecNode.obj
 0001:00066400       ?getMinTotalRange@ContentSpecNode@xercesc_2_2@@QBEHXZ 12067400 f   ContentSpecNode.obj
 0001:00066460       ?getMaxTotalRange@ContentSpecNode@xercesc_2_2@@QBEHXZ 12067460 f   ContentSpecNode.obj
 0001:000664f0       ??0HashCMStateSet@xercesc_2_2@@QAE@ABV01@@Z 120674f0 f i DFAContentModel.obj
 0001:00066500       ??_EHashCMStateSet@xercesc_2_2@@UAEPAXI@Z 12067500 f i DFAContentModel.obj
 0001:00066560       ??0HashCMStateSet@xercesc_2_2@@QAE@XZ 12067560 f i DFAContentModel.obj
 0001:00066570       ??1HashCMStateSet@xercesc_2_2@@UAE@XZ 12067570 f i DFAContentModel.obj
 0001:00066580       ?getHashVal@HashCMStateSet@xercesc_2_2@@UAEIQBXI@Z 12067580 f i DFAContentModel.obj
 0001:000665d0       ?equals@HashCMStateSet@xercesc_2_2@@UAE_NQBX0@Z 120675d0 f i DFAContentModel.obj
 0001:00066630       ??0DFAContentModel@xercesc_2_2@@QAE@_NQAVContentSpecNode@1@@Z 12067630 f   DFAContentModel.obj
 0001:000666b0       ?getNextState@DFAContentModel@xercesc_2_2@@UBEIII@Z 120676b0 f i DFAContentModel.obj
 0001:00066710       ??_GDFAContentModel@xercesc_2_2@@UAEPAXI@Z 12067710 f i DFAContentModel.obj
 0001:00066710       ??_EDFAContentModel@xercesc_2_2@@UAEPAXI@Z 12067710 f i DFAContentModel.obj
 0001:00066730       ??0DFAContentModel@xercesc_2_2@@QAE@_NQAVContentSpecNode@1@0@Z 12067730 f   DFAContentModel.obj
 0001:000667b0       ??1DFAContentModel@xercesc_2_2@@UAE@XZ 120677b0 f   DFAContentModel.obj
 0001:00066890       ?validateContent@DFAContentModel@xercesc_2_2@@UBEHQAPAVQName@2@II@Z 12067890 f   DFAContentModel.obj
 0001:00066ae0       ?validateContentSpecial@DFAContentModel@xercesc_2_2@@UBEHQAPAVQName@2@IIQAVGrammarResolver@2@QAVXMLStringPool@2@@Z 12067ae0 f   DFAContentModel.obj
 0001:00066c50       ?buildDFA@DFAContentModel@xercesc_2_2@@AAEXQAVContentSpecNode@2@@Z 12067c50 f   DFAContentModel.obj
 0001:00067bc0       ?zeroBits@CMStateSet@xercesc_2_2@@QAEXXZ 12068bc0 f i DFAContentModel.obj
 0001:00067bf0       ??_ECMLeaf@xercesc_2_2@@UAEPAXI@Z 12068bf0 f i DFAContentModel.obj
 0001:00067bf0       ??_GCMLeaf@xercesc_2_2@@UAEPAXI@Z 12068bf0 f i DFAContentModel.obj
 0001:00067c10       ??1CMLeaf@xercesc_2_2@@UAE@XZ 12068c10 f i DFAContentModel.obj
 0001:00067cc0       ?isNullable@CMLeaf@xercesc_2_2@@UBE_NXZ 12068cc0 f i DFAContentModel.obj
 0001:00067cd0       ?calcLastPos@CMLeaf@xercesc_2_2@@MBEXAAVCMStateSet@2@@Z 12068cd0 f i DFAContentModel.obj
 0001:00067cd0       ?calcFirstPos@CMLeaf@xercesc_2_2@@MBEXAAVCMStateSet@2@@Z 12068cd0 f i DFAContentModel.obj
 0001:00067dc0       ?buildSyntaxTree@DFAContentModel@xercesc_2_2@@AAEPAVCMNode@2@QAVContentSpecNode@2@@Z 12068dc0 f   DFAContentModel.obj
 0001:00067fe0       ?calcFollowList@DFAContentModel@xercesc_2_2@@AAEXQAVCMNode@2@@Z 12068fe0 f   DFAContentModel.obj
 0001:00068250       ?postTreeBuildInit@DFAContentModel@xercesc_2_2@@AAEHQAVCMNode@2@I@Z 12069250 f   DFAContentModel.obj
 0001:00068530       ?checkUniqueParticleAttribution@DFAContentModel@xercesc_2_2@@UAEXQAVSchemaGrammar@2@QAVGrammarResolver@2@QAVXMLStringPool@2@QAVXMLValidator@2@QAI@Z 12069530 f   DFAContentModel.obj
 0001:00068890       ??0GrammarResolver@xercesc_2_2@@QAE@XZ 12069890 f   GrammarResolver.obj
 0001:00068990       ??1GrammarResolver@xercesc_2_2@@QAE@XZ 12069990 f   GrammarResolver.obj
 0001:00068ad0       ?getDatatypeValidator@GrammarResolver@xercesc_2_2@@QAEPAVDatatypeValidator@2@QBG0@Z 12069ad0 f   GrammarResolver.obj
 0001:00068d50       ?getGrammar@GrammarResolver@xercesc_2_2@@QAEPAVGrammar@2@QBG@Z 12069d50 f   GrammarResolver.obj
 0001:00068e70       ?getGrammarEnumerator@GrammarResolver@xercesc_2_2@@QBE?AV?$RefHashTableOfEnumerator@VGrammar@xercesc_2_2@@@2@XZ 12069e70 f   GrammarResolver.obj
 0001:00068f30       ?containsNameSpace@GrammarResolver@xercesc_2_2@@QAE_NQBG@Z 12069f30 f   GrammarResolver.obj
 0001:00068fb0       ?putGrammar@GrammarResolver@xercesc_2_2@@QAEXQBGQAVGrammar@2@@Z 12069fb0 f   GrammarResolver.obj
 0001:00068fe0       ?reset@GrammarResolver@xercesc_2_2@@QAEXXZ 12069fe0 f   GrammarResolver.obj
 0001:00069040       ?resetCachedGrammar@GrammarResolver@xercesc_2_2@@QAEXXZ 1206a040 f   GrammarResolver.obj
 0001:000690a0       ?cacheGrammars@GrammarResolver@xercesc_2_2@@QAEXXZ 1206a0a0 f   GrammarResolver.obj
 0001:00069410       ??_G?$RefHashTableOf@VGrammar@xercesc_2_2@@@xercesc_2_2@@QAEPAXI@Z 1206a410 f i GrammarResolver.obj
 0001:00069490       ?cacheGrammarFromParse@GrammarResolver@xercesc_2_2@@QAEX_N@Z 1206a490 f   GrammarResolver.obj
 0001:000695c0       ??1?$XMLEnumerator@VGrammar@xercesc_2_2@@@xercesc_2_2@@UAE@XZ 1206a5c0 f i GrammarResolver.obj
 0001:000695d0       ??_G?$XMLEnumerator@VGrammar@xercesc_2_2@@@xercesc_2_2@@UAEPAXI@Z 1206a5d0 f i GrammarResolver.obj
 0001:000695d0       ??_E?$XMLEnumerator@VGrammar@xercesc_2_2@@@xercesc_2_2@@UAEPAXI@Z 1206a5d0 f i GrammarResolver.obj
 0001:000695f0       ?put@?$RefHashTableOf@VGrammar@xercesc_2_2@@@xercesc_2_2@@QAEXPAXQAVGrammar@2@@Z 1206a5f0 f i GrammarResolver.obj
 0001:000696f0       ??1?$RefHashTableOfEnumerator@VGrammar@xercesc_2_2@@@xercesc_2_2@@UAE@XZ 1206a6f0 f i GrammarResolver.obj
 0001:000697d0       ?hasMoreElements@?$RefHashTableOfEnumerator@VValueStore@xercesc_2_2@@@xercesc_2_2@@UBE_NXZ 1206a7d0 f i GrammarResolver.obj
 0001:000697d0       ?hasMoreElements@?$RefHashTableOfEnumerator@VGrammar@xercesc_2_2@@@xercesc_2_2@@UBE_NXZ 1206a7d0 f i GrammarResolver.obj
 0001:000697d0       ?hasMoreElements@?$RefHashTableOfEnumerator@VComplexTypeInfo@xercesc_2_2@@@xercesc_2_2@@UBE_NXZ 1206a7d0 f i GrammarResolver.obj
 0001:000697d0       ?hasMoreElements@?$RefHashTableOfEnumerator@VXercesGroupInfo@xercesc_2_2@@@xercesc_2_2@@UBE_NXZ 1206a7d0 f i GrammarResolver.obj
 0001:000697d0       ?hasMoreElements@?$RefHashTableOfEnumerator@VKVStringPair@xercesc_2_2@@@xercesc_2_2@@UBE_NXZ 1206a7d0 f i GrammarResolver.obj
 0001:000697d0       ?hasMoreElements@?$RefHashTableOfEnumerator@VXMLRefInfo@xercesc_2_2@@@xercesc_2_2@@UBE_NXZ 1206a7d0 f i GrammarResolver.obj
 0001:000697d0       ?hasMoreElements@?$RefHash2KeysTableOfEnumerator@VSchemaAttDef@xercesc_2_2@@@xercesc_2_2@@UBE_NXZ 1206a7d0 f i GrammarResolver.obj
 0001:000697d0       ?hasMoreElements@?$RefHashTableOfEnumerator@V?$KeyRefPair@XVDOMUserDataHandler@xercesc_2_2@@@xercesc_2_2@@@xercesc_2_2@@UBE_NXZ 1206a7d0 f i GrammarResolver.obj
 0001:000697d0       ?hasMoreElements@?$RefHashTableOfEnumerator@VDTDAttDef@xercesc_2_2@@@xercesc_2_2@@UBE_NXZ 1206a7d0 f i GrammarResolver.obj
 0001:000697f0       ??_E?$RefHashTableOfEnumerator@VGrammar@xercesc_2_2@@@xercesc_2_2@@UAEPAXI@Z 1206a7f0 f i GrammarResolver.obj
 0001:000697f0       ??_G?$RefHashTableOfEnumerator@VGrammar@xercesc_2_2@@@xercesc_2_2@@UAEPAXI@Z 1206a7f0 f i GrammarResolver.obj
 0001:00069810       ??0MixedContentModel@xercesc_2_2@@QAE@_NQAVContentSpecNode@1@0@Z 1206a810 f   MixedContentModel.obj
 0001:00069a10       ?checkUniqueParticleAttribution@MixedContentModel@xercesc_2_2@@UAEXQAVSchemaGrammar@2@QAVGrammarResolver@2@QAVXMLStringPool@2@QAVXMLValidator@2@QAI@Z 1206aa10 f i MixedContentModel.obj
 0001:00069a60       ??_GMixedContentModel@xercesc_2_2@@UAEPAXI@Z 1206aa60 f i MixedContentModel.obj
 0001:00069a60       ??_EMixedContentModel@xercesc_2_2@@UAEPAXI@Z 1206aa60 f i MixedContentModel.obj
 0001:00069a80       ??1MixedContentModel@xercesc_2_2@@UAE@XZ 1206aa80 f   MixedContentModel.obj
 0001:00069ae0       ?hasDups@MixedContentModel@xercesc_2_2@@QBE_NXZ 1206aae0 f   MixedContentModel.obj
 0001:00069bf0       ?validateContent@MixedContentModel@xercesc_2_2@@UBEHQAPAVQName@2@II@Z 1206abf0 f   MixedContentModel.obj
 0001:00069ea0       ?validateContentSpecial@MixedContentModel@xercesc_2_2@@UBEHQAPAVQName@2@IIQAVGrammarResolver@2@QAVXMLStringPool@2@@Z 1206aea0 f   MixedContentModel.obj
 0001:0006a010       ?buildChildList@MixedContentModel@xercesc_2_2@@AAEXQAVContentSpecNode@2@AAV?$ValueVectorOf@PAVQName@xercesc_2_2@@@2@AAV?$ValueVectorOf@W4NodeTypes@ContentSpecNode@xercesc_2_2@@@2@@Z 1206b010 f   MixedContentModel.obj
 0001:0006a1a0       ?validateContent@SimpleContentModel@xercesc_2_2@@UBEHQAPAVQName@2@II@Z 1206b1a0 f   SimpleContentModel.obj
 0001:0006a9d0       ?validateContentSpecial@SimpleContentModel@xercesc_2_2@@UBEHQAPAVQName@2@IIQAVGrammarResolver@2@QAVXMLStringPool@2@@Z 1206b9d0 f   SimpleContentModel.obj
 0001:0006ae90       ?checkUniqueParticleAttribution@SimpleContentModel@xercesc_2_2@@UAEXQAVSchemaGrammar@2@QAVGrammarResolver@2@QAVXMLStringPool@2@QAVXMLValidator@2@QAI@Z 1206be90 f   SimpleContentModel.obj
 0001:0006af70       ??0AbstractNumericFacetValidator@xercesc_2_2@@QAE@ABV01@@Z 1206bf70 f i AbstractNumericFacetValidator.obj
 0001:0006b010       ??_EAbstractNumericFacetValidator@xercesc_2_2@@UAEPAXI@Z 1206c010 f i AbstractNumericFacetValidator.obj
 0001:0006b070       ??0InvalidDatatypeFacetException@xercesc_2_2@@QAE@QBDIW4Codes@XMLExcepts@1@@Z 1206c070 f i AbstractNumericFacetValidator.obj
 0001:0006b0d0       ??0InvalidDatatypeFacetException@xercesc_2_2@@QAE@ABV01@@Z 1206c0d0 f i AbstractNumericFacetValidator.obj
 0001:0006b0f0       ??0InvalidDatatypeFacetException@xercesc_2_2@@QAE@QBDIW4Codes@XMLExcepts@1@QBG222@Z 1206c0f0 f i AbstractNumericFacetValidator.obj
 0001:0006b160       ??0InvalidDatatypeFacetException@xercesc_2_2@@QAE@QBDIW4Codes@XMLExcepts@1@0000@Z 1206c160 f i AbstractNumericFacetValidator.obj
 0001:0006b1d0       ??1InvalidDatatypeFacetException@xercesc_2_2@@UAE@XZ 1206c1d0 f i AbstractNumericFacetValidator.obj
 0001:0006b1e0       ?duplicate@InvalidDatatypeFacetException@xercesc_2_2@@UBEPAVXMLException@2@XZ 1206c1e0 f i AbstractNumericFacetValidator.obj
 0001:0006b240       ?getType@InvalidDatatypeFacetException@xercesc_2_2@@UBEPBGXZ 1206c240 f i AbstractNumericFacetValidator.obj
 0001:0006b250       ??_EInvalidDatatypeFacetException@xercesc_2_2@@UAEPAXI@Z 1206c250 f i AbstractNumericFacetValidator.obj
 0001:0006b2b0       ??1AbstractNumericFacetValidator@xercesc_2_2@@UAE@XZ 1206c2b0 f   AbstractNumericFacetValidator.obj
 0001:0006b380       ??0AbstractNumericFacetValidator@xercesc_2_2@@IAE@QAVDatatypeValidator@1@QAV?$RefHashTableOf@VKVStringPair@xercesc_2_2@@@1@HW4ValidatorType@21@@Z 1206c380 f   AbstractNumericFacetValidator.obj
 0001:0006b3d0       ?init@AbstractNumericFacetValidator@xercesc_2_2@@IAEXQAV?$RefArrayVectorOf@G@2@@Z 1206c3d0 f   AbstractNumericFacetValidator.obj
 0001:0006b410       ?assignFacet@AbstractNumericFacetValidator@xercesc_2_2@@AAEXXZ 1206c410 f   AbstractNumericFacetValidator.obj
 0001:0006b9b0       ?inspectFacet@AbstractNumericFacetValidator@xercesc_2_2@@AAEXXZ 1206c9b0 f   AbstractNumericFacetValidator.obj
 0001:0006bbe0       ?inspectFacetBase@AbstractNumericFacetValidator@xercesc_2_2@@AAEXXZ 1206cbe0 f   AbstractNumericFacetValidator.obj
 0001:0006c990       ?inheritFacet@AbstractNumericFacetValidator@xercesc_2_2@@AAEXXZ 1206d990 f   AbstractNumericFacetValidator.obj
 0001:0006ca50       ?getEnumString@AbstractNumericFacetValidator@xercesc_2_2@@UBEPBV?$RefArrayVectorOf@G@2@XZ 1206da50 f   AbstractNumericFacetValidator.obj
 0001:0006ca70       ??1?$XMLEnumerator@VKVStringPair@xercesc_2_2@@@xercesc_2_2@@UAE@XZ 1206da70 f i AbstractNumericFacetValidator.obj
 0001:0006ca80       ??_E?$XMLEnumerator@VKVStringPair@xercesc_2_2@@@xercesc_2_2@@UAEPAXI@Z 1206da80 f i AbstractNumericFacetValidator.obj
 0001:0006ca80       ??_G?$XMLEnumerator@VKVStringPair@xercesc_2_2@@@xercesc_2_2@@UAEPAXI@Z 1206da80 f i AbstractNumericFacetValidator.obj
 0001:0006caa0       ??1?$RefHashTableOfEnumerator@VKVStringPair@xercesc_2_2@@@xercesc_2_2@@UAE@XZ 1206daa0 f i AbstractNumericFacetValidator.obj
 0001:0006cb80       ??_E?$RefHashTableOfEnumerator@VKVStringPair@xercesc_2_2@@@xercesc_2_2@@UAEPAXI@Z 1206db80 f i AbstractNumericFacetValidator.obj
 0001:0006cb80       ??_G?$RefHashTableOfEnumerator@VKVStringPair@xercesc_2_2@@@xercesc_2_2@@UAEPAXI@Z 1206db80 f i AbstractNumericFacetValidator.obj
 0001:0006cba0       ??0AbstractNumericValidator@xercesc_2_2@@QAE@ABV01@@Z 1206dba0 f i AbstractNumericValidator.obj
 0001:0006cc40       ??_EAbstractNumericValidator@xercesc_2_2@@UAEPAXI@Z 1206dc40 f i AbstractNumericValidator.obj
 0001:0006cca0       ?init@AbstractNumericValidator@xercesc_2_2@@IAEXQAV?$RefArrayVectorOf@G@2@@Z 1206dca0 f i AbstractNumericValidator.obj
 0001:0006ccb0       ??0InvalidDatatypeValueException@xercesc_2_2@@QAE@QBDIW4Codes@XMLExcepts@1@@Z 1206dcb0 f i AbstractNumericValidator.obj
 0001:0006cd10       ??0InvalidDatatypeValueException@xercesc_2_2@@QAE@ABV01@@Z 1206dd10 f i AbstractNumericValidator.obj
 0001:0006cd30       ??0InvalidDatatypeValueException@xercesc_2_2@@QAE@QBDIW4Codes@XMLExcepts@1@QBG222@Z 1206dd30 f i AbstractNumericValidator.obj
 0001:0006cda0       ??0InvalidDatatypeValueException@xercesc_2_2@@QAE@QBDIW4Codes@XMLExcepts@1@0000@Z 1206dda0 f i AbstractNumericValidator.obj
 0001:0006ce10       ??1InvalidDatatypeValueException@xercesc_2_2@@UAE@XZ 1206de10 f i AbstractNumericValidator.obj
 0001:0006ce20       ?duplicate@InvalidDatatypeValueException@xercesc_2_2@@UBEPAVXMLException@2@XZ 1206de20 f i AbstractNumericValidator.obj
 0001:0006ce80       ?getType@InvalidDatatypeValueException@xercesc_2_2@@UBEPBGXZ 1206de80 f i AbstractNumericValidator.obj
 0001:0006ce90       ??_EInvalidDatatypeValueException@xercesc_2_2@@UAEPAXI@Z 1206de90 f i AbstractNumericValidator.obj
 0001:0006cef0       ??1AbstractNumericValidator@xercesc_2_2@@UAE@XZ 1206def0 f   AbstractNumericValidator.obj
 0001:0006cf00       ??0AbstractNumericValidator@xercesc_2_2@@IAE@QAVDatatypeValidator@1@QAV?$RefHashTableOf@VKVStringPair@xercesc_2_2@@@1@HW4ValidatorType@21@@Z 1206df00 f   AbstractNumericValidator.obj
 0001:0006cf30       ?boundsCheck@AbstractNumericValidator@xercesc_2_2@@IAEXQBVXMLNumber@2@@Z 1206df30 f   AbstractNumericValidator.obj
 0001:0006d180       ??1AbstractStringValidator@xercesc_2_2@@UAE@XZ 1206e180 f   AbstractStringValidator.obj
 0001:0006d1f0       ??0AbstractStringValidator@xercesc_2_2@@IAE@QAVDatatypeValidator@1@QAV?$RefHashTableOf@VKVStringPair@xercesc_2_2@@@1@HW4ValidatorType@21@@Z 1206e1f0 f   AbstractStringValidator.obj
 0001:0006d240       ?init@AbstractStringValidator@xercesc_2_2@@IAEXQAV?$RefArrayVectorOf@G@2@@Z 1206e240 f   AbstractStringValidator.obj
 0001:0006d2a0       ?assignFacet@AbstractStringValidator@xercesc_2_2@@AAEXXZ 1206e2a0 f   AbstractStringValidator.obj
 0001:0006d850       ?inspectFacet@AbstractStringValidator@xercesc_2_2@@AAEXXZ 1206e850 f   AbstractStringValidator.obj
 0001:0006d930       ?inspectFacetBase@AbstractStringValidator@xercesc_2_2@@MAEXXZ 1206e930 f   AbstractStringValidator.obj
 0001:0006ddc0       ?inheritFacet@AbstractStringValidator@xercesc_2_2@@MAEXXZ 1206edc0 f   AbstractStringValidator.obj
 0001:0006de60       ?compare@AbstractStringValidator@xercesc_2_2@@UAEHQBG0@Z 1206ee60 f   AbstractStringValidator.obj
 0001:0006de80       ?validate@AbstractStringValidator@xercesc_2_2@@UAEXQBG@Z 1206ee80 f   AbstractStringValidator.obj
 0001:0006de90       ?checkContent@AbstractStringValidator@xercesc_2_2@@MAEXQBG_N@Z 1206ee90 f   AbstractStringValidator.obj
 0001:0006e300       ?getEnumString@AbstractStringValidator@xercesc_2_2@@UBEPBV?$RefArrayVectorOf@G@2@XZ 1206f300 f   AbstractStringValidator.obj
 0001:0006e310       ??0AnySimpleTypeDatatypeValidator@xercesc_2_2@@QAE@ABV01@@Z 1206f310 f i AnySimpleTypeDatatypeValidator.obj
 0001:0006e370       ??_EAnySimpleTypeDatatypeValidator@xercesc_2_2@@UAEPAXI@Z 1206f370 f i AnySimpleTypeDatatypeValidator.obj
 0001:0006e3d0       ?compare@AnySimpleTypeDatatypeValidator@xercesc_2_2@@UAEHQBG0@Z 1206f3d0 f i AnySimpleTypeDatatypeValidator.obj
 0001:0006e3e0       ?checkRootElement@XMLValidator@xercesc_2_2@@QAE_NI@Z 1206f3e0 f i AnySimpleTypeDatatypeValidator.obj
 0001:0006e3e0       ?isSubstitutableBy@AnySimpleTypeDatatypeValidator@xercesc_2_2@@UAE_NQBVDatatypeValidator@2@@Z 1206f3e0 f i AnySimpleTypeDatatypeValidator.obj
 0001:0006e3f0       ??0AnySimpleTypeDatatypeValidator@xercesc_2_2@@QAE@XZ 1206f3f0 f   AnySimpleTypeDatatypeValidator.obj
 0001:0006e410       ??1AnySimpleTypeDatatypeValidator@xercesc_2_2@@UAE@XZ 1206f410 f   AnySimpleTypeDatatypeValidator.obj
 0001:0006e420       ?newInstance@AnySimpleTypeDatatypeValidator@xercesc_2_2@@UAEPAVDatatypeValidator@2@QAV?$RefHashTableOf@VKVStringPair@xercesc_2_2@@@2@QAV?$RefArrayVectorOf@G@2@H@Z 1206f420 f   AnySimpleTypeDatatypeValidator.obj
 0001:0006e4f0       ??0AnyURIDatatypeValidator@xercesc_2_2@@QAE@ABV01@@Z 1206f4f0 f i AnyURIDatatypeValidator.obj
 0001:0006e580       ??_EAnyURIDatatypeValidator@xercesc_2_2@@UAEPAXI@Z 1206f580 f i AnyURIDatatypeValidator.obj
 0001:0006e5e0       ?cleanUp@AnyURIDatatypeValidator@xercesc_2_2@@AAEXXZ 1206f5e0 f i AnyURIDatatypeValidator.obj
 0001:0006e600       ??0AnyURIDatatypeValidator@xercesc_2_2@@QAE@XZ 1206f600 f   AnyURIDatatypeValidator.obj
 0001:0006e630       ??1AnyURIDatatypeValidator@xercesc_2_2@@UAE@XZ 1206f630 f   AnyURIDatatypeValidator.obj
 0001:0006e690       ??0AnyURIDatatypeValidator@xercesc_2_2@@QAE@QAVDatatypeValidator@1@QAV?$RefHashTableOf@VKVStringPair@xercesc_2_2@@@1@QAV?$RefArrayVectorOf@G@1@H@Z 1206f690 f   AnyURIDatatypeValidator.obj
 0001:0006e720       ?newInstance@AnyURIDatatypeValidator@xercesc_2_2@@UAEPAVDatatypeValidator@2@QAV?$RefHashTableOf@VKVStringPair@xercesc_2_2@@@2@QAV?$RefArrayVectorOf@G@2@H@Z 1206f720 f   AnyURIDatatypeValidator.obj
 0001:0006e790       ?assignAdditionalFacet@AnyURIDatatypeValidator@xercesc_2_2@@MAEXQBG0@Z 1206f790 f   AnyURIDatatypeValidator.obj
 0001:0006e7d0       ?getLength@QNameDatatypeValidator@xercesc_2_2@@MBEHQBG@Z 1206f7d0 f   AnyURIDatatypeValidator.obj
 0001:0006e7d0       ?getLength@AnyURIDatatypeValidator@xercesc_2_2@@MBEHQBG@Z 1206f7d0 f   AnyURIDatatypeValidator.obj
 0001:0006e7d0       ?getLength@StringDatatypeValidator@xercesc_2_2@@MBEHQBG@Z 1206f7d0 f   AnyURIDatatypeValidator.obj
 0001:0006e7d0       ?getLength@NOTATIONDatatypeValidator@xercesc_2_2@@MBEHQBG@Z 1206f7d0 f   AnyURIDatatypeValidator.obj
 0001:0006e800       ?checkValueSpace@AnyURIDatatypeValidator@xercesc_2_2@@MAEXQBG@Z 1206f800 f   AnyURIDatatypeValidator.obj
 0001:0006e8f0       ??0Base64BinaryDatatypeValidator@xercesc_2_2@@QAE@ABV01@@Z 1206f8f0 f i Base64BinaryDatatypeValidator.obj
 0001:0006e970       ??4AbstractStringValidator@xercesc_2_2@@QAEAAV01@ABV01@@Z 1206f970 f i Base64BinaryDatatypeValidator.obj
 0001:0006e970       ??4HexBinaryDatatypeValidator@xercesc_2_2@@QAEAAV01@ABV01@@Z 1206f970 f i Base64BinaryDatatypeValidator.obj
 0001:0006e970       ??4NOTATIONDatatypeValidator@xercesc_2_2@@QAEAAV01@ABV01@@Z 1206f970 f i Base64BinaryDatatypeValidator.obj
 0001:0006e970       ??4QNameDatatypeValidator@xercesc_2_2@@QAEAAV01@ABV01@@Z 1206f970 f i Base64BinaryDatatypeValidator.obj
 0001:0006e970       ??4Base64BinaryDatatypeValidator@xercesc_2_2@@QAEAAV01@ABV01@@Z 1206f970 f i Base64BinaryDatatypeValidator.obj
 0001:0006e9e0       ??_EBase64BinaryDatatypeValidator@xercesc_2_2@@UAEPAXI@Z 1206f9e0 f i Base64BinaryDatatypeValidator.obj
 0001:0006ea40       ??0Base64BinaryDatatypeValidator@xercesc_2_2@@QAE@XZ 1206fa40 f   Base64BinaryDatatypeValidator.obj
 0001:0006ea60       ??1Base64BinaryDatatypeValidator@xercesc_2_2@@UAE@XZ 1206fa60 f   Base64BinaryDatatypeValidator.obj
 0001:0006ea70       ??0Base64BinaryDatatypeValidator@xercesc_2_2@@QAE@QAVDatatypeValidator@1@QAV?$RefHashTableOf@VKVStringPair@xercesc_2_2@@@1@QAV?$RefArrayVectorOf@G@1@H@Z 1206fa70 f   Base64BinaryDatatypeValidator.obj
 0001:0006eae0       ?newInstance@Base64BinaryDatatypeValidator@xercesc_2_2@@UAEPAVDatatypeValidator@2@QAV?$RefHashTableOf@VKVStringPair@xercesc_2_2@@@2@QAV?$RefArrayVectorOf@G@2@H@Z 1206fae0 f   Base64BinaryDatatypeValidator.obj
 0001:0006eb60       ?assignAdditionalFacet@Base64BinaryDatatypeValidator@xercesc_2_2@@MAEXQBG0@Z 1206fb60 f   Base64BinaryDatatypeValidator.obj
 0001:0006eba0       ?setLanguageName@XMLMsgLoader@xercesc_2_2@@IAEXQAG@Z 1206fba0 f   Base64BinaryDatatypeValidator.obj
 0001:0006eba0       ?endInputSource@SAX2XMLReaderImpl@xercesc_2_2@@UAEXABVInputSource@2@@Z 1206fba0 f   Base64BinaryDatatypeValidator.obj
 0001:0006eba0       ?doctypeComment@SAXParser@xercesc_2_2@@UAEXQBG@Z 1206fba0 f   Base64BinaryDatatypeValidator.obj
 0001:0006eba0       ?checkAdditionalFacet@QNameDatatypeValidator@xercesc_2_2@@MBEXQBG@Z 1206fba0 f   Base64BinaryDatatypeValidator.obj
 0001:0006eba0       ?checkAdditionalFacet@HexBinaryDatatypeValidator@xercesc_2_2@@MBEXQBG@Z 1206fba0 f   Base64BinaryDatatypeValidator.obj
 0001:0006eba0       ?startInputSource@SAX2XMLReaderImpl@xercesc_2_2@@UAEXABVInputSource@2@@Z 1206fba0 f   Base64BinaryDatatypeValidator.obj
 0001:0006eba0       ?startInputSource@SAXParser@xercesc_2_2@@UAEXABVInputSource@2@@Z 1206fba0 f   Base64BinaryDatatypeValidator.obj
 0001:0006eba0       ?checkValueSpace@ListDatatypeValidator@xercesc_2_2@@MAEXQBG@Z 1206fba0 f   Base64BinaryDatatypeValidator.obj
 0001:0006eba0       ?checkAdditionalFacet@AnyURIDatatypeValidator@xercesc_2_2@@MBEXQBG@Z 1206fba0 f   Base64BinaryDatatypeValidator.obj
 0001:0006eba0       ?startAttList@DOMParser@xercesc_2_2@@UAEXABVDTDElementDecl@2@@Z 1206fba0 f   Base64BinaryDatatypeValidator.obj
 0001:0006eba0       ?endAttList@SAX2XMLReaderImpl@xercesc_2_2@@UAEXABVDTDElementDecl@2@@Z 1206fba0 f   Base64BinaryDatatypeValidator.obj
 0001:0006eba0       ?checkBlockSize@XMLTranscoder@xercesc_2_2@@IAEXI@Z 1206fba0 f   Base64BinaryDatatypeValidator.obj
 0001:0006eba0       ?checkAdditionalFacet@Base64BinaryDatatypeValidator@xercesc_2_2@@MBEXQBG@Z 1206fba0 f   Base64BinaryDatatypeValidator.obj
 0001:0006eba0       ?startAttList@SAX2XMLReaderImpl@xercesc_2_2@@UAEXABVDTDElementDecl@2@@Z 1206fba0 f   Base64BinaryDatatypeValidator.obj
 0001:0006eba0       ?normalizeContent@AbstractStringValidator@xercesc_2_2@@MBEXQAG@Z 1206fba0 f   Base64BinaryDatatypeValidator.obj
 0001:0006eba0       ?checkAdditionalFacet@ListDatatypeValidator@xercesc_2_2@@MBEXQBG@Z 1206fba0 f   Base64BinaryDatatypeValidator.obj
 0001:0006eba0       ?setNodeValue@NodeImpl@xercesc_2_2@@UAEXABVDOMString@2@@Z 1206fba0 f   Base64BinaryDatatypeValidator.obj
 0001:0006eba0       ?setNodeValue@DOMNodeImpl@xercesc_2_2@@QAEXPBG@Z 1206fba0 f   Base64BinaryDatatypeValidator.obj
 0001:0006eba0       ?startAttList@SAXParser@xercesc_2_2@@UAEXABVDTDElementDecl@2@@Z 1206fba0 f   Base64BinaryDatatypeValidator.obj
 0001:0006eba0       ?checkAdditionalFacet@NOTATIONDatatypeValidator@xercesc_2_2@@MBEXQBG@Z 1206fba0 f   Base64BinaryDatatypeValidator.obj
 0001:0006eba0       ?checkValueSpace@StringDatatypeValidator@xercesc_2_2@@MAEXQBG@Z 1206fba0 f   Base64BinaryDatatypeValidator.obj
 0001:0006eba0       ?endInputSource@SAXParser@xercesc_2_2@@UAEXABVInputSource@2@@Z 1206fba0 f   Base64BinaryDatatypeValidator.obj
 0001:0006eba0       ?endAttList@SAXParser@xercesc_2_2@@UAEXABVDTDElementDecl@2@@Z 1206fba0 f   Base64BinaryDatatypeValidator.obj
 0001:0006ebb0       ?checkValueSpace@Base64BinaryDatatypeValidator@xercesc_2_2@@MAEXQBG@Z 1206fbb0 f   Base64BinaryDatatypeValidator.obj
 0001:0006ec00       ?getLength@Base64BinaryDatatypeValidator@xercesc_2_2@@MBEHQBG@Z 1206fc00 f   Base64BinaryDatatypeValidator.obj
 0001:0006ec10       ?normalizeEnumeration@Base64BinaryDatatypeValidator@xercesc_2_2@@MAEXXZ 1206fc10 f   Base64BinaryDatatypeValidator.obj
 0001:0006ec70       ?normalizeContent@Base64BinaryDatatypeValidator@xercesc_2_2@@MBEXQAG@Z 1206fc70 f   Base64BinaryDatatypeValidator.obj
 0001:0006ec80       ??0BooleanDatatypeValidator@xercesc_2_2@@QAE@ABV01@@Z 1206fc80 f i BooleanDatatypeValidator.obj
 0001:0006ece0       ??4BooleanDatatypeValidator@xercesc_2_2@@QAEAAV01@ABV01@@Z 1206fce0 f i BooleanDatatypeValidator.obj
 0001:0006ece0       ??4AnySimpleTypeDatatypeValidator@xercesc_2_2@@QAEAAV01@ABV01@@Z 1206fce0 f i BooleanDatatypeValidator.obj
 0001:0006ece0       ??4DatatypeValidator@xercesc_2_2@@QAEAAV01@ABV01@@Z 1206fce0 f i BooleanDatatypeValidator.obj
 0001:0006ed40       ??_EBooleanDatatypeValidator@xercesc_2_2@@UAEPAXI@Z 1206fd40 f i BooleanDatatypeValidator.obj
 0001:0006eda0       ??0BooleanDatatypeValidator@xercesc_2_2@@QAE@XZ 1206fda0 f i BooleanDatatypeValidator.obj
 0001:0006edc0       ??1BooleanDatatypeValidator@xercesc_2_2@@UAE@XZ 1206fdc0 f i BooleanDatatypeValidator.obj
 0001:0006edd0       ?newInstance@BooleanDatatypeValidator@xercesc_2_2@@UAEPAVDatatypeValidator@2@QAV?$RefHashTableOf@VKVStringPair@xercesc_2_2@@@2@QAV?$RefArrayVectorOf@G@2@H@Z 1206fdd0 f i BooleanDatatypeValidator.obj
 0001:0006ee40       ?validate@BooleanDatatypeValidator@xercesc_2_2@@UAEXQBG@Z 1206fe40 f i BooleanDatatypeValidator.obj
 0001:0006ee50       ??0BooleanDatatypeValidator@xercesc_2_2@@QAE@QAVDatatypeValidator@1@QAV?$RefHashTableOf@VKVStringPair@xercesc_2_2@@@1@QAV?$RefArrayVectorOf@G@1@H@Z 1206fe50 f   BooleanDatatypeValidator.obj
 0001:0006f0e0       ?checkContent@BooleanDatatypeValidator@xercesc_2_2@@AAEXQBG_N@Z 120700e0 f   BooleanDatatypeValidator.obj
 0001:0006f2c0       ?compare@BooleanDatatypeValidator@xercesc_2_2@@UAEHQBG0@Z 120702c0 f   BooleanDatatypeValidator.obj
 0001:0006f590       ??1?$RefHashTableOf@VKVStringPair@xercesc_2_2@@@xercesc_2_2@@QAE@XZ 12070590 f i BooleanDatatypeValidator.obj
 0001:0006f620       ??0DatatypeValidator@xercesc_2_2@@IAE@QAV01@QAV?$RefHashTableOf@VKVStringPair@xercesc_2_2@@@1@HW4ValidatorType@01@@Z 12070620 f   DatatypeValidator.obj
 0001:0006f670       ??1DatatypeValidator@xercesc_2_2@@UAE@XZ 12070670 f   DatatypeValidator.obj
 0001:0006f750       ?getWSstring@DatatypeValidator@xercesc_2_2@@IBEPBGF@Z 12070750 f   DatatypeValidator.obj
 0001:0006f780       ??0DecimalDatatypeValidator@xercesc_2_2@@QAE@ABV01@@Z 12070780 f i DatatypeValidatorFactory.obj
 0001:0006f840       ??4DecimalDatatypeValidator@xercesc_2_2@@QAEAAV01@ABV01@@Z 12070840 f i DatatypeValidatorFactory.obj
 0001:0006f8e0       ??_EDecimalDatatypeValidator@xercesc_2_2@@UAEPAXI@Z 120708e0 f i DatatypeValidatorFactory.obj
 0001:0006f940       ?getErrorHandler@XercesDOMParser@xercesc_2_2@@QAEPAVErrorHandler@2@XZ 12070940 f i DatatypeValidatorFactory.obj
 0001:0006f940       ?getErrorHandler@XercesDOMParser@xercesc_2_2@@QBEPBVErrorHandler@2@XZ 12070940 f i DatatypeValidatorFactory.obj
 0001:0006f940       ?getDTDHandler@SAX2XMLReaderImpl@xercesc_2_2@@UBEPAVDTDHandler@2@XZ 12070940 f i DatatypeValidatorFactory.obj
 0001:0006f940       ?getIDRefList@XMLScanner@xercesc_2_2@@QAEPAV?$RefHashTableOf@VXMLRefInfo@xercesc_2_2@@@2@XZ 12070940 f i DatatypeValidatorFactory.obj
 0001:0006f940       ?getTotalDigits@DecimalDatatypeValidator@xercesc_2_2@@QBEIXZ 12070940 f i DatatypeValidatorFactory.obj
 0001:0006f940       ?getIDRefList@XMLScanner@xercesc_2_2@@QBEPBV?$RefHashTableOf@VXMLRefInfo@xercesc_2_2@@@2@XZ 12070940 f i DatatypeValidatorFactory.obj
 0001:0006f950       ?getFractionDigits@DecimalDatatypeValidator@xercesc_2_2@@QBEIXZ 12070950 f i DatatypeValidatorFactory.obj
 0001:0006f950       ?getEntityResolver@SAX2XMLReaderImpl@xercesc_2_2@@UBEPAVEntityResolver@2@XZ 12070950 f i DatatypeValidatorFactory.obj
 0001:0006f960       ?setTotalDigits@DecimalDatatypeValidator@xercesc_2_2@@AAEXI@Z 12070960 f i DatatypeValidatorFactory.obj
 0001:0006f970       ?setFractionDigits@DecimalDatatypeValidator@xercesc_2_2@@AAEXI@Z 12070970 f i DatatypeValidatorFactory.obj
 0001:0006f980       ??0HexBinaryDatatypeValidator@xercesc_2_2@@QAE@ABV01@@Z 12070980 f i DatatypeValidatorFactory.obj
 0001:0006fa00       ??_EHexBinaryDatatypeValidator@xercesc_2_2@@UAEPAXI@Z 12070a00 f i DatatypeValidatorFactory.obj
 0001:0006fa60       ??0IDREFDatatypeValidator@xercesc_2_2@@QAE@ABV01@@Z 12070a60 f i DatatypeValidatorFactory.obj
 0001:0006fb00       ??_EIDREFDatatypeValidator@xercesc_2_2@@UAEPAXI@Z 12070b00 f i DatatypeValidatorFactory.obj
 0001:0006fb60       ??0NOTATIONDatatypeValidator@xercesc_2_2@@QAE@ABV01@@Z 12070b60 f i DatatypeValidatorFactory.obj
 0001:0006fbe0       ??_ENOTATIONDatatypeValidator@xercesc_2_2@@UAEPAXI@Z 12070be0 f i DatatypeValidatorFactory.obj
 0001:0006fc40       ??0ENTITYDatatypeValidator@xercesc_2_2@@QAE@ABV01@@Z 12070c40 f i DatatypeValidatorFactory.obj
 0001:0006fce0       ??4IDDatatypeValidator@xercesc_2_2@@QAEAAV01@ABV01@@Z 12070ce0 f i DatatypeValidatorFactory.obj
 0001:0006fce0       ??4ENTITYDatatypeValidator@xercesc_2_2@@QAEAAV01@ABV01@@Z 12070ce0 f i DatatypeValidatorFactory.obj
 0001:0006fce0       ??4IDREFDatatypeValidator@xercesc_2_2@@QAEAAV01@ABV01@@Z 12070ce0 f i DatatypeValidatorFactory.obj
 0001:0006fd60       ??_EENTITYDatatypeValidator@xercesc_2_2@@UAEPAXI@Z 12070d60 f i DatatypeValidatorFactory.obj
 0001:0006fdc0       ??0QNameDatatypeValidator@xercesc_2_2@@QAE@ABV01@@Z 12070dc0 f i DatatypeValidatorFactory.obj
 0001:0006fe40       ??_EQNameDatatypeValidator@xercesc_2_2@@UAEPAXI@Z 12070e40 f i DatatypeValidatorFactory.obj
 0001:0006fea0       ??0NameDatatypeValidator@xercesc_2_2@@QAE@ABV01@@Z 12070ea0 f i DatatypeValidatorFactory.obj
 0001:0006ff30       ??_ENameDatatypeValidator@xercesc_2_2@@UAEPAXI@Z 12070f30 f i DatatypeValidatorFactory.obj
 0001:0006ff90       ??0NCNameDatatypeValidator@xercesc_2_2@@QAE@ABV01@@Z 12070f90 f i DatatypeValidatorFactory.obj
 0001:00070020       ??4StringDatatypeValidator@xercesc_2_2@@QAEAAV01@ABV01@@Z 12071020 f i DatatypeValidatorFactory.obj
 0001:00070020       ??4NCNameDatatypeValidator@xercesc_2_2@@QAEAAV01@ABV01@@Z 12071020 f i DatatypeValidatorFactory.obj
 0001:00070020       ??4NameDatatypeValidator@xercesc_2_2@@QAEAAV01@ABV01@@Z 12071020 f i DatatypeValidatorFactory.obj
 0001:000700a0       ??_ENCNameDatatypeValidator@xercesc_2_2@@UAEPAXI@Z 120710a0 f i DatatypeValidatorFactory.obj
 0001:00070100       ??0ListDatatypeValidator@xercesc_2_2@@QAE@ABV01@@Z 12071100 f i DatatypeValidatorFactory.obj
 0001:00070190       ??4AnyURIDatatypeValidator@xercesc_2_2@@QAEAAV01@ABV01@@Z 12071190 f i DatatypeValidatorFactory.obj
 0001:00070190       ??4ListDatatypeValidator@xercesc_2_2@@QAEAAV01@ABV01@@Z 12071190 f i DatatypeValidatorFactory.obj
 0001:00070210       ??_EListDatatypeValidator@xercesc_2_2@@UAEPAXI@Z 12071210 f i DatatypeValidatorFactory.obj
 0001:00070270       ??0DoubleDatatypeValidator@xercesc_2_2@@QAE@ABV01@@Z 12071270 f i DatatypeValidatorFactory.obj
 0001:00070310       ??_EDoubleDatatypeValidator@xercesc_2_2@@UAEPAXI@Z 12071310 f i DatatypeValidatorFactory.obj
 0001:00070370       ??0FloatDatatypeValidator@xercesc_2_2@@QAE@ABV01@@Z 12071370 f i DatatypeValidatorFactory.obj
 0001:00070410       ??_EFloatDatatypeValidator@xercesc_2_2@@UAEPAXI@Z 12071410 f i DatatypeValidatorFactory.obj
 0001:00070470       ??0DateTimeValidator@xercesc_2_2@@QAE@ABV01@@Z 12071470 f i DatatypeValidatorFactory.obj
 0001:00070510       ??_EDateTimeValidator@xercesc_2_2@@UAEPAXI@Z 12071510 f i DatatypeValidatorFactory.obj
 0001:00070570       ??0DateTimeDatatypeValidator@xercesc_2_2@@QAE@ABV01@@Z 12071570 f i DatatypeValidatorFactory.obj
 0001:00070610       ??_EDateTimeDatatypeValidator@xercesc_2_2@@UAEPAXI@Z 12071610 f i DatatypeValidatorFactory.obj
 0001:00070670       ??0DateDatatypeValidator@xercesc_2_2@@QAE@ABV01@@Z 12071670 f i DatatypeValidatorFactory.obj
 0001:00070710       ??_EDateDatatypeValidator@xercesc_2_2@@UAEPAXI@Z 12071710 f i DatatypeValidatorFactory.obj
 0001:00070770       ??0TimeDatatypeValidator@xercesc_2_2@@QAE@ABV01@@Z 12071770 f i DatatypeValidatorFactory.obj
 0001:00070810       ??_ETimeDatatypeValidator@xercesc_2_2@@UAEPAXI@Z 12071810 f i DatatypeValidatorFactory.obj
 0001:00070870       ??0DayDatatypeValidator@xercesc_2_2@@QAE@ABV01@@Z 12071870 f i DatatypeValidatorFactory.obj
 0001:00070910       ??_EDayDatatypeValidator@xercesc_2_2@@UAEPAXI@Z 12071910 f i DatatypeValidatorFactory.obj
 0001:00070970       ??0MonthDatatypeValidator@xercesc_2_2@@QAE@ABV01@@Z 12071970 f i DatatypeValidatorFactory.obj
 0001:00070a10       ??_EMonthDatatypeValidator@xercesc_2_2@@UAEPAXI@Z 12071a10 f i DatatypeValidatorFactory.obj
 0001:00070a70       ??0MonthDayDatatypeValidator@xercesc_2_2@@QAE@ABV01@@Z 12071a70 f i DatatypeValidatorFactory.obj
 0001:00070b10       ??_EMonthDayDatatypeValidator@xercesc_2_2@@UAEPAXI@Z 12071b10 f i DatatypeValidatorFactory.obj
 0001:00070b70       ??0YearDatatypeValidator@xercesc_2_2@@QAE@ABV01@@Z 12071b70 f i DatatypeValidatorFactory.obj
 0001:00070c10       ??_EYearDatatypeValidator@xercesc_2_2@@UAEPAXI@Z 12071c10 f i DatatypeValidatorFactory.obj
 0001:00070c70       ??0YearMonthDatatypeValidator@xercesc_2_2@@QAE@ABV01@@Z 12071c70 f i DatatypeValidatorFactory.obj
 0001:00070d10       ??4MonthDayDatatypeValidator@xercesc_2_2@@QAEAAV01@ABV01@@Z 12071d10 f i DatatypeValidatorFactory.obj
 0001:00070d10       ??4DoubleDatatypeValidator@xercesc_2_2@@QAEAAV01@ABV01@@Z 12071d10 f i DatatypeValidatorFactory.obj
 0001:00070d10       ??4FloatDatatypeValidator@xercesc_2_2@@QAEAAV01@ABV01@@Z 12071d10 f i DatatypeValidatorFactory.obj
 0001:00070d10       ??4DateTimeValidator@xercesc_2_2@@QAEAAV01@ABV01@@Z 12071d10 f i DatatypeValidatorFactory.obj
 0001:00070d10       ??4DateTimeDatatypeValidator@xercesc_2_2@@QAEAAV01@ABV01@@Z 12071d10 f i DatatypeValidatorFactory.obj
 0001:00070d10       ??4DayDatatypeValidator@xercesc_2_2@@QAEAAV01@ABV01@@Z 12071d10 f i DatatypeValidatorFactory.obj
 0001:00070d10       ??4DurationDatatypeValidator@xercesc_2_2@@QAEAAV01@ABV01@@Z 12071d10 f i DatatypeValidatorFactory.obj
 0001:00070d10       ??4YearDatatypeValidator@xercesc_2_2@@QAEAAV01@ABV01@@Z 12071d10 f i DatatypeValidatorFactory.obj
 0001:00070d10       ??4DateDatatypeValidator@xercesc_2_2@@QAEAAV01@ABV01@@Z 12071d10 f i DatatypeValidatorFactory.obj
 0001:00070d10       ??4AbstractNumericFacetValidator@xercesc_2_2@@QAEAAV01@ABV01@@Z 12071d10 f i DatatypeValidatorFactory.obj
 0001:00070d10       ??4YearMonthDatatypeValidator@xercesc_2_2@@QAEAAV01@ABV01@@Z 12071d10 f i DatatypeValidatorFactory.obj
 0001:00070d10       ??4MonthDatatypeValidator@xercesc_2_2@@QAEAAV01@ABV01@@Z 12071d10 f i DatatypeValidatorFactory.obj
 0001:00070d10       ??4TimeDatatypeValidator@xercesc_2_2@@QAEAAV01@ABV01@@Z 12071d10 f i DatatypeValidatorFactory.obj
 0001:00070d10       ??4AbstractNumericValidator@xercesc_2_2@@QAEAAV01@ABV01@@Z 12071d10 f i DatatypeValidatorFactory.obj
 0001:00070db0       ??_EYearMonthDatatypeValidator@xercesc_2_2@@UAEPAXI@Z 12071db0 f i DatatypeValidatorFactory.obj
 0001:00070e10       ??0DurationDatatypeValidator@xercesc_2_2@@QAE@ABV01@@Z 12071e10 f i DatatypeValidatorFactory.obj
 0001:00070eb0       ??_EDurationDatatypeValidator@xercesc_2_2@@UAEPAXI@Z 12071eb0 f i DatatypeValidatorFactory.obj
 0001:00070f10       ??0DOM_Node@xercesc_2_2@@QAE@XZ 12071f10 f   DatatypeValidatorFactory.obj
 0001:00070f10       ??0DOM_NodeIterator@xercesc_2_2@@QAE@XZ 12071f10 f   DatatypeValidatorFactory.obj
 0001:00070f10       ??0DatatypeValidatorFactory@xercesc_2_2@@QAE@XZ 12071f10 f   DatatypeValidatorFactory.obj
 0001:00070f10       ??0DOM_TreeWalker@xercesc_2_2@@QAE@XZ 12071f10 f   DatatypeValidatorFactory.obj
 0001:00070f10       ??0DOM_Range@xercesc_2_2@@QAE@XZ 12071f10 f   DatatypeValidatorFactory.obj
 0001:00070f10       ??0DOMString@xercesc_2_2@@QAE@XZ 12071f10 f   DatatypeValidatorFactory.obj
 0001:00070f10       ??0DOM_NodeList@xercesc_2_2@@QAE@XZ 12071f10 f   DatatypeValidatorFactory.obj
 0001:00070f10       ??0XercesLocationPath@xercesc_2_2@@QAE@XZ 12071f10 f   DatatypeValidatorFactory.obj
 0001:00070f20       ??1DatatypeValidatorFactory@xercesc_2_2@@QAE@XZ 12071f20 f   DatatypeValidatorFactory.obj
 0001:00070fb0       ?resetRegistry@DatatypeValidatorFactory@xercesc_2_2@@QAEXXZ 12071fb0 f   DatatypeValidatorFactory.obj
 0001:00071010       ?reinitRegistry@DatatypeValidatorFactory@xercesc_2_2@@SAXXZ 12072010 f   DatatypeValidatorFactory.obj
 0001:000710a0       ?expandRegistryToFullSchemaSet@DatatypeValidatorFactory@xercesc_2_2@@QAEXXZ 120720a0 f   DatatypeValidatorFactory.obj
 0001:00073ca0       ?createDatatypeValidator@DatatypeValidatorFactory@xercesc_2_2@@QAEPAVDatatypeValidator@2@QBGQAV32@QAV?$RefHashTableOf@VKVStringPair@xercesc_2_2@@@2@QAV?$RefArrayVectorOf@G@2@_NH4@Z 12074ca0 f   DatatypeValidatorFactory.obj
 0001:00073f20       ??_G?$RefHashTableOf@VKVStringPair@xercesc_2_2@@@xercesc_2_2@@QAEPAXI@Z 12074f20 f i DatatypeValidatorFactory.obj
 0001:00073fc0       ?createDatatypeValidator@DatatypeValidatorFactory@xercesc_2_2@@QAEPAVDatatypeValidator@2@QBGQAV?$RefVectorOf@VDatatypeValidator@xercesc_2_2@@@2@H_N@Z 12074fc0 f   DatatypeValidatorFactory.obj
 0001:00074220       ??0?$RefHashTableOf@VKVStringPair@xercesc_2_2@@@xercesc_2_2@@QAE@I@Z 12075220 f i DatatypeValidatorFactory.obj
 0001:00074300       ?put@?$RefHashTableOf@VKVStringPair@xercesc_2_2@@@xercesc_2_2@@QAEXPAXQAVKVStringPair@2@@Z 12075300 f i DatatypeValidatorFactory.obj
 0001:00074410       ??0?$RefHashTableOf@VDatatypeValidator@xercesc_2_2@@@xercesc_2_2@@QAE@I@Z 12075410 f i DatatypeValidatorFactory.obj
 0001:000744f0       ?put@?$RefHashTableOf@VDatatypeValidator@xercesc_2_2@@@xercesc_2_2@@QAEXPAXQAVDatatypeValidator@2@@Z 120754f0 f i DatatypeValidatorFactory.obj
 0001:000745f0       ??_GKVStringPair@xercesc_2_2@@QAEPAXI@Z 120755f0 f i DatatypeValidatorFactory.obj
 0001:00074610       ?removeBucketElem@?$RefHashTableOf@VKVStringPair@xercesc_2_2@@@xercesc_2_2@@AAEXQBXAAI@Z 12075610 f i DatatypeValidatorFactory.obj
 0001:000746f0       ??0DateDatatypeValidator@xercesc_2_2@@QAE@XZ 120756f0 f   DateDatatypeValidator.obj
 0001:00074710       ??0DateDatatypeValidator@xercesc_2_2@@QAE@QAVDatatypeValidator@1@QAV?$RefHashTableOf@VKVStringPair@xercesc_2_2@@@1@QAV?$RefArrayVectorOf@G@1@H@Z 12075710 f   DateDatatypeValidator.obj
 0001:00074780       ??1DateDatatypeValidator@xercesc_2_2@@UAE@XZ 12075780 f   DateDatatypeValidator.obj
 0001:00074790       ?newInstance@DateDatatypeValidator@xercesc_2_2@@UAEPAVDatatypeValidator@2@QAV?$RefHashTableOf@VKVStringPair@xercesc_2_2@@@2@QAV?$RefArrayVectorOf@G@2@H@Z 12075790 f   DateDatatypeValidator.obj
 0001:00074810       ?parse@DateDatatypeValidator@xercesc_2_2@@MAEPAVXMLDateTime@2@QBG@Z 12075810 f   DateDatatypeValidator.obj
 0001:000748a0       ??0DateTimeDatatypeValidator@xercesc_2_2@@QAE@XZ 120758a0 f   DateTimeDatatypeValidator.obj
 0001:000748c0       ??0DateTimeDatatypeValidator@xercesc_2_2@@QAE@QAVDatatypeValidator@1@QAV?$RefHashTableOf@VKVStringPair@xercesc_2_2@@@1@QAV?$RefArrayVectorOf@G@1@H@Z 120758c0 f   DateTimeDatatypeValidator.obj
 0001:00074930       ??1DateTimeDatatypeValidator@xercesc_2_2@@UAE@XZ 12075930 f   DateTimeDatatypeValidator.obj
 0001:00074940       ?newInstance@DateTimeDatatypeValidator@xercesc_2_2@@UAEPAVDatatypeValidator@2@QAV?$RefHashTableOf@VKVStringPair@xercesc_2_2@@@2@QAV?$RefArrayVectorOf@G@2@H@Z 12075940 f   DateTimeDatatypeValidator.obj
 0001:000749c0       ?parse@DateTimeDatatypeValidator@xercesc_2_2@@MAEPAVXMLDateTime@2@QBG@Z 120759c0 f   DateTimeDatatypeValidator.obj
 0001:00074a50       ??1DateTimeValidator@xercesc_2_2@@UAE@XZ 12075a50 f   DateTimeValidator.obj
 0001:00074a60       ??0DateTimeValidator@xercesc_2_2@@IAE@QAVDatatypeValidator@1@QAV?$RefHashTableOf@VKVStringPair@xercesc_2_2@@@1@HW4ValidatorType@21@@Z 12075a60 f   DateTimeValidator.obj
 0001:00074a90       ?compare@DateTimeValidator@xercesc_2_2@@UAEHQBG0@Z 12075a90 f   DateTimeValidator.obj
 0001:00074b50       ?assignAdditionalFacet@DateTimeValidator@xercesc_2_2@@MAEXQBG0@Z 12075b50 f   DateTimeValidator.obj
 0001:00074b90       ?checkContent@DateTimeValidator@xercesc_2_2@@MAEXQBG_N@Z 12075b90 f   DateTimeValidator.obj
 0001:00074fc0       ?compareValues@DateTimeValidator@xercesc_2_2@@MAEHQBVXMLNumber@2@0@Z 12075fc0 f   DateTimeValidator.obj
 0001:00074fe0       ?compareDates@DateTimeValidator@xercesc_2_2@@MAEHQBVXMLDateTime@2@0_N@Z 12075fe0 f   DateTimeValidator.obj
 0001:00075000       ?setMaxInclusive@DateTimeValidator@xercesc_2_2@@MAEXQBG@Z 12076000 f   DateTimeValidator.obj
 0001:00075020       ?setMaxExclusive@DateTimeValidator@xercesc_2_2@@MAEXQBG@Z 12076020 f   DateTimeValidator.obj
 0001:00075040       ?setMinInclusive@DateTimeValidator@xercesc_2_2@@MAEXQBG@Z 12076040 f   DateTimeValidator.obj
 0001:00075060       ?setMinExclusive@DateTimeValidator@xercesc_2_2@@MAEXQBG@Z 12076060 f   DateTimeValidator.obj
 0001:00075080       ?setEnumeration@DateTimeValidator@xercesc_2_2@@MAEXXZ 12076080 f   DateTimeValidator.obj
 0001:000752b0       ??_G?$RefVectorOf@VXMLNumber@xercesc_2_2@@@xercesc_2_2@@UAEPAXI@Z 120762b0 f i DateTimeValidator.obj
 0001:000752b0       ??_E?$RefVectorOf@VXMLNumber@xercesc_2_2@@@xercesc_2_2@@UAEPAXI@Z 120762b0 f i DateTimeValidator.obj
 0001:000752d0       ??1?$RefVectorOf@VXMLNumber@xercesc_2_2@@@xercesc_2_2@@UAE@XZ 120762d0 f i DateTimeValidator.obj
 0001:00075350       ??1?$BaseRefVectorOf@VXMLNumber@xercesc_2_2@@@xercesc_2_2@@UAE@XZ 12076350 f i DateTimeValidator.obj
 0001:00075360       ??0DayDatatypeValidator@xercesc_2_2@@QAE@XZ 12076360 f   DayDatatypeValidator.obj
 0001:00075380       ??0DayDatatypeValidator@xercesc_2_2@@QAE@QAVDatatypeValidator@1@QAV?$RefHashTableOf@VKVStringPair@xercesc_2_2@@@1@QAV?$RefArrayVectorOf@G@1@H@Z 12076380 f   DayDatatypeValidator.obj
 0001:000753f0       ??1DayDatatypeValidator@xercesc_2_2@@UAE@XZ 120763f0 f   DayDatatypeValidator.obj
 0001:00075400       ?newInstance@DayDatatypeValidator@xercesc_2_2@@UAEPAVDatatypeValidator@2@QAV?$RefHashTableOf@VKVStringPair@xercesc_2_2@@@2@QAV?$RefArrayVectorOf@G@2@H@Z 12076400 f   DayDatatypeValidator.obj
 0001:00075480       ?parse@DayDatatypeValidator@xercesc_2_2@@MAEPAVXMLDateTime@2@QBG@Z 12076480 f   DayDatatypeValidator.obj
 0001:00075510       ??0DecimalDatatypeValidator@xercesc_2_2@@QAE@XZ 12076510 f   DecimalDatatypeValidator.obj
 0001:00075540       ??0DecimalDatatypeValidator@xercesc_2_2@@QAE@QAVDatatypeValidator@1@QAV?$RefHashTableOf@VKVStringPair@xercesc_2_2@@@1@QAV?$RefArrayVectorOf@G@1@H@Z 12076540 f   DecimalDatatypeValidator.obj
 0001:000755b0       ??1DecimalDatatypeValidator@xercesc_2_2@@UAE@XZ 120765b0 f   DecimalDatatypeValidator.obj
 0001:000755c0       ?compare@DecimalDatatypeValidator@xercesc_2_2@@UAEHQBG0@Z 120765c0 f   DecimalDatatypeValidator.obj
 0001:00075690       ?newInstance@DecimalDatatypeValidator@xercesc_2_2@@UAEPAVDatatypeValidator@2@QAV?$RefHashTableOf@VKVStringPair@xercesc_2_2@@@2@QAV?$RefArrayVectorOf@G@2@H@Z 12076690 f   DecimalDatatypeValidator.obj
 0001:00075730       ??0DecimalDatatypeValidator@xercesc_2_2@@IAE@QAVDatatypeValidator@1@QAV?$RefHashTableOf@VKVStringPair@xercesc_2_2@@@1@HW4ValidatorType@21@@Z 12076730 f   DecimalDatatypeValidator.obj
 0001:00075770       ?assignAdditionalFacet@DecimalDatatypeValidator@xercesc_2_2@@MAEXQBG0@Z 12076770 f   DecimalDatatypeValidator.obj
 0001:00075a20       ?inheritAdditionalFacet@DecimalDatatypeValidator@xercesc_2_2@@MAEXXZ 12076a20 f   DecimalDatatypeValidator.obj
 0001:00075a70       ?checkAdditionalFacetConstraints@DecimalDatatypeValidator@xercesc_2_2@@MBEXXZ 12076a70 f   DecimalDatatypeValidator.obj
 0001:00075af0       ?checkAdditionalFacetConstraintsBase@DecimalDatatypeValidator@xercesc_2_2@@MBEXXZ 12076af0 f   DecimalDatatypeValidator.obj
 0001:00075d40       ?compareValues@DecimalDatatypeValidator@xercesc_2_2@@MAEHQBVXMLNumber@2@0@Z 12076d40 f   DecimalDatatypeValidator.obj
 0001:00075d60       ?setMaxInclusive@DecimalDatatypeValidator@xercesc_2_2@@MAEXQBG@Z 12076d60 f   DecimalDatatypeValidator.obj
 0001:00075dc0       ?setMaxExclusive@DecimalDatatypeValidator@xercesc_2_2@@MAEXQBG@Z 12076dc0 f   DecimalDatatypeValidator.obj
 0001:00075e20       ?setMinInclusive@DecimalDatatypeValidator@xercesc_2_2@@MAEXQBG@Z 12076e20 f   DecimalDatatypeValidator.obj
 0001:00075e80       ?setMinExclusive@DecimalDatatypeValidator@xercesc_2_2@@MAEXQBG@Z 12076e80 f   DecimalDatatypeValidator.obj
 0001:00075ee0       ?setEnumeration@DecimalDatatypeValidator@xercesc_2_2@@MAEXXZ 12076ee0 f   DecimalDatatypeValidator.obj
 0001:00076190       ?checkContent@DecimalDatatypeValidator@xercesc_2_2@@MAEXQBG_N@Z 12077190 f   DecimalDatatypeValidator.obj
 0001:000765e0       ?insertElementAt@?$BaseRefVectorOf@VXMLNumber@xercesc_2_2@@@xercesc_2_2@@QAEXQAVXMLNumber@2@I@Z 120775e0 f i DecimalDatatypeValidator.obj
 0001:00076730       ??0DoubleDatatypeValidator@xercesc_2_2@@QAE@XZ 12077730 f   DoubleDatatypeValidator.obj
 0001:00076750       ??0DoubleDatatypeValidator@xercesc_2_2@@QAE@QAVDatatypeValidator@1@QAV?$RefHashTableOf@VKVStringPair@xercesc_2_2@@@1@QAV?$RefArrayVectorOf@G@1@H@Z 12077750 f   DoubleDatatypeValidator.obj
 0001:000767c0       ??1DoubleDatatypeValidator@xercesc_2_2@@UAE@XZ 120777c0 f   DoubleDatatypeValidator.obj
 0001:000767d0       ?compare@DoubleDatatypeValidator@xercesc_2_2@@UAEHQBG0@Z 120777d0 f   DoubleDatatypeValidator.obj
 0001:000768a0       ?newInstance@DoubleDatatypeValidator@xercesc_2_2@@UAEPAVDatatypeValidator@2@QAV?$RefHashTableOf@VKVStringPair@xercesc_2_2@@@2@QAV?$RefArrayVectorOf@G@2@H@Z 120778a0 f   DoubleDatatypeValidator.obj
 0001:00076920       ??0DoubleDatatypeValidator@xercesc_2_2@@IAE@QAVDatatypeValidator@1@QAV?$RefHashTableOf@VKVStringPair@xercesc_2_2@@@1@HW4ValidatorType@21@@Z 12077920 f   DoubleDatatypeValidator.obj
 0001:00076950       ?assignAdditionalFacet@DoubleDatatypeValidator@xercesc_2_2@@MAEXQBG0@Z 12077950 f   DoubleDatatypeValidator.obj
 0001:00076990       ?setMaxInclusive@DoubleDatatypeValidator@xercesc_2_2@@MAEXQBG@Z 12077990 f   DoubleDatatypeValidator.obj
 0001:000769f0       ?setMaxExclusive@DoubleDatatypeValidator@xercesc_2_2@@MAEXQBG@Z 120779f0 f   DoubleDatatypeValidator.obj
 0001:00076a50       ?setMinInclusive@DoubleDatatypeValidator@xercesc_2_2@@MAEXQBG@Z 12077a50 f   DoubleDatatypeValidator.obj
 0001:00076ab0       ?setMinExclusive@DoubleDatatypeValidator@xercesc_2_2@@MAEXQBG@Z 12077ab0 f   DoubleDatatypeValidator.obj
 0001:00076b10       ?setEnumeration@DoubleDatatypeValidator@xercesc_2_2@@MAEXXZ 12077b10 f   DoubleDatatypeValidator.obj
 0001:00076dc0       ?checkContent@DoubleDatatypeValidator@xercesc_2_2@@MAEXQBG_N@Z 12077dc0 f   DoubleDatatypeValidator.obj
 0001:00077050       ??0DurationDatatypeValidator@xercesc_2_2@@QAE@XZ 12078050 f   DurationDatatypeValidator.obj
 0001:00077070       ??0DurationDatatypeValidator@xercesc_2_2@@QAE@QAVDatatypeValidator@1@QAV?$RefHashTableOf@VKVStringPair@xercesc_2_2@@@1@QAV?$RefArrayVectorOf@G@1@H@Z 12078070 f   DurationDatatypeValidator.obj
 0001:000770e0       ??1DurationDatatypeValidator@xercesc_2_2@@UAE@XZ 120780e0 f   DurationDatatypeValidator.obj
 0001:000770f0       ?newInstance@DurationDatatypeValidator@xercesc_2_2@@UAEPAVDatatypeValidator@2@QAV?$RefHashTableOf@VKVStringPair@xercesc_2_2@@@2@QAV?$RefArrayVectorOf@G@2@H@Z 120780f0 f   DurationDatatypeValidator.obj
 0001:00077170       ?parse@DurationDatatypeValidator@xercesc_2_2@@MAEPAVXMLDateTime@2@QBG@Z 12078170 f   DurationDatatypeValidator.obj
 0001:00077200       ?compareDates@DurationDatatypeValidator@xercesc_2_2@@MAEHQBVXMLDateTime@2@0_N@Z 12078200 f   DurationDatatypeValidator.obj
 0001:00077220       ??0ENTITYDatatypeValidator@xercesc_2_2@@QAE@XZ 12078220 f   ENTITYDatatypeValidator.obj
 0001:00077250       ??0ENTITYDatatypeValidator@xercesc_2_2@@QAE@QAVDatatypeValidator@1@QAV?$RefHashTableOf@VKVStringPair@xercesc_2_2@@@1@QAV?$RefArrayVectorOf@G@1@H@Z 12078250 f   ENTITYDatatypeValidator.obj
 0001:000772c0       ??1ENTITYDatatypeValidator@xercesc_2_2@@UAE@XZ 120782c0 f   ENTITYDatatypeValidator.obj
 0001:000772d0       ?newInstance@ENTITYDatatypeValidator@xercesc_2_2@@UAEPAVDatatypeValidator@2@QAV?$RefHashTableOf@VKVStringPair@xercesc_2_2@@@2@QAV?$RefArrayVectorOf@G@2@H@Z 120782d0 f   ENTITYDatatypeValidator.obj
 0001:00077370       ?compare@ENTITYDatatypeValidator@xercesc_2_2@@UAEHQBG0@Z 12078370 f   ENTITYDatatypeValidator.obj
 0001:00077370       ?compare@NameDatatypeValidator@xercesc_2_2@@UAEHQBG0@Z 12078370 f   ENTITYDatatypeValidator.obj
 0001:00077370       ?compare@NCNameDatatypeValidator@xercesc_2_2@@UAEHQBG0@Z 12078370 f   ENTITYDatatypeValidator.obj
 0001:000773e0       ?validate@ENTITYDatatypeValidator@xercesc_2_2@@UAEXQBG@Z 120783e0 f   ENTITYDatatypeValidator.obj
 0001:00077500       ?checkValueSpace@ENTITYDatatypeValidator@xercesc_2_2@@MAEXQBG@Z 12078500 f   ENTITYDatatypeValidator.obj
 0001:00077550       ??0FloatDatatypeValidator@xercesc_2_2@@QAE@XZ 12078550 f   FloatDatatypeValidator.obj
 0001:00077570       ??0FloatDatatypeValidator@xercesc_2_2@@QAE@QAVDatatypeValidator@1@QAV?$RefHashTableOf@VKVStringPair@xercesc_2_2@@@1@QAV?$RefArrayVectorOf@G@1@H@Z 12078570 f   FloatDatatypeValidator.obj
 0001:000775e0       ??1FloatDatatypeValidator@xercesc_2_2@@UAE@XZ 120785e0 f   FloatDatatypeValidator.obj
 0001:000775f0       ?compare@FloatDatatypeValidator@xercesc_2_2@@UAEHQBG0@Z 120785f0 f   FloatDatatypeValidator.obj
 0001:000776c0       ?newInstance@FloatDatatypeValidator@xercesc_2_2@@UAEPAVDatatypeValidator@2@QAV?$RefHashTableOf@VKVStringPair@xercesc_2_2@@@2@QAV?$RefArrayVectorOf@G@2@H@Z 120786c0 f   FloatDatatypeValidator.obj
 0001:00077740       ??0FloatDatatypeValidator@xercesc_2_2@@IAE@QAVDatatypeValidator@1@QAV?$RefHashTableOf@VKVStringPair@xercesc_2_2@@@1@HW4ValidatorType@21@@Z 12078740 f   FloatDatatypeValidator.obj
 0001:00077770       ?assignAdditionalFacet@FloatDatatypeValidator@xercesc_2_2@@MAEXQBG0@Z 12078770 f   FloatDatatypeValidator.obj
 0001:000777b0       ?compareValues@FloatDatatypeValidator@xercesc_2_2@@MAEHQBVXMLNumber@2@0@Z 120787b0 f   FloatDatatypeValidator.obj
 0001:000777b0       ?compareValues@DoubleDatatypeValidator@xercesc_2_2@@MAEHQBVXMLNumber@2@0@Z 120787b0 f   FloatDatatypeValidator.obj
 0001:000777d0       ?setMaxInclusive@FloatDatatypeValidator@xercesc_2_2@@MAEXQBG@Z 120787d0 f   FloatDatatypeValidator.obj
 0001:00077830       ?setMaxExclusive@FloatDatatypeValidator@xercesc_2_2@@MAEXQBG@Z 12078830 f   FloatDatatypeValidator.obj
 0001:00077890       ?setMinInclusive@FloatDatatypeValidator@xercesc_2_2@@MAEXQBG@Z 12078890 f   FloatDatatypeValidator.obj
 0001:000778f0       ?setMinExclusive@FloatDatatypeValidator@xercesc_2_2@@MAEXQBG@Z 120788f0 f   FloatDatatypeValidator.obj
 0001:00077950       ?setEnumeration@FloatDatatypeValidator@xercesc_2_2@@MAEXXZ 12078950 f   FloatDatatypeValidator.obj
 0001:00077c00       ?checkContent@FloatDatatypeValidator@xercesc_2_2@@MAEXQBG_N@Z 12078c00 f   FloatDatatypeValidator.obj
 0001:00077e90       ??0HexBinaryDatatypeValidator@xercesc_2_2@@QAE@XZ 12078e90 f   HexBinaryDatatypeValidator.obj
 0001:00077eb0       ??1HexBinaryDatatypeValidator@xercesc_2_2@@UAE@XZ 12078eb0 f   HexBinaryDatatypeValidator.obj
 0001:00077ec0       ??0HexBinaryDatatypeValidator@xercesc_2_2@@QAE@QAVDatatypeValidator@1@QAV?$RefHashTableOf@VKVStringPair@xercesc_2_2@@@1@QAV?$RefArrayVectorOf@G@1@H@Z 12078ec0 f   HexBinaryDatatypeValidator.obj
 0001:00077f30       ?newInstance@HexBinaryDatatypeValidator@xercesc_2_2@@UAEPAVDatatypeValidator@2@QAV?$RefHashTableOf@VKVStringPair@xercesc_2_2@@@2@QAV?$RefArrayVectorOf@G@2@H@Z 12078f30 f   HexBinaryDatatypeValidator.obj
 0001:00077fb0       ?assignAdditionalFacet@HexBinaryDatatypeValidator@xercesc_2_2@@MAEXQBG0@Z 12078fb0 f   HexBinaryDatatypeValidator.obj
 0001:00077ff0       ?checkValueSpace@HexBinaryDatatypeValidator@xercesc_2_2@@MAEXQBG@Z 12078ff0 f   HexBinaryDatatypeValidator.obj
 0001:00078040       ?getLength@HexBinaryDatatypeValidator@xercesc_2_2@@MBEHQBG@Z 12079040 f   HexBinaryDatatypeValidator.obj
 0001:00078050       ??0IDDatatypeValidator@xercesc_2_2@@QAE@XZ 12079050 f   IDDatatypeValidator.obj
 0001:00078080       ??0IDDatatypeValidator@xercesc_2_2@@QAE@QAVDatatypeValidator@1@QAV?$RefHashTableOf@VKVStringPair@xercesc_2_2@@@1@QAV?$RefArrayVectorOf@G@1@H@Z 12079080 f   IDDatatypeValidator.obj
 0001:000780f0       ??1IDDatatypeValidator@xercesc_2_2@@UAE@XZ 120790f0 f   IDDatatypeValidator.obj
 0001:00078100       ?newInstance@IDDatatypeValidator@xercesc_2_2@@UAEPAVDatatypeValidator@2@QAV?$RefHashTableOf@VKVStringPair@xercesc_2_2@@@2@QAV?$RefArrayVectorOf@G@2@H@Z 12079100 f   IDDatatypeValidator.obj
 0001:000781a0       ??0IDDatatypeValidator@xercesc_2_2@@IAE@QAVDatatypeValidator@1@QAV?$RefHashTableOf@VKVStringPair@xercesc_2_2@@@1@HW4ValidatorType@21@@Z 120791a0 f   IDDatatypeValidator.obj
 0001:000781e0       ?validate@IDDatatypeValidator@xercesc_2_2@@UAEXQBG@Z 120791e0 f   IDDatatypeValidator.obj
 0001:00078210       ?addId@IDDatatypeValidator@xercesc_2_2@@AAEXQBG@Z 12079210 f   IDDatatypeValidator.obj
 0001:00078410       ?checkValueSpace@IDDatatypeValidator@xercesc_2_2@@MAEXQBG@Z 12079410 f   IDDatatypeValidator.obj
 0001:00078460       ??0IDREFDatatypeValidator@xercesc_2_2@@QAE@XZ 12079460 f   IDREFDatatypeValidator.obj
 0001:00078490       ??0IDREFDatatypeValidator@xercesc_2_2@@QAE@QAVDatatypeValidator@1@QAV?$RefHashTableOf@VKVStringPair@xercesc_2_2@@@1@QAV?$RefArrayVectorOf@G@1@H@Z 12079490 f   IDREFDatatypeValidator.obj
 0001:00078500       ??1IDREFDatatypeValidator@xercesc_2_2@@UAE@XZ 12079500 f   IDREFDatatypeValidator.obj
 0001:00078510       ?newInstance@IDREFDatatypeValidator@xercesc_2_2@@UAEPAVDatatypeValidator@2@QAV?$RefHashTableOf@VKVStringPair@xercesc_2_2@@@2@QAV?$RefArrayVectorOf@G@2@H@Z 12079510 f   IDREFDatatypeValidator.obj
 0001:000785b0       ??0IDREFDatatypeValidator@xercesc_2_2@@IAE@QAVDatatypeValidator@1@QAV?$RefHashTableOf@VKVStringPair@xercesc_2_2@@@1@HW4ValidatorType@21@@Z 120795b0 f   IDREFDatatypeValidator.obj
 0001:000785f0       ?validate@IDREFDatatypeValidator@xercesc_2_2@@UAEXQBG@Z 120795f0 f   IDREFDatatypeValidator.obj
 0001:00078620       ?addIdRef@IDREFDatatypeValidator@xercesc_2_2@@AAEXQBG@Z 12079620 f   IDREFDatatypeValidator.obj
 0001:00078800       ?checkValueSpace@IDREFDatatypeValidator@xercesc_2_2@@MAEXQBG@Z 12079800 f   IDREFDatatypeValidator.obj
 0001:00078850       ??0ListDatatypeValidator@xercesc_2_2@@QAE@XZ 12079850 f   ListDatatypeValidator.obj
 0001:00078880       ??0ListDatatypeValidator@xercesc_2_2@@QAE@QAVDatatypeValidator@1@QAV?$RefHashTableOf@VKVStringPair@xercesc_2_2@@@1@QAV?$RefArrayVectorOf@G@1@H@Z 12079880 f   ListDatatypeValidator.obj
 0001:00078940       ??1ListDatatypeValidator@xercesc_2_2@@UAE@XZ 12079940 f   ListDatatypeValidator.obj
 0001:00078950       ?newInstance@ListDatatypeValidator@xercesc_2_2@@UAEPAVDatatypeValidator@2@QAV?$RefHashTableOf@VKVStringPair@xercesc_2_2@@@2@QAV?$RefArrayVectorOf@G@2@H@Z 12079950 f   ListDatatypeValidator.obj
 0001:00078a30       ?compare@ListDatatypeValidator@xercesc_2_2@@UAEHQBG0@Z 12079a30 f   ListDatatypeValidator.obj
 0001:00078c10       ?validate@ListDatatypeValidator@xercesc_2_2@@UAEXQBG@Z 12079c10 f   ListDatatypeValidator.obj
 0001:00078c80       ?checkContent@ListDatatypeValidator@xercesc_2_2@@MAEXQBG_N@Z 12079c80 f   ListDatatypeValidator.obj
 0001:00078cf0       ?checkContent@ListDatatypeValidator@xercesc_2_2@@AAEXPAV?$BaseRefVectorOf@G@2@QBG_N@Z 12079cf0 f   ListDatatypeValidator.obj
 0001:000791d0       ?valueSpaceCheck@ListDatatypeValidator@xercesc_2_2@@ABE_NPAV?$BaseRefVectorOf@G@2@QBG@Z 1207a1d0 f   ListDatatypeValidator.obj
 0001:00079350       ?getItemTypeDTV@ListDatatypeValidator@xercesc_2_2@@QBEPAVDatatypeValidator@2@XZ 1207a350 f   ListDatatypeValidator.obj
 0001:00079370       ?assignAdditionalFacet@ListDatatypeValidator@xercesc_2_2@@MAEXQBG0@Z 1207a370 f   ListDatatypeValidator.obj
 0001:000793b0       ?getLength@ListDatatypeValidator@xercesc_2_2@@MBEHQBG@Z 1207a3b0 f   ListDatatypeValidator.obj
 0001:000793e0       ?inspectFacetBase@ListDatatypeValidator@xercesc_2_2@@MAEXXZ 1207a3e0 f   ListDatatypeValidator.obj
 0001:00079630       ?inheritFacet@ListDatatypeValidator@xercesc_2_2@@MAEXXZ 1207a630 f   ListDatatypeValidator.obj
 0001:00079640       ??0MonthDatatypeValidator@xercesc_2_2@@QAE@XZ 1207a640 f   MonthDatatypeValidator.obj
 0001:00079660       ??0MonthDatatypeValidator@xercesc_2_2@@QAE@QAVDatatypeValidator@1@QAV?$RefHashTableOf@VKVStringPair@xercesc_2_2@@@1@QAV?$RefArrayVectorOf@G@1@H@Z 1207a660 f   MonthDatatypeValidator.obj
 0001:000796d0       ??1MonthDatatypeValidator@xercesc_2_2@@UAE@XZ 1207a6d0 f   MonthDatatypeValidator.obj
 0001:000796e0       ?newInstance@MonthDatatypeValidator@xercesc_2_2@@UAEPAVDatatypeValidator@2@QAV?$RefHashTableOf@VKVStringPair@xercesc_2_2@@@2@QAV?$RefArrayVectorOf@G@2@H@Z 1207a6e0 f   MonthDatatypeValidator.obj
 0001:00079760       ?parse@MonthDatatypeValidator@xercesc_2_2@@MAEPAVXMLDateTime@2@QBG@Z 1207a760 f   MonthDatatypeValidator.obj
 0001:000797f0       ??0MonthDayDatatypeValidator@xercesc_2_2@@QAE@XZ 1207a7f0 f   MonthDayDatatypeValidator.obj
 0001:00079810       ??0MonthDayDatatypeValidator@xercesc_2_2@@QAE@QAVDatatypeValidator@1@QAV?$RefHashTableOf@VKVStringPair@xercesc_2_2@@@1@QAV?$RefArrayVectorOf@G@1@H@Z 1207a810 f   MonthDayDatatypeValidator.obj
 0001:00079880       ??1MonthDayDatatypeValidator@xercesc_2_2@@UAE@XZ 1207a880 f   MonthDayDatatypeValidator.obj
 0001:00079890       ?newInstance@MonthDayDatatypeValidator@xercesc_2_2@@UAEPAVDatatypeValidator@2@QAV?$RefHashTableOf@VKVStringPair@xercesc_2_2@@@2@QAV?$RefArrayVectorOf@G@2@H@Z 1207a890 f   MonthDayDatatypeValidator.obj
 0001:00079910       ?parse@MonthDayDatatypeValidator@xercesc_2_2@@MAEPAVXMLDateTime@2@QBG@Z 1207a910 f   MonthDayDatatypeValidator.obj
 0001:000799a0       ??0NameDatatypeValidator@xercesc_2_2@@QAE@XZ 1207a9a0 f   NameDatatypeValidator.obj
 0001:000799c0       ??1NameDatatypeValidator@xercesc_2_2@@UAE@XZ 1207a9c0 f   NameDatatypeValidator.obj
 0001:000799d0       ??0NameDatatypeValidator@xercesc_2_2@@QAE@QAVDatatypeValidator@1@QAV?$RefHashTableOf@VKVStringPair@xercesc_2_2@@@1@QAV?$RefArrayVectorOf@G@1@H@Z 1207a9d0 f   NameDatatypeValidator.obj
 0001:00079a40       ?newInstance@NameDatatypeValidator@xercesc_2_2@@UAEPAVDatatypeValidator@2@QAV?$RefHashTableOf@VKVStringPair@xercesc_2_2@@@2@QAV?$RefArrayVectorOf@G@2@H@Z 1207aa40 f   NameDatatypeValidator.obj
 0001:00079ac0       ??0NameDatatypeValidator@xercesc_2_2@@IAE@QAVDatatypeValidator@1@QAV?$RefHashTableOf@VKVStringPair@xercesc_2_2@@@1@HW4ValidatorType@21@@Z 1207aac0 f   NameDatatypeValidator.obj
 0001:00079af0       ?checkValueSpace@NameDatatypeValidator@xercesc_2_2@@MAEXQBG@Z 1207aaf0 f   NameDatatypeValidator.obj
 0001:00079b40       ??0NCNameDatatypeValidator@xercesc_2_2@@QAE@XZ 1207ab40 f   NCNameDatatypeValidator.obj
 0001:00079b60       ??1NCNameDatatypeValidator@xercesc_2_2@@UAE@XZ 1207ab60 f   NCNameDatatypeValidator.obj
 0001:00079b70       ??0NCNameDatatypeValidator@xercesc_2_2@@QAE@QAVDatatypeValidator@1@QAV?$RefHashTableOf@VKVStringPair@xercesc_2_2@@@1@QAV?$RefArrayVectorOf@G@1@H@Z 1207ab70 f   NCNameDatatypeValidator.obj
 0001:00079be0       ?newInstance@NCNameDatatypeValidator@xercesc_2_2@@UAEPAVDatatypeValidator@2@QAV?$RefHashTableOf@VKVStringPair@xercesc_2_2@@@2@QAV?$RefArrayVectorOf@G@2@H@Z 1207abe0 f   NCNameDatatypeValidator.obj
 0001:00079c60       ??0NCNameDatatypeValidator@xercesc_2_2@@IAE@QAVDatatypeValidator@1@QAV?$RefHashTableOf@VKVStringPair@xercesc_2_2@@@1@HW4ValidatorType@21@@Z 1207ac60 f   NCNameDatatypeValidator.obj
 0001:00079c90       ?validate@NCNameDatatypeValidator@xercesc_2_2@@UAEXQBG@Z 1207ac90 f   NCNameDatatypeValidator.obj
 0001:00079c90       ?validate@NameDatatypeValidator@xercesc_2_2@@UAEXQBG@Z 1207ac90 f   NCNameDatatypeValidator.obj
 0001:00079ca0       ?checkValueSpace@NCNameDatatypeValidator@xercesc_2_2@@MAEXQBG@Z 1207aca0 f   NCNameDatatypeValidator.obj
 0001:00079cf0       ??0NOTATIONDatatypeValidator@xercesc_2_2@@QAE@XZ 1207acf0 f   NOTATIONDatatypeValidator.obj
 0001:00079d10       ??1NOTATIONDatatypeValidator@xercesc_2_2@@UAE@XZ 1207ad10 f   NOTATIONDatatypeValidator.obj
 0001:00079d20       ??0NOTATIONDatatypeValidator@xercesc_2_2@@QAE@QAVDatatypeValidator@1@QAV?$RefHashTableOf@VKVStringPair@xercesc_2_2@@@1@QAV?$RefArrayVectorOf@G@1@H@Z 1207ad20 f   NOTATIONDatatypeValidator.obj
 0001:00079d90       ?newInstance@NOTATIONDatatypeValidator@xercesc_2_2@@UAEPAVDatatypeValidator@2@QAV?$RefHashTableOf@VKVStringPair@xercesc_2_2@@@2@QAV?$RefArrayVectorOf@G@2@H@Z 1207ad90 f   NOTATIONDatatypeValidator.obj
 0001:00079e10       ?assignAdditionalFacet@NOTATIONDatatypeValidator@xercesc_2_2@@MAEXQBG0@Z 1207ae10 f   NOTATIONDatatypeValidator.obj
 0001:00079e50       ?checkValueSpace@NOTATIONDatatypeValidator@xercesc_2_2@@MAEXQBG@Z 1207ae50 f   NOTATIONDatatypeValidator.obj
 0001:0007a040       ??0QNameDatatypeValidator@xercesc_2_2@@QAE@XZ 1207b040 f   QNameDatatypeValidator.obj
 0001:0007a060       ??1QNameDatatypeValidator@xercesc_2_2@@UAE@XZ 1207b060 f   QNameDatatypeValidator.obj
 0001:0007a070       ??0QNameDatatypeValidator@xercesc_2_2@@QAE@QAVDatatypeValidator@1@QAV?$RefHashTableOf@VKVStringPair@xercesc_2_2@@@1@QAV?$RefArrayVectorOf@G@1@H@Z 1207b070 f   QNameDatatypeValidator.obj
 0001:0007a0e0       ?newInstance@QNameDatatypeValidator@xercesc_2_2@@UAEPAVDatatypeValidator@2@QAV?$RefHashTableOf@VKVStringPair@xercesc_2_2@@@2@QAV?$RefArrayVectorOf@G@2@H@Z 1207b0e0 f   QNameDatatypeValidator.obj
 0001:0007a160       ?assignAdditionalFacet@QNameDatatypeValidator@xercesc_2_2@@MAEXQBG0@Z 1207b160 f   QNameDatatypeValidator.obj
 0001:0007a1a0       ?checkValueSpace@QNameDatatypeValidator@xercesc_2_2@@MAEXQBG@Z 1207b1a0 f   QNameDatatypeValidator.obj
 0001:0007a1f0       ??0StringDatatypeValidator@xercesc_2_2@@QAE@XZ 1207b1f0 f   StringDatatypeValidator.obj
 0001:0007a210       ??0StringDatatypeValidator@xercesc_2_2@@QAE@QAVDatatypeValidator@1@QAV?$RefHashTableOf@VKVStringPair@xercesc_2_2@@@1@QAV?$RefArrayVectorOf@G@1@H@Z 1207b210 f   StringDatatypeValidator.obj
 0001:0007a280       ??1StringDatatypeValidator@xercesc_2_2@@UAE@XZ 1207b280 f   StringDatatypeValidator.obj
 0001:0007a290       ?newInstance@StringDatatypeValidator@xercesc_2_2@@UAEPAVDatatypeValidator@2@QAV?$RefHashTableOf@VKVStringPair@xercesc_2_2@@@2@QAV?$RefArrayVectorOf@G@2@H@Z 1207b290 f   StringDatatypeValidator.obj
 0001:0007a330       ??0StringDatatypeValidator@xercesc_2_2@@IAE@QAVDatatypeValidator@1@QAV?$RefHashTableOf@VKVStringPair@xercesc_2_2@@@1@HW4ValidatorType@21@@Z 1207b330 f   StringDatatypeValidator.obj
 0001:0007a360       ?getWSFacet@StringDatatypeValidator@xercesc_2_2@@UBEFXZ 1207b360 f   StringDatatypeValidator.obj
 0001:0007a370       ?assignAdditionalFacet@StringDatatypeValidator@xercesc_2_2@@MAEXQBG0@Z 1207b370 f   StringDatatypeValidator.obj
 0001:0007a570       ?inheritAdditionalFacet@StringDatatypeValidator@xercesc_2_2@@MAEXXZ 1207b570 f   StringDatatypeValidator.obj
 0001:0007a5a0       ?checkAdditionalFacetConstraints@StringDatatypeValidator@xercesc_2_2@@MBEXXZ 1207b5a0 f   StringDatatypeValidator.obj
 0001:0007a6a0       ?checkAdditionalFacet@StringDatatypeValidator@xercesc_2_2@@MBEXQBG@Z 1207b6a0 f   StringDatatypeValidator.obj
 0001:0007a750       ??0TimeDatatypeValidator@xercesc_2_2@@QAE@XZ 1207b750 f   TimeDatatypeValidator.obj
 0001:0007a770       ??0TimeDatatypeValidator@xercesc_2_2@@QAE@QAVDatatypeValidator@1@QAV?$RefHashTableOf@VKVStringPair@xercesc_2_2@@@1@QAV?$RefArrayVectorOf@G@1@H@Z 1207b770 f   TimeDatatypeValidator.obj
 0001:0007a7e0       ??1TimeDatatypeValidator@xercesc_2_2@@UAE@XZ 1207b7e0 f   TimeDatatypeValidator.obj
 0001:0007a7f0       ?newInstance@TimeDatatypeValidator@xercesc_2_2@@UAEPAVDatatypeValidator@2@QAV?$RefHashTableOf@VKVStringPair@xercesc_2_2@@@2@QAV?$RefArrayVectorOf@G@2@H@Z 1207b7f0 f   TimeDatatypeValidator.obj
 0001:0007a870       ?parse@TimeDatatypeValidator@xercesc_2_2@@MAEPAVXMLDateTime@2@QBG@Z 1207b870 f   TimeDatatypeValidator.obj
 0001:0007a900       ??0UnionDatatypeValidator@xercesc_2_2@@QAE@XZ 1207b900 f   UnionDatatypeValidator.obj
 0001:0007a930       ??1UnionDatatypeValidator@xercesc_2_2@@UAE@XZ 1207b930 f   UnionDatatypeValidator.obj
 0001:0007a9a0       ??0UnionDatatypeValidator@xercesc_2_2@@QAE@QAV?$RefVectorOf@VDatatypeValidator@xercesc_2_2@@@1@H@Z 1207b9a0 f   UnionDatatypeValidator.obj
 0001:0007aa50       ??0UnionDatatypeValidator@xercesc_2_2@@QAE@QAVDatatypeValidator@1@QAV?$RefHashTableOf@VKVStringPair@xercesc_2_2@@@1@QAV?$RefArrayVectorOf@G@1@H@Z 1207ba50 f   UnionDatatypeValidator.obj
 0001:0007aba0       ?init@UnionDatatypeValidator@xercesc_2_2@@AAEXQAVDatatypeValidator@2@QAV?$RefHashTableOf@VKVStringPair@xercesc_2_2@@@2@QAV?$RefArrayVectorOf@G@2@@Z 1207bba0 f   UnionDatatypeValidator.obj
 0001:0007aed0       ?checkContent@UnionDatatypeValidator@xercesc_2_2@@AAEXQBG_N@Z 1207bed0 f   UnionDatatypeValidator.obj
 0001:0007b2d0       ?compare@UnionDatatypeValidator@xercesc_2_2@@UAEHQBG0@Z 1207c2d0 f   UnionDatatypeValidator.obj
 0001:0007b360       ??0YearDatatypeValidator@xercesc_2_2@@QAE@XZ 1207c360 f   YearDatatypeValidator.obj
 0001:0007b380       ??0YearDatatypeValidator@xercesc_2_2@@QAE@QAVDatatypeValidator@1@QAV?$RefHashTableOf@VKVStringPair@xercesc_2_2@@@1@QAV?$RefArrayVectorOf@G@1@H@Z 1207c380 f   YearDatatypeValidator.obj
 0001:0007b3f0       ??1YearDatatypeValidator@xercesc_2_2@@UAE@XZ 1207c3f0 f   YearDatatypeValidator.obj
 0001:0007b400       ?newInstance@YearDatatypeValidator@xercesc_2_2@@UAEPAVDatatypeValidator@2@QAV?$RefHashTableOf@VKVStringPair@xercesc_2_2@@@2@QAV?$RefArrayVectorOf@G@2@H@Z 1207c400 f   YearDatatypeValidator.obj
 0001:0007b480       ?parse@YearDatatypeValidator@xercesc_2_2@@MAEPAVXMLDateTime@2@QBG@Z 1207c480 f   YearDatatypeValidator.obj
 0001:0007b510       ??0YearMonthDatatypeValidator@xercesc_2_2@@QAE@XZ 1207c510 f   YearMonthDatatypeValidator.obj
 0001:0007b530       ??0YearMonthDatatypeValidator@xercesc_2_2@@QAE@QAVDatatypeValidator@1@QAV?$RefHashTableOf@VKVStringPair@xercesc_2_2@@@1@QAV?$RefArrayVectorOf@G@1@H@Z 1207c530 f   YearMonthDatatypeValidator.obj
 0001:0007b5a0       ??1YearMonthDatatypeValidator@xercesc_2_2@@UAE@XZ 1207c5a0 f   YearMonthDatatypeValidator.obj
 0001:0007b5b0       ?newInstance@YearMonthDatatypeValidator@xercesc_2_2@@UAEPAVDatatypeValidator@2@QAV?$RefHashTableOf@VKVStringPair@xercesc_2_2@@@2@QAV?$RefArrayVectorOf@G@2@H@Z 1207c5b0 f   YearMonthDatatypeValidator.obj
 0001:0007b630       ?parse@YearMonthDatatypeValidator@xercesc_2_2@@MAEPAVXMLDateTime@2@QBG@Z 1207c630 f   YearMonthDatatypeValidator.obj
 0001:0007b6c0       ??0DTDAttDef@xercesc_2_2@@QAE@XZ 1207c6c0 f   DTDAttDef.obj
 0001:0007b6f0       ??_EDTDAttDef@xercesc_2_2@@UAEPAXI@Z 1207c6f0 f i DTDAttDef.obj
 0001:0007b750       ??0DTDAttDef@xercesc_2_2@@QAE@QBGW4AttTypes@XMLAttDef@1@W4DefAttTypes@31@@Z 1207c750 f   DTDAttDef.obj
 0001:0007b820       ??0DTDAttDef@xercesc_2_2@@QAE@QBG0W4AttTypes@XMLAttDef@1@W4DefAttTypes@31@0@Z 1207c820 f   DTDAttDef.obj
 0001:0007b8f0       ??1DTDAttDef@xercesc_2_2@@UAE@XZ 1207c8f0 f   DTDAttDef.obj
 0001:0007b950       ?setName@DTDAttDef@xercesc_2_2@@QAEXQBG@Z 1207c950 f   DTDAttDef.obj
 0001:0007b9c0       ??0DTDAttDefList@xercesc_2_2@@QAE@ABV01@@Z 1207c9c0 f i DTDAttDefList.obj
 0001:0007b9f0       ??_EDTDAttDefList@xercesc_2_2@@UAEPAXI@Z 1207c9f0 f i DTDAttDefList.obj
 0001:0007ba50       ??0DTDAttDefList@xercesc_2_2@@QAE@QAV?$RefHashTableOf@VDTDAttDef@xercesc_2_2@@@1@@Z 1207ca50 f   DTDAttDefList.obj
 0001:0007bb50       ??1DTDAttDefList@xercesc_2_2@@UAE@XZ 1207cb50 f   DTDAttDefList.obj
 0001:0007bba0       ?findAttDef@DTDAttDefList@xercesc_2_2@@UAEPAVXMLAttDef@2@QBG0@Z 1207cba0 f   DTDAttDefList.obj
 0001:0007bba0       ?findAttDef@DTDAttDefList@xercesc_2_2@@UBEPBVXMLAttDef@2@QBG0@Z 1207cba0 f   DTDAttDefList.obj
 0001:0007bba0       ?findAttDef@DTDAttDefList@xercesc_2_2@@UAEPAVXMLAttDef@2@KQBG@Z 1207cba0 f   DTDAttDefList.obj
 0001:0007bba0       ?findAttDef@DTDAttDefList@xercesc_2_2@@UBEPBVXMLAttDef@2@KQBG@Z 1207cba0 f   DTDAttDefList.obj
 0001:0007bc30       ??1?$XMLEnumerator@VDTDAttDef@xercesc_2_2@@@xercesc_2_2@@UAE@XZ 1207cc30 f i DTDAttDefList.obj
 0001:0007bc40       ??_E?$XMLEnumerator@VDTDAttDef@xercesc_2_2@@@xercesc_2_2@@UAEPAXI@Z 1207cc40 f i DTDAttDefList.obj
 0001:0007bc40       ??_G?$XMLEnumerator@VDTDAttDef@xercesc_2_2@@@xercesc_2_2@@UAEPAXI@Z 1207cc40 f i DTDAttDefList.obj
 0001:0007bc60       ??_E?$RefHashTableOfEnumerator@VDTDAttDef@xercesc_2_2@@@xercesc_2_2@@UAEPAXI@Z 1207cc60 f i DTDAttDefList.obj
 0001:0007bc60       ??_G?$RefHashTableOfEnumerator@VDTDAttDef@xercesc_2_2@@@xercesc_2_2@@UAEPAXI@Z 1207cc60 f i DTDAttDefList.obj
 0001:0007bc80       ??1?$RefHashTableOfEnumerator@VDTDAttDef@xercesc_2_2@@@xercesc_2_2@@UAE@XZ 1207cc80 f i DTDAttDefList.obj
 0001:0007bd60       ??0DTDElementDecl@xercesc_2_2@@QAE@XZ 1207cd60 f   DTDElementDecl.obj
 0001:0007bd90       ??_EDTDElementDecl@xercesc_2_2@@UAEPAXI@Z 1207cd90 f i DTDElementDecl.obj
 0001:0007bdf0       ??0DTDElementDecl@xercesc_2_2@@QAE@QBGIW4ModelTypes@01@@Z 1207cdf0 f   DTDElementDecl.obj
 0001:0007be60       ??0DTDElementDecl@xercesc_2_2@@QAE@QAVQName@1@W4ModelTypes@01@@Z 1207ce60 f   DTDElementDecl.obj
 0001:0007bed0       ??1DTDElementDecl@xercesc_2_2@@UAE@XZ 1207ced0 f   DTDElementDecl.obj
 0001:0007c000       ??_GContentSpecNode@xercesc_2_2@@QAEPAXI@Z 1207d000 f i DTDElementDecl.obj
 0001:0007c060       ?findAttr@DTDElementDecl@xercesc_2_2@@UBEPAVXMLAttDef@2@QBGI00W4LookupOpts@XMLElementDecl@2@AA_N@Z 1207d060 f   DTDElementDecl.obj
 0001:0007c2d0       ?getAttDefList@DTDElementDecl@xercesc_2_2@@UBEAAVXMLAttDefList@2@XZ 1207d2d0 f   DTDElementDecl.obj
 0001:0007c3e0       ?getCharDataOpts@DTDElementDecl@xercesc_2_2@@UBE?AW4CharDataOpts@XMLElementDecl@2@XZ 1207d3e0 f   DTDElementDecl.obj
 0001:0007c400       ?hasAttDefs@DTDElementDecl@xercesc_2_2@@UBE_NXZ 1207d400 f   DTDElementDecl.obj
 0001:0007c440       ?resetDefs@DTDElementDecl@xercesc_2_2@@UAE_NXZ 1207d440 f   DTDElementDecl.obj
 0001:0007c600       ?setContentSpec@DTDElementDecl@xercesc_2_2@@UAEXPAVContentSpecNode@2@@Z 1207d600 f   DTDElementDecl.obj
 0001:0007c670       ?getFormattedContentModel@DTDElementDecl@xercesc_2_2@@UBEPBGXZ 1207d670 f   DTDElementDecl.obj
 0001:0007c690       ?getAttDef@DTDElementDecl@xercesc_2_2@@QAEPAVDTDAttDef@2@QBG@Z 1207d690 f   DTDElementDecl.obj
 0001:0007c690       ?getAttDef@DTDElementDecl@xercesc_2_2@@QBEPBVDTDAttDef@2@QBG@Z 1207d690 f   DTDElementDecl.obj
 0001:0007c730       ?addAttDef@DTDElementDecl@xercesc_2_2@@QAEXQAVDTDAttDef@2@@Z 1207d730 f   DTDElementDecl.obj
 0001:0007c760       ?formatContentModel@DTDElementDecl@xercesc_2_2@@ABEPAGXZ 1207d760 f   DTDElementDecl.obj
 0001:0007c940       ?makeContentModel@DTDElementDecl@xercesc_2_2@@AAEPAVXMLContentModel@2@XZ 1207d940 f   DTDElementDecl.obj
 0001:0007ca10       ?createChildModel@DTDElementDecl@xercesc_2_2@@AAEPAVXMLContentModel@2@XZ 1207da10 f   DTDElementDecl.obj
 0001:0007ceb0       ??_ESimpleContentModel@xercesc_2_2@@UAEPAXI@Z 1207deb0 f i DTDElementDecl.obj
 0001:0007ceb0       ??_GSimpleContentModel@xercesc_2_2@@UAEPAXI@Z 1207deb0 f i DTDElementDecl.obj
 0001:0007ced0       ??1SimpleContentModel@xercesc_2_2@@UAE@XZ 1207ded0 f i DTDElementDecl.obj
 0001:0007cf50       ?faultInAttDefList@DTDElementDecl@xercesc_2_2@@ABEXXZ 1207df50 f   DTDElementDecl.obj
 0001:0007d030       ?put@?$RefHashTableOf@VDTDAttDef@xercesc_2_2@@@xercesc_2_2@@QAEXPAXQAVDTDAttDef@2@@Z 1207e030 f i DTDElementDecl.obj
 0001:0007d130       ??0DTDGrammar@xercesc_2_2@@QAE@XZ 1207e130 f   DTDGrammar.obj
 0001:0007d350       ??1DTDGrammar@xercesc_2_2@@UAE@XZ 1207e350 f   DTDGrammar.obj
 0001:0007d4e0       ?findOrAddElemDecl@DTDGrammar@xercesc_2_2@@UAEPAVXMLElementDecl@2@IQBG00IAA_N@Z 1207e4e0 f   DTDGrammar.obj
 0001:0007d700       ?putElemDecl@DTDGrammar@xercesc_2_2@@UAEPAVXMLElementDecl@2@IQBG00I_N@Z 1207e700 f   DTDGrammar.obj
 0001:0007d9f0       ?reset@DTDGrammar@xercesc_2_2@@UAEXXZ 1207e9f0 f   DTDGrammar.obj
 0001:0007db20       ?resetEntityDeclPool@DTDGrammar@xercesc_2_2@@AAEXXZ 1207eb20 f   DTDGrammar.obj
 0001:0007dee0       ?removeAll@?$NameIdPool@VDTDElementDecl@xercesc_2_2@@@xercesc_2_2@@QAEXXZ 1207eee0 f i DTDGrammar.obj
 0001:0007df50       ??0?$NameIdPool@VXMLNotationDecl@xercesc_2_2@@@xercesc_2_2@@QAE@II@Z 1207ef50 f i DTDGrammar.obj
 0001:0007e000       ?removeAll@?$NameIdPool@VXMLNotationDecl@xercesc_2_2@@@xercesc_2_2@@QAEXXZ 1207f000 f i DTDGrammar.obj
 0001:0007e080       ??_GXMLNotationDecl@xercesc_2_2@@QAEPAXI@Z 1207f080 f i DTDGrammar.obj
 0001:0007e0a0       ??_G?$NameIdPoolBucketElem@VDTDEntityDecl@xercesc_2_2@@@xercesc_2_2@@QAEPAXI@Z 1207f0a0 f i DTDGrammar.obj
 0001:0007e0a0       ??_G?$NameIdPoolBucketElem@VXMLNotationDecl@xercesc_2_2@@@xercesc_2_2@@QAEPAXI@Z 1207f0a0 f i DTDGrammar.obj
 0001:0007e0a0       ??_GRangeTokenElemMap@xercesc_2_2@@QAEPAXI@Z 1207f0a0 f i DTDGrammar.obj
 0001:0007e0c0       ?findBucketElem@?$NameIdPool@VDTDElementDecl@xercesc_2_2@@@xercesc_2_2@@AAEPAU?$NameIdPoolBucketElem@VDTDElementDecl@xercesc_2_2@@@2@QBGAAI@Z 1207f0c0 f i DTDGrammar.obj
 0001:0007e180       ??0DTDScanner@xercesc_2_2@@QAE@PAVDTDGrammar@1@QAVDocTypeHandler@1@@Z 1207f180 f   DTDScanner.obj
 0001:0007e260       ??1DTDScanner@xercesc_2_2@@UAE@XZ 1207f260 f   DTDScanner.obj
 0001:0007e310       ?setScannerInfo@DTDScanner@xercesc_2_2@@QAEXQAVXMLScanner@2@QAVReaderMgr@2@QAVXMLBufferMgr@2@@Z 1207f310 f   DTDScanner.obj
 0001:0007e360       ?checkForPERef@DTDScanner@xercesc_2_2@@AAE_N_N000@Z 1207f360 f   DTDScanner.obj
 0001:0007e3f0       ?expandPERef@DTDScanner@xercesc_2_2@@AAE_N_N000@Z 1207f3f0 f   DTDScanner.obj
 0001:0007e7b0       ?getQuotedString@DTDScanner@xercesc_2_2@@AAE_NAAVXMLBuffer@2@@Z 1207f7b0 f   DTDScanner.obj
 0001:0007e820       ?scanAttDef@DTDScanner@xercesc_2_2@@AAEPAVXMLAttDef@2@AAVDTDElementDecl@2@AAVXMLBuffer@2@@Z 1207f820 f   DTDScanner.obj
 0001:0007f0f0       ?scanAttListDecl@DTDScanner@xercesc_2_2@@AAEXXZ 120800f0 f   DTDScanner.obj
 0001:0007f410       ?scanAttValue@DTDScanner@xercesc_2_2@@AAE_NQBGAAVXMLBuffer@2@W4AttTypes@XMLAttDef@2@@Z 12080410 f   DTDScanner.obj
 0001:0007f750       ?scanCharRef@DTDScanner@xercesc_2_2@@AAE_NAAG0@Z 12080750 f   DTDScanner.obj
 0001:0007f970       ?scanChildren@DTDScanner@xercesc_2_2@@AAEPAVContentSpecNode@2@ABVDTDElementDecl@2@AAVXMLBuffer@2@@Z 12080970 f   DTDScanner.obj
 0001:00080160       ??1ContentSpecNode@xercesc_2_2@@QAE@XZ 12081160 f i DTDScanner.obj
 0001:000801c0       ??_GQName@xercesc_2_2@@QAEPAXI@Z 120811c0 f i DTDScanner.obj
 0001:000802a0       ?scanComment@DTDScanner@xercesc_2_2@@AAEXXZ 120812a0 f   DTDScanner.obj
 0001:000804e0       ?scanContentSpec@DTDScanner@xercesc_2_2@@AAE_NAAVDTDElementDecl@2@@Z 120814e0 f   DTDScanner.obj
 0001:000806c0       ?scanDefaultDecl@DTDScanner@xercesc_2_2@@AAEXAAVDTDAttDef@2@@Z 120816c0 f   DTDScanner.obj
 0001:00080880       ?scanElementDecl@DTDScanner@xercesc_2_2@@AAEXXZ 12081880 f   DTDScanner.obj
 0001:00080b30       ?scanEntityDecl@DTDScanner@xercesc_2_2@@AAEXXZ 12081b30 f   DTDScanner.obj
 0001:00080f90       ?scanEntityRef@DTDScanner@xercesc_2_2@@AAE?AW4EntityExpRes@12@AAG0AA_N@Z 12081f90 f   DTDScanner.obj
 0001:00081370       ?scanEntityLiteral@DTDScanner@xercesc_2_2@@AAE_NAAVXMLBuffer@2@_N@Z 12082370 f   DTDScanner.obj
 0001:000816f0       ?scanEntityDef@DTDScanner@xercesc_2_2@@AAE_NAAVDTDEntityDecl@2@_N@Z 120826f0 f   DTDScanner.obj
 0001:00081af0       ?scanEnumeration@DTDScanner@xercesc_2_2@@AAE_NABVDTDAttDef@2@AAVXMLBuffer@2@_N@Z 12082af0 f   DTDScanner.obj
 0001:00081c80       ?scanEq@DTDScanner@xercesc_2_2@@AAE_NXZ 12082c80 f   DTDScanner.obj
 0001:00081cb0       ?scanExtSubsetDecl@DTDScanner@xercesc_2_2@@QAEX_N0@Z 12082cb0 f   DTDScanner.obj
 0001:00082060       ?scanId@DTDScanner@xercesc_2_2@@QAE_NAAVXMLBuffer@2@0W4IDTypes@12@@Z 12083060 f   DTDScanner.obj
 0001:00082300       ?scanIgnoredSection@DTDScanner@xercesc_2_2@@AAEXXZ 12083300 f   DTDScanner.obj
 0001:00082480       ?scanInternalSubset@DTDScanner@xercesc_2_2@@QAE_NXZ 12083480 f   DTDScanner.obj
 0001:000826c0       ?scanMarkupDecl@DTDScanner@xercesc_2_2@@AAEX_N@Z 120836c0 f   DTDScanner.obj
 0001:00082a00       ?scanMixed@DTDScanner@xercesc_2_2@@AAE_NAAVDTDElementDecl@2@@Z 12083a00 f   DTDScanner.obj
 0001:00082f20       ?scanNotationDecl@DTDScanner@xercesc_2_2@@AAEXXZ 12083f20 f   DTDScanner.obj
 0001:00083270       ?scanPI@DTDScanner@xercesc_2_2@@AAEXXZ 12084270 f   DTDScanner.obj
 0001:000835a0       ?scanPublicLiteral@DTDScanner@xercesc_2_2@@AAE_NAAVXMLBuffer@2@@Z 120845a0 f   DTDScanner.obj
 0001:00083690       ?scanSystemLiteral@DTDScanner@xercesc_2_2@@AAE_NAAVXMLBuffer@2@@Z 12084690 f   DTDScanner.obj
 0001:00083740       ?scanTextDecl@DTDScanner@xercesc_2_2@@AAEXXZ 12084740 f   DTDScanner.obj
 0001:00083b90       ??1?$FlagJanitor@_N@xercesc_2_2@@QAE@XZ 12084b90 f i DTDScanner.obj
 0001:00083ba0       ??0DTDValidator@xercesc_2_2@@QAE@QAVXMLErrorReporter@1@@Z 12084ba0 f   DTDValidator.obj
 0001:00083bc0       ??_EDTDValidator@xercesc_2_2@@UAEPAXI@Z 12084bc0 f i DTDValidator.obj
 0001:00083c20       ??1DTDValidator@xercesc_2_2@@UAE@XZ 12084c20 f   DTDValidator.obj
 0001:00083c30       ?checkContent@DTDValidator@xercesc_2_2@@UAEHQAVXMLElementDecl@2@QAPAVQName@2@I@Z 12084c30 f   DTDValidator.obj
 0001:00083ce0       ?faultInAttr@DTDValidator@xercesc_2_2@@UBEXAAVXMLAttr@2@ABVXMLAttDef@2@@Z 12084ce0 f   DTDValidator.obj
 0001:00083df0       ?validateAttrValue@DTDValidator@xercesc_2_2@@UAEXPBVXMLAttDef@2@QBG_NPBVXMLElementDecl@2@@Z 12084df0 f   DTDValidator.obj
 0001:00084470       ?preContentValidation@DTDValidator@xercesc_2_2@@UAEX_N0@Z 12085470 f   DTDValidator.obj
 0001:00084700       ??0FieldActivator@xercesc_2_2@@QAE@ABV01@@Z 12085700 f   FieldActivator.obj
 0001:00084720       ??4FieldActivator@xercesc_2_2@@QAEAAV01@ABV01@@Z 12085720 f   FieldActivator.obj
 0001:00084740       ?activateField@FieldActivator@xercesc_2_2@@QAEPAVXPathMatcher@2@QAVIC_Field@2@H@Z 12085740 f   FieldActivator.obj
 0001:000848d0       ?startValueScopeFor@FieldActivator@xercesc_2_2@@QAEXQBVIdentityConstraint@2@H@Z 120858d0 f   FieldActivator.obj
 0001:000849d0       ?endValueScopeFor@FieldActivator@xercesc_2_2@@QAEXQBVIdentityConstraint@2@H@Z 120859d0 f   FieldActivator.obj
 0001:00084a80       ??0ContentLeafNameTypeVector@xercesc_2_2@@QAE@XZ 12085a80 f   FieldValueMap.obj
 0001:00084a80       ??0FieldValueMap@xercesc_2_2@@QAE@XZ 12085a80 f   FieldValueMap.obj
 0001:00084a90       ??0FieldValueMap@xercesc_2_2@@QAE@ABV01@@Z 12085a90 f   FieldValueMap.obj
 0001:00084d00       ??1FieldValueMap@xercesc_2_2@@QAE@XZ 12085d00 f   FieldValueMap.obj
 0001:00084d50       ?indexOf@FieldValueMap@xercesc_2_2@@QBEHQBVIC_Field@2@@Z 12085d50 f   FieldValueMap.obj
 0001:00084db0       ??1XercesNodeTest@xercesc_2_2@@QAE@XZ 12085db0 f i IC_Field.obj
 0001:00084dd0       ??1XercesStep@xercesc_2_2@@QAE@XZ 12085dd0 f i IC_Field.obj
 0001:00084e00       ?getType@XercesNodeTest@xercesc_2_2@@QBEFXZ 12085e00 f i IC_Field.obj
 0001:00084e00       ?getAxisType@XercesStep@xercesc_2_2@@QBEGXZ 12085e00 f i IC_Field.obj
 0001:00084e10       ??1XercesLocationPath@xercesc_2_2@@QAE@XZ 12085e10 f i IC_Field.obj
 0001:00084e20       ??1XPathScanner@xercesc_2_2@@UAE@XZ 12085e20 f i IC_Field.obj
 0001:00084e20       ??1XPathScannerForSchema@xercesc_2_2@@UAE@XZ 12085e20 f i IC_Field.obj
 0001:00084e30       ??_EXPathScanner@xercesc_2_2@@UAEPAXI@Z 12085e30 f i IC_Field.obj
 0001:00084e90       ??_EXPathScannerForSchema@xercesc_2_2@@UAEPAXI@Z 12085e90 f i IC_Field.obj
 0001:00084ef0       ?getStepSize@XercesLocationPath@xercesc_2_2@@QBEIXZ 12085ef0 f i IC_Field.obj
 0001:00084f00       ?addStep@XercesLocationPath@xercesc_2_2@@QAEXQAVXercesStep@2@@Z 12085f00 f i IC_Field.obj
 0001:00085020       ?getStep@XercesLocationPath@xercesc_2_2@@QBEPAVXercesStep@2@I@Z 12086020 f i IC_Field.obj
 0001:00085070       ?addToken@XPathScanner@xercesc_2_2@@MAEXQAV?$ValueVectorOf@H@2@H@Z 12086070 f i IC_Field.obj
 0001:00085110       ??0FieldMatcher@xercesc_2_2@@AAE@QAVXercesXPath@1@QAVIC_Field@1@QAVValueStore@1@@Z 12086110 f   IC_Field.obj
 0001:00085140       ?matched@FieldMatcher@xercesc_2_2@@UAEXQBGQAVDatatypeValidator@2@_N@Z 12086140 f   IC_Field.obj
 0001:00085180       ??0IC_Field@xercesc_2_2@@QAE@QAVXercesXPath@1@QAVIdentityConstraint@1@@Z 12086180 f   IC_Field.obj
 0001:000851a0       ??1IC_Field@xercesc_2_2@@QAE@XZ 120861a0 f   IC_Field.obj
 0001:000851c0       ??8IC_Field@xercesc_2_2@@QBE_NABV01@@Z 120861c0 f   IC_Field.obj
 0001:000851e0       ??9IC_Field@xercesc_2_2@@QBE_NABV01@@Z 120861e0 f   IC_Field.obj
 0001:00085200       ?createMatcher@IC_Field@xercesc_2_2@@QAEPAVXPathMatcher@2@QAVValueStore@2@@Z 12086200 f   IC_Field.obj
 0001:00085270       ??_E?$RefVectorOf@VXercesStep@xercesc_2_2@@@xercesc_2_2@@UAEPAXI@Z 12086270 f i IC_Field.obj
 0001:00085270       ??_G?$RefVectorOf@VXercesStep@xercesc_2_2@@@xercesc_2_2@@UAEPAXI@Z 12086270 f i IC_Field.obj
 0001:00085290       ??1?$RefVectorOf@VXercesStep@xercesc_2_2@@@xercesc_2_2@@UAE@XZ 12086290 f i IC_Field.obj
 0001:00085340       ??1?$BaseRefVectorOf@VXercesStep@xercesc_2_2@@@xercesc_2_2@@UAE@XZ 12086340 f i IC_Field.obj
 0001:00085350       ?getType@IC_Key@xercesc_2_2@@UBEFXZ 12086350 f i IC_Key.obj
 0001:00085360       ??0IC_Key@xercesc_2_2@@QAE@QBG0@Z 12086360 f   IC_Key.obj
 0001:00085380       ??_EIC_Key@xercesc_2_2@@UAEPAXI@Z 12086380 f i IC_Key.obj
 0001:000853e0       ??1IC_Key@xercesc_2_2@@UAE@XZ 120863e0 f   IC_Key.obj
 0001:000853f0       ?getWSFacet@DatatypeValidator@xercesc_2_2@@UBEFXZ 120863f0 f i IC_KeyRef.obj
 0001:000853f0       ?getType@IC_KeyRef@xercesc_2_2@@UBEFXZ 120863f0 f i IC_KeyRef.obj
 0001:00085400       ??0IC_KeyRef@xercesc_2_2@@QAE@QBG0QAVIdentityConstraint@1@@Z 12086400 f   IC_KeyRef.obj
 0001:00085430       ??_EIC_KeyRef@xercesc_2_2@@UAEPAXI@Z 12086430 f i IC_KeyRef.obj
 0001:00085490       ??1IC_KeyRef@xercesc_2_2@@UAE@XZ 12086490 f   IC_KeyRef.obj
 0001:000854a0       ??0SelectorMatcher@xercesc_2_2@@AAE@QAVXercesXPath@1@QAVIC_Selector@1@QAVFieldActivator@1@H@Z 120864a0 f   IC_Selector.obj
 0001:000854f0       ?startDocumentFragment@SelectorMatcher@xercesc_2_2@@UAEXXZ 120864f0 f   IC_Selector.obj
 0001:00085510       ?startElement@SelectorMatcher@xercesc_2_2@@UAEXABVXMLElementDecl@2@IQBGABV?$RefVectorOf@VXMLAttr@xercesc_2_2@@@2@I@Z 12086510 f   IC_Selector.obj
 0001:00085610       ?endElement@SelectorMatcher@xercesc_2_2@@UAEXABVXMLElementDecl@2@QBG@Z 12086610 f   IC_Selector.obj
 0001:00085650       ??0FieldActivator@xercesc_2_2@@QAE@QAVValueStoreCache@1@QAVXPathMatcherStack@1@@Z 12086650 f   IC_Selector.obj
 0001:00085650       ??0IC_Selector@xercesc_2_2@@QAE@QAVXercesXPath@1@QAVIdentityConstraint@1@@Z 12086650 f   IC_Selector.obj
 0001:00085670       ??1IC_Selector@xercesc_2_2@@QAE@XZ 12086670 f   IC_Selector.obj
 0001:00085690       ??8IC_Selector@xercesc_2_2@@QBE_NABV01@@Z 12086690 f   IC_Selector.obj
 0001:000856b0       ??9IC_Selector@xercesc_2_2@@QBE_NABV01@@Z 120866b0 f   IC_Selector.obj
 0001:000856d0       ?createMatcher@IC_Selector@xercesc_2_2@@QAEPAVXPathMatcher@2@QAVFieldActivator@2@H@Z 120866d0 f   IC_Selector.obj
 0001:00085770       ?getWSFacet@AnySimpleTypeDatatypeValidator@xercesc_2_2@@UBEFXZ 12086770 f i IC_Unique.obj
 0001:00085770       ?getType@IC_Unique@xercesc_2_2@@UBEFXZ 12086770 f i IC_Unique.obj
 0001:00085780       ??0IC_Unique@xercesc_2_2@@QAE@QBG0@Z 12086780 f   IC_Unique.obj
 0001:000857a0       ??_EIC_Unique@xercesc_2_2@@UAEPAXI@Z 120867a0 f i IC_Unique.obj
 0001:00085800       ??1IC_Unique@xercesc_2_2@@UAE@XZ 12086800 f   IC_Unique.obj
 0001:00085810       ??0IdentityConstraint@xercesc_2_2@@IAE@QBG0@Z 12086810 f   IdentityConstraint.obj
 0001:00085950       ??_EIdentityConstraint@xercesc_2_2@@UAEPAXI@Z 12086950 f i IdentityConstraint.obj
 0001:000859e0       ??1IdentityConstraint@xercesc_2_2@@UAE@XZ 120869e0 f   IdentityConstraint.obj
 0001:00085a30       ??8IdentityConstraint@xercesc_2_2@@QBE_NABV01@@Z 12086a30 f   IdentityConstraint.obj
 0001:00085b70       ??9IdentityConstraint@xercesc_2_2@@QBE_NABV01@@Z 12086b70 f   IdentityConstraint.obj
 0001:00085b90       ?setSelector@IdentityConstraint@xercesc_2_2@@QAEXQAVIC_Selector@2@@Z 12086b90 f   IdentityConstraint.obj
 0001:00085bd0       ?cleanUp@IdentityConstraint@xercesc_2_2@@AAEXXZ 12086bd0 f   IdentityConstraint.obj
 0001:00085c10       ??0ValueStore@xercesc_2_2@@QAE@QAVIdentityConstraint@1@QAVXMLScanner@1@@Z 12086c10 f   ValueStore.obj
 0001:00085c70       ??1ValueStore@xercesc_2_2@@QAE@XZ 12086c70 f   ValueStore.obj
 0001:00085cd0       ?addValue@ValueStore@xercesc_2_2@@QAEXQAVIC_Field@2@QAVDatatypeValidator@2@QBG@Z 12086cd0 f   ValueStore.obj
 0001:00086000       ?append@ValueStore@xercesc_2_2@@QAEXQBV12@@Z 12087000 f   ValueStore.obj
 0001:00086200       ?startValueScope@ValueStore@xercesc_2_2@@QAEXXZ 12087200 f   ValueStore.obj
 0001:00086280       ?endValueScope@ValueStore@xercesc_2_2@@QAEXXZ 12087280 f   ValueStore.obj
 0001:00086350       ?contains@ValueStore@xercesc_2_2@@QAE_NQBVFieldValueMap@2@@Z 12087350 f   ValueStore.obj
 0001:00086540       ?isDuplicateOf@ValueStore@xercesc_2_2@@AAE_NQAVDatatypeValidator@2@QBG01@Z 12087540 f   ValueStore.obj
 0001:000866d0       ?endDcocumentFragment@ValueStore@xercesc_2_2@@QAEXQAVValueStoreCache@2@@Z 120876d0 f   ValueStore.obj
 0001:000867c0       ?reportNilError@ValueStore@xercesc_2_2@@QAEXQAVIdentityConstraint@2@@Z 120877c0 f   ValueStore.obj
 0001:00086800       ?duplicateValue@ValueStore@xercesc_2_2@@QAEXXZ 12087800 f   ValueStore.obj
 0001:00086860       ??0?$ValueVectorOf@PAVDatatypeValidator@xercesc_2_2@@@xercesc_2_2@@QAE@I@Z 12087860 f i ValueStore.obj
 0001:00086860       ??0?$ValueVectorOf@PAVContentSpecNode@xercesc_2_2@@@xercesc_2_2@@QAE@I@Z 12087860 f i ValueStore.obj
 0001:00086860       ??0?$ValueVectorOf@I@xercesc_2_2@@QAE@I@Z 12087860 f i ValueStore.obj
 0001:00086860       ??0?$ValueVectorOf@PAVSchemaElementDecl@xercesc_2_2@@@xercesc_2_2@@QAE@I@Z 12087860 f i ValueStore.obj
 0001:00086860       ??0?$ValueVectorOf@PBG@xercesc_2_2@@QAE@I@Z 12087860 f i ValueStore.obj
 0001:00086860       ??0?$ValueVectorOf@PBVDOMElement@xercesc_2_2@@@xercesc_2_2@@QAE@I@Z 12087860 f i ValueStore.obj
 0001:00086890       ?setElementAt@?$ValueVectorOf@PAVDatatypeValidator@xercesc_2_2@@@xercesc_2_2@@QAEXABQAVDatatypeValidator@2@I@Z 12087890 f i ValueStore.obj
 0001:000868e0       ?addElement@?$BaseRefVectorOf@VSchemaInfo@xercesc_2_2@@@xercesc_2_2@@QAEXQAVSchemaInfo@2@@Z 120878e0 f i ValueStore.obj
 0001:000868e0       ?addElement@?$BaseRefVectorOf@VSchemaElementDecl@xercesc_2_2@@@xercesc_2_2@@QAEXQAVSchemaElementDecl@2@@Z 120878e0 f i ValueStore.obj
 0001:000868e0       ?addElement@?$BaseRefVectorOf@VSchemaAttDef@xercesc_2_2@@@xercesc_2_2@@QAEXQAVSchemaAttDef@2@@Z 120878e0 f i ValueStore.obj
 0001:000868e0       ?addElement@?$BaseRefVectorOf@G@xercesc_2_2@@QAEXQAG@Z 120878e0 f i ValueStore.obj
 0001:00086960       ?setElementAt@?$BaseRefVectorOf@G@xercesc_2_2@@QAEXQAGI@Z 12087960 f i ValueStore.obj
 0001:000869c0       ??0?$RefArrayVectorOf@G@xercesc_2_2@@QAE@I_N@Z 120879c0 f i ValueStore.obj
 0001:00086a20       ??_G?$RefVectorOf@VFieldValueMap@xercesc_2_2@@@xercesc_2_2@@UAEPAXI@Z 12087a20 f i ValueStore.obj
 0001:00086a20       ??_E?$RefVectorOf@VFieldValueMap@xercesc_2_2@@@xercesc_2_2@@UAEPAXI@Z 12087a20 f i ValueStore.obj
 0001:00086a40       ??1?$RefVectorOf@VFieldValueMap@xercesc_2_2@@@xercesc_2_2@@UAE@XZ 12087a40 f i ValueStore.obj
 0001:00086ad0       ??1?$BaseRefVectorOf@VFieldValueMap@xercesc_2_2@@@xercesc_2_2@@UAE@XZ 12087ad0 f i ValueStore.obj
 0001:00086ae0       ??0?$BaseRefVectorOf@VFieldValueMap@xercesc_2_2@@@xercesc_2_2@@QAE@I_N@Z 12087ae0 f i ValueStore.obj
 0001:00086b40       ?ensureExtraCapacity@?$BaseRefVectorOf@VXMLAttr@xercesc_2_2@@@xercesc_2_2@@QAEXI@Z 12087b40 f i ValueStore.obj
 0001:00086b40       ?ensureExtraCapacity@?$BaseRefVectorOf@VXercesStep@xercesc_2_2@@@xercesc_2_2@@QAEXI@Z 12087b40 f i ValueStore.obj
 0001:00086b40       ?ensureExtraCapacity@?$BaseRefVectorOf@VNodeImpl@xercesc_2_2@@@xercesc_2_2@@QAEXI@Z 12087b40 f i ValueStore.obj
 0001:00086b40       ?ensureExtraCapacity@?$BaseRefVectorOf@VXMLBuffer@xercesc_2_2@@@xercesc_2_2@@QAEXI@Z 12087b40 f i ValueStore.obj
 0001:00086b40       ?ensureExtraCapacity@?$BaseRefVectorOf@VDatatypeValidator@xercesc_2_2@@@xercesc_2_2@@QAEXI@Z 12087b40 f i ValueStore.obj
 0001:00086b40       ?ensureExtraCapacity@?$BaseRefVectorOf@VIC_Field@xercesc_2_2@@@xercesc_2_2@@QAEXI@Z 12087b40 f i ValueStore.obj
 0001:00086b40       ?ensureExtraCapacity@?$BaseRefVectorOf@VXMLReader@xercesc_2_2@@@xercesc_2_2@@QAEXI@Z 12087b40 f i ValueStore.obj
 0001:00086b40       ?ensureExtraCapacity@?$BaseRefVectorOf@VSchemaElementDecl@xercesc_2_2@@@xercesc_2_2@@QAEXI@Z 12087b40 f i ValueStore.obj
 0001:00086b40       ?ensureExtraCapacity@?$BaseRefVectorOf@G@xercesc_2_2@@QAEXI@Z 12087b40 f i ValueStore.obj
 0001:00086b40       ?ensureExtraCapacity@?$BaseRefVectorOf@VXercesLocationPath@xercesc_2_2@@@xercesc_2_2@@QAEXI@Z 12087b40 f i ValueStore.obj
 0001:00086b40       ?ensureExtraCapacity@?$BaseRefVectorOf@VDOMNode@xercesc_2_2@@@xercesc_2_2@@QAEXI@Z 12087b40 f i ValueStore.obj
 0001:00086b40       ?ensureExtraCapacity@?$BaseRefVectorOf@VENameMap@xercesc_2_2@@@xercesc_2_2@@QAEXI@Z 12087b40 f i ValueStore.obj
 0001:00086b40       ?ensureExtraCapacity@?$BaseRefVectorOf@VXMLElementDecl@xercesc_2_2@@@xercesc_2_2@@QAEXI@Z 12087b40 f i ValueStore.obj
 0001:00086b40       ?ensureExtraCapacity@?$BaseRefVectorOf@VXMLNumber@xercesc_2_2@@@xercesc_2_2@@QAEXI@Z 12087b40 f i ValueStore.obj
 0001:00086b40       ?ensureExtraCapacity@?$BaseRefVectorOf@VFieldValueMap@xercesc_2_2@@@xercesc_2_2@@QAEXI@Z 12087b40 f i ValueStore.obj
 0001:00086b40       ?ensureExtraCapacity@?$BaseRefVectorOf@VMatch@xercesc_2_2@@@xercesc_2_2@@QAEXI@Z 12087b40 f i ValueStore.obj
 0001:00086b40       ?ensureExtraCapacity@?$BaseRefVectorOf@VXPathMatcher@xercesc_2_2@@@xercesc_2_2@@QAEXI@Z 12087b40 f i ValueStore.obj
 0001:00086b40       ?ensureExtraCapacity@?$BaseRefVectorOf@VToken@xercesc_2_2@@@xercesc_2_2@@QAEXI@Z 12087b40 f i ValueStore.obj
 0001:00086b40       ?ensureExtraCapacity@?$BaseRefVectorOf@VReferencePosition@RegxParser@xercesc_2_2@@@xercesc_2_2@@QAEXI@Z 12087b40 f i ValueStore.obj
 0001:00086b40       ?ensureExtraCapacity@?$BaseRefVectorOf@VSchemaInfo@xercesc_2_2@@@xercesc_2_2@@QAEXI@Z 12087b40 f i ValueStore.obj
 0001:00086b40       ?ensureExtraCapacity@?$BaseRefVectorOf@VDOMImplementationSource@xercesc_2_2@@@xercesc_2_2@@QAEXI@Z 12087b40 f i ValueStore.obj
 0001:00086bc0       ??0ValueStoreCache@xercesc_2_2@@QAE@XZ 12087bc0 f   ValueStoreCache.obj
 0001:00086d90       ??1ValueStoreCache@xercesc_2_2@@QAE@XZ 12087d90 f   ValueStoreCache.obj
 0001:00086ec0       ?startDocument@ValueStoreCache@xercesc_2_2@@QAEXXZ 12087ec0 f   ValueStoreCache.obj
 0001:000870c0       ?startElement@ValueStoreCache@xercesc_2_2@@QAEXXZ 120880c0 f   ValueStoreCache.obj
 0001:00087210       ?endElement@ValueStoreCache@xercesc_2_2@@QAEXXZ 12088210 f   ValueStoreCache.obj
 0001:00087490       ??_G?$RefHashTableOf@VValueStore@xercesc_2_2@@@xercesc_2_2@@QAEPAXI@Z 12088490 f i ValueStoreCache.obj
 0001:00087530       ?cleanUp@ValueStoreCache@xercesc_2_2@@AAEXXZ 12088530 f   ValueStoreCache.obj
 0001:00087670       ?init@ValueStoreCache@xercesc_2_2@@AAEXXZ 12088670 f   ValueStoreCache.obj
 0001:00087880       ?initValueStoresFor@ValueStoreCache@xercesc_2_2@@QAEXQAVSchemaElementDecl@2@H@Z 12088880 f   ValueStoreCache.obj
 0001:00087af0       ?transplant@ValueStoreCache@xercesc_2_2@@QAEXQAVIdentityConstraint@2@H@Z 12088af0 f   ValueStoreCache.obj
 0001:00087da0       ??1?$XMLEnumerator@VValueStore@xercesc_2_2@@@xercesc_2_2@@UAE@XZ 12088da0 f i ValueStoreCache.obj
 0001:00087db0       ??_G?$XMLEnumerator@VValueStore@xercesc_2_2@@@xercesc_2_2@@UAEPAXI@Z 12088db0 f i ValueStoreCache.obj
 0001:00087db0       ??_E?$XMLEnumerator@VValueStore@xercesc_2_2@@@xercesc_2_2@@UAEPAXI@Z 12088db0 f i ValueStoreCache.obj
 0001:00087dd0       ??1?$RefHashTableOf@VValueStore@xercesc_2_2@@@xercesc_2_2@@QAE@XZ 12088dd0 f i ValueStoreCache.obj
 0001:00087e60       ??1?$BaseRefVectorOf@V?$RefHashTableOf@VValueStore@xercesc_2_2@@@xercesc_2_2@@@xercesc_2_2@@UAE@XZ 12088e60 f i ValueStoreCache.obj
 0001:00087e70       ??1?$RefStackOf@V?$RefHashTableOf@VValueStore@xercesc_2_2@@@xercesc_2_2@@@xercesc_2_2@@QAE@XZ 12088e70 f i ValueStoreCache.obj
 0001:00087f80       ??1?$RefHashTableOfEnumerator@VValueStore@xercesc_2_2@@@xercesc_2_2@@UAE@XZ 12088f80 f i ValueStoreCache.obj
 0001:00088060       ??_GValueStore@xercesc_2_2@@QAEPAXI@Z 12089060 f i ValueStoreCache.obj
 0001:00088080       ??_G?$RefVectorOf@VValueStore@xercesc_2_2@@@xercesc_2_2@@UAEPAXI@Z 12089080 f i ValueStoreCache.obj
 0001:00088080       ??_E?$RefVectorOf@VValueStore@xercesc_2_2@@@xercesc_2_2@@UAEPAXI@Z 12089080 f i ValueStoreCache.obj
 0001:000880a0       ??1?$RefVectorOf@VValueStore@xercesc_2_2@@@xercesc_2_2@@UAE@XZ 120890a0 f i ValueStoreCache.obj
 0001:00088130       ??1?$BaseRefVectorOf@VValueStore@xercesc_2_2@@@xercesc_2_2@@UAE@XZ 12089130 f i ValueStoreCache.obj
 0001:00088140       ??_G?$RefVectorOf@V?$RefHashTableOf@VValueStore@xercesc_2_2@@@xercesc_2_2@@@xercesc_2_2@@UAEPAXI@Z 12089140 f i ValueStoreCache.obj
 0001:00088140       ??_E?$RefVectorOf@V?$RefHashTableOf@VValueStore@xercesc_2_2@@@xercesc_2_2@@@xercesc_2_2@@UAEPAXI@Z 12089140 f i ValueStoreCache.obj
 0001:00088160       ??1?$RefVectorOf@V?$RefHashTableOf@VValueStore@xercesc_2_2@@@xercesc_2_2@@@xercesc_2_2@@UAE@XZ 12089160 f i ValueStoreCache.obj
 0001:00088270       ??_G?$RefHashTableOfEnumerator@VValueStore@xercesc_2_2@@@xercesc_2_2@@UAEPAXI@Z 12089270 f i ValueStoreCache.obj
 0001:00088270       ??_E?$RefHashTableOfEnumerator@VValueStore@xercesc_2_2@@@xercesc_2_2@@UAEPAXI@Z 12089270 f i ValueStoreCache.obj
 0001:00088290       ??0XPathException@xercesc_2_2@@QAE@QBDIW4Codes@XMLExcepts@1@@Z 12089290 f i XercesXPath.obj
 0001:000882f0       ??0XPathException@xercesc_2_2@@QAE@ABV01@@Z 120892f0 f i XercesXPath.obj
 0001:00088310       ??0XPathException@xercesc_2_2@@QAE@QBDIW4Codes@XMLExcepts@1@QBG222@Z 12089310 f i XercesXPath.obj
 0001:00088380       ??0XPathException@xercesc_2_2@@QAE@QBDIW4Codes@XMLExcepts@1@0000@Z 12089380 f i XercesXPath.obj
 0001:000883f0       ??1XPathException@xercesc_2_2@@UAE@XZ 120893f0 f i XercesXPath.obj
 0001:00088400       ?duplicate@XPathException@xercesc_2_2@@UBEPAVXMLException@2@XZ 12089400 f i XercesXPath.obj
 0001:00088460       ?getType@XPathException@xercesc_2_2@@UBEPBGXZ 12089460 f i XercesXPath.obj
 0001:00088470       ??_EXPathException@xercesc_2_2@@UAEPAXI@Z 12089470 f i XercesXPath.obj
 0001:000884d0       ?getNamespaceForPrefix@NamespaceScope@xercesc_2_2@@QBEIQBG@Z 120894d0 f i XercesXPath.obj
 0001:000884f0       ?isEmpty@NamespaceScope@xercesc_2_2@@QBE_NXZ 120894f0 f i XercesXPath.obj
 0001:00088500       ??0XercesNodeTest@xercesc_2_2@@QAE@F@Z 12089500 f   XercesXPath.obj
 0001:00088560       ??0XercesNodeTest@xercesc_2_2@@QAE@QBVQName@1@@Z 12089560 f   XercesXPath.obj
 0001:000885c0       ??0XercesNodeTest@xercesc_2_2@@QAE@QBGI@Z 120895c0 f   XercesXPath.obj
 0001:00088640       ??0XercesNodeTest@xercesc_2_2@@QAE@ABV01@@Z 12089640 f   XercesXPath.obj
 0001:000886b0       ??4XercesNodeTest@xercesc_2_2@@QAEAAV01@ABV01@@Z 120896b0 f   XercesXPath.obj
 0001:000886e0       ??8XercesNodeTest@xercesc_2_2@@QBE_NABV01@@Z 120896e0 f   XercesXPath.obj
 0001:00088710       ??9XercesNodeTest@xercesc_2_2@@QBE_NABV01@@Z 12089710 f   XercesXPath.obj
 0001:00088760       ??0XercesStep@xercesc_2_2@@QAE@GQAVXercesNodeTest@1@@Z 12089760 f   XercesXPath.obj
 0001:00088780       ??0XercesStep@xercesc_2_2@@QAE@ABV01@@Z 12089780 f   XercesXPath.obj
 0001:00088820       ??4XercesStep@xercesc_2_2@@QAEAAV01@ABV01@@Z 12089820 f   XercesXPath.obj
 0001:00088860       ??8XercesStep@xercesc_2_2@@QBE_NABV01@@Z 12089860 f   XercesXPath.obj
 0001:000888c0       ??9XercesStep@xercesc_2_2@@QBE_NABV01@@Z 120898c0 f   XercesXPath.obj
 0001:00088950       ??0XercesLocationPath@xercesc_2_2@@QAE@QAV?$RefVectorOf@VXercesStep@xercesc_2_2@@@1@@Z 12089950 f   XercesXPath.obj
 0001:00088960       ??8XercesLocationPath@xercesc_2_2@@QBE_NABV01@@Z 12089960 f   XercesXPath.obj
 0001:00088a40       ??9XercesLocationPath@xercesc_2_2@@QBE_NABV01@@Z 12089a40 f   XercesXPath.obj
 0001:00088b40       ??0XercesXPath@xercesc_2_2@@QAE@QBGQAVXMLStringPool@1@QAVNamespaceScope@1@I_N@Z 12089b40 f   XercesXPath.obj
 0001:00088cc0       ??8XercesXPath@xercesc_2_2@@QBE_NABV01@@Z 12089cc0 f   XercesXPath.obj
 0001:00088e60       ??9XercesXPath@xercesc_2_2@@QBE_NABV01@@Z 12089e60 f   XercesXPath.obj
 0001:00089010       ?cleanUp@XercesXPath@xercesc_2_2@@AAEXXZ 1208a010 f   XercesXPath.obj
 0001:00089010       ??1XercesXPath@xercesc_2_2@@QAE@XZ 1208a010 f   XercesXPath.obj
 0001:00089030       ?checkForSelectedAttributes@XercesXPath@xercesc_2_2@@AAEXXZ 1208a030 f   XercesXPath.obj
 0001:00089100       ?parseExpression@XercesXPath@xercesc_2_2@@AAEXQAVXMLStringPool@2@QAVNamespaceScope@2@@Z 1208a100 f   XercesXPath.obj
 0001:0008a2a0       ??0XPathScanner@xercesc_2_2@@QAE@QAVXMLStringPool@1@@Z 1208b2a0 f   XercesXPath.obj
 0001:0008a300       ?init@XPathScanner@xercesc_2_2@@AAEXXZ 1208b300 f   XercesXPath.obj
 0001:0008a460       ?scanExpression@XPathScanner@xercesc_2_2@@QAE_NQBGHHQAV?$ValueVectorOf@H@2@@Z 1208b460 f   XercesXPath.obj
 0001:0008b570       ?scanNCName@XPathScanner@xercesc_2_2@@AAEHQBGHH@Z 1208c570 f   XercesXPath.obj
 0001:0008b5d0       ?scanNumber@XPathScanner@xercesc_2_2@@AAEHQBGHHQAV?$ValueVectorOf@H@2@@Z 1208c5d0 f   XercesXPath.obj
 0001:0008b7b0       ??0XPathScannerForSchema@xercesc_2_2@@QAE@QAVXMLStringPool@1@@Z 1208c7b0 f   XercesXPath.obj
 0001:0008b7d0       ?addToken@XPathScannerForSchema@xercesc_2_2@@MAEXQAV?$ValueVectorOf@H@2@H@Z 1208c7d0 f   XercesXPath.obj
 0001:0008b8d0       ?elementAt@?$BaseRefVectorOf@VXercesStep@xercesc_2_2@@@xercesc_2_2@@QAEPAVXercesStep@2@I@Z 1208c8d0 f i XercesXPath.obj
 0001:0008b8d0       ?elementAt@?$BaseRefVectorOf@VSchemaAttDef@xercesc_2_2@@@xercesc_2_2@@QAEPAVSchemaAttDef@2@I@Z 1208c8d0 f i XercesXPath.obj
 0001:0008b8d0       ?elementAt@?$BaseRefVectorOf@G@xercesc_2_2@@QAEPAGI@Z 1208c8d0 f i XercesXPath.obj
 0001:0008b8d0       ?elementAt@?$BaseRefVectorOf@VSchemaElementDecl@xercesc_2_2@@@xercesc_2_2@@QAEPAVSchemaElementDecl@2@I@Z 1208c8d0 f i XercesXPath.obj
 0001:0008b8d0       ?elementAt@?$BaseRefVectorOf@VSchemaInfo@xercesc_2_2@@@xercesc_2_2@@QAEPAVSchemaInfo@2@I@Z 1208c8d0 f i XercesXPath.obj
 0001:0008b910       ??_E?$RefVectorOf@VXercesLocationPath@xercesc_2_2@@@xercesc_2_2@@UAEPAXI@Z 1208c910 f i XercesXPath.obj
 0001:0008b910       ??_G?$RefVectorOf@VXercesLocationPath@xercesc_2_2@@@xercesc_2_2@@UAEPAXI@Z 1208c910 f i XercesXPath.obj
 0001:0008b930       ??1?$RefVectorOf@VXercesLocationPath@xercesc_2_2@@@xercesc_2_2@@UAE@XZ 1208c930 f i XercesXPath.obj
 0001:0008b9c0       ??1?$BaseRefVectorOf@VXercesLocationPath@xercesc_2_2@@@xercesc_2_2@@UAE@XZ 1208c9c0 f i XercesXPath.obj
 0001:0008b9d0       ??0?$BaseRefVectorOf@VXercesStep@xercesc_2_2@@@xercesc_2_2@@QAE@I_N@Z 1208c9d0 f i XercesXPath.obj
 0001:0008ba30       ??0?$BaseRefVectorOf@VXercesLocationPath@xercesc_2_2@@@xercesc_2_2@@QAE@I_N@Z 1208ca30 f i XercesXPath.obj
 0001:0008ba90       ??0XPathMatcher@xercesc_2_2@@QAE@QAVXercesXPath@1@@Z 1208ca90 f   XPathMatcher.obj
 0001:0008bb30       ??0XPathMatcher@xercesc_2_2@@QAE@QAVXercesXPath@1@QAVIdentityConstraint@1@@Z 1208cb30 f   XPathMatcher.obj
 0001:0008bbd0       ??1XPathMatcher@xercesc_2_2@@UAE@XZ 1208cbd0 f   XPathMatcher.obj
 0001:0008bc10       ?init@XPathMatcher@xercesc_2_2@@AAEXQAVXercesXPath@2@@Z 1208cc10 f   XPathMatcher.obj
 0001:0008bdf0       ?startDocumentFragment@XPathMatcher@xercesc_2_2@@UAEXXZ 1208cdf0 f   XPathMatcher.obj
 0001:0008be60       ?startElement@XPathMatcher@xercesc_2_2@@UAEXABVXMLElementDecl@2@IQBGABV?$RefVectorOf@VXMLAttr@xercesc_2_2@@@2@I@Z 1208ce60 f   XPathMatcher.obj
 0001:0008c410       ?endElement@XPathMatcher@xercesc_2_2@@UAEXABVXMLElementDecl@2@QBG@Z 1208d410 f   XPathMatcher.obj
 0001:0008c590       ?isMatched@XPathMatcher@xercesc_2_2@@QAEHXZ 1208d590 f   XPathMatcher.obj
 0001:0008c5d0       ?matched@XPathMatcher@xercesc_2_2@@MAEXQBGQAVDatatypeValidator@2@_N@Z 1208d5d0 f   XPathMatcher.obj
 0001:0008c5d0       ?attDef@SAXParser@xercesc_2_2@@UAEXABVDTDElementDecl@2@ABVDTDAttDef@2@_N@Z 1208d5d0 f   XPathMatcher.obj
 0001:0008c5e0       ?getInitialDepth@XPathMatcher@xercesc_2_2@@UBEHXZ 1208d5e0 f   XPathMatcher.obj
 0001:0008c610       ??_E?$RefVectorOf@V?$ValueStackOf@H@xercesc_2_2@@@xercesc_2_2@@UAEPAXI@Z 1208d610 f i XPathMatcher.obj
 0001:0008c610       ??_G?$RefVectorOf@V?$ValueStackOf@H@xercesc_2_2@@@xercesc_2_2@@UAEPAXI@Z 1208d610 f i XPathMatcher.obj
 0001:0008c630       ??1?$RefVectorOf@V?$ValueStackOf@H@xercesc_2_2@@@xercesc_2_2@@UAE@XZ 1208d630 f i XPathMatcher.obj
 0001:0008c6c0       ??1?$BaseRefVectorOf@V?$ValueStackOf@H@xercesc_2_2@@@xercesc_2_2@@UAE@XZ 1208d6c0 f i XPathMatcher.obj
 0001:0008c6d0       ??0XPathMatcherStack@xercesc_2_2@@QAE@XZ 1208d6d0 f   XPathMatcherStack.obj
 0001:0008c7d0       ??1XPathMatcherStack@xercesc_2_2@@QAE@XZ 1208d7d0 f   XPathMatcherStack.obj
 0001:0008c800       ?clear@XPathMatcherStack@xercesc_2_2@@QAEXXZ 1208d800 f   XPathMatcherStack.obj
 0001:0008c860       ??_G?$RefVectorOf@VXPathMatcher@xercesc_2_2@@@xercesc_2_2@@UAEPAXI@Z 1208d860 f i XPathMatcherStack.obj
 0001:0008c860       ??_E?$RefVectorOf@VXPathMatcher@xercesc_2_2@@@xercesc_2_2@@UAEPAXI@Z 1208d860 f i XPathMatcherStack.obj
 0001:0008c880       ??1?$RefVectorOf@VXPathMatcher@xercesc_2_2@@@xercesc_2_2@@UAE@XZ 1208d880 f i XPathMatcherStack.obj
 0001:0008c900       ??1?$BaseRefVectorOf@VXPathMatcher@xercesc_2_2@@@xercesc_2_2@@UAE@XZ 1208d900 f i XPathMatcherStack.obj
 0001:0008c910       ??0SchemaAttDefList@xercesc_2_2@@QAE@ABV01@@Z 1208d910 f i ComplexTypeInfo.obj
 0001:0008c940       ??4DOMNamedNodeMapImpl@xercesc_2_2@@QAEAAV01@ABV01@@Z 1208d940 f i ComplexTypeInfo.obj
 0001:0008c940       ??4DOMTypeInfoImpl@xercesc_2_2@@QAEAAV01@ABV01@@Z 1208d940 f i ComplexTypeInfo.obj
 0001:0008c940       ??4DTDAttDefList@xercesc_2_2@@QAEAAV01@ABV01@@Z 1208d940 f i ComplexTypeInfo.obj
 0001:0008c940       ??4SchemaAttDefList@xercesc_2_2@@QAEAAV01@ABV01@@Z 1208d940 f i ComplexTypeInfo.obj
 0001:0008c940       ??4DOMException@xercesc_2_2@@QAEAAV01@ABV01@@Z 1208d940 f i ComplexTypeInfo.obj
 0001:0008c960       ??_ESchemaAttDefList@xercesc_2_2@@UAEPAXI@Z 1208d960 f i ComplexTypeInfo.obj
 0001:0008c9c0       ??1XSDLocator@xercesc_2_2@@UAE@XZ 1208d9c0 f i ComplexTypeInfo.obj
 0001:0008c9c0       ??1Locator@xercesc_2_2@@UAE@XZ 1208d9c0 f i ComplexTypeInfo.obj
 0001:0008c9d0       ??_EXSDLocator@xercesc_2_2@@UAEPAXI@Z 1208d9d0 f i ComplexTypeInfo.obj
 0001:0008ca30       ??0ComplexTypeInfo@xercesc_2_2@@QAE@XZ 1208da30 f   ComplexTypeInfo.obj
 0001:0008caa0       ??1ComplexTypeInfo@xercesc_2_2@@QAE@XZ 1208daa0 f   ComplexTypeInfo.obj
 0001:0008cc00       ?addAttDef@ComplexTypeInfo@xercesc_2_2@@QAEXQAVSchemaAttDef@2@@Z 1208dc00 f   ComplexTypeInfo.obj
 0001:0008cc40       ?setContentSpec@ComplexTypeInfo@xercesc_2_2@@QAEXQAVContentSpecNode@2@@Z 1208dc40 f   ComplexTypeInfo.obj
 0001:0008cce0       ?setLocator@ComplexTypeInfo@xercesc_2_2@@QAEXQAVXSDLocator@2@@Z 1208dce0 f   ComplexTypeInfo.obj
 0001:0008cd10       ?getAttDefList@ComplexTypeInfo@xercesc_2_2@@QBEAAVXMLAttDefList@2@XZ 1208dd10 f   ComplexTypeInfo.obj
 0001:0008ce20       ?getFormattedContentModel@ComplexTypeInfo@xercesc_2_2@@QBEPBGXZ 1208de20 f   ComplexTypeInfo.obj
 0001:0008ce40       ?findAttr@ComplexTypeInfo@xercesc_2_2@@QBEPAVXMLAttDef@2@QBGI00W4LookupOpts@XMLElementDecl@2@AA_N@Z 1208de40 f   ComplexTypeInfo.obj
 0001:0008d070       ?resetDefs@ComplexTypeInfo@xercesc_2_2@@QAE_NXZ 1208e070 f   ComplexTypeInfo.obj
 0001:0008d230       ?checkUniqueParticleAttribution@ComplexTypeInfo@xercesc_2_2@@QAEXQAVSchemaGrammar@2@QAVGrammarResolver@2@QAVXMLStringPool@2@QAVXMLValidator@2@@Z 1208e230 f   ComplexTypeInfo.obj
 0001:0008d360       ?faultInAttDefList@ComplexTypeInfo@xercesc_2_2@@ABEXXZ 1208e360 f   ComplexTypeInfo.obj
 0001:0008d440       ?formatContentModel@ComplexTypeInfo@xercesc_2_2@@ABEPAGXZ 1208e440 f   ComplexTypeInfo.obj
 0001:0008d610       ?makeContentModel@ComplexTypeInfo@xercesc_2_2@@AAEPAVXMLContentModel@2@_NQAVContentSpecNode@2@@Z 1208e610 f   ComplexTypeInfo.obj
 0001:0008d850       ?createChildModel@ComplexTypeInfo@xercesc_2_2@@AAEPAVXMLContentModel@2@PAVContentSpecNode@2@_N@Z 1208e850 f   ComplexTypeInfo.obj
 0001:0008dd90       ?convertContentSpecTree@ComplexTypeInfo@xercesc_2_2@@AAEPAVContentSpecNode@2@QAV32@_N@Z 1208ed90 f   ComplexTypeInfo.obj
 0001:0008df20       ?expandContentModel@ComplexTypeInfo@xercesc_2_2@@AAEPAVContentSpecNode@2@QAV32@HH@Z 1208ef20 f   ComplexTypeInfo.obj
 0001:0008e270       ?resizeContentSpecOrgURI@ComplexTypeInfo@xercesc_2_2@@AAEXXZ 1208f270 f   ComplexTypeInfo.obj
 0001:0008e2d0       ?put@?$RefHash2KeysTableOf@VSchemaAttDef@xercesc_2_2@@@xercesc_2_2@@QAEXPAXHQAVSchemaAttDef@2@@Z 1208f2d0 f i ComplexTypeInfo.obj
 0001:0008e3f0       ??_G?$RefVectorOf@VContentSpecNode@xercesc_2_2@@@xercesc_2_2@@UAEPAXI@Z 1208f3f0 f i ComplexTypeInfo.obj
 0001:0008e3f0       ??_E?$RefVectorOf@VContentSpecNode@xercesc_2_2@@@xercesc_2_2@@UAEPAXI@Z 1208f3f0 f i ComplexTypeInfo.obj
 0001:0008e410       ??1?$RefVectorOf@VContentSpecNode@xercesc_2_2@@@xercesc_2_2@@UAE@XZ 1208f410 f i ComplexTypeInfo.obj
 0001:0008e4d0       ??1?$BaseRefVectorOf@VContentSpecNode@xercesc_2_2@@@xercesc_2_2@@UAE@XZ 1208f4d0 f i ComplexTypeInfo.obj
 0001:0008e4e0       ?initialize@?$RefHash2KeysTableOf@VIdentityConstraint@xercesc_2_2@@@xercesc_2_2@@AAEXI@Z 1208f4e0 f i ComplexTypeInfo.obj
 0001:0008e4e0       ?initialize@?$RefHash2KeysTableOf@VSchemaAttDef@xercesc_2_2@@@xercesc_2_2@@AAEXI@Z 1208f4e0 f i ComplexTypeInfo.obj
 0001:0008e570       ??0GeneralAttributeCheck@xercesc_2_2@@QAE@XZ 1208f570 f   GeneralAttributeCheck.obj
 0001:0008e790       ??1GeneralAttributeCheck@xercesc_2_2@@QAE@XZ 1208f790 f   GeneralAttributeCheck.obj
 0001:0008e7a0       ?setUpValidators@GeneralAttributeCheck@xercesc_2_2@@AAEXXZ 1208f7a0 f   GeneralAttributeCheck.obj
 0001:0008ea40       ?mapElements@GeneralAttributeCheck@xercesc_2_2@@AAEXXZ 1208fa40 f   GeneralAttributeCheck.obj
 0001:0008ec80       ?mapAttributes@GeneralAttributeCheck@xercesc_2_2@@AAEXXZ 1208fc80 f   GeneralAttributeCheck.obj
 0001:0008f750       ?reinitGeneralAttCheck@GeneralAttributeCheck@xercesc_2_2@@SAXXZ 12090750 f   GeneralAttributeCheck.obj
 0001:0008f850       ?checkAttributes@GeneralAttributeCheck@xercesc_2_2@@QAEXQBVDOMElement@2@GQAVTraverseSchema@2@_N@Z 12090850 f   GeneralAttributeCheck.obj
 0001:0008fd30       ?validate@GeneralAttributeCheck@xercesc_2_2@@AAEXQBVDOMElement@2@QBG1FQAVTraverseSchema@2@@Z 12090d30 f   GeneralAttributeCheck.obj
 0001:00090240       ??0NamespaceScope@xercesc_2_2@@QAE@XZ 12091240 f   NamespaceScope.obj
 0001:000902c0       ??1NamespaceScope@xercesc_2_2@@QAE@XZ 120912c0 f   NamespaceScope.obj
 0001:00090350       ?increaseDepth@NamespaceScope@xercesc_2_2@@QAEIXZ 12091350 f   NamespaceScope.obj
 0001:00090450       ?decreaseDepth@NamespaceScope@xercesc_2_2@@QAEIXZ 12091450 f   NamespaceScope.obj
 0001:00090490       ?addPrefix@NamespaceScope@xercesc_2_2@@QAEXQBGI@Z 12091490 f   NamespaceScope.obj
 0001:00090590       ?getNamespaceForPrefix@NamespaceScope@xercesc_2_2@@QBEIQBGH@Z 12091590 f   NamespaceScope.obj
 0001:00090600       ?reset@NamespaceScope@xercesc_2_2@@QAEXI@Z 12091600 f   NamespaceScope.obj
 0001:00090620       ?expandMap@NamespaceScope@xercesc_2_2@@AAEXQAUStackElem@12@@Z 12091620 f   NamespaceScope.obj
 0001:000906b0       ?expandStack@NamespaceScope@xercesc_2_2@@AAEXXZ 120916b0 f   NamespaceScope.obj
 0001:00090750       ?getFullName@SchemaAttDef@xercesc_2_2@@UBEPBGXZ 12091750 f   SchemaAttDef.obj
 0001:00090760       ??0SchemaAttDef@xercesc_2_2@@QAE@XZ 12091760 f   SchemaAttDef.obj
 0001:000907a0       ??_ESchemaAttDef@xercesc_2_2@@UAEPAXI@Z 120917a0 f i SchemaAttDef.obj
 0001:00090800       ??0SchemaAttDef@xercesc_2_2@@QAE@QBG0HW4AttTypes@XMLAttDef@1@W4DefAttTypes@31@@Z 12091800 f   SchemaAttDef.obj
 0001:000908b0       ??0SchemaAttDef@xercesc_2_2@@QAE@QBG0H0W4AttTypes@XMLAttDef@1@W4DefAttTypes@31@0@Z 120918b0 f   SchemaAttDef.obj
 0001:00090970       ??0SchemaAttDef@xercesc_2_2@@QAE@PBV01@@Z 12091970 f   SchemaAttDef.obj
 0001:00090aa0       ??1SchemaAttDef@xercesc_2_2@@UAE@XZ 12091aa0 f   SchemaAttDef.obj
 0001:00090b20       ?setAttName@SchemaAttDef@xercesc_2_2@@QAEXQBG0H@Z 12091b20 f   SchemaAttDef.obj
 0001:00090b40       ??0SchemaAttDefList@xercesc_2_2@@QAE@QAV?$RefHash2KeysTableOf@VSchemaAttDef@xercesc_2_2@@@1@@Z 12091b40 f   SchemaAttDefList.obj
 0001:00090c40       ??1SchemaAttDefList@xercesc_2_2@@UAE@XZ 12091c40 f   SchemaAttDefList.obj
 0001:00090c90       ?hasMoreElements@DTDAttDefList@xercesc_2_2@@UBE_NXZ 12091c90 f   SchemaAttDefList.obj
 0001:00090c90       ?hasMoreElements@SchemaAttDefList@xercesc_2_2@@UBE_NXZ 12091c90 f   SchemaAttDefList.obj
 0001:00090ca0       ?isEmpty@SchemaAttDefList@xercesc_2_2@@UBE_NXZ 12091ca0 f   SchemaAttDefList.obj
 0001:00090ca0       ?isEmpty@DTDAttDefList@xercesc_2_2@@UBE_NXZ 12091ca0 f   SchemaAttDefList.obj
 0001:00090cd0       ?findAttDef@SchemaAttDefList@xercesc_2_2@@UAEPAVXMLAttDef@2@KQBG@Z 12091cd0 f   SchemaAttDefList.obj
 0001:00090dc0       ?findAttDef@SchemaAttDefList@xercesc_2_2@@UBEPBVXMLAttDef@2@KQBG@Z 12091dc0 f   SchemaAttDefList.obj
 0001:00090eb0       ?findAttDef@SchemaAttDefList@xercesc_2_2@@UAEPAVXMLAttDef@2@QBG0@Z 12091eb0 f   SchemaAttDefList.obj
 0001:00090ee0       ?findAttDef@SchemaAttDefList@xercesc_2_2@@UBEPBVXMLAttDef@2@QBG0@Z 12091ee0 f   SchemaAttDefList.obj
 0001:00090f10       ?nextElement@SchemaAttDefList@xercesc_2_2@@UAEAAVXMLAttDef@2@XZ 12091f10 f   SchemaAttDefList.obj
 0001:00090f10       ?nextElement@DTDAttDefList@xercesc_2_2@@UAEAAVXMLAttDef@2@XZ 12091f10 f   SchemaAttDefList.obj
 0001:00090f20       ?Reset@DTDAttDefList@xercesc_2_2@@UAEXXZ 12091f20 f   SchemaAttDefList.obj
 0001:00090f20       ?Reset@SchemaAttDefList@xercesc_2_2@@UAEXXZ 12091f20 f   SchemaAttDefList.obj
 0001:00090f30       ??0SchemaElementDecl@xercesc_2_2@@QAE@XZ 12091f30 f   SchemaElementDecl.obj
 0001:00090f90       ??_ESchemaElementDecl@xercesc_2_2@@UAEPAXI@Z 12091f90 f i SchemaElementDecl.obj
 0001:00090ff0       ??0SchemaElementDecl@xercesc_2_2@@QAE@QBG0HW4ModelTypes@01@H@Z 12091ff0 f   SchemaElementDecl.obj
 0001:00091090       ??0SchemaElementDecl@xercesc_2_2@@QAE@QBVQName@1@W4ModelTypes@01@H@Z 12092090 f   SchemaElementDecl.obj
 0001:00091130       ??1SchemaElementDecl@xercesc_2_2@@UAE@XZ 12092130 f   SchemaElementDecl.obj
 0001:00091210       ?findAttr@SchemaElementDecl@xercesc_2_2@@UBEPAVXMLAttDef@2@QBGI00W4LookupOpts@XMLElementDecl@2@AA_N@Z 12092210 f   SchemaElementDecl.obj
 0001:000914b0       ?getAttDefList@SchemaElementDecl@xercesc_2_2@@UBEAAVXMLAttDefList@2@XZ 120924b0 f   SchemaElementDecl.obj
 0001:00091500       ?getCharDataOpts@SchemaElementDecl@xercesc_2_2@@UBE?AW4CharDataOpts@XMLElementDecl@2@XZ 12092500 f   SchemaElementDecl.obj
 0001:00091530       ?hasAttDefs@SchemaElementDecl@xercesc_2_2@@UBE_NXZ 12092530 f   SchemaElementDecl.obj
 0001:000915a0       ?resetDefs@SchemaElementDecl@xercesc_2_2@@UAE_NXZ 120925a0 f   SchemaElementDecl.obj
 0001:00091620       ?getFormattedContentModel@SchemaElementDecl@xercesc_2_2@@UBEPBGXZ 12092620 f   SchemaElementDecl.obj
 0001:00091640       ?getAttDef@SchemaElementDecl@xercesc_2_2@@QBEPBVSchemaAttDef@2@QBGH@Z 12092640 f   SchemaElementDecl.obj
 0001:00091640       ?getAttDef@SchemaElementDecl@xercesc_2_2@@QAEPAVSchemaAttDef@2@QBGH@Z 12092640 f   SchemaElementDecl.obj
 0001:00091790       ?elementCount@XercesGroupInfo@xercesc_2_2@@QBEIXZ 12092790 f i SchemaGrammar.obj
 0001:000917a0       ?elementAt@XercesGroupInfo@xercesc_2_2@@QAEPAVSchemaElementDecl@2@I@Z 120927a0 f i SchemaGrammar.obj
 0001:000917a0       ?elementAt@XercesGroupInfo@xercesc_2_2@@QBEPBVSchemaElementDecl@2@I@Z 120927a0 f i SchemaGrammar.obj
 0001:000917f0       ?addElement@XercesGroupInfo@xercesc_2_2@@QAEXQAVSchemaElementDecl@2@@Z 120927f0 f i SchemaGrammar.obj
 0001:00091890       ?attributeCount@XercesAttGroupInfo@xercesc_2_2@@QBEIXZ 12092890 f i SchemaGrammar.obj
 0001:000918a0       ?anyAttributeCount@XercesAttGroupInfo@xercesc_2_2@@QBEIXZ 120928a0 f i SchemaGrammar.obj
 0001:000918b0       ?attributeAt@XercesAttGroupInfo@xercesc_2_2@@QAEPAVSchemaAttDef@2@I@Z 120928b0 f i SchemaGrammar.obj
 0001:000918b0       ?attributeAt@XercesAttGroupInfo@xercesc_2_2@@QBEPBVSchemaAttDef@2@I@Z 120928b0 f i SchemaGrammar.obj
 0001:00091900       ?addAttDef@XercesAttGroupInfo@xercesc_2_2@@QAEXQAVSchemaAttDef@2@_N@Z 12092900 f i SchemaGrammar.obj
 0001:00091ad0       ?addAnyAttDef@XercesAttGroupInfo@xercesc_2_2@@QAEXQAVSchemaAttDef@2@_N@Z 12092ad0 f i SchemaGrammar.obj
 0001:00091ca0       ?setCompleteWildCard@XercesAttGroupInfo@xercesc_2_2@@QAEXQAVSchemaAttDef@2@@Z 12092ca0 f i SchemaGrammar.obj
 0001:00091cd0       ??0SchemaGrammar@xercesc_2_2@@QAE@XZ 12092cd0 f   SchemaGrammar.obj
 0001:00092010       ??1SchemaGrammar@xercesc_2_2@@UAE@XZ 12093010 f   SchemaGrammar.obj
 0001:00092070       ?findOrAddElemDecl@SchemaGrammar@xercesc_2_2@@UAEPAVXMLElementDecl@2@IQBG00IAA_N@Z 12093070 f   SchemaGrammar.obj
 0001:00092280       ?putElemDecl@SchemaGrammar@xercesc_2_2@@UAEPAVXMLElementDecl@2@IQBG00I_N@Z 12093280 f   SchemaGrammar.obj
 0001:00092520       ?reset@SchemaGrammar@xercesc_2_2@@UAEXXZ 12093520 f   SchemaGrammar.obj
 0001:000926b0       ?cleanUp@SchemaGrammar@xercesc_2_2@@AAEXXZ 120936b0 f   SchemaGrammar.obj
 0001:00092850       ?removeAll@?$RefHash3KeysIdPool@VSchemaElementDecl@xercesc_2_2@@@xercesc_2_2@@QAEXXZ 12093850 f i SchemaGrammar.obj
 0001:000928c0       ??1?$RefHashTableOf@VXMLRefInfo@xercesc_2_2@@@xercesc_2_2@@QAE@XZ 120938c0 f i SchemaGrammar.obj
 0001:00092950       ??1?$RefHashTableOf@VComplexTypeInfo@xercesc_2_2@@@xercesc_2_2@@QAE@XZ 12093950 f i SchemaGrammar.obj
 0001:000929e0       ??1?$RefHashTableOf@VXercesGroupInfo@xercesc_2_2@@@xercesc_2_2@@QAE@XZ 120939e0 f i SchemaGrammar.obj
 0001:00092a70       ??1?$RefHash2KeysTableOf@V?$ValueVectorOf@PAVSchemaElementDecl@xercesc_2_2@@@xercesc_2_2@@@xercesc_2_2@@QAE@XZ 12093a70 f i SchemaGrammar.obj
 0001:00092a70       ??1?$RefHashTableOf@V?$ValueVectorOf@PAVDOMElement@xercesc_2_2@@@xercesc_2_2@@@xercesc_2_2@@QAE@XZ 12093a70 f i SchemaGrammar.obj
 0001:00092b00       ??_G?$RefVectorOf@VSchemaAttDef@xercesc_2_2@@@xercesc_2_2@@UAEPAXI@Z 12093b00 f i SchemaGrammar.obj
 0001:00092b00       ??_E?$RefVectorOf@VSchemaAttDef@xercesc_2_2@@@xercesc_2_2@@UAEPAXI@Z 12093b00 f i SchemaGrammar.obj
 0001:00092b20       ??1?$RefVectorOf@VSchemaAttDef@xercesc_2_2@@@xercesc_2_2@@UAE@XZ 12093b20 f i SchemaGrammar.obj
 0001:00092ba0       ??1?$BaseRefVectorOf@VSchemaAttDef@xercesc_2_2@@@xercesc_2_2@@UAE@XZ 12093ba0 f i SchemaGrammar.obj
 0001:00092bb0       ?findBucketElem@?$RefHash3KeysIdPool@VSchemaElementDecl@xercesc_2_2@@@xercesc_2_2@@AAEPAU?$RefHash3KeysTableBucketElem@VSchemaElementDecl@xercesc_2_2@@@2@QBXHHAAI@Z 12093bb0 f i SchemaGrammar.obj
 0001:00092c50       ?initialize@?$RefHash3KeysIdPool@VSchemaElementDecl@xercesc_2_2@@@xercesc_2_2@@AAEXI@Z 12093c50 f i SchemaGrammar.obj
 0001:00092cc0       ?removeAll@?$RefHashTableOf@VXercesAttGroupInfo@xercesc_2_2@@@xercesc_2_2@@QAEXXZ 12093cc0 f i SchemaGrammar.obj
 0001:00092d30       ??0DOMStringHandle@xercesc_2_2@@AAE@XZ 12093d30 f i SchemaInfo.obj
 0001:00092d30       ??0XUtil@xercesc_2_2@@IAE@XZ 12093d30 f i SchemaInfo.obj
 0001:00092d40       ??0SchemaInfo@xercesc_2_2@@QAE@GHHHHIQAGQBGQBVDOMElement@1@@Z 12093d40 f   SchemaInfo.obj
 0001:00092e40       ??1SchemaInfo@xercesc_2_2@@QAE@XZ 12093e40 f   SchemaInfo.obj
 0001:00092f30       ?getTopLevelComponent@SchemaInfo@xercesc_2_2@@QAEPAVDOMElement@2@GQBG0PAPAV12@@Z 12093f30 f   SchemaInfo.obj
 0001:00092fe0       ?getTopLevelComponent@SchemaInfo@xercesc_2_2@@QAEPAVDOMElement@2@GQBG0@Z 12093fe0 f   SchemaInfo.obj
 0001:00093440       ?updateImportingInfo@SchemaInfo@xercesc_2_2@@QAEXQAV12@@Z 12094440 f   SchemaInfo.obj
 0001:000935a0       ??0SchemaValidator@xercesc_2_2@@QAE@QAVXMLErrorReporter@1@@Z 120945a0 f   SchemaValidator.obj
 0001:00093680       ??_ESchemaValidator@xercesc_2_2@@UAEPAXI@Z 12094680 f i SchemaValidator.obj
 0001:000936e0       ??1SchemaValidator@xercesc_2_2@@UAE@XZ 120946e0 f   SchemaValidator.obj
 0001:00093770       ?checkContent@SchemaValidator@xercesc_2_2@@UAEHQAVXMLElementDecl@2@QAPAVQName@2@I@Z 12094770 f   SchemaValidator.obj
 0001:00093fa0       ?faultInAttr@SchemaValidator@xercesc_2_2@@UBEXAAVXMLAttr@2@ABVXMLAttDef@2@@Z 12094fa0 f   SchemaValidator.obj
 0001:00093fe0       ?reset@SchemaValidator@xercesc_2_2@@UAEXXZ 12094fe0 f   SchemaValidator.obj
 0001:00094020       ?validateAttrValue@SchemaValidator@xercesc_2_2@@UAEXPBVXMLAttDef@2@QBG_NPBVXMLElementDecl@2@@Z 12095020 f   SchemaValidator.obj
 0001:000944a0       ?validateElement@SchemaValidator@xercesc_2_2@@UAEXPBVXMLElementDecl@2@@Z 120954a0 f   SchemaValidator.obj
 0001:00094ae0       ?preContentValidation@SchemaValidator@xercesc_2_2@@UAEX_N0@Z 12095ae0 f   SchemaValidator.obj
 0001:00095140       ?normalizeWhiteSpace@SchemaValidator@xercesc_2_2@@QAEXPAVDatatypeValidator@2@QBGAAVXMLBuffer@2@@Z 12096140 f   SchemaValidator.obj
 0001:000952e0       ?checkRefElementConsistency@SchemaValidator@xercesc_2_2@@AAEXQAVSchemaGrammar@2@QBVComplexTypeInfo@2@QBVXercesGroupInfo@2@@Z 120962e0 f   SchemaValidator.obj
 0001:00095540       ?checkParticleDerivation@SchemaValidator@xercesc_2_2@@AAEXQAVSchemaGrammar@2@QBVComplexTypeInfo@2@@Z 12096540 f   SchemaValidator.obj
 0001:000955e0       ?checkParticleDerivationOk@SchemaValidator@xercesc_2_2@@AAEXQAVSchemaGrammar@2@QAVContentSpecNode@2@H1HQBVComplexTypeInfo@2@_N@Z 120965e0 f   SchemaValidator.obj
 0001:00095fa0       ??0ContentSpecNode@xercesc_2_2@@QAE@W4NodeTypes@01@QAV01@1_N2@Z 12096fa0 f i SchemaValidator.obj
 0001:00095fe0       ?checkForPointlessOccurrences@SchemaValidator@xercesc_2_2@@AAEPAVContentSpecNode@2@QAV32@W4NodeTypes@32@QAV?$ValueVectorOf@PAVContentSpecNode@xercesc_2_2@@@2@@Z 12096fe0 f   SchemaValidator.obj
 0001:00096060       ?gatherChildren@SchemaValidator@xercesc_2_2@@AAEXW4NodeTypes@ContentSpecNode@2@QAV42@QAV?$ValueVectorOf@PAVContentSpecNode@xercesc_2_2@@@2@@Z 12097060 f   SchemaValidator.obj
 0001:00096270       ?checkNSCompat@SchemaValidator@xercesc_2_2@@AAEXQBVContentSpecNode@2@0_N@Z 12097270 f   SchemaValidator.obj
 0001:00096340       ?wildcardEltAllowsNamespace@SchemaValidator@xercesc_2_2@@AAE_NQBVContentSpecNode@2@I@Z 12097340 f   SchemaValidator.obj
 0001:00096390       ?checkNameAndTypeOK@SchemaValidator@xercesc_2_2@@AAEXQAVSchemaGrammar@2@QBVContentSpecNode@2@H1HQBVComplexTypeInfo@2@@Z 12097390 f   SchemaValidator.obj
 0001:00096660       ?findElement@SchemaValidator@xercesc_2_2@@AAEPAVSchemaElementDecl@2@HIQBGQAVSchemaGrammar@2@QBVComplexTypeInfo@2@@Z 12097660 f   SchemaValidator.obj
 0001:000966c0       ?checkICRestriction@SchemaValidator@xercesc_2_2@@AAEXQBVSchemaElementDecl@2@0QBG1@Z 120976c0 f   SchemaValidator.obj
 0001:00096820       ?checkTypesOK@SchemaValidator@xercesc_2_2@@AAEXQBVSchemaElementDecl@2@0QBG@Z 12097820 f   SchemaValidator.obj
 0001:00096990       ?checkRecurseAsIfGroup@SchemaValidator@xercesc_2_2@@AAEXQAVSchemaGrammar@2@QAVContentSpecNode@2@HQBV42@HQAV?$ValueVectorOf@PAVContentSpecNode@xercesc_2_2@@@2@QBVComplexTypeInfo@2@@Z 12097990 f   SchemaValidator.obj
 0001:00096b60       ?checkRecurse@SchemaValidator@xercesc_2_2@@AAEXQAVSchemaGrammar@2@QBVContentSpecNode@2@HQAV?$ValueVectorOf@PAVContentSpecNode@xercesc_2_2@@@2@1H2QBVComplexTypeInfo@2@_N@Z 12097b60 f   SchemaValidator.obj
 0001:00096e30       ?checkNSSubset@SchemaValidator@xercesc_2_2@@AAEXQBVContentSpecNode@2@0@Z 12097e30 f   SchemaValidator.obj
 0001:00096ec0       ?isWildCardEltSubset@SchemaValidator@xercesc_2_2@@AAE_NQBVContentSpecNode@2@0@Z 12097ec0 f   SchemaValidator.obj
 0001:00096f30       ?checkNSRecurseCheckCardinality@SchemaValidator@xercesc_2_2@@AAEXQAVSchemaGrammar@2@QBVContentSpecNode@2@QAV?$ValueVectorOf@PAVContentSpecNode@xercesc_2_2@@@2@HQAV42@_N@Z 12097f30 f   SchemaValidator.obj
 0001:00097000       ?checkRecurseUnordered@SchemaValidator@xercesc_2_2@@AAEXQAVSchemaGrammar@2@QBVContentSpecNode@2@QAV?$ValueVectorOf@PAVContentSpecNode@xercesc_2_2@@@2@HQAV42@2HQBVComplexTypeInfo@2@@Z 12098000 f   SchemaValidator.obj
 0001:000972e0       ?checkMapAndSum@SchemaValidator@xercesc_2_2@@AAEXQAVSchemaGrammar@2@QBVContentSpecNode@2@QAV?$ValueVectorOf@PAVContentSpecNode@xercesc_2_2@@@2@HQAV42@2HQBVComplexTypeInfo@2@@Z 120982e0 f   SchemaValidator.obj
 0001:00097500       ??1?$XMLEnumerator@VComplexTypeInfo@xercesc_2_2@@@xercesc_2_2@@UAE@XZ 12098500 f i SchemaValidator.obj
 0001:00097510       ??1?$XMLEnumerator@VXercesGroupInfo@xercesc_2_2@@@xercesc_2_2@@UAE@XZ 12098510 f i SchemaValidator.obj
 0001:00097520       ??_E?$XMLEnumerator@VComplexTypeInfo@xercesc_2_2@@@xercesc_2_2@@UAEPAXI@Z 12098520 f i SchemaValidator.obj
 0001:00097520       ??_G?$XMLEnumerator@VComplexTypeInfo@xercesc_2_2@@@xercesc_2_2@@UAEPAXI@Z 12098520 f i SchemaValidator.obj
 0001:00097540       ??_E?$XMLEnumerator@VXercesGroupInfo@xercesc_2_2@@@xercesc_2_2@@UAEPAXI@Z 12098540 f i SchemaValidator.obj
 0001:00097540       ??_G?$XMLEnumerator@VXercesGroupInfo@xercesc_2_2@@@xercesc_2_2@@UAEPAXI@Z 12098540 f i SchemaValidator.obj
 0001:00097560       ??1?$RefHashTableOfEnumerator@VComplexTypeInfo@xercesc_2_2@@@xercesc_2_2@@UAE@XZ 12098560 f i SchemaValidator.obj
 0001:00097640       ??1?$RefHashTableOfEnumerator@VXercesGroupInfo@xercesc_2_2@@@xercesc_2_2@@UAE@XZ 12098640 f i SchemaValidator.obj
 0001:00097720       ??1?$ArrayJanitor@G@xercesc_2_2@@QAE@XZ 12098720 f i SchemaValidator.obj
 0001:00097720       ??1?$ArrayJanitor@E@xercesc_2_2@@QAE@XZ 12098720 f i SchemaValidator.obj
 0001:00097720       ??1?$ArrayJanitor@D@xercesc_2_2@@QAE@XZ 12098720 f i SchemaValidator.obj
 0001:00097720       ??1?$ArrayJanitor@H@xercesc_2_2@@QAE@XZ 12098720 f i SchemaValidator.obj
 0001:00097720       ??1?$ArrayJanitor@_N@xercesc_2_2@@QAE@XZ 12098720 f i SchemaValidator.obj
 0001:00097740       ??_E?$RefHashTableOfEnumerator@VComplexTypeInfo@xercesc_2_2@@@xercesc_2_2@@UAEPAXI@Z 12098740 f i SchemaValidator.obj
 0001:00097740       ??_G?$RefHashTableOfEnumerator@VComplexTypeInfo@xercesc_2_2@@@xercesc_2_2@@UAEPAXI@Z 12098740 f i SchemaValidator.obj
 0001:00097760       ??_E?$RefHashTableOfEnumerator@VXercesGroupInfo@xercesc_2_2@@@xercesc_2_2@@UAEPAXI@Z 12098760 f i SchemaValidator.obj
 0001:00097760       ??_G?$RefHashTableOfEnumerator@VXercesGroupInfo@xercesc_2_2@@@xercesc_2_2@@UAEPAXI@Z 12098760 f i SchemaValidator.obj
 0001:00097780       ?removeElementAt@?$ValueVectorOf@PAVComplexTypeInfo@xercesc_2_2@@@xercesc_2_2@@QAEXI@Z 12098780 f i SchemaValidator.obj
 0001:00097780       ?removeElementAt@?$ValueVectorOf@I@xercesc_2_2@@QAEXI@Z 12098780 f i SchemaValidator.obj
 0001:00097780       ?removeElementAt@?$ValueVectorOf@H@xercesc_2_2@@QAEXI@Z 12098780 f i SchemaValidator.obj
 0001:000977e0       ?findNext@?$RefHashTableOfEnumerator@VGrammar@xercesc_2_2@@@xercesc_2_2@@AAEXXZ 120987e0 f i SchemaValidator.obj
 0001:000977e0       ?findNext@?$RefHashTableOfEnumerator@VXercesGroupInfo@xercesc_2_2@@@xercesc_2_2@@AAEXXZ 120987e0 f i SchemaValidator.obj
 0001:000977e0       ?findNext@?$RefHash2KeysTableOfEnumerator@VSchemaAttDef@xercesc_2_2@@@xercesc_2_2@@AAEXXZ 120987e0 f i SchemaValidator.obj
 0001:000977e0       ?findNext@?$RefHashTableOfEnumerator@VDTDAttDef@xercesc_2_2@@@xercesc_2_2@@AAEXXZ 120987e0 f i SchemaValidator.obj
 0001:000977e0       ?findNext@?$RefHashTableOfEnumerator@VComplexTypeInfo@xercesc_2_2@@@xercesc_2_2@@AAEXXZ 120987e0 f i SchemaValidator.obj
 0001:000977e0       ?findNext@?$RefHashTableOfEnumerator@VValueStore@xercesc_2_2@@@xercesc_2_2@@AAEXXZ 120987e0 f i SchemaValidator.obj
 0001:000977e0       ?findNext@?$RefHashTableOfEnumerator@VXMLRefInfo@xercesc_2_2@@@xercesc_2_2@@AAEXXZ 120987e0 f i SchemaValidator.obj
 0001:000977e0       ?findNext@?$RefHashTableOfEnumerator@VKVStringPair@xercesc_2_2@@@xercesc_2_2@@AAEXXZ 120987e0 f i SchemaValidator.obj
 0001:000977e0       ?findNext@?$RefHashTableOfEnumerator@V?$KeyRefPair@XVDOMUserDataHandler@xercesc_2_2@@@xercesc_2_2@@@xercesc_2_2@@AAEXXZ 120987e0 f i SchemaValidator.obj
 0001:00097830       ?findBucketElem@?$RefHash2KeysTableOf@VIdentityConstraint@xercesc_2_2@@@xercesc_2_2@@AAEPAU?$RefHash2KeysTableBucketElem@VIdentityConstraint@xercesc_2_2@@@2@QBXHAAI@Z 12098830 f i SchemaValidator.obj
 0001:00097830       ?findBucketElem@?$RefHash2KeysTableOf@G@xercesc_2_2@@AAEPAU?$RefHash2KeysTableBucketElem@G@2@QBXHAAI@Z 12098830 f i SchemaValidator.obj
 0001:00097830       ?findBucketElem@?$RefHash2KeysTableOf@VSchemaAttDef@xercesc_2_2@@@xercesc_2_2@@AAEPAU?$RefHash2KeysTableBucketElem@VSchemaAttDef@xercesc_2_2@@@2@QBXHAAI@Z 12098830 f i SchemaValidator.obj
 0001:00097830       ?findBucketElem@?$RefHash2KeysTableOf@VSchemaInfo@xercesc_2_2@@@xercesc_2_2@@AAEPAU?$RefHash2KeysTableBucketElem@VSchemaInfo@xercesc_2_2@@@2@QBXHAAI@Z 12098830 f i SchemaValidator.obj
 0001:00097830       ?findBucketElem@?$RefHash2KeysTableOf@V?$ValueVectorOf@PAVSchemaElementDecl@xercesc_2_2@@@xercesc_2_2@@@xercesc_2_2@@AAEPAU?$RefHash2KeysTableBucketElem@V?$ValueVectorOf@PAVSchemaElementDecl@xercesc_2_2@@@xercesc_2_2@@@2@QBXHAAI@Z 12098830 f i SchemaValidator.obj
 0001:000978c0       ?removeAll@?$RefHashTableOf@VComplexTypeInfo@xercesc_2_2@@@xercesc_2_2@@QAEXXZ 120988c0 f i SchemaValidator.obj
 0001:00097930       ?removeAll@?$RefHashTableOf@VXercesGroupInfo@xercesc_2_2@@@xercesc_2_2@@QAEXXZ 12098930 f i SchemaValidator.obj
 0001:000979a0       ?isEquivalentTo@SubstitutionGroupComparator@xercesc_2_2@@QAE_NQAVQName@2@0@Z 120989a0 f   SubstitutionGroupComparator.obj
 0001:00097c00       ?isAllowedByWildcard@SubstitutionGroupComparator@xercesc_2_2@@QAE_NQAVSchemaGrammar@2@QAVQName@2@I_N@Z 12098c00 f   SubstitutionGroupComparator.obj
 0001:00097d60       ??_ODOMElementNSImpl@xercesc_2_2@@QAEXABV01@@Z 12098d60 f i TraverseSchema.obj
 0001:00097d70       ??1DOMElementNSImpl@xercesc_2_2@@UAE@XZ 12098d70 f i TraverseSchema.obj
 0001:00097d70       ??1XSDElementNSImpl@xercesc_2_2@@UAE@XZ 12098d70 f i TraverseSchema.obj
 0001:00097d80       ??_OXSDElementNSImpl@xercesc_2_2@@QAEXABV01@@Z 12098d80 f i TraverseSchema.obj
 0001:00097d90       ??0TraverseSchema@xercesc_2_2@@QAE@QAVDOMElement@1@QAVXMLStringPool@1@QAVSchemaGrammar@1@QAVGrammarResolver@1@QAVXMLScanner@1@QBGQAVXMLEntityHandler@1@QAVXMLErrorReporter@1@@Z 12098d90 f   TraverseSchema.obj
 0001:00097f10       ??1TraverseSchema@xercesc_2_2@@QAE@XZ 12098f10 f   TraverseSchema.obj
 0001:00097f80       ?doTraverseSchema@TraverseSchema@xercesc_2_2@@AAEXQBVDOMElement@2@@Z 12098f80 f   TraverseSchema.obj
 0001:00098180       ?preprocessSchema@TraverseSchema@xercesc_2_2@@AAEXQAVDOMElement@2@QBG@Z 12099180 f   TraverseSchema.obj
 0001:000987a0       ?traverseSchemaHeader@TraverseSchema@xercesc_2_2@@AAEXQBVDOMElement@2@@Z 120997a0 f   TraverseSchema.obj
 0001:00098990       ?traverseAnnotationDecl@TraverseSchema@xercesc_2_2@@AAEXQBVDOMElement@2@_N@Z 12099990 f   TraverseSchema.obj
 0001:00098ae0       ?preprocessInclude@TraverseSchema@xercesc_2_2@@AAEXQBVDOMElement@2@@Z 12099ae0 f   TraverseSchema.obj
 0001:00099010       ?traverseInclude@TraverseSchema@xercesc_2_2@@AAEXQBVDOMElement@2@@Z 1209a010 f   TraverseSchema.obj
 0001:000990b0       ?preprocessImport@TraverseSchema@xercesc_2_2@@AAEXQBVDOMElement@2@@Z 1209a0b0 f   TraverseSchema.obj
 0001:00099640       ?traverseImport@TraverseSchema@xercesc_2_2@@AAEXQBVDOMElement@2@@Z 1209a640 f   TraverseSchema.obj
 0001:000996f0       ?preprocessRedefine@TraverseSchema@xercesc_2_2@@AAEXQBVDOMElement@2@@Z 1209a6f0 f   TraverseSchema.obj
 0001:00099900       ?traverseRedefine@TraverseSchema@xercesc_2_2@@AAEXQBVDOMElement@2@@Z 1209a900 f   TraverseSchema.obj
 0001:000999b0       ?traverseChoiceSequence@TraverseSchema@xercesc_2_2@@AAEPAVContentSpecNode@2@QBVDOMElement@2@H@Z 1209a9b0 f   TraverseSchema.obj
 0001:00099e20       ?traverseSimpleTypeDecl@TraverseSchema@xercesc_2_2@@AAEPAVDatatypeValidator@2@QBVDOMElement@2@_NH@Z 1209ae20 f   TraverseSchema.obj
 0001:0009a380       ?traverseComplexTypeDecl@TraverseSchema@xercesc_2_2@@AAEHQBVDOMElement@2@_NQBG@Z 1209b380 f   TraverseSchema.obj
 0001:0009aba0       ?traverseGroupDecl@TraverseSchema@xercesc_2_2@@AAEPAVXercesGroupInfo@2@QBVDOMElement@2@_N@Z 1209bba0 f   TraverseSchema.obj
 0001:0009b310       ?traverseAttributeGroupDecl@TraverseSchema@xercesc_2_2@@AAEPAVXercesAttGroupInfo@2@QBVDOMElement@2@QAVComplexTypeInfo@2@_N@Z 1209c310 f   TraverseSchema.obj
 0001:0009b8f0       ?traverseAttributeGroupDeclNS@TraverseSchema@xercesc_2_2@@AAEPAVXercesAttGroupInfo@2@QBVDOMElement@2@QBG1@Z 1209c8f0 f i TraverseSchema.obj
 0001:0009b9e0       ?traverseAny@TraverseSchema@xercesc_2_2@@AAEPAVContentSpecNode@2@QBVDOMElement@2@@Z 1209c9e0 f   TraverseSchema.obj
 0001:0009c030       ??0ContentSpecNode@xercesc_2_2@@QAE@QAVQName@1@_N@Z 1209d030 f i TraverseSchema.obj
 0001:0009c0c0       ?traverseAll@TraverseSchema@xercesc_2_2@@AAEPAVContentSpecNode@2@QBVDOMElement@2@@Z 1209d0c0 f   TraverseSchema.obj
 0001:0009c310       ?traverseAttributeDecl@TraverseSchema@xercesc_2_2@@AAEXQBVDOMElement@2@QAVComplexTypeInfo@2@_N@Z 1209d310 f   TraverseSchema.obj
 0001:0009d330       ?traverseElementDecl@TraverseSchema@xercesc_2_2@@AAEPAVQName@2@QBVDOMElement@2@_N@Z 1209e330 f   TraverseSchema.obj
 0001:0009ed40       ?traverseNotationDecl@TraverseSchema@xercesc_2_2@@AAEPBGQBVDOMElement@2@@Z 1209fd40 f   TraverseSchema.obj
 0001:0009eef0       ?traverseNotationDecl@TraverseSchema@xercesc_2_2@@AAEPBGQBVDOMElement@2@QBG1@Z 1209fef0 f   TraverseSchema.obj
 0001:0009f150       ?traverseByList@TraverseSchema@xercesc_2_2@@AAEPAVDatatypeValidator@2@QBVDOMElement@2@0QBG1H@Z 120a0150 f   TraverseSchema.obj
 0001:0009f520       ?traverseByRestriction@TraverseSchema@xercesc_2_2@@AAEPAVDatatypeValidator@2@QBVDOMElement@2@0QBG1H@Z 120a0520 f   TraverseSchema.obj
 0001:000a0080       ?traverseByUnion@TraverseSchema@xercesc_2_2@@AAEPAVDatatypeValidator@2@QBVDOMElement@2@0QBG1HH@Z 120a1080 f   TraverseSchema.obj
 0001:000a05b0       ?traverseSimpleContentDecl@TraverseSchema@xercesc_2_2@@AAEXQBG0QBVDOMElement@2@QAVComplexTypeInfo@2@@Z 120a15b0 f   TraverseSchema.obj
 0001:000a1530       ?traverseComplexContentDecl@TraverseSchema@xercesc_2_2@@AAEXQBGQBVDOMElement@2@QAVComplexTypeInfo@2@_N@Z 120a2530 f   TraverseSchema.obj
 0001:000a1990       ?traverseAnyAttribute@TraverseSchema@xercesc_2_2@@AAEPAVSchemaAttDef@2@QBVDOMElement@2@@Z 120a2990 f   TraverseSchema.obj
 0001:000a1de0       ?traverseKey@TraverseSchema@xercesc_2_2@@AAEXQBVDOMElement@2@QAVSchemaElementDecl@2@@Z 120a2de0 f   TraverseSchema.obj
 0001:000a2140       ?traverseUnique@TraverseSchema@xercesc_2_2@@AAEXQBVDOMElement@2@QAVSchemaElementDecl@2@@Z 120a3140 f   TraverseSchema.obj
 0001:000a2470       ?traverseKeyRef@TraverseSchema@xercesc_2_2@@AAEXQBVDOMElement@2@QAVSchemaElementDecl@2@I@Z 120a3470 f   TraverseSchema.obj
 0001:000a2860       ?traverseIdentityConstraint@TraverseSchema@xercesc_2_2@@AAE_NQAVIdentityConstraint@2@QBVDOMElement@2@@Z 120a3860 f   TraverseSchema.obj
 0001:000a3010       ?retrieveNamespaceMapping@TraverseSchema@xercesc_2_2@@AAEXQBVDOMElement@2@@Z 120a4010 f   TraverseSchema.obj
 0001:000a31c0       ?processChildren@TraverseSchema@xercesc_2_2@@AAEXQBVDOMElement@2@@Z 120a41c0 f   TraverseSchema.obj
 0001:000a3bf0       ?preprocessChildren@TraverseSchema@xercesc_2_2@@AAEXQBVDOMElement@2@@Z 120a4bf0 f   TraverseSchema.obj
 0001:000a3da0       ?checkContent@TraverseSchema@xercesc_2_2@@AAEPAVDOMElement@2@QBV32@QAV32@_N@Z 120a4da0 f   TraverseSchema.obj
 0001:000a3f70       ?getDatatypeValidator@TraverseSchema@xercesc_2_2@@AAEPAVDatatypeValidator@2@QBG0@Z 120a4f70 f   TraverseSchema.obj
 0001:000a41d0       ?checkForSimpleTypeValidator@TraverseSchema@xercesc_2_2@@AAEPAVDatatypeValidator@2@QBVDOMElement@2@H@Z 120a51d0 f   TraverseSchema.obj
 0001:000a4260       ?checkForComplexTypeInfo@TraverseSchema@xercesc_2_2@@AAEPAVComplexTypeInfo@2@QBVDOMElement@2@@Z 120a5260 f   TraverseSchema.obj
 0001:000a4370       ?findDTValidator@TraverseSchema@xercesc_2_2@@AAEPAVDatatypeValidator@2@QBVDOMElement@2@QBG1H@Z 120a5370 f   TraverseSchema.obj
 0001:000a45a0       ?resolvePrefixToURI@TraverseSchema@xercesc_2_2@@AAEPBGQBVDOMElement@2@QBG@Z 120a55a0 f   TraverseSchema.obj
 0001:000a4620       ?resolvePrefixToURI@TraverseSchema@xercesc_2_2@@AAEPBGQBVDOMElement@2@QBGI@Z 120a5620 f   TraverseSchema.obj
 0001:000a46a0       ?processElementDeclRef@TraverseSchema@xercesc_2_2@@AAEPAVQName@2@QBVDOMElement@2@QBG@Z 120a56a0 f   TraverseSchema.obj
 0001:000a4a60       ?parseBlockSet@TraverseSchema@xercesc_2_2@@AAEHQBVDOMElement@2@H_N@Z 120a5a60 f   TraverseSchema.obj
 0001:000a4d60       ?parseFinalSet@TraverseSchema@xercesc_2_2@@AAEHQBVDOMElement@2@H_N@Z 120a5d60 f   TraverseSchema.obj
 0001:000a50b0       ?checkIdentityConstraintContent@TraverseSchema@xercesc_2_2@@AAEPBVDOMElement@2@QBV32@@Z 120a60b0 f   TraverseSchema.obj
 0001:000a51e0       ?isIdentityConstraintName@TraverseSchema@xercesc_2_2@@AAE_NQBG@Z 120a61e0 f   TraverseSchema.obj
 0001:000a5300       ?checkTypeFromAnotherSchema@TraverseSchema@xercesc_2_2@@AAEPBGQBVDOMElement@2@QBG@Z 120a6300 f   TraverseSchema.obj
 0001:000a5470       ?getElementTypeValidator@TraverseSchema@xercesc_2_2@@AAEPAVDatatypeValidator@2@QBVDOMElement@2@QBGAA_N1@Z 120a6470 f   TraverseSchema.obj
 0001:000a5800       ?getElementComplexTypeInfo@TraverseSchema@xercesc_2_2@@AAEPAVComplexTypeInfo@2@QBVDOMElement@2@QBGAA_N1@Z 120a6800 f   TraverseSchema.obj
 0001:000a5b90       ?getSubstituteGroupElemDecl@TraverseSchema@xercesc_2_2@@AAEPAVSchemaElementDecl@2@QBVDOMElement@2@QBGAA_N@Z 120a6b90 f   TraverseSchema.obj
 0001:000a60c0       ?isSubstitutionGroupValid@TraverseSchema@xercesc_2_2@@AAE_NQBVDOMElement@2@QBVSchemaElementDecl@2@QBVComplexTypeInfo@2@QBVDatatypeValidator@2@QBG_N@Z 120a70c0 f   TraverseSchema.obj
 0001:000a6290       ?createSchemaElementDecl@TraverseSchema@xercesc_2_2@@AAEPAVSchemaElementDecl@2@QBVDOMElement@2@_NGAA_N1@Z 120a7290 f   TraverseSchema.obj
 0001:000a6550       ?processAttributeDeclRef@TraverseSchema@xercesc_2_2@@AAEXQBVDOMElement@2@QAVComplexTypeInfo@2@QBG222@Z 120a7550 f   TraverseSchema.obj
 0001:000a6f00       ?checkMinMax@TraverseSchema@xercesc_2_2@@AAEXQAVContentSpecNode@2@QBVDOMElement@2@H@Z 120a7f00 f   TraverseSchema.obj
 0001:000a72c0       ?processComplexContent@TraverseSchema@xercesc_2_2@@AAEXQBVDOMElement@2@QBG0QAVComplexTypeInfo@2@111_N3@Z 120a82c0 f   TraverseSchema.obj
 0001:000a7d40       ?processBaseTypeInfo@TraverseSchema@xercesc_2_2@@AAEXQBVDOMElement@2@QBG11QAVComplexTypeInfo@2@@Z 120a8d40 f   TraverseSchema.obj
 0001:000a82a0       ?getTypeInfoFromNS@TraverseSchema@xercesc_2_2@@AAEPAVComplexTypeInfo@2@QBVDOMElement@2@QBG1@Z 120a92a0 f   TraverseSchema.obj
 0001:000a83e0       ?processAttributes@TraverseSchema@xercesc_2_2@@AAEXQBVDOMElement@2@0QBG11QAVComplexTypeInfo@2@_N@Z 120a93e0 f   TraverseSchema.obj
 0001:000a8c60       ?defaultComplexTypeInfo@TraverseSchema@xercesc_2_2@@AAEXQAVComplexTypeInfo@2@@Z 120a9c60 f   TraverseSchema.obj
 0001:000a8c90       ?resolveSchemaLocation@TraverseSchema@xercesc_2_2@@AAEPAVInputSource@2@QBG@Z 120a9c90 f   TraverseSchema.obj
 0001:000a8ed0       ?restoreSchemaInfo@TraverseSchema@xercesc_2_2@@AAEXQAVSchemaInfo@2@W4ListType@32@H@Z 120a9ed0 f   TraverseSchema.obj
 0001:000a8f60       ?emptiableParticle@TraverseSchema@xercesc_2_2@@AAE_NQBVContentSpecNode@2@@Z 120a9f60 f   TraverseSchema.obj
 0001:000a8f80       ?checkFixedFacet@TraverseSchema@xercesc_2_2@@AAEXQBVDOMElement@2@QBGQBVDatatypeValidator@2@AAI@Z 120a9f80 f   TraverseSchema.obj
 0001:000a92c0       ?buildValidSubstitutionListB@TraverseSchema@xercesc_2_2@@AAEXQBVDOMElement@2@QAVSchemaElementDecl@2@1@Z 120aa2c0 f   TraverseSchema.obj
 0001:000a9590       ?buildValidSubstitutionListF@TraverseSchema@xercesc_2_2@@AAEXQBVDOMElement@2@QAVSchemaElementDecl@2@1@Z 120aa590 f   TraverseSchema.obj
 0001:000a9870       ?checkEnumerationRequiredNotation@TraverseSchema@xercesc_2_2@@AAEXQBVDOMElement@2@QBG1@Z 120aa870 f   TraverseSchema.obj
 0001:000a9990       ?processGroupRef@TraverseSchema@xercesc_2_2@@AAEPAVXercesGroupInfo@2@QBVDOMElement@2@QBG@Z 120aa990 f   TraverseSchema.obj
 0001:000a9f70       ?processAttributeGroupRef@TraverseSchema@xercesc_2_2@@AAEPAVXercesAttGroupInfo@2@QBVDOMElement@2@QBGQAVComplexTypeInfo@2@@Z 120aaf70 f   TraverseSchema.obj
 0001:000aa410       ?processElements@TraverseSchema@xercesc_2_2@@AAEXQBVDOMElement@2@QAVComplexTypeInfo@2@1@Z 120ab410 f   TraverseSchema.obj
 0001:000aa5f0       ?copyGroupElements@TraverseSchema@xercesc_2_2@@AAEXQBVDOMElement@2@QAVXercesGroupInfo@2@1QAVComplexTypeInfo@2@@Z 120ab5f0 f   TraverseSchema.obj
 0001:000aa830       ?copyAttGroupAttributes@TraverseSchema@xercesc_2_2@@AAEXQBVDOMElement@2@QAVXercesAttGroupInfo@2@1QAVComplexTypeInfo@2@@Z 120ab830 f   TraverseSchema.obj
 0001:000aab90       ?attWildCardIntersection@TraverseSchema@xercesc_2_2@@AAEXQAVSchemaAttDef@2@QBV32@@Z 120abb90 f   TraverseSchema.obj
 0001:000aaf30       ?attWildCardUnion@TraverseSchema@xercesc_2_2@@AAEXQAVSchemaAttDef@2@QBV32@@Z 120abf30 f   TraverseSchema.obj
 0001:000ab320       ?checkAttDerivationOK@TraverseSchema@xercesc_2_2@@AAEXQBVDOMElement@2@QBVComplexTypeInfo@2@1@Z 120ac320 f   TraverseSchema.obj
 0001:000ab6b0       ?checkAttDerivationOK@TraverseSchema@xercesc_2_2@@AAEXQBVDOMElement@2@QBVXercesAttGroupInfo@2@1@Z 120ac6b0 f   TraverseSchema.obj
 0001:000abab0       ?wildcardAllowsNamespace@TraverseSchema@xercesc_2_2@@AAE_NQBVSchemaAttDef@2@I@Z 120acab0 f   TraverseSchema.obj
 0001:000abb10       ?isWildCardSubset@TraverseSchema@xercesc_2_2@@AAE_NQBVSchemaAttDef@2@0@Z 120acb10 f   TraverseSchema.obj
 0001:000abc30       ?openRedefinedSchema@TraverseSchema@xercesc_2_2@@AAE_NQBVDOMElement@2@@Z 120acc30 f   TraverseSchema.obj
 0001:000ac210       ?renameRedefinedComponents@TraverseSchema@xercesc_2_2@@AAEXQBVDOMElement@2@QAVSchemaInfo@2@1@Z 120ad210 f   TraverseSchema.obj
 0001:000ac410       ?validateRedefineNameChange@TraverseSchema@xercesc_2_2@@AAE_NQBVDOMElement@2@QBG1HQAVSchemaInfo@2@@Z 120ad410 f   TraverseSchema.obj
 0001:000acdc0       ?changeRedefineGroup@TraverseSchema@xercesc_2_2@@AAEHQBVDOMElement@2@QBG1H@Z 120addc0 f   TraverseSchema.obj
 0001:000ad1a0       ?fixRedefinedSchema@TraverseSchema@xercesc_2_2@@AAEXQBVDOMElement@2@QAVSchemaInfo@2@QBG2H@Z 120ae1a0 f   TraverseSchema.obj
 0001:000ad6c0       ?isSubstitutionGroupCircular@TraverseSchema@xercesc_2_2@@AAE_NQAVSchemaElementDecl@2@0@Z 120ae6c0 f   TraverseSchema.obj
 0001:000ad6f0       ?reportSchemaError@TraverseSchema@xercesc_2_2@@AAEXQBVXSDLocator@2@QBGH@Z 120ae6f0 f   TraverseSchema.obj
 0001:000ad710       ?reportSchemaError@TraverseSchema@xercesc_2_2@@AAEXQBVXSDLocator@2@QBGH1111@Z 120ae710 f   TraverseSchema.obj
 0001:000ad750       ?reportSchemaError@TraverseSchema@xercesc_2_2@@AAEXQBVDOMElement@2@QBGH@Z 120ae750 f   TraverseSchema.obj
 0001:000ad7a0       ?reportSchemaError@TraverseSchema@xercesc_2_2@@AAEXQBVDOMElement@2@QBGH1111@Z 120ae7a0 f   TraverseSchema.obj
 0001:000ad800       ?init@TraverseSchema@xercesc_2_2@@AAEXXZ 120ae800 f   TraverseSchema.obj
 0001:000adb60       ?cleanUp@TraverseSchema@xercesc_2_2@@AAEXXZ 120aeb60 f   TraverseSchema.obj
 0001:000add50       ??0?$ValueVectorOf@I@xercesc_2_2@@QAE@ABV01@@Z 120aed50 f i TraverseSchema.obj
 0001:000adda0       ??4?$ValueVectorOf@I@xercesc_2_2@@QAEAAV01@ABV01@@Z 120aeda0 f i TraverseSchema.obj
 0001:000ade00       ?containsElement@?$ValueVectorOf@I@xercesc_2_2@@QAE_NABII@Z 120aee00 f i TraverseSchema.obj
 0001:000ade00       ?containsElement@?$ValueVectorOf@H@xercesc_2_2@@QAE_NABHI@Z 120aee00 f i TraverseSchema.obj
 0001:000ade30       ?containsElement@?$BaseRefVectorOf@VSchemaInfo@xercesc_2_2@@@xercesc_2_2@@QAE_NQBVSchemaInfo@2@@Z 120aee30 f i TraverseSchema.obj
 0001:000ade30       ?containsElement@?$BaseRefVectorOf@VSchemaElementDecl@xercesc_2_2@@@xercesc_2_2@@QAE_NQBVSchemaElementDecl@2@@Z 120aee30 f i TraverseSchema.obj
 0001:000ade60       ??0?$RefVectorOf@VSchemaElementDecl@xercesc_2_2@@@xercesc_2_2@@QAE@I_N@Z 120aee60 f i TraverseSchema.obj
 0001:000adec0       ?isEmpty@?$RefHash2KeysTableOf@VSchemaAttDef@xercesc_2_2@@@xercesc_2_2@@QBE_NXZ 120aeec0 f i TraverseSchema.obj
 0001:000adee0       ??0?$RefVectorOf@VSchemaInfo@xercesc_2_2@@@xercesc_2_2@@QAE@I_N@Z 120aeee0 f i TraverseSchema.obj
 0001:000adf40       ?get@?$ValueHashTableOf@G@xercesc_2_2@@QAEAAGQBX@Z 120aef40 f i TraverseSchema.obj
 0001:000adfe0       ??0?$RefVectorOf@VSchemaAttDef@xercesc_2_2@@@xercesc_2_2@@QAE@I_N@Z 120aefe0 f i TraverseSchema.obj
 0001:000ae040       ?put@?$RefHashTableOf@V?$ValueVectorOf@PAVSchemaElementDecl@xercesc_2_2@@@xercesc_2_2@@@xercesc_2_2@@QAEXPAXQAV?$ValueVectorOf@PAVSchemaElementDecl@xercesc_2_2@@@2@@Z 120af040 f i TraverseSchema.obj
 0001:000ae150       ??0?$RefHashTableOf@V?$ValueVectorOf@I@xercesc_2_2@@@xercesc_2_2@@QAE@I@Z 120af150 f i TraverseSchema.obj
 0001:000ae230       ?get@?$RefHashTableOf@VComplexTypeInfo@xercesc_2_2@@@xercesc_2_2@@QAEPAVComplexTypeInfo@2@QBX@Z 120af230 f i TraverseSchema.obj
 0001:000ae230       ?get@?$RefHashTableOf@V?$ValueVectorOf@I@xercesc_2_2@@@xercesc_2_2@@QAEPAV?$ValueVectorOf@I@2@QBX@Z 120af230 f i TraverseSchema.obj
 0001:000ae230       ?get@?$RefHashTableOf@VGrammar@xercesc_2_2@@@xercesc_2_2@@QAEPAVGrammar@2@QBX@Z 120af230 f i TraverseSchema.obj
 0001:000ae230       ?get@?$RefHashTableOf@VXercesAttGroupInfo@xercesc_2_2@@@xercesc_2_2@@QAEPAVXercesAttGroupInfo@2@QBX@Z 120af230 f i TraverseSchema.obj
 0001:000ae230       ?get@?$RefHashTableOf@VDatatypeValidator@xercesc_2_2@@@xercesc_2_2@@QAEPAVDatatypeValidator@2@QBX@Z 120af230 f i TraverseSchema.obj
 0001:000ae2c0       ?put@?$RefHashTableOf@V?$ValueVectorOf@I@xercesc_2_2@@@xercesc_2_2@@QAEXPAXQAV?$ValueVectorOf@I@2@@Z 120af2c0 f i TraverseSchema.obj
 0001:000ae3d0       ?addElement@?$ValueVectorOf@PBG@xercesc_2_2@@QAEXABQBG@Z 120af3d0 f i TraverseSchema.obj
 0001:000ae3d0       ?addElement@?$ValueVectorOf@I@xercesc_2_2@@QAEXABI@Z 120af3d0 f i TraverseSchema.obj
 0001:000ae3d0       ?addElement@?$ValueVectorOf@PAVIC_Field@xercesc_2_2@@@xercesc_2_2@@QAEXABQAVIC_Field@2@@Z 120af3d0 f i TraverseSchema.obj
 0001:000ae3d0       ?addElement@?$ValueVectorOf@PAVSchemaElementDecl@xercesc_2_2@@@xercesc_2_2@@QAEXABQAVSchemaElementDecl@2@@Z 120af3d0 f i TraverseSchema.obj
 0001:000ae3d0       ?addElement@?$ValueVectorOf@PAVDOMElement@xercesc_2_2@@@xercesc_2_2@@QAEXABQAVDOMElement@2@@Z 120af3d0 f i TraverseSchema.obj
 0001:000ae3d0       ?addElement@?$ValueVectorOf@PAVContentSpecNode@xercesc_2_2@@@xercesc_2_2@@QAEXABQAVContentSpecNode@2@@Z 120af3d0 f i TraverseSchema.obj
 0001:000ae3d0       ?addElement@?$ValueVectorOf@H@xercesc_2_2@@QAEXABH@Z 120af3d0 f i TraverseSchema.obj
 0001:000ae3d0       ?addElement@?$ValueVectorOf@PAVDatatypeValidator@xercesc_2_2@@@xercesc_2_2@@QAEXABQAVDatatypeValidator@2@@Z 120af3d0 f i TraverseSchema.obj
 0001:000ae470       ??0?$RefHashTableOf@V?$ValueVectorOf@PAVDOMElement@xercesc_2_2@@@xercesc_2_2@@@xercesc_2_2@@QAE@I_NPAVHashBase@1@@Z 120af470 f i TraverseSchema.obj
 0001:000ae4f0       ?put@?$RefHashTableOf@V?$ValueVectorOf@PAVDOMElement@xercesc_2_2@@@xercesc_2_2@@@xercesc_2_2@@QAEXPAXQAV?$ValueVectorOf@PAVDOMElement@xercesc_2_2@@@2@@Z 120af4f0 f i TraverseSchema.obj
 0001:000ae600       ?put@?$RefHashTableOf@VXMLAttDef@xercesc_2_2@@@xercesc_2_2@@QAEXPAXQAVXMLAttDef@2@@Z 120af600 f i TraverseSchema.obj
 0001:000ae700       ??1?$RefHashTableOf@VSchemaInfo@xercesc_2_2@@@xercesc_2_2@@QAE@XZ 120af700 f i TraverseSchema.obj
 0001:000ae790       ?put@?$RefHashTableOf@VSchemaInfo@xercesc_2_2@@@xercesc_2_2@@QAEXPAXQAVSchemaInfo@2@@Z 120af790 f i TraverseSchema.obj
 0001:000ae8a0       ?get@?$RefHash2KeysTableOf@VSchemaAttDef@xercesc_2_2@@@xercesc_2_2@@QAEPAVSchemaAttDef@2@QBXH@Z 120af8a0 f i TraverseSchema.obj
 0001:000ae8a0       ?get@?$RefHash2KeysTableOf@G@xercesc_2_2@@QAEPAGQBXH@Z 120af8a0 f i TraverseSchema.obj
 0001:000ae940       ?put@?$RefHash2KeysTableOf@G@xercesc_2_2@@QAEXPAXHQAG@Z 120af940 f i TraverseSchema.obj
 0001:000aea60       ?put@?$RefHash2KeysTableOf@VIdentityConstraint@xercesc_2_2@@@xercesc_2_2@@QAEXPAXHQAVIdentityConstraint@2@@Z 120afa60 f i TraverseSchema.obj
 0001:000aeb80       ??1?$Janitor@VQName@xercesc_2_2@@@xercesc_2_2@@QAE@XZ 120afb80 f i TraverseSchema.obj
 0001:000aebb0       ??_E?$RefVectorOf@VDatatypeValidator@xercesc_2_2@@@xercesc_2_2@@UAEPAXI@Z 120afbb0 f i TraverseSchema.obj
 0001:000aebb0       ??_G?$RefVectorOf@VDatatypeValidator@xercesc_2_2@@@xercesc_2_2@@UAEPAXI@Z 120afbb0 f i TraverseSchema.obj
 0001:000aebd0       ??1?$RefVectorOf@VDatatypeValidator@xercesc_2_2@@@xercesc_2_2@@UAE@XZ 120afbd0 f i TraverseSchema.obj
 0001:000aec50       ??1?$BaseRefVectorOf@VDatatypeValidator@xercesc_2_2@@@xercesc_2_2@@UAE@XZ 120afc50 f i TraverseSchema.obj
 0001:000aec60       ??_GSchemaInfo@xercesc_2_2@@QAEPAXI@Z 120afc60 f i TraverseSchema.obj
 0001:000aec80       ??_G?$ValueVectorOf@PAVSchemaElementDecl@xercesc_2_2@@@xercesc_2_2@@QAEPAXI@Z 120afc80 f i TraverseSchema.obj
 0001:000aecb0       ??_GXercesAttGroupInfo@xercesc_2_2@@QAEPAXI@Z 120afcb0 f i TraverseSchema.obj
 0001:000aecd0       ??0?$RefHash2KeysTableBucketElem@V?$ValueVectorOf@PAVSchemaElementDecl@xercesc_2_2@@@xercesc_2_2@@@xercesc_2_2@@QAE@PAXHQAV?$ValueVectorOf@PAVSchemaElementDecl@xercesc_2_2@@@1@PAU01@@Z 120afcd0 f i TraverseSchema.obj
 0001:000aecd0       ??0?$RefHash2KeysTableBucketElem@VSchemaInfo@xercesc_2_2@@@xercesc_2_2@@QAE@PAXHQAVSchemaInfo@1@PAU01@@Z 120afcd0 f i TraverseSchema.obj
 0001:000aecd0       ??0?$RefHash2KeysTableBucketElem@VIdentityConstraint@xercesc_2_2@@@xercesc_2_2@@QAE@PAXHQAVIdentityConstraint@1@PAU01@@Z 120afcd0 f i TraverseSchema.obj
 0001:000aecf0       ??0?$BaseRefVectorOf@VDatatypeValidator@xercesc_2_2@@@xercesc_2_2@@QAE@I_N@Z 120afcf0 f i TraverseSchema.obj
 0001:000aed50       ??0?$BaseRefVectorOf@VIC_Field@xercesc_2_2@@@xercesc_2_2@@QAE@I_N@Z 120afd50 f i TraverseSchema.obj
 0001:000aedb0       ??0?$BaseRefVectorOf@VSchemaAttDef@xercesc_2_2@@@xercesc_2_2@@QAE@I_N@Z 120afdb0 f i TraverseSchema.obj
 0001:000aee10       ?removeAll@?$RefHashTableOf@V?$ValueVectorOf@I@xercesc_2_2@@@xercesc_2_2@@QAEXXZ 120afe10 f i TraverseSchema.obj
 0001:000aee10       ?removeAll@?$RefHashTableOf@V?$ValueVectorOf@PAVSchemaElementDecl@xercesc_2_2@@@xercesc_2_2@@@xercesc_2_2@@QAEXXZ 120afe10 f i TraverseSchema.obj
 0001:000aee80       ?findBucketElem@?$RefHashTableOf@VDatatypeValidator@xercesc_2_2@@@xercesc_2_2@@ABEPBU?$RefHashTableBucketElem@VDatatypeValidator@xercesc_2_2@@@2@QBXAAI@Z 120afe80 f i TraverseSchema.obj
 0001:000aee80       ?findBucketElem@?$RefHashTableOf@VSchemaInfo@xercesc_2_2@@@xercesc_2_2@@ABEPBU?$RefHashTableBucketElem@VSchemaInfo@xercesc_2_2@@@2@QBXAAI@Z 120afe80 f i TraverseSchema.obj
 0001:000aee80       ?findBucketElem@?$RefHashTableOf@VRangeTokenElemMap@xercesc_2_2@@@xercesc_2_2@@ABEPBU?$RefHashTableBucketElem@VRangeTokenElemMap@xercesc_2_2@@@2@QBXAAI@Z 120afe80 f i TraverseSchema.obj
 0001:000aee80       ?findBucketElem@?$RefHashTableOf@VXMLAttDef@xercesc_2_2@@@xercesc_2_2@@ABEPBU?$RefHashTableBucketElem@VXMLAttDef@xercesc_2_2@@@2@QBXAAI@Z 120afe80 f i TraverseSchema.obj
 0001:000aee80       ?findBucketElem@?$RefHashTableOf@VXercesGroupInfo@xercesc_2_2@@@xercesc_2_2@@ABEPBU?$RefHashTableBucketElem@VXercesGroupInfo@xercesc_2_2@@@2@QBXAAI@Z 120afe80 f i TraverseSchema.obj
 0001:000aee80       ?findBucketElem@?$RefHashTableOf@VGrammar@xercesc_2_2@@@xercesc_2_2@@ABEPBU?$RefHashTableBucketElem@VGrammar@xercesc_2_2@@@2@QBXAAI@Z 120afe80 f i TraverseSchema.obj
 0001:000aee80       ?findBucketElem@?$RefHashTableOf@VComplexTypeInfo@xercesc_2_2@@@xercesc_2_2@@ABEPBU?$RefHashTableBucketElem@VComplexTypeInfo@xercesc_2_2@@@2@QBXAAI@Z 120afe80 f i TraverseSchema.obj
 0001:000aee80       ?findBucketElem@?$RefHashTableOf@V?$ValueVectorOf@PAVSchemaElementDecl@xercesc_2_2@@@xercesc_2_2@@@xercesc_2_2@@ABEPBU?$RefHashTableBucketElem@V?$ValueVectorOf@PAVSchemaElementDecl@xercesc_2_2@@@xercesc_2_2@@@2@QBXAAI@Z 120afe80 f i TraverseSchema.obj
 0001:000aee80       ?findBucketElem@?$RefHashTableOf@VXercesAttGroupInfo@xercesc_2_2@@@xercesc_2_2@@ABEPBU?$RefHashTableBucketElem@VXercesAttGroupInfo@xercesc_2_2@@@2@QBXAAI@Z 120afe80 f i TraverseSchema.obj
 0001:000aee80       ?findBucketElem@?$RefHashTableOf@VKVStringPair@xercesc_2_2@@@xercesc_2_2@@ABEPBU?$RefHashTableBucketElem@VKVStringPair@xercesc_2_2@@@2@QBXAAI@Z 120afe80 f i TraverseSchema.obj
 0001:000aef00       ?removeAll@?$RefHash2KeysTableOf@VSchemaInfo@xercesc_2_2@@@xercesc_2_2@@QAEXXZ 120aff00 f i TraverseSchema.obj
 0001:000aef70       ?reset@?$Janitor@VIC_Key@xercesc_2_2@@@xercesc_2_2@@QAEXPAVIC_Key@2@@Z 120aff70 f i TraverseSchema.obj
 0001:000aef70       ?reset@?$Janitor@VIC_Unique@xercesc_2_2@@@xercesc_2_2@@QAEXPAVIC_Unique@2@@Z 120aff70 f i TraverseSchema.obj
 0001:000aef70       ?reset@?$Janitor@V?$RefVectorOf@VDatatypeValidator@xercesc_2_2@@@xercesc_2_2@@@xercesc_2_2@@QAEXPAV?$RefVectorOf@VDatatypeValidator@xercesc_2_2@@@2@@Z 120aff70 f i TraverseSchema.obj
 0001:000aef70       ?reset@?$Janitor@VInputSource@xercesc_2_2@@@xercesc_2_2@@QAEXPAVInputSource@2@@Z 120aff70 f i TraverseSchema.obj
 0001:000aef70       ?reset@?$Janitor@VIC_KeyRef@xercesc_2_2@@@xercesc_2_2@@QAEXPAVIC_KeyRef@2@@Z 120aff70 f i TraverseSchema.obj
 0001:000aefa0       ?removeAll@?$RefHash2KeysTableOf@G@xercesc_2_2@@QAEXXZ 120affa0 f i TraverseSchema.obj
 0001:000af000       ?findBucketElem@?$RefHash2KeysTableOf@VIdentityConstraint@xercesc_2_2@@@xercesc_2_2@@ABEPBU?$RefHash2KeysTableBucketElem@VIdentityConstraint@xercesc_2_2@@@2@QBXHAAI@Z 120b0000 f i TraverseSchema.obj
 0001:000af000       ?findBucketElem@?$RefHash2KeysTableOf@G@xercesc_2_2@@ABEPBU?$RefHash2KeysTableBucketElem@G@2@QBXHAAI@Z 120b0000 f i TraverseSchema.obj
 0001:000af090       ?removeAll@?$RefHash2KeysTableOf@VSchemaAttDef@xercesc_2_2@@@xercesc_2_2@@QAEXXZ 120b0090 f i TraverseSchema.obj
 0001:000af090       ?removeAll@?$RefHash2KeysTableOf@VIdentityConstraint@xercesc_2_2@@@xercesc_2_2@@QAEXXZ 120b0090 f i TraverseSchema.obj
 0001:000af090       ?removeAll@?$RefHashTableOf@VGrammar@xercesc_2_2@@@xercesc_2_2@@QAEXXZ 120b0090 f i TraverseSchema.obj
 0001:000af090       ?removeAll@?$RefHashTableOf@VXMLAttDef@xercesc_2_2@@@xercesc_2_2@@QAEXXZ 120b0090 f i TraverseSchema.obj
 0001:000af090       ?removeAll@?$RefHashTableOf@VDatatypeValidator@xercesc_2_2@@@xercesc_2_2@@QAEXXZ 120b0090 f i TraverseSchema.obj
 0001:000af0f0       ??0XercesAttGroupInfo@xercesc_2_2@@QAE@XZ 120b00f0 f   XercesAttGroupInfo.obj
 0001:000af100       ??1XercesAttGroupInfo@xercesc_2_2@@QAE@XZ 120b0100 f   XercesAttGroupInfo.obj
 0001:000af130       ?containsAttribute@XercesAttGroupInfo@xercesc_2_2@@QAE_NQBGI@Z 120b0130 f   XercesAttGroupInfo.obj
 0001:000af200       ?getAttDef@XercesAttGroupInfo@xercesc_2_2@@QBEPBVSchemaAttDef@2@QBGH@Z 120b0200 f   XercesAttGroupInfo.obj
 0001:000af2c0       ?conflict@XercesElementWildcard@xercesc_2_2@@SA_NQAVSchemaGrammar@2@W4NodeTypes@ContentSpecNode@2@PAVQName@2@12PAVSubstitutionGroupComparator@2@@Z 120b02c0 f   XercesElementWildcard.obj
 0001:000af410       ?uriInWildcard@XercesElementWildcard@xercesc_2_2@@CA_NQAVSchemaGrammar@2@PAVQName@2@IW4NodeTypes@ContentSpecNode@2@PAVSubstitutionGroupComparator@2@@Z 120b0410 f   XercesElementWildcard.obj
 0001:000af450       ?wildcardIntersect@XercesElementWildcard@xercesc_2_2@@CA_NW4NodeTypes@ContentSpecNode@2@I0I@Z 120b0450 f   XercesElementWildcard.obj
 0001:000af4b0       ??0XercesGroupInfo@xercesc_2_2@@QAE@XZ 120b04b0 f   XercesGroupInfo.obj
 0001:000af570       ??1XercesGroupInfo@xercesc_2_2@@QAE@XZ 120b0570 f   XercesGroupInfo.obj
 0001:000af5f0       ?setLocator@XercesGroupInfo@xercesc_2_2@@QAEXQAVXSDLocator@2@@Z 120b05f0 f   XercesGroupInfo.obj
 0001:000af620       ??0XSDDOMParser@xercesc_2_2@@QAE@QAVXMLValidator@1@@Z 120b0620 f   XSDDOMParser.obj
 0001:000af660       ??_EXSDDOMParser@xercesc_2_2@@UAEPAXI@Z 120b0660 f i XSDDOMParser.obj
 0001:000af6c0       ??1XSDDOMParser@xercesc_2_2@@UAE@XZ 120b06c0 f   XSDDOMParser.obj
 0001:000af6e0       ?createElementNSNode@XSDDOMParser@xercesc_2_2@@MAEPAVDOMElement@2@PBG0@Z 120b06e0 f   XSDDOMParser.obj
 0001:000af720       ?setUserErrorReporter@XSDDOMParser@xercesc_2_2@@QAEXQAVXMLErrorReporter@2@@Z 120b0720 f   XSDDOMParser.obj
 0001:000af750       ?setUserEntityHandler@XSDDOMParser@xercesc_2_2@@QAEXQAVXMLEntityHandler@2@@Z 120b0750 f   XSDDOMParser.obj
 0001:000af780       ?error@XSDDOMParser@xercesc_2_2@@UAEXIQBGW4ErrTypes@XMLErrorReporter@2@000JJ@Z 120b0780 f   XSDDOMParser.obj
 0001:000af7d0       ?resolveEntity@XSDDOMParser@xercesc_2_2@@UAEPAVInputSource@2@QBG00@Z 120b07d0 f   XSDDOMParser.obj
 0001:000af800       ??_EXSDDOMParser@xercesc_2_2@@W3AEPAXI@Z 120b0800 f i XSDDOMParser.obj
 0001:000af810       ??_EXSDDOMParser@xercesc_2_2@@W7AEPAXI@Z 120b0810 f i XSDDOMParser.obj
 0001:000af820       ??_EXSDDOMParser@xercesc_2_2@@WM@AEPAXI@Z 120b0820 f i XSDDOMParser.obj
 0001:000af830       ??0XSDErrorReporter@xercesc_2_2@@QAE@QAVXMLErrorReporter@1@@Z 120b0830 f   XSDErrorReporter.obj
 0001:000af850       ?emitError@XSDErrorReporter@xercesc_2_2@@QAEXIQBGQBVLocator@2@@Z 120b0850 f   XSDErrorReporter.obj
 0001:000afbd0       ?emitError@XSDErrorReporter@xercesc_2_2@@QAEXIQBGQBVLocator@2@0000@Z 120b0bd0 f   XSDErrorReporter.obj
 0001:000aff10       ??0XSDLocator@xercesc_2_2@@QAE@XZ 120b0f10 f   XSDLocator.obj
 0001:000aff30       ?setValues@XSDLocator@xercesc_2_2@@QAEXQBG0JJ@Z 120b0f30 f   XSDLocator.obj
 0001:000aff50       ?getFirstChildElement@XUtil@xercesc_2_2@@SAPAVDOMElement@2@QBVDOMNode@2@@Z 120b0f50 f   XUtil.obj
 0001:000aff90       ?getFirstChildElementNS@XUtil@xercesc_2_2@@SAPAVDOMElement@2@QBVDOMNode@2@QAPBGQBGI@Z 120b0f90 f   XUtil.obj
 0001:000b00a0       ?getNextSiblingElement@XUtil@xercesc_2_2@@SAPAVDOMElement@2@QBVDOMNode@2@@Z 120b10a0 f   XUtil.obj
 0001:000b00e0       ?getNextSiblingElementNS@XUtil@xercesc_2_2@@SAPAVDOMElement@2@QBVDOMNode@2@QAPBGQBGI@Z 120b10e0 f   XUtil.obj
 0001:000b01f0       ?createXMLReader@XMLReaderFactory@xercesc_2_2@@SAPAVSAX2XMLReader@2@XZ 120b11f0 f i sax2Dummy.obj
 0001:000b0250       ?createXMLReader@XMLReaderFactory@xercesc_2_2@@SAPAVSAX2XMLReader@2@PBG@Z 120b1250 f i sax2Dummy.obj
 0001:000b0270       ??0DefaultHandler@xercesc_2_2@@QAE@XZ 120b1270 f i sax2Dummy.obj
 0001:000b02c0       ??1DefaultHandler@xercesc_2_2@@UAE@XZ 120b12c0 f i sax2Dummy.obj
 0001:000b0330       ??_EDefaultHandler@xercesc_2_2@@UAEPAXI@Z 120b1330 f i sax2Dummy.obj
 0001:000b0390       ?fatalError@HandlerBase@xercesc_2_2@@UAEXABVSAXParseException@2@@Z 120b1390 f i sax2Dummy.obj
 0001:000b0390       ?fatalError@DefaultHandler@xercesc_2_2@@UAEXABVSAXParseException@2@@Z 120b1390 f i sax2Dummy.obj
 0001:000b03b0       ?resolveEntity@DefaultHandler@xercesc_2_2@@UAEPAVInputSource@2@QBG0@Z 120b13b0 f i sax2Dummy.obj
 0001:000b03b0       ?resolveEntity@HandlerBase@xercesc_2_2@@UAEPAVInputSource@2@QBG0@Z 120b13b0 f i sax2Dummy.obj
 0001:000b03c0       ?startElement@DefaultHandler@xercesc_2_2@@UAEXQBG00ABVAttributes@2@@Z 120b13c0 f i sax2Dummy.obj
 0001:000b03c0       ?unparsedEntityDecl@DefaultHandler@xercesc_2_2@@UAEXQBG000@Z 120b13c0 f i sax2Dummy.obj
 0001:000b03c0       ?unparsedEntityDecl@HandlerBase@xercesc_2_2@@UAEXQBG000@Z 120b13c0 f i sax2Dummy.obj
 0001:000b03d0       ?attributeDecl@DefaultHandler@xercesc_2_2@@UAEXQBG0000@Z 120b13d0 f i sax2Dummy.obj
 0001:000b03e0       ?notationDecl@HandlerBase@xercesc_2_2@@UAEXQBG00@Z 120b13e0 f i sax2Dummy.obj
 0001:000b03e0       ?externalEntityDecl@DefaultHandler@xercesc_2_2@@UAEXQBG00@Z 120b13e0 f i sax2Dummy.obj
 0001:000b03e0       ?startDTD@DefaultHandler@xercesc_2_2@@UAEXQBG00@Z 120b13e0 f i sax2Dummy.obj
 0001:000b03e0       ?notationDecl@DefaultHandler@xercesc_2_2@@UAEXQBG00@Z 120b13e0 f i sax2Dummy.obj
 0001:000b03e0       ?endElement@DefaultHandler@xercesc_2_2@@UAEXQBG00@Z 120b13e0 f i sax2Dummy.obj
 0001:000b03f0       ?processingInstruction@HandlerBase@xercesc_2_2@@UAEXQBG0@Z 120b13f0 f i sax2Dummy.obj
 0001:000b03f0       ?internalEntityDecl@DefaultHandler@xercesc_2_2@@UAEXQBG0@Z 120b13f0 f i sax2Dummy.obj
 0001:000b03f0       ?processingInstruction@DefaultHandler@xercesc_2_2@@UAEXQBG0@Z 120b13f0 f i sax2Dummy.obj
 0001:000b03f0       ?ignorableWhitespace@HandlerBase@xercesc_2_2@@UAEXQBGI@Z 120b13f0 f i sax2Dummy.obj
 0001:000b03f0       ?ignorableWhitespace@DefaultHandler@xercesc_2_2@@UAEXQBGI@Z 120b13f0 f i sax2Dummy.obj
 0001:000b03f0       ?characters@DefaultHandler@xercesc_2_2@@UAEXQBGI@Z 120b13f0 f i sax2Dummy.obj
 0001:000b03f0       ?characters@HandlerBase@xercesc_2_2@@UAEXQBGI@Z 120b13f0 f i sax2Dummy.obj
 0001:000b03f0       ?startPrefixMapping@DefaultHandler@xercesc_2_2@@UAEXQBG0@Z 120b13f0 f i sax2Dummy.obj
 0001:000b03f0       ?startElement@HandlerBase@xercesc_2_2@@UAEXQBGAAVAttributeList@2@@Z 120b13f0 f i sax2Dummy.obj
 0001:000b03f0       ?comment@DefaultHandler@xercesc_2_2@@UAEXQBGI@Z 120b13f0 f i sax2Dummy.obj
 0001:000b03f0       ?elementDecl@DefaultHandler@xercesc_2_2@@UAEXQBG0@Z 120b13f0 f i sax2Dummy.obj
 0001:000b0400       ??_EDefaultHandler@xercesc_2_2@@W3AEPAXI@Z 120b1400 f i sax2Dummy.obj
 0001:000b0410       ??_EDefaultHandler@xercesc_2_2@@W7AEPAXI@Z 120b1410 f i sax2Dummy.obj
 0001:000b0420       ??_EDefaultHandler@xercesc_2_2@@WM@AEPAXI@Z 120b1420 f i sax2Dummy.obj
 0001:000b0430       ??_EDefaultHandler@xercesc_2_2@@WBA@AEPAXI@Z 120b1430 f i sax2Dummy.obj
 0001:000b0440       ??_EDefaultHandler@xercesc_2_2@@WBE@AEPAXI@Z 120b1440 f i sax2Dummy.obj
 0001:000b0450       ??0DOMTypeInfoImpl@xercesc_2_2@@QAE@ABV01@@Z 120b1450 f i DOMAttrImpl.obj
 0001:000b0480       ??_EDOMTypeInfoImpl@xercesc_2_2@@UAEPAXI@Z 120b1480 f i DOMAttrImpl.obj
 0001:000b04e0       ??0DOMAttrImpl@xercesc_2_2@@QAE@PAVDOMDocument@1@PBG@Z 120b14e0 f   DOMAttrImpl.obj
 0001:000b0580       ??_EDOMAttrImpl@xercesc_2_2@@UAEPAXI@Z 120b1580 f i DOMAttrImpl.obj
 0001:000b05e0       ??0DOMAttrImpl@xercesc_2_2@@QAE@ABV01@_N@Z 120b15e0 f   DOMAttrImpl.obj
 0001:000b06a0       ??1DOMAttrImpl@xercesc_2_2@@UAE@XZ 120b16a0 f   DOMAttrImpl.obj
 0001:000b0700       ?cloneNode@DOMAttrImpl@xercesc_2_2@@UBEPAVDOMNode@2@_N@Z 120b1700 f   DOMAttrImpl.obj
 0001:000b0780       ?getNodeType@DOMAttrImpl@xercesc_2_2@@UBEFXZ 120b1780 f   DOMAttrImpl.obj
 0001:000b0780       ?getNodeType@AttrImpl@xercesc_2_2@@UAEFXZ 120b1780 f   DOMAttrImpl.obj
 0001:000b0790       ?getNodeName@DOMProcessingInstructionImpl@xercesc_2_2@@UBEPBGXZ 120b1790 f   DOMAttrImpl.obj
 0001:000b0790       ?getNodeName@DOMEntityImpl@xercesc_2_2@@UBEPBGXZ 120b1790 f   DOMAttrImpl.obj
 0001:000b0790       ?getNodeName@DOMAttrImpl@xercesc_2_2@@UBEPBGXZ 120b1790 f   DOMAttrImpl.obj
 0001:000b0790       ?getTarget@DOMProcessingInstructionImpl@xercesc_2_2@@UBEPBGXZ 120b1790 f   DOMAttrImpl.obj
 0001:000b0790       ?getFirstChild@ParentNode@xercesc_2_2@@UAEPAVNodeImpl@2@XZ 120b1790 f   DOMAttrImpl.obj
 0001:000b0790       ?getName@DOMAttrImpl@xercesc_2_2@@UBEPBGXZ 120b1790 f   DOMAttrImpl.obj
 0001:000b0790       ?getRawData@XMLAbstractDoubleFloat@xercesc_2_2@@UBEPAGXZ 120b1790 f   DOMAttrImpl.obj
 0001:000b07a0       ?getNodeValue@DOMAttrImpl@xercesc_2_2@@UBEPBGXZ 120b17a0 f   DOMAttrImpl.obj
 0001:000b07b0       ?getSpecified@DOMAttrImpl@xercesc_2_2@@UBE_NXZ 120b17b0 f   DOMAttrImpl.obj
 0001:000b07d0       ?getValue@DOMAttrImpl@xercesc_2_2@@UBEPBGXZ 120b17d0 f   DOMAttrImpl.obj
 0001:000b0930       ?getTextValue@DOMAttrImpl@xercesc_2_2@@ABEXPAVDOMNode@2@AAVXMLBuffer@2@@Z 120b1930 f   DOMAttrImpl.obj
 0001:000b09b0       ?setNodeValue@DOMAttrImpl@xercesc_2_2@@UAEXPBG@Z 120b19b0 f   DOMAttrImpl.obj
 0001:000b09c0       ?setSpecified@DOMAttrImpl@xercesc_2_2@@UAEX_N@Z 120b19c0 f   DOMAttrImpl.obj
 0001:000b0a00       ?setValue@DOMAttrImpl@xercesc_2_2@@UAEXPBG@Z 120b1a00 f   DOMAttrImpl.obj
 0001:000b0ac0       ?getOwnerElement@DOMAttrImpl@xercesc_2_2@@UBEPAVDOMElement@2@XZ 120b1ac0 f   DOMAttrImpl.obj
 0001:000b0ae0       ?setOwnerElement@DOMAttrImpl@xercesc_2_2@@QAEXPAVDOMElement@2@@Z 120b1ae0 f   DOMAttrImpl.obj
 0001:000b0b00       ?release@DOMAttrImpl@xercesc_2_2@@UAEXXZ 120b1b00 f   DOMAttrImpl.obj
 0001:000b0b90       ?isId@DOMAttrImpl@xercesc_2_2@@UBE_NXZ 120b1b90 f   DOMAttrImpl.obj
 0001:000b0bb0       ?rename@DOMAttrImpl@xercesc_2_2@@UAEPAVDOMNode@2@PBG0@Z 120b1bb0 f   DOMAttrImpl.obj
 0001:000b0c80       ?getTypeInfo@DOMAttrImpl@xercesc_2_2@@UBEPBVDOMTypeInfo@2@XZ 120b1c80 f   DOMAttrImpl.obj
 0001:000b0d20       ?setTypeInfo@DOMAttrImpl@xercesc_2_2@@UAEXPBG0@Z 120b1d20 f   DOMAttrImpl.obj
 0001:000b0d90       ?appendChild@DOMElementImpl@xercesc_2_2@@UAEPAVDOMNode@2@PAV32@@Z 120b1d90 f   DOMAttrImpl.obj
 0001:000b0d90       ?appendChild@DOMAttrImpl@xercesc_2_2@@UAEPAVDOMNode@2@PAV32@@Z 120b1d90 f   DOMAttrImpl.obj
 0001:000b0d90       ?appendChild@DOMDocumentFragmentImpl@xercesc_2_2@@UAEPAVDOMNode@2@PAV32@@Z 120b1d90 f   DOMAttrImpl.obj
 0001:000b0d90       ?appendChild@DOMDocumentTypeImpl@xercesc_2_2@@UAEPAVDOMNode@2@PAV32@@Z 120b1d90 f   DOMAttrImpl.obj
 0001:000b0d90       ?appendChild@DOMCDATASectionImpl@xercesc_2_2@@UAEPAVDOMNode@2@PAV32@@Z 120b1d90 f   DOMAttrImpl.obj
 0001:000b0d90       ?appendChild@DOMEntityReferenceImpl@xercesc_2_2@@UAEPAVDOMNode@2@PAV32@@Z 120b1d90 f   DOMAttrImpl.obj
 0001:000b0da0       ?insertBefore@DOMEntityReferenceImpl@xercesc_2_2@@UAEPAVDOMNode@2@PAV32@0@Z 120b1da0 f   DOMAttrImpl.obj
 0001:000b0da0       ?insertBefore@DOMAttrImpl@xercesc_2_2@@UAEPAVDOMNode@2@PAV32@0@Z 120b1da0 f   DOMAttrImpl.obj
 0001:000b0da0       ?insertBefore@DOMDocumentFragmentImpl@xercesc_2_2@@UAEPAVDOMNode@2@PAV32@0@Z 120b1da0 f   DOMAttrImpl.obj
 0001:000b0da0       ?insertBefore@DOMDocumentTypeImpl@xercesc_2_2@@UAEPAVDOMNode@2@PAV32@0@Z 120b1da0 f   DOMAttrImpl.obj
 0001:000b0da0       ?insertBefore@DOMCDATASectionImpl@xercesc_2_2@@UAEPAVDOMNode@2@PAV32@0@Z 120b1da0 f   DOMAttrImpl.obj
 0001:000b0da0       ?insertBefore@DOMElementImpl@xercesc_2_2@@UAEPAVDOMNode@2@PAV32@0@Z 120b1da0 f   DOMAttrImpl.obj
 0001:000b0dc0       ??0DOMAttrMapImpl@xercesc_2_2@@QAE@PAVDOMNode@1@@Z 120b1dc0 f   DOMAttrMapImpl.obj
 0001:000b0de0       ??0DOMAttrMapImpl@xercesc_2_2@@QAE@PAVDOMNode@1@PBVDOMNamedNodeMapImpl@1@@Z 120b1de0 f   DOMAttrMapImpl.obj
 0001:000b0e50       ??1DOMAttrMapImpl@xercesc_2_2@@UAE@XZ 120b1e50 f   DOMAttrMapImpl.obj
 0001:000b0e60       ?cloneAttrMap@DOMAttrMapImpl@xercesc_2_2@@UAEPAV12@PAVDOMNode@2@@Z 120b1e60 f   DOMAttrMapImpl.obj
 0001:000b0ef0       ?setNamedItem@DOMAttrMapImpl@xercesc_2_2@@UAEPAVDOMNode@2@PAV32@@Z 120b1ef0 f   DOMAttrMapImpl.obj
 0001:000b0f40       ?setNamedItemNS@DOMAttrMapImpl@xercesc_2_2@@UAEPAVDOMNode@2@PAV32@@Z 120b1f40 f   DOMAttrMapImpl.obj
 0001:000b0f90       ?removeNamedItem@DOMAttrMapImpl@xercesc_2_2@@UAEPAVDOMNode@2@PBG@Z 120b1f90 f   DOMAttrMapImpl.obj
 0001:000b0fe0       ?removeNamedItemNS@DOMAttrMapImpl@xercesc_2_2@@UAEPAVDOMNode@2@PBG0@Z 120b1fe0 f   DOMAttrMapImpl.obj
 0001:000b1040       ?removeNamedItemAt@DOMAttrMapImpl@xercesc_2_2@@UAEPAVDOMNode@2@K@Z 120b2040 f   DOMAttrMapImpl.obj
 0001:000b10c0       ?reconcileDefaultAttributes@DOMAttrMapImpl@xercesc_2_2@@QAEXPBV12@@Z 120b20c0 f   DOMAttrMapImpl.obj
 0001:000b1170       ?moveSpecifiedAttributes@DOMAttrMapImpl@xercesc_2_2@@QAEXPAV12@@Z 120b2170 f   DOMAttrMapImpl.obj
 0001:000b11d0       ??1DOMAttrNSImpl@xercesc_2_2@@UAE@XZ 120b21d0 f i DOMAttrNSImpl.obj
 0001:000b11e0       ??_ODOMAttrNSImpl@xercesc_2_2@@QAEXABV01@@Z 120b21e0 f i DOMAttrNSImpl.obj
 0001:000b11f0       ??0DOMAttrNSImpl@xercesc_2_2@@QAE@PAVDOMDocument@1@PBG@Z 120b21f0 f   DOMAttrNSImpl.obj
 0001:000b1220       ??_EDOMAttrNSImpl@xercesc_2_2@@UAEPAXI@Z 120b2220 f i DOMAttrNSImpl.obj
 0001:000b1280       ??0DOMAttrNSImpl@xercesc_2_2@@QAE@PAVDOMDocument@1@PBG1@Z 120b2280 f   DOMAttrNSImpl.obj
 0001:000b12e0       ??0DOMAttrNSImpl@xercesc_2_2@@QAE@ABV01@_N@Z 120b22e0 f   DOMAttrNSImpl.obj
 0001:000b1320       ?cloneNode@DOMAttrNSImpl@xercesc_2_2@@UBEPAVDOMNode@2@_N@Z 120b2320 f   DOMAttrNSImpl.obj
 0001:000b13c0       ?getName@DOMDocumentTypeImpl@xercesc_2_2@@UBEPBGXZ 120b23c0 f   DOMAttrNSImpl.obj
 0001:000b13c0       ?getSystemId@DOMEntityImpl@xercesc_2_2@@UBEPBGXZ 120b23c0 f   DOMAttrNSImpl.obj
 0001:000b13c0       ?getNodeName@DOMDocumentTypeImpl@xercesc_2_2@@UBEPBGXZ 120b23c0 f   DOMAttrNSImpl.obj
 0001:000b13c0       ?getAttributes@DOMElementImpl@xercesc_2_2@@UBEPAVDOMNamedNodeMap@2@XZ 120b23c0 f   DOMAttrNSImpl.obj
 0001:000b13c0       ?getNodeName@DOMEntityReferenceImpl@xercesc_2_2@@UBEPBGXZ 120b23c0 f   DOMAttrNSImpl.obj
 0001:000b13c0       ?getNamespaceURI@DOMAttrNSImpl@xercesc_2_2@@UBEPBGXZ 120b23c0 f   DOMAttrNSImpl.obj
 0001:000b13d0       ?getDoctype@DocumentImpl@xercesc_2_2@@UAEPAVDocumentTypeImpl@2@XZ 120b23d0 f   DOMAttrNSImpl.obj
 0001:000b13d0       ?getPrefix@DOMAttrNSImpl@xercesc_2_2@@UBEPBGXZ 120b23d0 f   DOMAttrNSImpl.obj
 0001:000b13d0       ?getEntityRef@DOMEntityImpl@xercesc_2_2@@UBEPAVDOMEntityReference@2@XZ 120b23d0 f   DOMAttrNSImpl.obj
 0001:000b13d0       ?getEncoding@DOMDocumentImpl@xercesc_2_2@@UBEPBGXZ 120b23d0 f   DOMAttrNSImpl.obj
 0001:000b13d0       ?getNodeName@DOMElementImpl@xercesc_2_2@@UBEPBGXZ 120b23d0 f   DOMAttrNSImpl.obj
 0001:000b13d0       ?getNotations@DOMDocumentTypeImpl@xercesc_2_2@@UBEPAVDOMNamedNodeMap@2@XZ 120b23d0 f   DOMAttrNSImpl.obj
 0001:000b13d0       ?getTagName@DOMElementImpl@xercesc_2_2@@UBEPBGXZ 120b23d0 f   DOMAttrNSImpl.obj
 0001:000b13e0       ?getDefaultAttributes@DOMElementImpl@xercesc_2_2@@UBEPAVDOMAttrMapImpl@2@XZ 120b23e0 f   DOMAttrNSImpl.obj
 0001:000b13e0       ?getBaseURI@DOMEntityReferenceImpl@xercesc_2_2@@UBEPBGXZ 120b23e0 f   DOMAttrNSImpl.obj
 0001:000b13e0       ?getEntities@DOMDocumentTypeImpl@xercesc_2_2@@UBEPAVDOMNamedNodeMap@2@XZ 120b23e0 f   DOMAttrNSImpl.obj
 0001:000b13e0       ?getActualEncoding@DOMDocumentImpl@xercesc_2_2@@UBEPBGXZ 120b23e0 f   DOMAttrNSImpl.obj
 0001:000b13e0       ?getLocalName@DOMAttrNSImpl@xercesc_2_2@@UBEPBGXZ 120b23e0 f   DOMAttrNSImpl.obj
 0001:000b13e0       ?getNotationName@DOMEntityImpl@xercesc_2_2@@UBEPBGXZ 120b23e0 f   DOMAttrNSImpl.obj
 0001:000b13f0       ?setPrefix@DOMAttrNSImpl@xercesc_2_2@@UAEXPBG@Z 120b23f0 f   DOMAttrNSImpl.obj
 0001:000b1720       ?release@DOMAttrNSImpl@xercesc_2_2@@UAEXXZ 120b2720 f   DOMAttrNSImpl.obj
 0001:000b17b0       ?rename@DOMAttrNSImpl@xercesc_2_2@@UAEPAVDOMNode@2@PBG0@Z 120b27b0 f   DOMAttrNSImpl.obj
 0001:000b1800       ?setName@DOMAttrNSImpl@xercesc_2_2@@QAEXPBG0@Z 120b2800 f   DOMAttrNSImpl.obj
 0001:000b1a80       ??_ODOMCDATASectionImpl@xercesc_2_2@@QAEXABV01@@Z 120b2a80 f i DOMCDATASectionImpl.obj
 0001:000b1a90       ??0DOMRange@xercesc_2_2@@IAE@XZ 120b2a90 f i DOMCDATASectionImpl.obj
 0001:000b1aa0       ??0DOMRange@xercesc_2_2@@IAE@ABV01@@Z 120b2aa0 f i DOMCDATASectionImpl.obj
 0001:000b1ab0       ??1DOMRange@xercesc_2_2@@UAE@XZ 120b2ab0 f i DOMCDATASectionImpl.obj
 0001:000b1ac0       ??_EDOMRange@xercesc_2_2@@UAEPAXI@Z 120b2ac0 f i DOMCDATASectionImpl.obj
 0001:000b1b20       ??4DOMRangeImpl@xercesc_2_2@@QAEAAV01@ABV01@@Z 120b2b20 f i DOMCDATASectionImpl.obj
 0001:000b1b60       ??0DOMCDATASectionImpl@xercesc_2_2@@QAE@PAVDOMDocument@1@PBG@Z 120b2b60 f   DOMCDATASectionImpl.obj
 0001:000b1bf0       ??_EDOMCDATASectionImpl@xercesc_2_2@@UAEPAXI@Z 120b2bf0 f i DOMCDATASectionImpl.obj
 0001:000b1c50       ??0DOMCDATASectionImpl@xercesc_2_2@@QAE@ABV01@_N@Z 120b2c50 f   DOMCDATASectionImpl.obj
 0001:000b1cf0       ??1DOMCDATASectionImpl@xercesc_2_2@@UAE@XZ 120b2cf0 f   DOMCDATASectionImpl.obj
 0001:000b1d60       ?cloneNode@DOMCDATASectionImpl@xercesc_2_2@@UBEPAVDOMNode@2@_N@Z 120b2d60 f   DOMCDATASectionImpl.obj
 0001:000b1de0       ?getNodeName@DOMCDATASectionImpl@xercesc_2_2@@UBEPBGXZ 120b2de0 f   DOMCDATASectionImpl.obj
 0001:000b1df0       ?getNodeType@DOMCDATASectionImpl@xercesc_2_2@@UBEFXZ 120b2df0 f   DOMCDATASectionImpl.obj
 0001:000b1df0       ?getNodeType@CDATASectionImpl@xercesc_2_2@@UAEFXZ 120b2df0 f   DOMCDATASectionImpl.obj
 0001:000b1e00       ?isIgnorableWhitespace@DOMCDATASectionImpl@xercesc_2_2@@UBE_NXZ 120b2e00 f   DOMCDATASectionImpl.obj
 0001:000b1e00       ?isIgnorableWhitespace@DOMTextImpl@xercesc_2_2@@UBE_NXZ 120b2e00 f   DOMCDATASectionImpl.obj
 0001:000b1e20       ?splitText@DOMCDATASectionImpl@xercesc_2_2@@UAEPAVDOMText@2@K@Z 120b2e20 f   DOMCDATASectionImpl.obj
 0001:000b1f60       ?getIsWhitespaceInElementContent@DOMTextImpl@xercesc_2_2@@UBE_NXZ 120b2f60 f   DOMCDATASectionImpl.obj
 0001:000b1f60       ?getIsWhitespaceInElementContent@DOMCDATASectionImpl@xercesc_2_2@@UBE_NXZ 120b2f60 f   DOMCDATASectionImpl.obj
 0001:000b1f70       ?release@DOMCDATASectionImpl@xercesc_2_2@@UAEXXZ 120b2f70 f   DOMCDATASectionImpl.obj
 0001:000b2000       ?getNodeValue@DOMCDATASectionImpl@xercesc_2_2@@UBEPBGXZ 120b3000 f   DOMCDATASectionImpl.obj
 0001:000b2000       ?getData@DOMCDATASectionImpl@xercesc_2_2@@UBEPBGXZ 120b3000 f   DOMCDATASectionImpl.obj
 0001:000b2010       ?replaceChild@DOMCDATASectionImpl@xercesc_2_2@@UAEPAVDOMNode@2@PAV32@0@Z 120b3010 f   DOMCDATASectionImpl.obj
 0001:000b2010       ?replaceChild@DOMAttrImpl@xercesc_2_2@@UAEPAVDOMNode@2@PAV32@0@Z 120b3010 f   DOMCDATASectionImpl.obj
 0001:000b2010       ?replaceChild@DOMDocumentFragmentImpl@xercesc_2_2@@UAEPAVDOMNode@2@PAV32@0@Z 120b3010 f   DOMCDATASectionImpl.obj
 0001:000b2010       ?replaceChild@DOMDocumentTypeImpl@xercesc_2_2@@UAEPAVDOMNode@2@PAV32@0@Z 120b3010 f   DOMCDATASectionImpl.obj
 0001:000b2010       ?replaceChild@DOMElementImpl@xercesc_2_2@@UAEPAVDOMNode@2@PAV32@0@Z 120b3010 f   DOMCDATASectionImpl.obj
 0001:000b2010       ?replaceChild@DOMEntityReferenceImpl@xercesc_2_2@@UAEPAVDOMNode@2@PAV32@0@Z 120b3010 f   DOMCDATASectionImpl.obj
 0001:000b2030       ?isSupported@DOMEntityReferenceImpl@xercesc_2_2@@UBE_NPBG0@Z 120b3030 f   DOMCDATASectionImpl.obj
 0001:000b2030       ?isSupported@DOMEntityImpl@xercesc_2_2@@UBE_NPBG0@Z 120b3030 f   DOMCDATASectionImpl.obj
 0001:000b2030       ?isSupported@DOMDocumentFragmentImpl@xercesc_2_2@@UBE_NPBG0@Z 120b3030 f   DOMCDATASectionImpl.obj
 0001:000b2030       ?isSupported@DOMTextImpl@xercesc_2_2@@UBE_NPBG0@Z 120b3030 f   DOMCDATASectionImpl.obj
 0001:000b2030       ?isSupported@DOMElementImpl@xercesc_2_2@@UBE_NPBG0@Z 120b3030 f   DOMCDATASectionImpl.obj
 0001:000b2030       ?isSupported@DOMNotationImpl@xercesc_2_2@@UBE_NPBG0@Z 120b3030 f   DOMCDATASectionImpl.obj
 0001:000b2030       ?isSupported@DOMProcessingInstructionImpl@xercesc_2_2@@UBE_NPBG0@Z 120b3030 f   DOMCDATASectionImpl.obj
 0001:000b2030       ?isSupported@DOMDocumentImpl@xercesc_2_2@@UBE_NPBG0@Z 120b3030 f   DOMCDATASectionImpl.obj
 0001:000b2030       ?isSupported@DOMCDATASectionImpl@xercesc_2_2@@UBE_NPBG0@Z 120b3030 f   DOMCDATASectionImpl.obj
 0001:000b2030       ?isSupported@DOMAttrImpl@xercesc_2_2@@UBE_NPBG0@Z 120b3030 f   DOMCDATASectionImpl.obj
 0001:000b2030       ?isSupported@DOMDocumentTypeImpl@xercesc_2_2@@UBE_NPBG0@Z 120b3030 f   DOMCDATASectionImpl.obj
 0001:000b2030       ?isSupported@DOMCommentImpl@xercesc_2_2@@UBE_NPBG0@Z 120b3030 f   DOMCDATASectionImpl.obj
 0001:000b2050       ?getLength@DOMCDATASectionImpl@xercesc_2_2@@UBEKXZ 120b3050 f   DOMCDATASectionImpl.obj
 0001:000b2060       ?substringData@DOMCDATASectionImpl@xercesc_2_2@@UBEPBGKK@Z 120b3060 f   DOMCDATASectionImpl.obj
 0001:000b2080       ?appendData@DOMCDATASectionImpl@xercesc_2_2@@UAEXPBG@Z 120b3080 f   DOMCDATASectionImpl.obj
 0001:000b20a0       ?insertData@DOMCDATASectionImpl@xercesc_2_2@@UAEXKPBG@Z 120b30a0 f   DOMCDATASectionImpl.obj
 0001:000b20c0       ?deleteData@DOMCDATASectionImpl@xercesc_2_2@@UAEXKK@Z 120b30c0 f   DOMCDATASectionImpl.obj
 0001:000b20e0       ?replaceData@DOMCDATASectionImpl@xercesc_2_2@@UAEXKKPBG@Z 120b30e0 f   DOMCDATASectionImpl.obj
 0001:000b2100       ?setData@DOMCDATASectionImpl@xercesc_2_2@@UAEXPBG@Z 120b3100 f   DOMCDATASectionImpl.obj
 0001:000b2120       ?setNodeValue@DOMCDATASectionImpl@xercesc_2_2@@UAEXPBG@Z 120b3120 f   DOMCDATASectionImpl.obj
 0001:000b2140       ??0DOMCharacterDataImpl@xercesc_2_2@@QAE@PAVDOMDocument@1@PBG@Z 120b3140 f   DOMCharacterDataImpl.obj
 0001:000b21f0       ??0DOMCharacterDataImpl@xercesc_2_2@@QAE@ABV01@@Z 120b31f0 f   DOMCharacterDataImpl.obj
 0001:000b22a0       ?setNodeValue@DOMCharacterDataImpl@xercesc_2_2@@QAEXPBVDOMNode@2@PBG@Z 120b32a0 f   DOMCharacterDataImpl.obj
 0001:000b2360       ?appendData@DOMCharacterDataImpl@xercesc_2_2@@QAEXPBVDOMNode@2@PBG@Z 120b3360 f   DOMCharacterDataImpl.obj
 0001:000b23b0       ?deleteData@DOMCharacterDataImpl@xercesc_2_2@@QAEXPBVDOMNode@2@KK@Z 120b33b0 f   DOMCharacterDataImpl.obj
 0001:000b2550       ?getData@DOMCharacterDataImpl@xercesc_2_2@@QBEPBGXZ 120b3550 f   DOMCharacterDataImpl.obj
 0001:000b2550       ?getNodeValue@DOMCharacterDataImpl@xercesc_2_2@@QBEPBGXZ 120b3550 f   DOMCharacterDataImpl.obj
 0001:000b2560       ?getLength@DOMCharacterDataImpl@xercesc_2_2@@QBEKXZ 120b3560 f   DOMCharacterDataImpl.obj
 0001:000b2570       ?insertData@DOMCharacterDataImpl@xercesc_2_2@@QAEXPBVDOMNode@2@KPBG@Z 120b3570 f   DOMCharacterDataImpl.obj
 0001:000b2740       ?replaceData@DOMCharacterDataImpl@xercesc_2_2@@QAEXPBVDOMNode@2@KKPBG@Z 120b3740 f   DOMCharacterDataImpl.obj
 0001:000b27a0       ?setData@DOMCharacterDataImpl@xercesc_2_2@@QAEXPBVDOMNode@2@PBG@Z 120b37a0 f   DOMCharacterDataImpl.obj
 0001:000b27c0       ?substringData@DOMCharacterDataImpl@xercesc_2_2@@QBEPBGPBVDOMNode@2@KK@Z 120b37c0 f   DOMCharacterDataImpl.obj
 0001:000b2880       ?releaseBuffer@DOMCharacterDataImpl@xercesc_2_2@@QAEXXZ 120b3880 f   DOMCharacterDataImpl.obj
 0001:000b2890       ??0DOMChildNode@xercesc_2_2@@QAE@XZ 120b3890 f   DOMChildNode.obj
 0001:000b28a0       ??0DOMChildNode@xercesc_2_2@@QAE@ABV01@@Z 120b38a0 f   DOMChildNode.obj
 0001:000b28c0       ?postParseValidation@DTDValidator@xercesc_2_2@@UAEXXZ 120b38c0 f   DOMChildNode.obj
 0001:000b28c0       ??1DomMemDebug@xercesc_2_2@@QAE@XZ 120b38c0 f   DOMChildNode.obj
 0001:000b28c0       ?startIntSubset@SAXParser@xercesc_2_2@@UAEXXZ 120b38c0 f   DOMChildNode.obj
 0001:000b28c0       ?checkAdditionalFacetConstraintsBase@DateTimeValidator@xercesc_2_2@@MBEXXZ 120b38c0 f   DOMChildNode.obj
 0001:000b28c0       ?resetEntities@SAX2XMLReaderImpl@xercesc_2_2@@UAEXXZ 120b38c0 f   DOMChildNode.obj
 0001:000b28c0       ?inheritAdditionalFacet@DoubleDatatypeValidator@xercesc_2_2@@MAEXXZ 120b38c0 f   DOMChildNode.obj
 0001:000b28c0       ?inheritAdditionalFacet@FloatDatatypeValidator@xercesc_2_2@@MAEXXZ 120b38c0 f   DOMChildNode.obj
 0001:000b28c0       ?checkAdditionalFacetConstraints@NOTATIONDatatypeValidator@xercesc_2_2@@MBEXXZ 120b38c0 f   DOMChildNode.obj
 0001:000b28c0       ?normalize@DOMNodeImpl@xercesc_2_2@@QAEXXZ 120b38c0 f   DOMChildNode.obj
 0001:000b28c0       ?checkAdditionalFacetConstraints@DoubleDatatypeValidator@xercesc_2_2@@MBEXXZ 120b38c0 f   DOMChildNode.obj
 0001:000b28c0       ?inheritAdditionalFacet@AnyURIDatatypeValidator@xercesc_2_2@@MAEXXZ 120b38c0 f   DOMChildNode.obj
 0001:000b28c0       ?inheritAdditionalFacet@ListDatatypeValidator@xercesc_2_2@@MAEXXZ 120b38c0 f   DOMChildNode.obj
 0001:000b28c0       ?checkAdditionalFacetConstraints@AnyURIDatatypeValidator@xercesc_2_2@@MBEXXZ 120b38c0 f   DOMChildNode.obj
 0001:000b28c0       ?normalize@NodeImpl@xercesc_2_2@@UAEXXZ 120b38c0 f   DOMChildNode.obj
 0001:000b28c0       ?checkAdditionalFacetConstraintsBase@FloatDatatypeValidator@xercesc_2_2@@MBEXXZ 120b38c0 f   DOMChildNode.obj
 0001:000b28c0       ?checkAdditionalFacetConstraintsBase@DoubleDatatypeValidator@xercesc_2_2@@MBEXXZ 120b38c0 f   DOMChildNode.obj
 0001:000b28c0       ?resetErrors@XercesDOMParser@xercesc_2_2@@UAEXXZ 120b38c0 f   DOMChildNode.obj
 0001:000b28c0       ?startExtSubset@DOMParser@xercesc_2_2@@UAEXXZ 120b38c0 f   DOMChildNode.obj
 0001:000b28c0       ?checkAdditionalFacetConstraints@DateTimeValidator@xercesc_2_2@@MBEXXZ 120b38c0 f   DOMChildNode.obj
 0001:000b28c0       ?endExtSubset@AbstractDOMParser@xercesc_2_2@@UAEXXZ 120b38c0 f   DOMChildNode.obj
 0001:000b28c0       ?endExtSubset@SAXParser@xercesc_2_2@@UAEXXZ 120b38c0 f   DOMChildNode.obj
 0001:000b28c0       ?inheritAdditionalFacet@NOTATIONDatatypeValidator@xercesc_2_2@@MAEXXZ 120b38c0 f   DOMChildNode.obj
 0001:000b28c0       ?reset@DTDValidator@xercesc_2_2@@UAEXXZ 120b38c0 f   DOMChildNode.obj
 0001:000b28c0       ?startIntSubset@SAX2XMLReaderImpl@xercesc_2_2@@UAEXXZ 120b38c0 f   DOMChildNode.obj
 0001:000b28c0       ??1DOMChildNode@xercesc_2_2@@QAE@XZ 120b38c0 f   DOMChildNode.obj
 0001:000b28c0       ?endIntSubset@SAXParser@xercesc_2_2@@UAEXXZ 120b38c0 f   DOMChildNode.obj
 0001:000b28c0       ?checkAdditionalFacetConstraints@Base64BinaryDatatypeValidator@xercesc_2_2@@MBEXXZ 120b38c0 f   DOMChildNode.obj
 0001:000b28c0       ??1DOMCharacterDataImpl@xercesc_2_2@@QAE@XZ 120b38c0 f   DOMChildNode.obj
 0001:000b28c0       ?inheritAdditionalFacet@DateTimeValidator@xercesc_2_2@@MAEXXZ 120b38c0 f   DOMChildNode.obj
 0001:000b28c0       ?platformTerm@XMLPlatformUtils@xercesc_2_2@@CAXXZ 120b38c0 f   DOMChildNode.obj
 0001:000b28c0       ?startExtSubset@AbstractDOMParser@xercesc_2_2@@UAEXXZ 120b38c0 f   DOMChildNode.obj
 0001:000b28c0       ?inheritAdditionalFacet@Base64BinaryDatatypeValidator@xercesc_2_2@@MAEXXZ 120b38c0 f   DOMChildNode.obj
 0001:000b28c0       ?resetErrors@DOMBuilderImpl@xercesc_2_2@@UAEXXZ 120b38c0 f   DOMChildNode.obj
 0001:000b28c0       ?normalizeEnumeration@AbstractStringValidator@xercesc_2_2@@MAEXXZ 120b38c0 f   DOMChildNode.obj
 0001:000b28c0       ?startExtSubset@SAXParser@xercesc_2_2@@UAEXXZ 120b38c0 f   DOMChildNode.obj
 0001:000b28c0       ?referenced@RefCountedImpl@xercesc_2_2@@UAEXXZ 120b38c0 f   DOMChildNode.obj
 0001:000b28c0       ??1RangeTokenElemMap@xercesc_2_2@@QAE@XZ 120b38c0 f   DOMChildNode.obj
 0001:000b28c0       ?checkAdditionalFacetConstraints@ListDatatypeValidator@xercesc_2_2@@MBEXXZ 120b38c0 f   DOMChildNode.obj
 0001:000b28c0       ?referenced@DocumentImpl@xercesc_2_2@@UAEXXZ 120b38c0 f   DOMChildNode.obj
 0001:000b28c0       ?resetEntities@SAXParser@xercesc_2_2@@UAEXXZ 120b38c0 f   DOMChildNode.obj
 0001:000b28c0       ??1FieldActivator@xercesc_2_2@@QAE@XZ 120b38c0 f   DOMChildNode.obj
 0001:000b28c0       ?checkAdditionalFacetConstraints@QNameDatatypeValidator@xercesc_2_2@@MBEXXZ 120b38c0 f   DOMChildNode.obj
 0001:000b28c0       ?resetErrors@DOMParser@xercesc_2_2@@UAEXXZ 120b38c0 f   DOMChildNode.obj
 0001:000b28c0       ?checkAdditionalFacetConstraints@HexBinaryDatatypeValidator@xercesc_2_2@@MBEXXZ 120b38c0 f   DOMChildNode.obj
 0001:000b28c0       ?inheritAdditionalFacet@HexBinaryDatatypeValidator@xercesc_2_2@@MAEXXZ 120b38c0 f   DOMChildNode.obj
 0001:000b28c0       ?inheritAdditionalFacet@QNameDatatypeValidator@xercesc_2_2@@MAEXXZ 120b38c0 f   DOMChildNode.obj
 0001:000b28c0       ??1DOMNodeImpl@xercesc_2_2@@QAE@XZ 120b38c0 f   DOMChildNode.obj
 0001:000b28c0       ?release@DOMTreeWalkerImpl@xercesc_2_2@@UAEXXZ 120b38c0 f   DOMChildNode.obj
 0001:000b28c0       ?endExtSubset@DOMParser@xercesc_2_2@@UAEXXZ 120b38c0 f   DOMChildNode.obj
 0001:000b28c0       ?checkAdditionalFacetConstraints@FloatDatatypeValidator@xercesc_2_2@@MBEXXZ 120b38c0 f   DOMChildNode.obj
 0001:000b28c0       ?postParseValidation@SchemaValidator@xercesc_2_2@@UAEXXZ 120b38c0 f   DOMChildNode.obj
 0001:000b28c0       ??1DOM_DOMImplementation@xercesc_2_2@@QAE@XZ 120b38c0 f   DOMChildNode.obj
 0001:000b28c0       ?unreferenced@RefCountedImpl@xercesc_2_2@@UAEXXZ 120b38c0 f   DOMChildNode.obj
 0001:000b28d0       ?getParentNode@DOMChildNode@xercesc_2_2@@QBEPAVDOMNode@2@PBV32@@Z 120b38d0 f   DOMChildNode.obj
 0001:000b28f0       ?getPreviousSibling@DOMChildNode@xercesc_2_2@@QBEPAVDOMNode@2@PBV32@@Z 120b38f0 f   DOMChildNode.obj
 0001:000b2910       ??0DOMCommentImpl@xercesc_2_2@@QAE@ABV01@@Z 120b3910 f i DOMCommentImpl.obj
 0001:000b2990       ??_EDOMCommentImpl@xercesc_2_2@@UAEPAXI@Z 120b3990 f i DOMCommentImpl.obj
 0001:000b29f0       ??0DOMCommentImpl@xercesc_2_2@@QAE@PAVDOMDocument@1@PBG@Z 120b39f0 f   DOMCommentImpl.obj
 0001:000b2a80       ??0DOMCommentImpl@xercesc_2_2@@QAE@ABV01@_N@Z 120b3a80 f   DOMCommentImpl.obj
 0001:000b2b10       ??1DOMCommentImpl@xercesc_2_2@@UAE@XZ 120b3b10 f   DOMCommentImpl.obj
 0001:000b2b80       ?cloneNode@DOMCommentImpl@xercesc_2_2@@UBEPAVDOMNode@2@_N@Z 120b3b80 f   DOMCommentImpl.obj
 0001:000b2c40       ?getNodeName@DOMCommentImpl@xercesc_2_2@@UBEPBGXZ 120b3c40 f   DOMCommentImpl.obj
 0001:000b2c50       ?getNodeType@CommentImpl@xercesc_2_2@@UAEFXZ 120b3c50 f   DOMCommentImpl.obj
 0001:000b2c50       ?getNodeType@DOMCommentImpl@xercesc_2_2@@UBEFXZ 120b3c50 f   DOMCommentImpl.obj
 0001:000b2c60       ?release@DOMCommentImpl@xercesc_2_2@@UAEXXZ 120b3c60 f   DOMCommentImpl.obj
 0001:000b2cf0       ?splitText@DOMCommentImpl@xercesc_2_2@@QAEPAVDOMComment@2@K@Z 120b3cf0 f   DOMCommentImpl.obj
 0001:000b2e30       ?getNextSibling@DOMTextImpl@xercesc_2_2@@UBEPAVDOMNode@2@XZ 120b3e30 f   DOMCommentImpl.obj
 0001:000b2e30       ?getFirstChild@DOMCDATASectionImpl@xercesc_2_2@@UBEPAVDOMNode@2@XZ 120b3e30 f   DOMCommentImpl.obj
 0001:000b2e30       ?getFirstChild@DOMDocumentTypeImpl@xercesc_2_2@@UBEPAVDOMNode@2@XZ 120b3e30 f   DOMCommentImpl.obj
 0001:000b2e30       ?getFirstChild@DOMElementImpl@xercesc_2_2@@UBEPAVDOMNode@2@XZ 120b3e30 f   DOMCommentImpl.obj
 0001:000b2e30       ?getFirstChild@DOMEntityReferenceImpl@xercesc_2_2@@UBEPAVDOMNode@2@XZ 120b3e30 f   DOMCommentImpl.obj
 0001:000b2e30       ?getFirstChild@DOMAttrImpl@xercesc_2_2@@UBEPAVDOMNode@2@XZ 120b3e30 f   DOMCommentImpl.obj
 0001:000b2e30       ?getNextSibling@DOMCommentImpl@xercesc_2_2@@UBEPAVDOMNode@2@XZ 120b3e30 f   DOMCommentImpl.obj
 0001:000b2e30       ?getFirstChild@DOMDocumentFragmentImpl@xercesc_2_2@@UBEPAVDOMNode@2@XZ 120b3e30 f   DOMCommentImpl.obj
 0001:000b2e30       ?getNextSibling@DOMProcessingInstructionImpl@xercesc_2_2@@UBEPAVDOMNode@2@XZ 120b3e30 f   DOMCommentImpl.obj
 0001:000b2e30       ?getFirstChild@DOMDocumentImpl@xercesc_2_2@@UBEPAVDOMNode@2@XZ 120b3e30 f   DOMCommentImpl.obj
 0001:000b2e40       ?getParentNode@DOMTextImpl@xercesc_2_2@@UBEPAVDOMNode@2@XZ 120b3e40 f   DOMCommentImpl.obj
 0001:000b2e40       ?getParentNode@DOMProcessingInstructionImpl@xercesc_2_2@@UBEPAVDOMNode@2@XZ 120b3e40 f   DOMCommentImpl.obj
 0001:000b2e40       ?getParentNode@DOMCommentImpl@xercesc_2_2@@UBEPAVDOMNode@2@XZ 120b3e40 f   DOMCommentImpl.obj
 0001:000b2e50       ?getLength@DOMTextImpl@xercesc_2_2@@UBEKXZ 120b3e50 f   DOMCommentImpl.obj
 0001:000b2e50       ?getLength@DOMCommentImpl@xercesc_2_2@@UBEKXZ 120b3e50 f   DOMCommentImpl.obj
 0001:000b2e60       ?appendData@DOMCommentImpl@xercesc_2_2@@UAEXPBG@Z 120b3e60 f   DOMCommentImpl.obj
 0001:000b2e60       ?appendData@DOMTextImpl@xercesc_2_2@@UAEXPBG@Z 120b3e60 f   DOMCommentImpl.obj
 0001:000b2e80       ?insertData@DOMTextImpl@xercesc_2_2@@UAEXKPBG@Z 120b3e80 f   DOMCommentImpl.obj
 0001:000b2e80       ?insertData@DOMCommentImpl@xercesc_2_2@@UAEXKPBG@Z 120b3e80 f   DOMCommentImpl.obj
 0001:000b2ea0       ??0DOMDeepNodeListImpl@xercesc_2_2@@QAE@ABV01@@Z 120b3ea0 f i DOMDeepNodeListImpl.obj
 0001:000b2ef0       ??4DOMDeepNodeListImpl@xercesc_2_2@@QAEAAV01@ABV01@@Z 120b3ef0 f i DOMDeepNodeListImpl.obj
 0001:000b2f30       ??_EDOMDeepNodeListImpl@xercesc_2_2@@UAEPAXI@Z 120b3f30 f i DOMDeepNodeListImpl.obj
 0001:000b2f90       ??0DOMDeepNodeListImpl@xercesc_2_2@@QAE@PBVDOMNode@1@PBG@Z 120b3f90 f   DOMDeepNodeListImpl.obj
 0001:000b3060       ??0DOMDeepNodeListImpl@xercesc_2_2@@QAE@PBVDOMNode@1@PBG1@Z 120b4060 f   DOMDeepNodeListImpl.obj
 0001:000b31a0       ?getLength@DOMDeepNodeListImpl@xercesc_2_2@@UBEKXZ 120b41a0 f   DOMDeepNodeListImpl.obj
 0001:000b31c0       ?item@DOMDeepNodeListImpl@xercesc_2_2@@UBEPAVDOMNode@2@K@Z 120b41c0 f   DOMDeepNodeListImpl.obj
 0001:000b31d0       ?cacheItem@DOMDeepNodeListImpl@xercesc_2_2@@QAEPAVDOMNode@2@K@Z 120b41d0 f   DOMDeepNodeListImpl.obj
 0001:000b3250       ?nextMatchingElementAfter@DOMDeepNodeListImpl@xercesc_2_2@@AAEPAVDOMNode@2@PAV32@@Z 120b4250 f   DOMDeepNodeListImpl.obj
 0001:000b3400       ??0DOMDocumentFragment@xercesc_2_2@@IAE@XZ 120b4400 f i DOMDocumentFragmentImpl.obj
 0001:000b3410       ??0DOMDocumentFragment@xercesc_2_2@@IAE@ABV01@@Z 120b4410 f i DOMDocumentFragmentImpl.obj
 0001:000b3420       ??1DOMText@xercesc_2_2@@UAE@XZ 120b4420 f i DOMDocumentFragmentImpl.obj
 0001:000b3420       ??1DOMComment@xercesc_2_2@@UAE@XZ 120b4420 f i DOMDocumentFragmentImpl.obj
 0001:000b3420       ??1DOMDocumentType@xercesc_2_2@@UAE@XZ 120b4420 f i DOMDocumentFragmentImpl.obj
 0001:000b3420       ??1DOMAttr@xercesc_2_2@@UAE@XZ 120b4420 f i DOMDocumentFragmentImpl.obj
 0001:000b3420       ??1DOMEntityReference@xercesc_2_2@@UAE@XZ 120b4420 f i DOMDocumentFragmentImpl.obj
 0001:000b3420       ??1DOMElement@xercesc_2_2@@UAE@XZ 120b4420 f i DOMDocumentFragmentImpl.obj
 0001:000b3420       ??1DOMCharacterData@xercesc_2_2@@UAE@XZ 120b4420 f i DOMDocumentFragmentImpl.obj
 0001:000b3420       ??1DOMProcessingInstruction@xercesc_2_2@@UAE@XZ 120b4420 f i DOMDocumentFragmentImpl.obj
 0001:000b3420       ??1DOMCDATASection@xercesc_2_2@@UAE@XZ 120b4420 f i DOMDocumentFragmentImpl.obj
 0001:000b3420       ??1DOMDocumentFragment@xercesc_2_2@@UAE@XZ 120b4420 f i DOMDocumentFragmentImpl.obj
 0001:000b3420       ??1DOMNode@xercesc_2_2@@UAE@XZ 120b4420 f i DOMDocumentFragmentImpl.obj
 0001:000b3420       ??1DOMNotation@xercesc_2_2@@UAE@XZ 120b4420 f i DOMDocumentFragmentImpl.obj
 0001:000b3420       ??1DOMEntity@xercesc_2_2@@UAE@XZ 120b4420 f i DOMDocumentFragmentImpl.obj
 0001:000b3430       ??0DOMDocumentFragmentImpl@xercesc_2_2@@QAE@ABV01@@Z 120b4430 f i DOMDocumentFragmentImpl.obj
 0001:000b34a0       ??_EDOMDocumentFragmentImpl@xercesc_2_2@@UAEPAXI@Z 120b44a0 f i DOMDocumentFragmentImpl.obj
 0001:000b3500       ??0DOMDocumentFragmentImpl@xercesc_2_2@@IAE@PAVDOMDocument@1@@Z 120b4500 f   DOMDocumentFragmentImpl.obj
 0001:000b3570       ??0DOMDocumentFragmentImpl@xercesc_2_2@@AAE@ABV01@_N@Z 120b4570 f   DOMDocumentFragmentImpl.obj
 0001:000b3600       ??1DOMDocumentFragmentImpl@xercesc_2_2@@UAE@XZ 120b4600 f   DOMDocumentFragmentImpl.obj
 0001:000b3660       ?cloneNode@DOMDocumentFragmentImpl@xercesc_2_2@@UBEPAVDOMNode@2@_N@Z 120b4660 f   DOMDocumentFragmentImpl.obj
 0001:000b3720       ?getNodeName@DOMDocumentFragmentImpl@xercesc_2_2@@UBEPBGXZ 120b4720 f   DOMDocumentFragmentImpl.obj
 0001:000b3730       ?getNodeType@DocumentFragmentImpl@xercesc_2_2@@UAEFXZ 120b4730 f   DOMDocumentFragmentImpl.obj
 0001:000b3730       ?getNodeType@DOMDocumentFragmentImpl@xercesc_2_2@@UBEFXZ 120b4730 f   DOMDocumentFragmentImpl.obj
 0001:000b3740       ?release@DOMDocumentFragmentImpl@xercesc_2_2@@UAEXXZ 120b4740 f   DOMDocumentFragmentImpl.obj
 0001:000b37d0       ?getParentNode@DOMNotationImpl@xercesc_2_2@@UBEPAVDOMNode@2@XZ 120b47d0 f   DOMDocumentFragmentImpl.obj
 0001:000b37d0       ?getNextSibling@DOMDocumentImpl@xercesc_2_2@@UBEPAVDOMNode@2@XZ 120b47d0 f   DOMDocumentFragmentImpl.obj
 0001:000b37d0       ?getTextContent@DOMAttrImpl@xercesc_2_2@@UBEPBGXZ 120b47d0 f   DOMDocumentFragmentImpl.obj
 0001:000b37d0       ?getLocalName@DOMDocumentFragmentImpl@xercesc_2_2@@UBEPBGXZ 120b47d0 f   DOMDocumentFragmentImpl.obj
 0001:000b37d0       ?getTextContent@DOMProcessingInstructionImpl@xercesc_2_2@@UBEPBGXZ 120b47d0 f   DOMDocumentFragmentImpl.obj
 0001:000b37d0       ?getAttributes@DOMTextImpl@xercesc_2_2@@UBEPAVDOMNamedNodeMap@2@XZ 120b47d0 f   DOMDocumentFragmentImpl.obj
 0001:000b37d0       ?getNamespaceURI@DOMCDATASectionImpl@xercesc_2_2@@UBEPBGXZ 120b47d0 f   DOMDocumentFragmentImpl.obj
 0001:000b37d0       ?getLastChild@DOMCommentImpl@xercesc_2_2@@UBEPAVDOMNode@2@XZ 120b47d0 f   DOMDocumentFragmentImpl.obj
 0001:000b37d0       ?getNodeValue@DOMEntityImpl@xercesc_2_2@@UBEPBGXZ 120b47d0 f   DOMDocumentFragmentImpl.obj
 0001:000b37d0       ?getNodeValue@DOMEntityReferenceImpl@xercesc_2_2@@UBEPBGXZ 120b47d0 f   DOMDocumentFragmentImpl.obj
 0001:000b37d0       ?getPrefix@DOMElementImpl@xercesc_2_2@@UBEPBGXZ 120b47d0 f   DOMDocumentFragmentImpl.obj
 0001:000b37d0       ?getAttributes@DOMDocumentImpl@xercesc_2_2@@UBEPAVDOMNamedNodeMap@2@XZ 120b47d0 f   DOMDocumentFragmentImpl.obj
 0001:000b37d0       ?getParentNode@DOMAttrImpl@xercesc_2_2@@UBEPAVDOMNode@2@XZ 120b47d0 f   DOMDocumentFragmentImpl.obj
 0001:000b37d0       ?getTextContent@DOMCommentImpl@xercesc_2_2@@UBEPBGXZ 120b47d0 f   DOMDocumentFragmentImpl.obj
 0001:000b37d0       ?getLocalName@DOMEntityImpl@xercesc_2_2@@UBEPBGXZ 120b47d0 f   DOMDocumentFragmentImpl.obj
 0001:000b37d0       ?getFirstChild@DOMCommentImpl@xercesc_2_2@@UBEPAVDOMNode@2@XZ 120b47d0 f   DOMDocumentFragmentImpl.obj
 0001:000b37d0       ?getFirstChild@DOMTextImpl@xercesc_2_2@@UBEPAVDOMNode@2@XZ 120b47d0 f   DOMDocumentFragmentImpl.obj
 0001:000b37d0       ?getAttributes@DOMDocumentFragmentImpl@xercesc_2_2@@UBEPAVDOMNamedNodeMap@2@XZ 120b47d0 f   DOMDocumentFragmentImpl.obj
 0001:000b37d0       ?getAttributes@DOMEntityReferenceImpl@xercesc_2_2@@UBEPAVDOMNamedNodeMap@2@XZ 120b47d0 f   DOMDocumentFragmentImpl.obj
 0001:000b37d0       ?getAttributes@DOMEntityImpl@xercesc_2_2@@UBEPAVDOMNamedNodeMap@2@XZ 120b47d0 f   DOMDocumentFragmentImpl.obj
 0001:000b37d0       ?getLocalName@DOMAttrImpl@xercesc_2_2@@UBEPBGXZ 120b47d0 f   DOMDocumentFragmentImpl.obj
 0001:000b37d0       ?getTextContent@DOMEntityImpl@xercesc_2_2@@UBEPBGXZ 120b47d0 f   DOMDocumentFragmentImpl.obj
 0001:000b37d0       ?getAttributes@DOMCDATASectionImpl@xercesc_2_2@@UBEPAVDOMNamedNodeMap@2@XZ 120b47d0 f   DOMDocumentFragmentImpl.obj
 0001:000b37d0       ?getTextContent@DOMNotationImpl@xercesc_2_2@@UBEPBGXZ 120b47d0 f   DOMDocumentFragmentImpl.obj
 0001:000b37d0       ?getFirstChild@DOMProcessingInstructionImpl@xercesc_2_2@@UBEPAVDOMNode@2@XZ 120b47d0 f   DOMDocumentFragmentImpl.obj
 0001:000b37d0       ?getNamespaceURI@DOMCommentImpl@xercesc_2_2@@UBEPBGXZ 120b47d0 f   DOMDocumentFragmentImpl.obj
 0001:000b37d0       ?getPrefix@DOMProcessingInstructionImpl@xercesc_2_2@@UBEPBGXZ 120b47d0 f   DOMDocumentFragmentImpl.obj
 0001:000b37d0       ?getTextContent@DOMCDATASectionImpl@xercesc_2_2@@UBEPBGXZ 120b47d0 f   DOMDocumentFragmentImpl.obj
 0001:000b37d0       ?getAttributes@DOMNotationImpl@xercesc_2_2@@UBEPAVDOMNamedNodeMap@2@XZ 120b47d0 f   DOMDocumentFragmentImpl.obj
 0001:000b37d0       ?getPreviousSibling@DOMDocumentImpl@xercesc_2_2@@UBEPAVDOMNode@2@XZ 120b47d0 f   DOMDocumentFragmentImpl.obj
 0001:000b37d0       ?getTextContent@DOMEntityReferenceImpl@xercesc_2_2@@UBEPBGXZ 120b47d0 f   DOMDocumentFragmentImpl.obj
 0001:000b37d0       ?getTextContent@DOMDocumentFragmentImpl@xercesc_2_2@@UBEPBGXZ 120b47d0 f   DOMDocumentFragmentImpl.obj
 0001:000b37d0       ?getPrefix@DOMCDATASectionImpl@xercesc_2_2@@UBEPBGXZ 120b47d0 f   DOMDocumentFragmentImpl.obj
 0001:000b37d0       ?getPrefix@DOMDocumentFragmentImpl@xercesc_2_2@@UBEPBGXZ 120b47d0 f   DOMDocumentFragmentImpl.obj
 0001:000b37d0       ?getLocalName@DOMCDATASectionImpl@xercesc_2_2@@UBEPBGXZ 120b47d0 f   DOMDocumentFragmentImpl.obj
 0001:000b37d0       ?getAttributes@DOMDocumentTypeImpl@xercesc_2_2@@UBEPAVDOMNamedNodeMap@2@XZ 120b47d0 f   DOMDocumentFragmentImpl.obj
 0001:000b37d0       ?getNamespaceURI@DOMDocumentTypeImpl@xercesc_2_2@@UBEPBGXZ 120b47d0 f   DOMDocumentFragmentImpl.obj
 0001:000b37d0       ?getAttributes@DOMProcessingInstructionImpl@xercesc_2_2@@UBEPAVDOMNamedNodeMap@2@XZ 120b47d0 f   DOMDocumentFragmentImpl.obj
 0001:000b37d0       ?getPreviousSibling@DOMAttrImpl@xercesc_2_2@@UBEPAVDOMNode@2@XZ 120b47d0 f   DOMDocumentFragmentImpl.obj
 0001:000b37d0       ?getParentNode@DOMDocumentFragmentImpl@xercesc_2_2@@UBEPAVDOMNode@2@XZ 120b47d0 f   DOMDocumentFragmentImpl.obj
 0001:000b37d0       ?getNamespaceURI@DOMEntityReferenceImpl@xercesc_2_2@@UBEPBGXZ 120b47d0 f   DOMDocumentFragmentImpl.obj
 0001:000b37d0       ?getLocalName@DOMCommentImpl@xercesc_2_2@@UBEPBGXZ 120b47d0 f   DOMDocumentFragmentImpl.obj
 0001:000b37d0       ?getPrefix@DOMEntityReferenceImpl@xercesc_2_2@@UBEPBGXZ 120b47d0 f   DOMDocumentFragmentImpl.obj
 0001:000b37d0       ?getPrefix@DOMCommentImpl@xercesc_2_2@@UBEPBGXZ 120b47d0 f   DOMDocumentFragmentImpl.obj
 0001:000b37d0       ?getLocalName@DOMNotationImpl@xercesc_2_2@@UBEPBGXZ 120b47d0 f   DOMDocumentFragmentImpl.obj
 0001:000b37d0       ?getNamespaceURI@DOMElementImpl@xercesc_2_2@@UBEPBGXZ 120b47d0 f   DOMDocumentFragmentImpl.obj
 0001:000b37d0       ?getPrefix@DOMNotationImpl@xercesc_2_2@@UBEPBGXZ 120b47d0 f   DOMDocumentFragmentImpl.obj
 0001:000b37d0       ?getTextContent@DOMDocumentTypeImpl@xercesc_2_2@@UBEPBGXZ 120b47d0 f   DOMDocumentFragmentImpl.obj
 0001:000b37d0       ?getNamespaceURI@DOMNotationImpl@xercesc_2_2@@UBEPBGXZ 120b47d0 f   DOMDocumentFragmentImpl.obj
 0001:000b37d0       ?getNamespaceURI@DOMDocumentImpl@xercesc_2_2@@UBEPBGXZ 120b47d0 f   DOMDocumentFragmentImpl.obj
 0001:000b37d0       ?getPrefix@DOMDocumentTypeImpl@xercesc_2_2@@UBEPBGXZ 120b47d0 f   DOMDocumentFragmentImpl.obj
 0001:000b37d0       ?getParentNode@DOMDocumentImpl@xercesc_2_2@@UBEPAVDOMNode@2@XZ 120b47d0 f   DOMDocumentFragmentImpl.obj
 0001:000b37d0       ?getLocalName@DOMTextImpl@xercesc_2_2@@UBEPBGXZ 120b47d0 f   DOMDocumentFragmentImpl.obj
 0001:000b37d0       ?getNamespaceURI@DOMProcessingInstructionImpl@xercesc_2_2@@UBEPBGXZ 120b47d0 f   DOMDocumentFragmentImpl.obj
 0001:000b37d0       ?getLocalName@DOMProcessingInstructionImpl@xercesc_2_2@@UBEPBGXZ 120b47d0 f   DOMDocumentFragmentImpl.obj
 0001:000b37d0       ?getNamespaceURI@DOMAttrImpl@xercesc_2_2@@UBEPBGXZ 120b47d0 f   DOMDocumentFragmentImpl.obj
 0001:000b37d0       ?getNextSibling@DOMNotationImpl@xercesc_2_2@@UBEPAVDOMNode@2@XZ 120b47d0 f   DOMDocumentFragmentImpl.obj
 0001:000b37d0       ?getNodeValue@DOMDocumentImpl@xercesc_2_2@@UBEPBGXZ 120b47d0 f   DOMDocumentFragmentImpl.obj
 0001:000b37d0       ?getLastChild@DOMNotationImpl@xercesc_2_2@@UBEPAVDOMNode@2@XZ 120b47d0 f   DOMDocumentFragmentImpl.obj
 0001:000b37d0       ?getPrefix@DOMDocumentImpl@xercesc_2_2@@UBEPBGXZ 120b47d0 f   DOMDocumentFragmentImpl.obj
 0001:000b37d0       ?getTextContent@DOMElementImpl@xercesc_2_2@@UBEPBGXZ 120b47d0 f   DOMDocumentFragmentImpl.obj
 0001:000b37d0       ?getLocalName@DOMElementImpl@xercesc_2_2@@UBEPBGXZ 120b47d0 f   DOMDocumentFragmentImpl.obj
 0001:000b37d0       ?getLocalName@DOMEntityReferenceImpl@xercesc_2_2@@UBEPBGXZ 120b47d0 f   DOMDocumentFragmentImpl.obj
 0001:000b37d0       ?getNodeValue@DOMElementImpl@xercesc_2_2@@UBEPBGXZ 120b47d0 f   DOMDocumentFragmentImpl.obj
 0001:000b37d0       ?getPrefix@DOMTextImpl@xercesc_2_2@@UBEPBGXZ 120b47d0 f   DOMDocumentFragmentImpl.obj
 0001:000b37d0       ?getNextSibling@DOMAttrImpl@xercesc_2_2@@UBEPAVDOMNode@2@XZ 120b47d0 f   DOMDocumentFragmentImpl.obj
 0001:000b37d0       ?getPreviousSibling@DOMNotationImpl@xercesc_2_2@@UBEPAVDOMNode@2@XZ 120b47d0 f   DOMDocumentFragmentImpl.obj
 0001:000b37d0       ?getTextContent@DOMDocumentImpl@xercesc_2_2@@UBEPBGXZ 120b47d0 f   DOMDocumentFragmentImpl.obj
 0001:000b37d0       ?getLocalName@DOMDocumentImpl@xercesc_2_2@@UBEPBGXZ 120b47d0 f   DOMDocumentFragmentImpl.obj
 0001:000b37d0       ?getNextSibling@DOMEntityImpl@xercesc_2_2@@UBEPAVDOMNode@2@XZ 120b47d0 f   DOMDocumentFragmentImpl.obj
 0001:000b37d0       ?getNodeValue@DOMDocumentFragmentImpl@xercesc_2_2@@UBEPBGXZ 120b47d0 f   DOMDocumentFragmentImpl.obj
 0001:000b37d0       ?getNamespaceURI@DOMDocumentFragmentImpl@xercesc_2_2@@UBEPBGXZ 120b47d0 f   DOMDocumentFragmentImpl.obj
 0001:000b37d0       ?getPrefix@DOMEntityImpl@xercesc_2_2@@UBEPBGXZ 120b47d0 f   DOMDocumentFragmentImpl.obj
 0001:000b37d0       ?getNamespaceURI@DOMTextImpl@xercesc_2_2@@UBEPBGXZ 120b47d0 f   DOMDocumentFragmentImpl.obj
 0001:000b37d0       ?getPreviousSibling@DOMEntityImpl@xercesc_2_2@@UBEPAVDOMNode@2@XZ 120b47d0 f   DOMDocumentFragmentImpl.obj
 0001:000b37d0       ?getPrefix@DOMAttrImpl@xercesc_2_2@@UBEPBGXZ 120b47d0 f   DOMDocumentFragmentImpl.obj
 0001:000b37d0       ?getFirstChild@DOMNotationImpl@xercesc_2_2@@UBEPAVDOMNode@2@XZ 120b47d0 f   DOMDocumentFragmentImpl.obj
 0001:000b37d0       ?getAttributes@DOMCommentImpl@xercesc_2_2@@UBEPAVDOMNamedNodeMap@2@XZ 120b47d0 f   DOMDocumentFragmentImpl.obj
 0001:000b37d0       ?getLastChild@DOMTextImpl@xercesc_2_2@@UBEPAVDOMNode@2@XZ 120b47d0 f   DOMDocumentFragmentImpl.obj
 0001:000b37d0       ?getParentNode@DOMEntityImpl@xercesc_2_2@@UBEPAVDOMNode@2@XZ 120b47d0 f   DOMDocumentFragmentImpl.obj
 0001:000b37d0       ?getTextContent@DOMTextImpl@xercesc_2_2@@UBEPBGXZ 120b47d0 f   DOMDocumentFragmentImpl.obj
 0001:000b37d0       ?getNodeValue@DOMNotationImpl@xercesc_2_2@@UBEPBGXZ 120b47d0 f   DOMDocumentFragmentImpl.obj
 0001:000b37d0       ?getLastChild@DOMProcessingInstructionImpl@xercesc_2_2@@UBEPAVDOMNode@2@XZ 120b47d0 f   DOMDocumentFragmentImpl.obj
 0001:000b37d0       ?getNodeValue@DOMDocumentTypeImpl@xercesc_2_2@@UBEPBGXZ 120b47d0 f   DOMDocumentFragmentImpl.obj
 0001:000b37d0       ?getPreviousSibling@DOMDocumentFragmentImpl@xercesc_2_2@@UBEPAVDOMNode@2@XZ 120b47d0 f   DOMDocumentFragmentImpl.obj
 0001:000b37d0       ?getAttributes@DOMAttrImpl@xercesc_2_2@@UBEPAVDOMNamedNodeMap@2@XZ 120b47d0 f   DOMDocumentFragmentImpl.obj
 0001:000b37d0       ?getNamespaceURI@DOMEntityImpl@xercesc_2_2@@UBEPBGXZ 120b47d0 f   DOMDocumentFragmentImpl.obj
 0001:000b37d0       ?getLocalName@DOMDocumentTypeImpl@xercesc_2_2@@UBEPBGXZ 120b47d0 f   DOMDocumentFragmentImpl.obj
 0001:000b37d0       ?getNextSibling@DOMDocumentFragmentImpl@xercesc_2_2@@UBEPAVDOMNode@2@XZ 120b47d0 f   DOMDocumentFragmentImpl.obj
 0001:000b37e0       ?getChildNodes@DOMAttrImpl@xercesc_2_2@@UBEPAVDOMNodeList@2@XZ 120b47e0 f   DOMDocumentFragmentImpl.obj
 0001:000b37e0       ?getChildNodes@DOMDocumentFragmentImpl@xercesc_2_2@@UBEPAVDOMNodeList@2@XZ 120b47e0 f   DOMDocumentFragmentImpl.obj
 0001:000b37e0       ?getChildNodes@DOMEntityReferenceImpl@xercesc_2_2@@UBEPAVDOMNodeList@2@XZ 120b47e0 f   DOMDocumentFragmentImpl.obj
 0001:000b37e0       ?getChildNodes@DOMCDATASectionImpl@xercesc_2_2@@UBEPAVDOMNodeList@2@XZ 120b47e0 f   DOMDocumentFragmentImpl.obj
 0001:000b37e0       ?getChildNodes@DOMElementImpl@xercesc_2_2@@UBEPAVDOMNodeList@2@XZ 120b47e0 f   DOMDocumentFragmentImpl.obj
 0001:000b37e0       ?getChildNodes@DOMDocumentImpl@xercesc_2_2@@UBEPAVDOMNodeList@2@XZ 120b47e0 f   DOMDocumentFragmentImpl.obj
 0001:000b37e0       ?getChildNodes@DOMDocumentTypeImpl@xercesc_2_2@@UBEPAVDOMNodeList@2@XZ 120b47e0 f   DOMDocumentFragmentImpl.obj
 0001:000b37f0       ?getNewLine@DOMWriterImpl@xercesc_2_2@@UBEPBGXZ 120b47f0 f   DOMDocumentFragmentImpl.obj
 0001:000b37f0       ?getOwnerDocument@DOMEntityImpl@xercesc_2_2@@UBEPAVDOMDocument@2@XZ 120b47f0 f   DOMDocumentFragmentImpl.obj
 0001:000b37f0       ?getLiteral@StringOp@xercesc_2_2@@UBEPBGXZ 120b47f0 f   DOMDocumentFragmentImpl.obj
 0001:000b37f0       ?getToken@RangeOp@xercesc_2_2@@UBEPBVToken@2@XZ 120b47f0 f   DOMDocumentFragmentImpl.obj
 0001:000b37f0       ?getOwnerDocument@DOMCDATASectionImpl@xercesc_2_2@@UBEPAVDOMDocument@2@XZ 120b47f0 f   DOMDocumentFragmentImpl.obj
 0001:000b37f0       ?getWhatToShow@NodeIteratorImpl@xercesc_2_2@@QAEKXZ 120b47f0 f   DOMDocumentFragmentImpl.obj
 0001:000b37f0       ?getNodeName@DOMNotationImpl@xercesc_2_2@@UBEPBGXZ 120b47f0 f   DOMDocumentFragmentImpl.obj
 0001:000b37f0       ?getRawData@XMLBigDecimal@xercesc_2_2@@UBEPAGXZ 120b47f0 f   DOMDocumentFragmentImpl.obj
 0001:000b37f0       ?getOwnerDocument@DOMDocumentTypeImpl@xercesc_2_2@@UBEPAVDOMDocument@2@XZ 120b47f0 f   DOMDocumentFragmentImpl.obj
 0001:000b37f0       ?getLineNumber@SAXParseException@xercesc_2_2@@QBEJXZ 120b47f0 f   DOMDocumentFragmentImpl.obj
 0001:000b37f0       ?getData@CharOp@xercesc_2_2@@UBEHXZ 120b47f0 f   DOMDocumentFragmentImpl.obj
 0001:000b37f0       ?getOwnerDocument@DOMAttrImpl@xercesc_2_2@@UBEPAVDOMDocument@2@XZ 120b47f0 f   DOMDocumentFragmentImpl.obj
 0001:000b37f0       ?getWhatToShow@DOMNodeIteratorImpl@xercesc_2_2@@UAEKXZ 120b47f0 f   DOMDocumentFragmentImpl.obj
 0001:000b37f0       ?getCurrentNode@DOMTreeWalkerImpl@xercesc_2_2@@UAEPAVDOMNode@2@XZ 120b47f0 f   DOMDocumentFragmentImpl.obj
 0001:000b37f0       ?getFilter@TreeWalkerImpl@xercesc_2_2@@QAEPAVDOM_NodeFilter@2@XZ 120b47f0 f   DOMDocumentFragmentImpl.obj
 0001:000b37f0       ?getRefNo@ConditionOp@xercesc_2_2@@UBEHXZ 120b47f0 f   DOMDocumentFragmentImpl.obj
 0001:000b37f0       ?getOwnerDocument@DOMElementImpl@xercesc_2_2@@UBEPAVDOMDocument@2@XZ 120b47f0 f   DOMDocumentFragmentImpl.obj
 0001:000b37f0       ?getOwnerDocument@DOMEntityReferenceImpl@xercesc_2_2@@UBEPAVDOMDocument@2@XZ 120b47f0 f   DOMDocumentFragmentImpl.obj
 0001:000b37f0       ?getFormattedString@XMLBigDecimal@xercesc_2_2@@UBEPBGXZ 120b47f0 f   DOMDocumentFragmentImpl.obj
 0001:000b37f0       ?getStartOffset@RangeImpl@xercesc_2_2@@QBEIXZ 120b47f0 f   DOMDocumentFragmentImpl.obj
 0001:000b37f0       ?getOwnerDocument@DOMDocumentFragmentImpl@xercesc_2_2@@UBEPAVDOMDocument@2@XZ 120b47f0 f   DOMDocumentFragmentImpl.obj
 0001:000b37f0       ?getChild@ChildOp@xercesc_2_2@@UBEPBVOp@2@XZ 120b47f0 f   DOMDocumentFragmentImpl.obj
 0001:000b3800       ?hasChildNodes@DOMDocumentImpl@xercesc_2_2@@UBE_NXZ 120b4800 f   DOMDocumentFragmentImpl.obj
 0001:000b3800       ?hasChildNodes@DOMDocumentFragmentImpl@xercesc_2_2@@UBE_NXZ 120b4800 f   DOMDocumentFragmentImpl.obj
 0001:000b3800       ?hasChildNodes@DOMCDATASectionImpl@xercesc_2_2@@UBE_NXZ 120b4800 f   DOMDocumentFragmentImpl.obj
 0001:000b3800       ?hasChildNodes@DOMDocumentTypeImpl@xercesc_2_2@@UBE_NXZ 120b4800 f   DOMDocumentFragmentImpl.obj
 0001:000b3800       ?hasChildNodes@DOMElementImpl@xercesc_2_2@@UBE_NXZ 120b4800 f   DOMDocumentFragmentImpl.obj
 0001:000b3800       ?hasChildNodes@DOMEntityReferenceImpl@xercesc_2_2@@UBE_NXZ 120b4800 f   DOMDocumentFragmentImpl.obj
 0001:000b3800       ?hasChildNodes@DOMAttrImpl@xercesc_2_2@@UBE_NXZ 120b4800 f   DOMDocumentFragmentImpl.obj
 0001:000b3810       ?normalize@DOMElementImpl@xercesc_2_2@@UAEXXZ 120b4810 f   DOMDocumentFragmentImpl.obj
 0001:000b3810       ?normalize@DOMDocumentTypeImpl@xercesc_2_2@@UAEXXZ 120b4810 f   DOMDocumentFragmentImpl.obj
 0001:000b3810       ?normalize@DOMAttrImpl@xercesc_2_2@@UAEXXZ 120b4810 f   DOMDocumentFragmentImpl.obj
 0001:000b3810       ?normalize@DOMDocumentImpl@xercesc_2_2@@UAEXXZ 120b4810 f   DOMDocumentFragmentImpl.obj
 0001:000b3810       ?normalize@DOMEntityReferenceImpl@xercesc_2_2@@UAEXXZ 120b4810 f   DOMDocumentFragmentImpl.obj
 0001:000b3810       ?normalize@DOMDocumentFragmentImpl@xercesc_2_2@@UAEXXZ 120b4810 f   DOMDocumentFragmentImpl.obj
 0001:000b3820       ?removeChild@DOMElementImpl@xercesc_2_2@@UAEPAVDOMNode@2@PAV32@@Z 120b4820 f   DOMDocumentFragmentImpl.obj
 0001:000b3820       ?removeChild@DOMEntityReferenceImpl@xercesc_2_2@@UAEPAVDOMNode@2@PAV32@@Z 120b4820 f   DOMDocumentFragmentImpl.obj
 0001:000b3820       ?removeChild@DOMDocumentFragmentImpl@xercesc_2_2@@UAEPAVDOMNode@2@PAV32@@Z 120b4820 f   DOMDocumentFragmentImpl.obj
 0001:000b3820       ?removeChild@DOMAttrImpl@xercesc_2_2@@UAEPAVDOMNode@2@PAV32@@Z 120b4820 f   DOMDocumentFragmentImpl.obj
 0001:000b3820       ?removeChild@DOMCDATASectionImpl@xercesc_2_2@@UAEPAVDOMNode@2@PAV32@@Z 120b4820 f   DOMDocumentFragmentImpl.obj
 0001:000b3820       ?removeChild@DOMDocumentTypeImpl@xercesc_2_2@@UAEPAVDOMNode@2@PAV32@@Z 120b4820 f   DOMDocumentFragmentImpl.obj
 0001:000b3830       ?setPrefix@DOMDocumentTypeImpl@xercesc_2_2@@UAEXPBG@Z 120b4830 f   DOMDocumentFragmentImpl.obj
 0001:000b3830       ?setPrefix@DOMCommentImpl@xercesc_2_2@@UAEXPBG@Z 120b4830 f   DOMDocumentFragmentImpl.obj
 0001:000b3830       ?setPrefix@DOMNotationImpl@xercesc_2_2@@UAEXPBG@Z 120b4830 f   DOMDocumentFragmentImpl.obj
 0001:000b3830       ?setPrefix@DOMCDATASectionImpl@xercesc_2_2@@UAEXPBG@Z 120b4830 f   DOMDocumentFragmentImpl.obj
 0001:000b3830       ?setPrefix@DOMProcessingInstructionImpl@xercesc_2_2@@UAEXPBG@Z 120b4830 f   DOMDocumentFragmentImpl.obj
 0001:000b3830       ?setPrefix@DOMDocumentFragmentImpl@xercesc_2_2@@UAEXPBG@Z 120b4830 f   DOMDocumentFragmentImpl.obj
 0001:000b3830       ?setPrefix@DOMElementImpl@xercesc_2_2@@UAEXPBG@Z 120b4830 f   DOMDocumentFragmentImpl.obj
 0001:000b3830       ?setPrefix@DOMEntityReferenceImpl@xercesc_2_2@@UAEXPBG@Z 120b4830 f   DOMDocumentFragmentImpl.obj
 0001:000b3830       ?setPrefix@DOMAttrImpl@xercesc_2_2@@UAEXPBG@Z 120b4830 f   DOMDocumentFragmentImpl.obj
 0001:000b3830       ?setPrefix@DOMTextImpl@xercesc_2_2@@UAEXPBG@Z 120b4830 f   DOMDocumentFragmentImpl.obj
 0001:000b3830       ?setPrefix@DOMEntityImpl@xercesc_2_2@@UAEXPBG@Z 120b4830 f   DOMDocumentFragmentImpl.obj
 0001:000b3830       ?setPrefix@DOMDocumentImpl@xercesc_2_2@@UAEXPBG@Z 120b4830 f   DOMDocumentFragmentImpl.obj
 0001:000b3840       ?hasChildNodes@DOMCommentImpl@xercesc_2_2@@UBE_NXZ 120b4840 f   DOMDocumentFragmentImpl.obj
 0001:000b3840       ?hasAttributes@DOMNotationImpl@xercesc_2_2@@UBE_NXZ 120b4840 f   DOMDocumentFragmentImpl.obj
 0001:000b3840       ?hasAttributes@DOMAttrImpl@xercesc_2_2@@UBE_NXZ 120b4840 f   DOMDocumentFragmentImpl.obj
 0001:000b3840       ?hasChildNodes@DOMProcessingInstructionImpl@xercesc_2_2@@UBE_NXZ 120b4840 f   DOMDocumentFragmentImpl.obj
 0001:000b3840       ?hasAttributes@DOMDocumentImpl@xercesc_2_2@@UBE_NXZ 120b4840 f   DOMDocumentFragmentImpl.obj
 0001:000b3840       ?hasAttributes@DOMEntityImpl@xercesc_2_2@@UBE_NXZ 120b4840 f   DOMDocumentFragmentImpl.obj
 0001:000b3840       ?hasAttributes@DOMTextImpl@xercesc_2_2@@UBE_NXZ 120b4840 f   DOMDocumentFragmentImpl.obj
 0001:000b3840       ?hasChildNodes@DOMNotationImpl@xercesc_2_2@@UBE_NXZ 120b4840 f   DOMDocumentFragmentImpl.obj
 0001:000b3840       ?hasAttributes@DOMProcessingInstructionImpl@xercesc_2_2@@UBE_NXZ 120b4840 f   DOMDocumentFragmentImpl.obj
 0001:000b3840       ?hasAttributes@DOMCDATASectionImpl@xercesc_2_2@@UBE_NXZ 120b4840 f   DOMDocumentFragmentImpl.obj
 0001:000b3840       ?hasAttributes@DOMEntityReferenceImpl@xercesc_2_2@@UBE_NXZ 120b4840 f   DOMDocumentFragmentImpl.obj
 0001:000b3840       ?hasChildNodes@DOMTextImpl@xercesc_2_2@@UBE_NXZ 120b4840 f   DOMDocumentFragmentImpl.obj
 0001:000b3840       ?hasAttributes@DOMDocumentTypeImpl@xercesc_2_2@@UBE_NXZ 120b4840 f   DOMDocumentFragmentImpl.obj
 0001:000b3840       ?hasAttributes@DOMCommentImpl@xercesc_2_2@@UBE_NXZ 120b4840 f   DOMDocumentFragmentImpl.obj
 0001:000b3840       ?hasAttributes@DOMDocumentFragmentImpl@xercesc_2_2@@UBE_NXZ 120b4840 f   DOMDocumentFragmentImpl.obj
 0001:000b3850       ?isSameNode@DOMAttrImpl@xercesc_2_2@@UBE_NPBVDOMNode@2@@Z 120b4850 f   DOMDocumentFragmentImpl.obj
 0001:000b3850       ?isSameNode@DOMNotationImpl@xercesc_2_2@@UBE_NPBVDOMNode@2@@Z 120b4850 f   DOMDocumentFragmentImpl.obj
 0001:000b3850       ?isSameNode@DOMElementImpl@xercesc_2_2@@UBE_NPBVDOMNode@2@@Z 120b4850 f   DOMDocumentFragmentImpl.obj
 0001:000b3850       ?isSameNode@DOMDocumentFragmentImpl@xercesc_2_2@@UBE_NPBVDOMNode@2@@Z 120b4850 f   DOMDocumentFragmentImpl.obj
 0001:000b3850       ?isSameNode@DOMCommentImpl@xercesc_2_2@@UBE_NPBVDOMNode@2@@Z 120b4850 f   DOMDocumentFragmentImpl.obj
 0001:000b3850       ?isSameNode@DOMProcessingInstructionImpl@xercesc_2_2@@UBE_NPBVDOMNode@2@@Z 120b4850 f   DOMDocumentFragmentImpl.obj
 0001:000b3850       ?isSameNode@DOMDocumentImpl@xercesc_2_2@@UBE_NPBVDOMNode@2@@Z 120b4850 f   DOMDocumentFragmentImpl.obj
 0001:000b3850       ?isSameNode@DOMCDATASectionImpl@xercesc_2_2@@UBE_NPBVDOMNode@2@@Z 120b4850 f   DOMDocumentFragmentImpl.obj
 0001:000b3850       ?isSameNode@DOMEntityReferenceImpl@xercesc_2_2@@UBE_NPBVDOMNode@2@@Z 120b4850 f   DOMDocumentFragmentImpl.obj
 0001:000b3850       ?isSameNode@DOMDocumentTypeImpl@xercesc_2_2@@UBE_NPBVDOMNode@2@@Z 120b4850 f   DOMDocumentFragmentImpl.obj
 0001:000b3850       ?isSameNode@DOMTextImpl@xercesc_2_2@@UBE_NPBVDOMNode@2@@Z 120b4850 f   DOMDocumentFragmentImpl.obj
 0001:000b3850       ?isSameNode@DOMEntityImpl@xercesc_2_2@@UBE_NPBVDOMNode@2@@Z 120b4850 f   DOMDocumentFragmentImpl.obj
 0001:000b3860       ?isEqualNode@DOMEntityReferenceImpl@xercesc_2_2@@UBE_NPBVDOMNode@2@@Z 120b4860 f   DOMDocumentFragmentImpl.obj
 0001:000b3860       ?isEqualNode@DOMCDATASectionImpl@xercesc_2_2@@UBE_NPBVDOMNode@2@@Z 120b4860 f   DOMDocumentFragmentImpl.obj
 0001:000b3860       ?isEqualNode@DOMDocumentFragmentImpl@xercesc_2_2@@UBE_NPBVDOMNode@2@@Z 120b4860 f   DOMDocumentFragmentImpl.obj
 0001:000b3860       ?isEqualNode@DOMAttrImpl@xercesc_2_2@@UBE_NPBVDOMNode@2@@Z 120b4860 f   DOMDocumentFragmentImpl.obj
 0001:000b3860       ?isEqualNode@DOMDocumentImpl@xercesc_2_2@@UBE_NPBVDOMNode@2@@Z 120b4860 f   DOMDocumentFragmentImpl.obj
 0001:000b3870       ?getUserData@DOMEntityImpl@xercesc_2_2@@UBEPAXPBG@Z 120b4870 f   DOMDocumentFragmentImpl.obj
 0001:000b3870       ?getUserData@DOMAttrImpl@xercesc_2_2@@UBEPAXPBG@Z 120b4870 f   DOMDocumentFragmentImpl.obj
 0001:000b3870       ?getUserData@DOMElementImpl@xercesc_2_2@@UBEPAXPBG@Z 120b4870 f   DOMDocumentFragmentImpl.obj
 0001:000b3870       ?getUserData@DOMCDATASectionImpl@xercesc_2_2@@UBEPAXPBG@Z 120b4870 f   DOMDocumentFragmentImpl.obj
 0001:000b3870       ?getUserData@DOMCommentImpl@xercesc_2_2@@UBEPAXPBG@Z 120b4870 f   DOMDocumentFragmentImpl.obj
 0001:000b3870       ?getUserData@DOMEntityReferenceImpl@xercesc_2_2@@UBEPAXPBG@Z 120b4870 f   DOMDocumentFragmentImpl.obj
 0001:000b3870       ?getUserData@DOMDocumentFragmentImpl@xercesc_2_2@@UBEPAXPBG@Z 120b4870 f   DOMDocumentFragmentImpl.obj
 0001:000b3870       ?getUserData@DOMDocumentTypeImpl@xercesc_2_2@@UBEPAXPBG@Z 120b4870 f   DOMDocumentFragmentImpl.obj
 0001:000b3870       ?getUserData@DOMTextImpl@xercesc_2_2@@UBEPAXPBG@Z 120b4870 f   DOMDocumentFragmentImpl.obj
 0001:000b3870       ?getUserData@DOMProcessingInstructionImpl@xercesc_2_2@@UBEPAXPBG@Z 120b4870 f   DOMDocumentFragmentImpl.obj
 0001:000b3870       ?getUserData@DOMNotationImpl@xercesc_2_2@@UBEPAXPBG@Z 120b4870 f   DOMDocumentFragmentImpl.obj
 0001:000b3870       ?getUserData@DOMDocumentImpl@xercesc_2_2@@UBEPAXPBG@Z 120b4870 f   DOMDocumentFragmentImpl.obj
 0001:000b3880       ?getBaseURI@DOMCommentImpl@xercesc_2_2@@UBEPBGXZ 120b4880 f   DOMDocumentFragmentImpl.obj
 0001:000b3880       ?getBaseURI@DOMDocumentTypeImpl@xercesc_2_2@@UBEPBGXZ 120b4880 f   DOMDocumentFragmentImpl.obj
 0001:000b3880       ?getBaseURI@DOMAttrImpl@xercesc_2_2@@UBEPBGXZ 120b4880 f   DOMDocumentFragmentImpl.obj
 0001:000b3880       ?getBaseURI@DOMDocumentFragmentImpl@xercesc_2_2@@UBEPBGXZ 120b4880 f   DOMDocumentFragmentImpl.obj
 0001:000b3880       ?getBaseURI@DOMTextImpl@xercesc_2_2@@UBEPBGXZ 120b4880 f   DOMDocumentFragmentImpl.obj
 0001:000b3880       ?getBaseURI@DOMCDATASectionImpl@xercesc_2_2@@UBEPBGXZ 120b4880 f   DOMDocumentFragmentImpl.obj
 0001:000b3890       ?compareTreePosition@DOMDocumentFragmentImpl@xercesc_2_2@@UBEFPBVDOMNode@2@@Z 120b4890 f   DOMDocumentFragmentImpl.obj
 0001:000b3890       ?compareTreePosition@DOMElementImpl@xercesc_2_2@@UBEFPBVDOMNode@2@@Z 120b4890 f   DOMDocumentFragmentImpl.obj
 0001:000b3890       ?compareTreePosition@DOMCDATASectionImpl@xercesc_2_2@@UBEFPBVDOMNode@2@@Z 120b4890 f   DOMDocumentFragmentImpl.obj
 0001:000b3890       ?compareTreePosition@DOMDocumentTypeImpl@xercesc_2_2@@UBEFPBVDOMNode@2@@Z 120b4890 f   DOMDocumentFragmentImpl.obj
 0001:000b3890       ?compareTreePosition@DOMAttrImpl@xercesc_2_2@@UBEFPBVDOMNode@2@@Z 120b4890 f   DOMDocumentFragmentImpl.obj
 0001:000b3890       ?compareTreePosition@DOMTextImpl@xercesc_2_2@@UBEFPBVDOMNode@2@@Z 120b4890 f   DOMDocumentFragmentImpl.obj
 0001:000b3890       ?compareTreePosition@DOMProcessingInstructionImpl@xercesc_2_2@@UBEFPBVDOMNode@2@@Z 120b4890 f   DOMDocumentFragmentImpl.obj
 0001:000b3890       ?compareTreePosition@DOMEntityImpl@xercesc_2_2@@UBEFPBVDOMNode@2@@Z 120b4890 f   DOMDocumentFragmentImpl.obj
 0001:000b3890       ?compareTreePosition@DOMDocumentImpl@xercesc_2_2@@UBEFPBVDOMNode@2@@Z 120b4890 f   DOMDocumentFragmentImpl.obj
 0001:000b3890       ?compareTreePosition@DOMNotationImpl@xercesc_2_2@@UBEFPBVDOMNode@2@@Z 120b4890 f   DOMDocumentFragmentImpl.obj
 0001:000b3890       ?compareTreePosition@DOMCommentImpl@xercesc_2_2@@UBEFPBVDOMNode@2@@Z 120b4890 f   DOMDocumentFragmentImpl.obj
 0001:000b3890       ?compareTreePosition@DOMEntityReferenceImpl@xercesc_2_2@@UBEFPBVDOMNode@2@@Z 120b4890 f   DOMDocumentFragmentImpl.obj
 0001:000b38a0       ??0DOMNodeFilter@xercesc_2_2@@IAE@XZ 120b48a0 f i DOMDocumentImpl.obj
 0001:000b38b0       ??0DOMNodeFilter@xercesc_2_2@@IAE@ABV01@@Z 120b48b0 f i DOMDocumentImpl.obj
 0001:000b38c0       ??1DOMNodeFilter@xercesc_2_2@@UAE@XZ 120b48c0 f i DOMDocumentImpl.obj
 0001:000b38c0       ??1DOMWriterFilter@xercesc_2_2@@UAE@XZ 120b48c0 f i DOMDocumentImpl.obj
 0001:000b38d0       ??_EDOMNodeFilter@xercesc_2_2@@UAEPAXI@Z 120b48d0 f i DOMDocumentImpl.obj
 0001:000b3930       ??0DOMTreeWalker@xercesc_2_2@@IAE@XZ 120b4930 f i DOMDocumentImpl.obj
 0001:000b3940       ??0DOMTreeWalker@xercesc_2_2@@IAE@ABV01@@Z 120b4940 f i DOMDocumentImpl.obj
 0001:000b3950       ??1DOMTreeWalker@xercesc_2_2@@UAE@XZ 120b4950 f i DOMDocumentImpl.obj
 0001:000b3950       ??1DOMTreeWalkerImpl@xercesc_2_2@@UAE@XZ 120b4950 f i DOMDocumentImpl.obj
 0001:000b3960       ??_EDOMTreeWalker@xercesc_2_2@@UAEPAXI@Z 120b4960 f i DOMDocumentImpl.obj
 0001:000b39c0       ??0DOMNodeIterator@xercesc_2_2@@IAE@XZ 120b49c0 f i DOMDocumentImpl.obj
 0001:000b39d0       ??0DOMNodeIterator@xercesc_2_2@@IAE@ABV01@@Z 120b49d0 f i DOMDocumentImpl.obj
 0001:000b39e0       ??1DOMNodeIterator@xercesc_2_2@@UAE@XZ 120b49e0 f i DOMDocumentImpl.obj
 0001:000b39f0       ??_EDOMNodeIterator@xercesc_2_2@@UAEPAXI@Z 120b49f0 f i DOMDocumentImpl.obj
 0001:000b3a50       ??0DOMDocumentImpl@xercesc_2_2@@QAE@XZ 120b4a50 f   DOMDocumentImpl.obj
 0001:000b3b60       ??0DOMDocumentImpl@xercesc_2_2@@QAE@PBG0PAVDOMDocumentType@1@@Z 120b4b60 f   DOMDocumentImpl.obj
 0001:000b3db0       ?setDocumentType@DOMDocumentImpl@xercesc_2_2@@QAEXPAVDOMDocumentType@2@@Z 120b4db0 f   DOMDocumentImpl.obj
 0001:000b3e10       ??1DOMDocumentImpl@xercesc_2_2@@UAE@XZ 120b4e10 f   DOMDocumentImpl.obj
 0001:000b4000       ?cloneNode@DOMDocumentImpl@xercesc_2_2@@UBEPAVDOMNode@2@_N@Z 120b5000 f   DOMDocumentImpl.obj
 0001:000b40f0       ?getNodeName@DOMDocumentImpl@xercesc_2_2@@UBEPBGXZ 120b50f0 f   DOMDocumentImpl.obj
 0001:000b4100       ?getNodeType@DOMDocumentImpl@xercesc_2_2@@UBEFXZ 120b5100 f   DOMDocumentImpl.obj
 0001:000b4100       ?getNodeType@DocumentImpl@xercesc_2_2@@UAEFXZ 120b5100 f   DOMDocumentImpl.obj
 0001:000b4110       ?getLength@NodeImpl@xercesc_2_2@@UAEIXZ 120b5110 f   DOMDocumentImpl.obj
 0001:000b4110       ?getParentNode@NotationImpl@xercesc_2_2@@UAEPAVNodeImpl@2@XZ 120b5110 f   DOMDocumentImpl.obj
 0001:000b4110       ?getNamespaceURI@DOMNodeImpl@xercesc_2_2@@QBEPBGXZ 120b5110 f   DOMDocumentImpl.obj
 0001:000b4110       ?getAttributes@NodeImpl@xercesc_2_2@@UAEPAVNamedNodeMapImpl@2@XZ 120b5110 f   DOMDocumentImpl.obj
 0001:000b4110       ?getLocalName@DOMNodeImpl@xercesc_2_2@@QBEPBGXZ 120b5110 f   DOMDocumentImpl.obj
 0001:000b4110       ?getParentNode@DOMNodeImpl@xercesc_2_2@@QBEPAVDOMNode@2@XZ 120b5110 f   DOMDocumentImpl.obj
 0001:000b4110       ?getLastChild@DOMNodeImpl@xercesc_2_2@@QBEPAVDOMNode@2@XZ 120b5110 f   DOMDocumentImpl.obj
 0001:000b4110       ?getContentLeafNameTypeVector@SimpleContentModel@xercesc_2_2@@UBEPAVContentLeafNameTypeVector@2@XZ 120b5110 f   DOMDocumentImpl.obj
 0001:000b4110       ?getNextSibling@DOMNodeImpl@xercesc_2_2@@QBEPAVDOMNode@2@XZ 120b5110 f   DOMDocumentImpl.obj
 0001:000b4110       ?getErrorHandler@DOMDocumentImpl@xercesc_2_2@@UBEPAVDOMErrorHandler@2@XZ 120b5110 f   DOMDocumentImpl.obj
 0001:000b4110       ?getAttributes@DOMNodeImpl@xercesc_2_2@@QBEPAVDOMNamedNodeMap@2@XZ 120b5110 f   DOMDocumentImpl.obj
 0001:000b4110       ?getNodeValue@DOMNodeImpl@xercesc_2_2@@QBEPBGXZ 120b5110 f   DOMDocumentImpl.obj
 0001:000b4110       ?getEntityDeclPool@WFXMLScanner@xercesc_2_2@@UAEPAV?$NameIdPool@VDTDEntityDecl@xercesc_2_2@@@2@XZ 120b5110 f   DOMDocumentImpl.obj
 0001:000b4110       ?processBacksolidus_I@RegxParser@xercesc_2_2@@MAEPAVToken@2@XZ 120b5110 f   DOMDocumentImpl.obj
 0001:000b4110       ?getPreviousSibling@NodeImpl@xercesc_2_2@@UAEPAV12@XZ 120b5110 f   DOMDocumentImpl.obj
 0001:000b4110       ?getPreviousSibling@DOMNodeImpl@xercesc_2_2@@QBEPAVDOMNode@2@XZ 120b5110 f   DOMDocumentImpl.obj
 0001:000b4110       ?getEnumString@AnySimpleTypeDatatypeValidator@xercesc_2_2@@UBEPBV?$RefArrayVectorOf@G@2@XZ 120b5110 f   DOMDocumentImpl.obj
 0001:000b4110       ?getEntityDeclPool@SGXMLScanner@xercesc_2_2@@UAEPAV?$NameIdPool@VDTDEntityDecl@xercesc_2_2@@@2@XZ 120b5110 f   DOMDocumentImpl.obj
 0001:000b4110       ?getLastChild@NodeImpl@xercesc_2_2@@UAEPAV12@XZ 120b5110 f   DOMDocumentImpl.obj
 0001:000b4110       ?getNextSibling@NodeImpl@xercesc_2_2@@UAEPAV12@XZ 120b5110 f   DOMDocumentImpl.obj
 0001:000b4110       ?getEntityDeclPool@WFXMLScanner@xercesc_2_2@@UBEPBV?$NameIdPool@VDTDEntityDecl@xercesc_2_2@@@2@XZ 120b5110 f   DOMDocumentImpl.obj
 0001:000b4110       ?getOwnerDocument@DocumentImpl@xercesc_2_2@@UAEPAV12@XZ 120b5110 f   DOMDocumentImpl.obj
 0001:000b4110       ?getSign@XMLDateTime@xercesc_2_2@@UBEHXZ 120b5110 f   DOMDocumentImpl.obj
 0001:000b4110       ?getOwnerDocument@DOMDocumentImpl@xercesc_2_2@@UBEPAVDOMDocument@2@XZ 120b5110 f   DOMDocumentImpl.obj
 0001:000b4110       ?getFirstChild@DOMNodeImpl@xercesc_2_2@@QBEPAVDOMNode@2@XZ 120b5110 f   DOMDocumentImpl.obj
 0001:000b4110       ?getEntityDeclPool@SGXMLScanner@xercesc_2_2@@UBEPBV?$NameIdPool@VDTDEntityDecl@xercesc_2_2@@@2@XZ 120b5110 f   DOMDocumentImpl.obj
 0001:000b4110       ?getFirstChild@NodeImpl@xercesc_2_2@@UAEPAV12@XZ 120b5110 f   DOMDocumentImpl.obj
 0001:000b4110       ?getTextContent@DOMNodeImpl@xercesc_2_2@@QBEPBGXZ 120b5110 f   DOMDocumentImpl.obj
 0001:000b4110       ?processBacksolidus_C@RegxParser@xercesc_2_2@@MAEPAVToken@2@XZ 120b5110 f   DOMDocumentImpl.obj
 0001:000b4110       ?getPrefix@DOMNodeImpl@xercesc_2_2@@QBEPBGXZ 120b5110 f   DOMDocumentImpl.obj
 0001:000b4110       ?getEnumString@BooleanDatatypeValidator@xercesc_2_2@@UBEPBV?$RefArrayVectorOf@G@2@XZ 120b5110 f   DOMDocumentImpl.obj
 0001:000b4110       ?getParentNode@NodeImpl@xercesc_2_2@@UAEPAV12@XZ 120b5110 f   DOMDocumentImpl.obj
 0001:000b4120       ?createAttribute@DOMDocumentImpl@xercesc_2_2@@UAEPAVDOMAttr@2@PBG@Z 120b5120 f   DOMDocumentImpl.obj
 0001:000b43a0       ?createCDATASection@DOMDocumentImpl@xercesc_2_2@@UAEPAVDOMCDATASection@2@PBG@Z 120b53a0 f   DOMDocumentImpl.obj
 0001:000b4560       ?createComment@DOMDocumentImpl@xercesc_2_2@@UAEPAVDOMComment@2@PBG@Z 120b5560 f   DOMDocumentImpl.obj
 0001:000b4720       ?createDocumentFragment@DOMDocumentImpl@xercesc_2_2@@UAEPAVDOMDocumentFragment@2@XZ 120b5720 f   DOMDocumentImpl.obj
 0001:000b48d0       ?createDocumentType@DOMDocumentImpl@xercesc_2_2@@UAEPAVDOMDocumentType@2@PBG@Z 120b58d0 f   DOMDocumentImpl.obj
 0001:000b4b50       ?createDocumentType@DOMDocumentImpl@xercesc_2_2@@UAEPAVDOMDocumentType@2@PBG00@Z 120b5b50 f   DOMDocumentImpl.obj
 0001:000b4de0       ?createElement@DOMDocumentImpl@xercesc_2_2@@UAEPAVDOMElement@2@PBG@Z 120b5de0 f   DOMDocumentImpl.obj
 0001:000b5060       ?createElementNoCheck@DOMDocumentImpl@xercesc_2_2@@UAEPAVDOMElement@2@PBG@Z 120b6060 f   DOMDocumentImpl.obj
 0001:000b5220       ?createEntity@DOMDocumentImpl@xercesc_2_2@@UAEPAVDOMEntity@2@PBG@Z 120b6220 f   DOMDocumentImpl.obj
 0001:000b54a0       ?createEntityReference@DOMDocumentImpl@xercesc_2_2@@UAEPAVDOMEntityReference@2@PBG@Z 120b64a0 f   DOMDocumentImpl.obj
 0001:000b5720       ?createNotation@DOMDocumentImpl@xercesc_2_2@@UAEPAVDOMNotation@2@PBG@Z 120b6720 f   DOMDocumentImpl.obj
 0001:000b59a0       ?createProcessingInstruction@DOMDocumentImpl@xercesc_2_2@@UAEPAVDOMProcessingInstruction@2@PBG0@Z 120b69a0 f   DOMDocumentImpl.obj
 0001:000b5c20       ?createTextNode@DOMDocumentImpl@xercesc_2_2@@UAEPAVDOMText@2@PBG@Z 120b6c20 f   DOMDocumentImpl.obj
 0001:000b5de0       ?createNodeIterator@DOMDocumentImpl@xercesc_2_2@@UAEPAVDOMNodeIterator@2@PAVDOMNode@2@KPAVDOMNodeFilter@2@_N@Z 120b6de0 f   DOMDocumentImpl.obj
 0001:000b5f50       ?getNodeIterators@DOMDocumentImpl@xercesc_2_2@@UBEPAV?$RefVectorOf@VDOMNodeIteratorImpl@xercesc_2_2@@@2@XZ 120b6f50 f   DOMDocumentImpl.obj
 0001:000b5f60       ?removeNodeIterator@DOMDocumentImpl@xercesc_2_2@@UAEXPAVDOMNodeIteratorImpl@2@@Z 120b6f60 f   DOMDocumentImpl.obj
 0001:000b6070       ?createTreeWalker@DOMDocumentImpl@xercesc_2_2@@UAEPAVDOMTreeWalker@2@PAVDOMNode@2@KPAVDOMNodeFilter@2@_N@Z 120b7070 f   DOMDocumentImpl.obj
 0001:000b6110       ?getDoctype@DOMDocumentImpl@xercesc_2_2@@UBEPAVDOMDocumentType@2@XZ 120b7110 f   DOMDocumentImpl.obj
 0001:000b6120       ?getDocumentElement@DOMDocumentImpl@xercesc_2_2@@UBEPAVDOMElement@2@XZ 120b7120 f   DOMDocumentImpl.obj
 0001:000b6130       ?getElementsByTagName@DOMDocumentImpl@xercesc_2_2@@UBEPAVDOMNodeList@2@PBG@Z 120b7130 f   DOMDocumentImpl.obj
 0001:000b6160       ?getImplementation@DOMDocumentImpl@xercesc_2_2@@UBEPAVDOMImplementation@2@XZ 120b7160 f   DOMDocumentImpl.obj
 0001:000b6170       ?insertBefore@DOMDocumentImpl@xercesc_2_2@@UAEPAVDOMNode@2@PAV32@0@Z 120b7170 f   DOMDocumentImpl.obj
 0001:000b6230       ?replaceChild@DOMDocumentImpl@xercesc_2_2@@UAEPAVDOMNode@2@PAV32@0@Z 120b7230 f   DOMDocumentImpl.obj
 0001:000b6310       ?isXMLName@DOMDocumentImpl@xercesc_2_2@@QAE_NPBG@Z 120b7310 f   DOMDocumentImpl.obj
 0001:000b63f0       ?removeChild@DOMDocumentImpl@xercesc_2_2@@UAEPAVDOMNode@2@PAV32@@Z 120b73f0 f   DOMDocumentImpl.obj
 0001:000b6440       ?importNode@DOMDocumentImpl@xercesc_2_2@@UAEPAVDOMNode@2@PAV32@_N@Z 120b7440 f   DOMDocumentImpl.obj
 0001:000b6460       ?createElementNS@DOMDocumentImpl@xercesc_2_2@@UAEPAVDOMElement@2@PBG0@Z 120b7460 f   DOMDocumentImpl.obj
 0001:000b66e0       ?createElementNS@DOMDocumentImpl@xercesc_2_2@@UAEPAVDOMElement@2@PBG0JJ@Z 120b76e0 f   DOMDocumentImpl.obj
 0001:000b6830       ?createAttributeNS@DOMDocumentImpl@xercesc_2_2@@UAEPAVDOMAttr@2@PBG0@Z 120b7830 f   DOMDocumentImpl.obj
 0001:000b6ab0       ?getElementsByTagNameNS@DOMDocumentImpl@xercesc_2_2@@UBEPAVDOMNodeList@2@PBG0@Z 120b7ab0 f   DOMDocumentImpl.obj
 0001:000b6ae0       ?getElementById@DOMDocumentImpl@xercesc_2_2@@UBEPAVDOMElement@2@PBG@Z 120b7ae0 f   DOMDocumentImpl.obj
 0001:000b6b10       ?indexofQualifiedName@DOMDocumentImpl@xercesc_2_2@@SAHPBG@Z 120b7b10 f   DOMDocumentImpl.obj
 0001:000b6b80       ?getActualEncoding@DOMEntityImpl@xercesc_2_2@@UBEPBGXZ 120b7b80 f   DOMDocumentImpl.obj
 0001:000b6b80       ?getAttributes@ElementImpl@xercesc_2_2@@UAEPAVNamedNodeMapImpl@2@XZ 120b7b80 f   DOMDocumentImpl.obj
 0001:000b6b80       ?getBaseURI@DOMDocumentImpl@xercesc_2_2@@UBEPBGXZ 120b7b80 f   DOMDocumentImpl.obj
 0001:000b6b80       ?getEntities@DocumentTypeImpl@xercesc_2_2@@UAEPAVNamedNodeMapImpl@2@XZ 120b7b80 f   DOMDocumentImpl.obj
 0001:000b6b80       ?getDocument@AbstractDOMParser@xercesc_2_2@@QAEPAVDOMDocument@2@XZ 120b7b80 f   DOMDocumentImpl.obj
 0001:000b6b80       ?getElements@DOMDocumentTypeImpl@xercesc_2_2@@UBEPAVDOMNamedNodeMap@2@XZ 120b7b80 f   DOMDocumentImpl.obj
 0001:000b6b80       ?getDocumentElement@DocumentImpl@xercesc_2_2@@UAEPAVElementImpl@2@XZ 120b7b80 f   DOMDocumentImpl.obj
 0001:000b6b90       ?createRange@DOMDocumentImpl@xercesc_2_2@@UAEPAVDOMRange@2@XZ 120b7b90 f   DOMDocumentImpl.obj
 0001:000b6cd0       ?getRanges@DOMDocumentImpl@xercesc_2_2@@UBEPAV?$RefVectorOf@VDOMRangeImpl@xercesc_2_2@@@2@XZ 120b7cd0 f   DOMDocumentImpl.obj
 0001:000b6ce0       ?removeRange@DOMDocumentImpl@xercesc_2_2@@UAEXPAVDOMRangeImpl@2@@Z 120b7ce0 f   DOMDocumentImpl.obj
 0001:000b6df0       ?isKidOK@DOMDocumentImpl@xercesc_2_2@@SA_NPAVDOMNode@2@0@Z 120b7df0 f   DOMDocumentImpl.obj
 0001:000b6e80       ?changed@DOMDocumentImpl@xercesc_2_2@@UAEXXZ 120b7e80 f   DOMDocumentImpl.obj
 0001:000b6e90       ?changes@DOMDocumentImpl@xercesc_2_2@@UBEHXZ 120b7e90 f   DOMDocumentImpl.obj
 0001:000b6ea0       ?validate@AbstractNumericValidator@xercesc_2_2@@UAEXQBG@Z 120b7ea0 f   DOMDocumentImpl.obj
 0001:000b6ea0       ?appendChild@DOMDocumentImpl@xercesc_2_2@@UAEPAVDOMNode@2@PAV32@@Z 120b7ea0 f   DOMDocumentImpl.obj
 0001:000b6ea0       ?validate@DateTimeValidator@xercesc_2_2@@UAEXQBG@Z 120b7ea0 f   DOMDocumentImpl.obj
 0001:000b6eb0       ?cloneString@DOMDocumentImpl@xercesc_2_2@@QAEPAGPBG@Z 120b7eb0 f   DOMDocumentImpl.obj
 0001:000b6f10       ?getPooledString@DOMDocumentImpl@xercesc_2_2@@QAEPBGPBG@Z 120b7f10 f   DOMDocumentImpl.obj
 0001:000b6f30       ?allocate@DOMDocumentImpl@xercesc_2_2@@QAEPAXI@Z 120b7f30 f   DOMDocumentImpl.obj
 0001:000b7120       ?deleteHeap@DOMDocumentImpl@xercesc_2_2@@QAEXXZ 120b8120 f   DOMDocumentImpl.obj
 0001:000b7150       ?getDeepNodeList@DOMDocumentImpl@xercesc_2_2@@QAEPAVDOMNodeList@2@PBVDOMNode@2@PBG@Z 120b8150 f   DOMDocumentImpl.obj
 0001:000b7440       ?getDeepNodeList@DOMDocumentImpl@xercesc_2_2@@QAEPAVDOMNodeList@2@PBVDOMNode@2@PBG1@Z 120b8440 f   DOMDocumentImpl.obj
 0001:000b7740       ?setActualEncoding@DOMDocumentImpl@xercesc_2_2@@UAEXPBG@Z 120b8740 f   DOMDocumentImpl.obj
 0001:000b77a0       ?setEncoding@DOMDocumentImpl@xercesc_2_2@@UAEXPBG@Z 120b87a0 f   DOMDocumentImpl.obj
 0001:000b7800       ?getStandalone@DOMDocumentImpl@xercesc_2_2@@UBE_NXZ 120b8800 f   DOMDocumentImpl.obj
 0001:000b7810       ?setStandalone@DOMDocumentImpl@xercesc_2_2@@UAEX_N@Z 120b8810 f   DOMDocumentImpl.obj
 0001:000b7820       ?setVersion@DOMDocumentImpl@xercesc_2_2@@UAEXPBG@Z 120b8820 f   DOMDocumentImpl.obj
 0001:000b7910       ?setDocumentURI@DOMDocumentImpl@xercesc_2_2@@UAEXPBG@Z 120b8910 f   DOMDocumentImpl.obj
 0001:000b7970       ?getStrictErrorChecking@DOMDocumentImpl@xercesc_2_2@@UBE_NXZ 120b8970 f   DOMDocumentImpl.obj
 0001:000b7980       ?setStrictErrorChecking@DOMDocumentImpl@xercesc_2_2@@UAEX_N@Z 120b8980 f   DOMDocumentImpl.obj
 0001:000b7990       ?expandSystemId@SAX2XMLReaderImpl@xercesc_2_2@@UAE_NQBGAAVXMLBuffer@2@@Z 120b8990 f   DOMDocumentImpl.obj
 0001:000b7990       ?canSetNormalizationFeature@DOMDocumentImpl@xercesc_2_2@@UBE_NQBG_N@Z 120b8990 f   DOMDocumentImpl.obj
 0001:000b7990       ?expandSystemId@SAXParser@xercesc_2_2@@UAE_NQBGAAVXMLBuffer@2@@Z 120b8990 f   DOMDocumentImpl.obj
 0001:000b79a0       ?getInterface@DOMImplementationImpl@xercesc_2_2@@UAEPAVDOMImplementation@2@PBG@Z 120b89a0 f   DOMDocumentImpl.obj
 0001:000b79a0       ?normalizeDocument@DOMDocumentImpl@xercesc_2_2@@UAEXXZ 120b89a0 f   DOMDocumentImpl.obj
 0001:000b79a0       ?parseWithContext@DOMBuilderImpl@xercesc_2_2@@UAEXABVDOMInputSource@2@QAVDOMNode@2@F@Z 120b89a0 f   DOMDocumentImpl.obj
 0001:000b79a0       ?setErrorHandler@DOMDocumentImpl@xercesc_2_2@@UAEXQAVDOMErrorHandler@2@@Z 120b89a0 f   DOMDocumentImpl.obj
 0001:000b79a0       ?replaceWholeText@DOMTextImpl@xercesc_2_2@@UAEPAVDOMText@2@PBG@Z 120b89a0 f   DOMDocumentImpl.obj
 0001:000b79a0       ?setRelatedException@DOMErrorImpl@xercesc_2_2@@UBEXPAX@Z 120b89a0 f   DOMDocumentImpl.obj
 0001:000b79a0       ?setTextContent@DOMNodeImpl@xercesc_2_2@@QAEXPBG@Z 120b89a0 f   DOMDocumentImpl.obj
 0001:000b79a0       ?setNormalizationFeature@DOMDocumentImpl@xercesc_2_2@@UAEXQBG_N@Z 120b89a0 f   DOMDocumentImpl.obj
 0001:000b79a0       ?createDOMInputSource@DOMImplementationImpl@xercesc_2_2@@UAEPAVDOMInputSource@2@XZ 120b89a0 f   DOMDocumentImpl.obj
 0001:000b79a0       ?getInterface@DOMNodeImpl@xercesc_2_2@@QAEPAVDOMNode@2@PBG@Z 120b89a0 f   DOMDocumentImpl.obj
 0001:000b79a0       ?adoptNode@DOMDocumentImpl@xercesc_2_2@@UAEPAVDOMNode@2@PAV32@@Z 120b89a0 f   DOMDocumentImpl.obj
 0001:000b79a0       ?getWholeText@DOMTextImpl@xercesc_2_2@@UAEPBGXZ 120b89a0 f   DOMDocumentImpl.obj
 0001:000b79a0       ?setFilter@DOMBuilderImpl@xercesc_2_2@@UAEXQAVDOMBuilderFilter@2@@Z 120b89a0 f   DOMDocumentImpl.obj
 0001:000b79a0       ?replaceWholeText@DOMCDATASectionImpl@xercesc_2_2@@UAEPAVDOMText@2@PBG@Z 120b89a0 f   DOMDocumentImpl.obj
 0001:000b79a0       ?getWholeText@DOMCDATASectionImpl@xercesc_2_2@@UAEPBGXZ 120b89a0 f   DOMDocumentImpl.obj
 0001:000b79c0       ?getNormalizationFeature@DOMDocumentImpl@xercesc_2_2@@UBE_NQBG@Z 120b89c0 f   DOMDocumentImpl.obj
 0001:000b79c0       ?removeChild@DOMNodeImpl@xercesc_2_2@@QAEPAVDOMNode@2@PAV32@@Z 120b89c0 f   DOMDocumentImpl.obj
 0001:000b79e0       ?importNode@DOMDocumentImpl@xercesc_2_2@@EAEPAVDOMNode@2@PAV32@_N1@Z 120b89e0 f   DOMDocumentImpl.obj
 0001:000b7f20       ?setUserData@DOMDocumentImpl@xercesc_2_2@@QAEPAXPAVDOMNodeImpl@2@PBGPAXPAVDOMUserDataHandler@2@@Z 120b8f20 f   DOMDocumentImpl.obj
 0001:000b8210       ?getUserData@DOMDocumentImpl@xercesc_2_2@@QBEPAXPBVDOMNodeImpl@2@PBG@Z 120b9210 f   DOMDocumentImpl.obj
 0001:000b8310       ?callUserDataHandlers@DOMDocumentImpl@xercesc_2_2@@QBEXPBVDOMNodeImpl@2@W4DOMOperationType@DOMUserDataHandler@2@PBVDOMNode@2@2@Z 120b9310 f   DOMDocumentImpl.obj
 0001:000b84a0       ?transferUserData@DOMDocumentImpl@xercesc_2_2@@QAEXPAVDOMNodeImpl@2@0@Z 120b94a0 f   DOMDocumentImpl.obj
 0001:000b85a0       ?renameNode@DOMDocumentImpl@xercesc_2_2@@UAEPAVDOMNode@2@PAV32@PBG1@Z 120b95a0 f   DOMDocumentImpl.obj
 0001:000b8660       ?release@DOMDocumentImpl@xercesc_2_2@@UAEXXZ 120b9660 f   DOMDocumentImpl.obj
 0001:000b86f0       ?releaseDocNotifyUserData@DOMDocumentImpl@xercesc_2_2@@QAEXPAVDOMNode@2@@Z 120b96f0 f   DOMDocumentImpl.obj
 0001:000b8740       ?release@DOMDocumentImpl@xercesc_2_2@@QAEXPAVDOMNode@2@W4NodeObjectType@12@@Z 120b9740 f   DOMDocumentImpl.obj
 0001:000b8990       ?releaseBuffer@DOMDocumentImpl@xercesc_2_2@@QAEXPAVDOMBuffer@2@@Z 120b9990 f   DOMDocumentImpl.obj
 0001:000b8ab0       ?popBuffer@DOMDocumentImpl@xercesc_2_2@@QAEPAVDOMBuffer@2@XZ 120b9ab0 f   DOMDocumentImpl.obj
 0001:000b8b80       ?allocate@DOMDocumentImpl@xercesc_2_2@@QAEPAXIW4NodeObjectType@12@@Z 120b9b80 f   DOMDocumentImpl.obj
 0001:000b8ca0       ??1?$XMLEnumerator@V?$KeyRefPair@XVDOMUserDataHandler@xercesc_2_2@@@xercesc_2_2@@@xercesc_2_2@@UAE@XZ 120b9ca0 f i DOMDocumentImpl.obj
 0001:000b8cb0       ??_E?$XMLEnumerator@V?$KeyRefPair@XVDOMUserDataHandler@xercesc_2_2@@@xercesc_2_2@@@xercesc_2_2@@UAEPAXI@Z 120b9cb0 f i DOMDocumentImpl.obj
 0001:000b8cb0       ??_G?$XMLEnumerator@V?$KeyRefPair@XVDOMUserDataHandler@xercesc_2_2@@@xercesc_2_2@@@xercesc_2_2@@UAEPAXI@Z 120b9cb0 f i DOMDocumentImpl.obj
 0001:000b8cd0       ?put@?$RefHashTableOf@V?$RefHashTableOf@V?$KeyRefPair@XVDOMUserDataHandler@xercesc_2_2@@@xercesc_2_2@@@xercesc_2_2@@@xercesc_2_2@@QAEXPAXQAV?$RefHashTableOf@V?$KeyRefPair@XVDOMUserDataHandler@xercesc_2_2@@@xercesc_2_2@@@2@@Z 120b9cd0 f i DOMDocumentImpl.obj
 0001:000b8e50       ??A?$RefArrayOf@V?$RefStackOf@VDOMNode@xercesc_2_2@@@xercesc_2_2@@@xercesc_2_2@@QAEAAPAV?$RefStackOf@VDOMNode@xercesc_2_2@@@1@I@Z 120b9e50 f i DOMDocumentImpl.obj
 0001:000b8e90       ??1?$RefVectorOf@VDOMBuffer@xercesc_2_2@@@xercesc_2_2@@UAE@XZ 120b9e90 f i DOMDocumentImpl.obj
 0001:000b8f10       ??1?$BaseRefVectorOf@VDOMBuffer@xercesc_2_2@@@xercesc_2_2@@UAE@XZ 120b9f10 f i DOMDocumentImpl.obj
 0001:000b8f20       ??1?$RefHashTableOfEnumerator@V?$KeyRefPair@XVDOMUserDataHandler@xercesc_2_2@@@xercesc_2_2@@@xercesc_2_2@@UAE@XZ 120b9f20 f i DOMDocumentImpl.obj
 0001:000b9000       ??1?$RefVectorOf@VDOMNode@xercesc_2_2@@@xercesc_2_2@@UAE@XZ 120ba000 f i DOMDocumentImpl.obj
 0001:000b9080       ??1?$BaseRefVectorOf@VDOMNode@xercesc_2_2@@@xercesc_2_2@@UAE@XZ 120ba080 f i DOMDocumentImpl.obj
 0001:000b9090       ?pop@?$RefStackOf@VDOMNode@xercesc_2_2@@@xercesc_2_2@@QAEPAVDOMNode@2@XZ 120ba090 f i DOMDocumentImpl.obj
 0001:000b9140       ??_E?$RefVectorOf@VDOMRangeImpl@xercesc_2_2@@@xercesc_2_2@@UAEPAXI@Z 120ba140 f i DOMDocumentImpl.obj
 0001:000b9140       ??_G?$RefVectorOf@VDOMRangeImpl@xercesc_2_2@@@xercesc_2_2@@UAEPAXI@Z 120ba140 f i DOMDocumentImpl.obj
 0001:000b9160       ??1?$RefVectorOf@VDOMRangeImpl@xercesc_2_2@@@xercesc_2_2@@UAE@XZ 120ba160 f i DOMDocumentImpl.obj
 0001:000b91e0       ??1?$BaseRefVectorOf@VDOMRangeImpl@xercesc_2_2@@@xercesc_2_2@@UAE@XZ 120ba1e0 f i DOMDocumentImpl.obj
 0001:000b91f0       ??_G?$RefVectorOf@VDOMNodeIteratorImpl@xercesc_2_2@@@xercesc_2_2@@UAEPAXI@Z 120ba1f0 f i DOMDocumentImpl.obj
 0001:000b91f0       ??_E?$RefVectorOf@VDOMNodeIteratorImpl@xercesc_2_2@@@xercesc_2_2@@UAEPAXI@Z 120ba1f0 f i DOMDocumentImpl.obj
 0001:000b9210       ??1?$RefVectorOf@VDOMNodeIteratorImpl@xercesc_2_2@@@xercesc_2_2@@UAE@XZ 120ba210 f i DOMDocumentImpl.obj
 0001:000b9290       ??1?$BaseRefVectorOf@VDOMNodeIteratorImpl@xercesc_2_2@@@xercesc_2_2@@UAE@XZ 120ba290 f i DOMDocumentImpl.obj
 0001:000b92a0       ??_G?$RefVectorOf@VDOMBuffer@xercesc_2_2@@@xercesc_2_2@@UAEPAXI@Z 120ba2a0 f i DOMDocumentImpl.obj
 0001:000b92a0       ??_E?$RefVectorOf@VDOMBuffer@xercesc_2_2@@@xercesc_2_2@@UAEPAXI@Z 120ba2a0 f i DOMDocumentImpl.obj
 0001:000b92c0       ??_E?$RefHashTableOfEnumerator@V?$KeyRefPair@XVDOMUserDataHandler@xercesc_2_2@@@xercesc_2_2@@@xercesc_2_2@@UAEPAXI@Z 120ba2c0 f i DOMDocumentImpl.obj
 0001:000b92c0       ??_G?$RefHashTableOfEnumerator@V?$KeyRefPair@XVDOMUserDataHandler@xercesc_2_2@@@xercesc_2_2@@@xercesc_2_2@@UAEPAXI@Z 120ba2c0 f i DOMDocumentImpl.obj
 0001:000b92e0       ??_E?$RefVectorOf@VDOMNode@xercesc_2_2@@@xercesc_2_2@@UAEPAXI@Z 120ba2e0 f i DOMDocumentImpl.obj
 0001:000b92e0       ??_G?$RefVectorOf@VDOMNode@xercesc_2_2@@@xercesc_2_2@@UAEPAXI@Z 120ba2e0 f i DOMDocumentImpl.obj
 0001:000b9300       ?removeAll@?$DOMDeepNodeListPool@VDOMDeepNodeListImpl@xercesc_2_2@@@xercesc_2_2@@QAEXXZ 120ba300 f i DOMDocumentImpl.obj
 0001:000b9380       ?findBucketElem@?$DOMDeepNodeListPool@VDOMDeepNodeListImpl@xercesc_2_2@@@xercesc_2_2@@AAEPAU?$DOMDeepNodeListPoolTableBucketElem@VDOMDeepNodeListImpl@xercesc_2_2@@@2@QBXQBG1AAK@Z 120ba380 f i DOMDocumentImpl.obj
 0001:000b94f0       ?removeAll@?$RefHashTableOf@V?$RefHashTableOf@V?$KeyRefPair@XVDOMUserDataHandler@xercesc_2_2@@@xercesc_2_2@@@xercesc_2_2@@@xercesc_2_2@@QAEXXZ 120ba4f0 f i DOMDocumentImpl.obj
 0001:000b95f0       ?initialize@?$RefHashTableOf@V?$ValueVectorOf@PAVSchemaElementDecl@xercesc_2_2@@@xercesc_2_2@@@xercesc_2_2@@AAEXI@Z 120ba5f0 f i DOMDocumentImpl.obj
 0001:000b95f0       ?initialize@?$RefHashTableOf@VKVStringPair@xercesc_2_2@@@xercesc_2_2@@AAEXI@Z 120ba5f0 f i DOMDocumentImpl.obj
 0001:000b95f0       ?initialize@?$RefHashTableOf@VDTDAttDef@xercesc_2_2@@@xercesc_2_2@@AAEXI@Z 120ba5f0 f i DOMDocumentImpl.obj
 0001:000b95f0       ?initialize@?$RefHashTableOf@VXMLRefInfo@xercesc_2_2@@@xercesc_2_2@@AAEXI@Z 120ba5f0 f i DOMDocumentImpl.obj
 0001:000b95f0       ?initialize@?$RefHashTableOf@VDatatypeValidator@xercesc_2_2@@@xercesc_2_2@@AAEXI@Z 120ba5f0 f i DOMDocumentImpl.obj
 0001:000b95f0       ?initialize@?$RefHashTableOf@VXMLAttDef@xercesc_2_2@@@xercesc_2_2@@AAEXI@Z 120ba5f0 f i DOMDocumentImpl.obj
 0001:000b95f0       ?initialize@?$RefHashTableOf@VXercesAttGroupInfo@xercesc_2_2@@@xercesc_2_2@@AAEXI@Z 120ba5f0 f i DOMDocumentImpl.obj
 0001:000b95f0       ?initialize@?$RefHashTableOf@VXercesGroupInfo@xercesc_2_2@@@xercesc_2_2@@AAEXI@Z 120ba5f0 f i DOMDocumentImpl.obj
 0001:000b95f0       ?initialize@?$RefHashTableOf@VXMLElementDecl@xercesc_2_2@@@xercesc_2_2@@AAEXI@Z 120ba5f0 f i DOMDocumentImpl.obj
 0001:000b95f0       ?initialize@?$RefHashTableOf@V?$RefHashTableOf@V?$KeyRefPair@XVDOMUserDataHandler@xercesc_2_2@@@xercesc_2_2@@@xercesc_2_2@@@xercesc_2_2@@AAEXI@Z 120ba5f0 f i DOMDocumentImpl.obj
 0001:000b95f0       ?initialize@?$RefHashTableOf@VGrammar@xercesc_2_2@@@xercesc_2_2@@AAEXI@Z 120ba5f0 f i DOMDocumentImpl.obj
 0001:000b95f0       ?initialize@?$RefHashTableOf@V?$KeyRefPair@XVDOMUserDataHandler@xercesc_2_2@@@xercesc_2_2@@@xercesc_2_2@@AAEXI@Z 120ba5f0 f i DOMDocumentImpl.obj
 0001:000b95f0       ?initialize@?$RefHashTableOf@VComplexTypeInfo@xercesc_2_2@@@xercesc_2_2@@AAEXI@Z 120ba5f0 f i DOMDocumentImpl.obj
 0001:000b9660       ??1?$RefHashTableOf@V?$KeyRefPair@XVDOMUserDataHandler@xercesc_2_2@@@xercesc_2_2@@@xercesc_2_2@@QAE@XZ 120ba660 f i DOMDocumentImpl.obj
 0001:000b96d0       ?removeBucketElem@?$RefHashTableOf@V?$KeyRefPair@XVDOMUserDataHandler@xercesc_2_2@@@xercesc_2_2@@@xercesc_2_2@@AAEXQBXAAI@Z 120ba6d0 f i DOMDocumentImpl.obj
 0001:000b97b0       ?removeAll@?$RefHashTableOf@V?$KeyRefPair@XVDOMUserDataHandler@xercesc_2_2@@@xercesc_2_2@@@xercesc_2_2@@QAEXXZ 120ba7b0 f i DOMDocumentImpl.obj
 0001:000b9810       ??0?$BaseRefVectorOf@VDOMNode@xercesc_2_2@@@xercesc_2_2@@QAE@I_N@Z 120ba810 f i DOMDocumentImpl.obj
 0001:000b9870       ??0DOMDocumentTypeImpl@xercesc_2_2@@QAE@PAVDOMDocument@1@PBG_N@Z 120ba870 f   DOMDocumentTypeImpl.obj
 0001:000b9a60       ??0DOMDocumentTypeImpl@xercesc_2_2@@QAE@PAVDOMDocument@1@PBG11_N@Z 120baa60 f   DOMDocumentTypeImpl.obj
 0001:000b9eb0       ??0DOMDocumentTypeImpl@xercesc_2_2@@QAE@ABV01@_N1@Z 120baeb0 f   DOMDocumentTypeImpl.obj
 0001:000ba0f0       ??1DOMDocumentTypeImpl@xercesc_2_2@@UAE@XZ 120bb0f0 f   DOMDocumentTypeImpl.obj
 0001:000ba1c0       ?cloneNode@DOMDocumentTypeImpl@xercesc_2_2@@UBEPAVDOMNode@2@_N@Z 120bb1c0 f   DOMDocumentTypeImpl.obj
 0001:000ba280       ?setOwnerDocument@DOMDocumentTypeImpl@xercesc_2_2@@UAEXPAVDOMDocument@2@@Z 120bb280 f   DOMDocumentTypeImpl.obj
 0001:000ba380       ?setNodeValue@DOMNotationImpl@xercesc_2_2@@UAEXPBG@Z 120bb380 f   DOMDocumentTypeImpl.obj
 0001:000ba380       ?setNodeValue@DOMDocumentFragmentImpl@xercesc_2_2@@UAEXPBG@Z 120bb380 f   DOMDocumentTypeImpl.obj
 0001:000ba380       ?setNodeValue@DOMEntityReferenceImpl@xercesc_2_2@@UAEXPBG@Z 120bb380 f   DOMDocumentTypeImpl.obj
 0001:000ba380       ?setNodeValue@DOMDocumentTypeImpl@xercesc_2_2@@UAEXPBG@Z 120bb380 f   DOMDocumentTypeImpl.obj
 0001:000ba380       ?setNodeValue@DOMElementImpl@xercesc_2_2@@UAEXPBG@Z 120bb380 f   DOMDocumentTypeImpl.obj
 0001:000ba380       ?setNodeValue@DOMDocumentImpl@xercesc_2_2@@UAEXPBG@Z 120bb380 f   DOMDocumentTypeImpl.obj
 0001:000ba380       ?setNodeValue@DOMEntityImpl@xercesc_2_2@@UAEXPBG@Z 120bb380 f   DOMDocumentTypeImpl.obj
 0001:000ba390       ?setReadOnly@DOMDocumentTypeImpl@xercesc_2_2@@UAEX_N0@Z 120bb390 f   DOMDocumentTypeImpl.obj
 0001:000ba3d0       ?getInternalSubset@DOMDocumentTypeImpl@xercesc_2_2@@UBEPBGXZ 120bb3d0 f   DOMDocumentTypeImpl.obj
 0001:000ba3d0       ?getContentLeafNameTypeVector@DFAContentModel@xercesc_2_2@@UBEPAVContentLeafNameTypeVector@2@XZ 120bb3d0 f   DOMDocumentTypeImpl.obj
 0001:000ba3d0       ?getEntityRef@EntityImpl@xercesc_2_2@@UBEPAVEntityReferenceImpl@2@XZ 120bb3d0 f   DOMDocumentTypeImpl.obj
 0001:000ba3d0       ?getBaseURI@DOMEntityImpl@xercesc_2_2@@UBEPBGXZ 120bb3d0 f   DOMDocumentTypeImpl.obj
 0001:000ba3d0       ?getPrefix@DOMElementNSImpl@xercesc_2_2@@UBEPBGXZ 120bb3d0 f   DOMDocumentTypeImpl.obj
 0001:000ba3e0       ?isIntSubsetReading@DOMDocumentTypeImpl@xercesc_2_2@@ABE_NXZ 120bb3e0 f   DOMDocumentTypeImpl.obj
 0001:000ba3f0       ?setPublicId@DOMDocumentTypeImpl@xercesc_2_2@@EAEXPBG@Z 120bb3f0 f   DOMDocumentTypeImpl.obj
 0001:000ba480       ?setSystemId@DOMDocumentTypeImpl@xercesc_2_2@@EAEXPBG@Z 120bb480 f   DOMDocumentTypeImpl.obj
 0001:000ba510       ?setInternalSubset@DOMDocumentTypeImpl@xercesc_2_2@@EAEXPBG@Z 120bb510 f   DOMDocumentTypeImpl.obj
 0001:000ba5a0       ?release@DOMDocumentTypeImpl@xercesc_2_2@@UAEXXZ 120bb5a0 f   DOMDocumentTypeImpl.obj
 0001:000ba660       ?isEqualNode@DOMDocumentTypeImpl@xercesc_2_2@@UBE_NPBVDOMNode@2@@Z 120bb660 f   DOMDocumentTypeImpl.obj
 0001:000baa00       ??0DOMElementImpl@xercesc_2_2@@QAE@PAVDOMDocument@1@PBG@Z 120bba00 f   DOMElementImpl.obj
 0001:000bab30       ??_EDOMElementImpl@xercesc_2_2@@UAEPAXI@Z 120bbb30 f i DOMElementImpl.obj
 0001:000bab90       ??0DOMElementImpl@xercesc_2_2@@QAE@ABV01@_N@Z 120bbb90 f   DOMElementImpl.obj
 0001:000bad30       ??1DOMElementImpl@xercesc_2_2@@UAE@XZ 120bbd30 f   DOMElementImpl.obj
 0001:000bada0       ?cloneNode@DOMElementImpl@xercesc_2_2@@UBEPAVDOMNode@2@_N@Z 120bbda0 f   DOMElementImpl.obj
 0001:000bae20       ?getNodeType@ElementImpl@xercesc_2_2@@UAEFXZ 120bbe20 f   DOMElementImpl.obj
 0001:000bae20       ?getNodeType@DOMElementImpl@xercesc_2_2@@UBEFXZ 120bbe20 f   DOMElementImpl.obj
 0001:000bae30       ?getAttribute@DOMElementImpl@xercesc_2_2@@UBEPBGPBG@Z 120bbe30 f   DOMElementImpl.obj
 0001:000bae50       ?getAttributeNode@DOMElementImpl@xercesc_2_2@@UBEPAVDOMAttr@2@PBG@Z 120bbe50 f   DOMElementImpl.obj
 0001:000bae60       ?getElementsByTagName@DOMElementImpl@xercesc_2_2@@UBEPAVDOMNodeList@2@PBG@Z 120bbe60 f   DOMElementImpl.obj
 0001:000bae80       ?removeAttribute@DOMElementImpl@xercesc_2_2@@UAEXPBG@Z 120bbe80 f   DOMElementImpl.obj
 0001:000baef0       ?removeAttributeNode@DOMElementImpl@xercesc_2_2@@UAEPAVDOMAttr@2@PAV32@@Z 120bbef0 f   DOMElementImpl.obj
 0001:000bafd0       ?setAttribute@DOMElementImpl@xercesc_2_2@@UAEXPBG0@Z 120bbfd0 f   DOMElementImpl.obj
 0001:000bb050       ?setIdAttribute@DOMElementImpl@xercesc_2_2@@UAEXPBG@Z 120bc050 f   DOMElementImpl.obj
 0001:000bb0c0       ?setIdAttributeNS@DOMElementImpl@xercesc_2_2@@UAEXPBG0@Z 120bc0c0 f   DOMElementImpl.obj
 0001:000bb130       ?setIdAttributeNode@DOMElementImpl@xercesc_2_2@@UAEXPBVDOMAttr@2@@Z 120bc130 f   DOMElementImpl.obj
 0001:000bb1d0       ?setAttributeNode@DOMElementImpl@xercesc_2_2@@UAEPAVDOMAttr@2@PAV32@@Z 120bc1d0 f   DOMElementImpl.obj
 0001:000bb240       ?setReadOnly@DOMElementImpl@xercesc_2_2@@UAEX_N0@Z 120bc240 f   DOMElementImpl.obj
 0001:000bb270       ?getAttributeNS@DOMElementImpl@xercesc_2_2@@UBEPBGPBG0@Z 120bc270 f   DOMElementImpl.obj
 0001:000bb2a0       ?setAttributeNS@DOMElementImpl@xercesc_2_2@@UAEXPBG00@Z 120bc2a0 f   DOMElementImpl.obj
 0001:000bb320       ?removeAttributeNS@DOMElementImpl@xercesc_2_2@@UAEXPBG0@Z 120bc320 f   DOMElementImpl.obj
 0001:000bb380       ?getAttributeNodeNS@DOMElementImpl@xercesc_2_2@@UBEPAVDOMAttr@2@PBG0@Z 120bc380 f   DOMElementImpl.obj
 0001:000bb3a0       ?setAttributeNodeNS@DOMElementImpl@xercesc_2_2@@UAEPAVDOMAttr@2@PAV32@@Z 120bc3a0 f   DOMElementImpl.obj
 0001:000bb420       ?getElementsByTagNameNS@DOMElementImpl@xercesc_2_2@@UBEPAVDOMNodeList@2@PBG0@Z 120bc420 f   DOMElementImpl.obj
 0001:000bb440       ?hasAttributes@DOMElementImpl@xercesc_2_2@@UBE_NXZ 120bc440 f   DOMElementImpl.obj
 0001:000bb460       ?hasAttribute@DOMElementImpl@xercesc_2_2@@UBE_NPBG@Z 120bc460 f   DOMElementImpl.obj
 0001:000bb480       ?hasAttributeNS@DOMElementImpl@xercesc_2_2@@UBE_NPBG0@Z 120bc480 f   DOMElementImpl.obj
 0001:000bb4a0       ?setupDefaultAttributes@DOMElementImpl@xercesc_2_2@@MAEXXZ 120bc4a0 f   DOMElementImpl.obj
 0001:000bb570       ?setDefaultAttributeNode@DOMElementImpl@xercesc_2_2@@UAEPAVDOMAttr@2@PAV32@@Z 120bc570 f   DOMElementImpl.obj
 0001:000bb5f0       ?setDefaultAttributeNodeNS@DOMElementImpl@xercesc_2_2@@UAEPAVDOMAttr@2@PAV32@@Z 120bc5f0 f   DOMElementImpl.obj
 0001:000bb680       ?release@DOMElementImpl@xercesc_2_2@@UAEXXZ 120bc680 f   DOMElementImpl.obj
 0001:000bb710       ?getBaseURI@DOMElementImpl@xercesc_2_2@@UBEPBGXZ 120bc710 f   DOMElementImpl.obj
 0001:000bb850       ?setUserData@DOMEntityImpl@xercesc_2_2@@UAEPAXPBGPAXPAVDOMUserDataHandler@2@@Z 120bc850 f   DOMElementImpl.obj
 0001:000bb850       ?setUserData@DOMTextImpl@xercesc_2_2@@UAEPAXPBGPAXPAVDOMUserDataHandler@2@@Z 120bc850 f   DOMElementImpl.obj
 0001:000bb850       ?setUserData@DOMDocumentImpl@xercesc_2_2@@UAEPAXPBGPAXPAVDOMUserDataHandler@2@@Z 120bc850 f   DOMElementImpl.obj
 0001:000bb850       ?setUserData@DOMElementImpl@xercesc_2_2@@UAEPAXPBGPAXPAVDOMUserDataHandler@2@@Z 120bc850 f   DOMElementImpl.obj
 0001:000bb850       ?setUserData@DOMDocumentFragmentImpl@xercesc_2_2@@UAEPAXPBGPAXPAVDOMUserDataHandler@2@@Z 120bc850 f   DOMElementImpl.obj
 0001:000bb850       ?setUserData@DOMEntityReferenceImpl@xercesc_2_2@@UAEPAXPBGPAXPAVDOMUserDataHandler@2@@Z 120bc850 f   DOMElementImpl.obj
 0001:000bb850       ?setUserData@DOMDocumentTypeImpl@xercesc_2_2@@UAEPAXPBGPAXPAVDOMUserDataHandler@2@@Z 120bc850 f   DOMElementImpl.obj
 0001:000bb850       ?setUserData@DOMAttrImpl@xercesc_2_2@@UAEPAXPBGPAXPAVDOMUserDataHandler@2@@Z 120bc850 f   DOMElementImpl.obj
 0001:000bb850       ?setUserData@DOMProcessingInstructionImpl@xercesc_2_2@@UAEPAXPBGPAXPAVDOMUserDataHandler@2@@Z 120bc850 f   DOMElementImpl.obj
 0001:000bb850       ?setUserData@DOMCDATASectionImpl@xercesc_2_2@@UAEPAXPBGPAXPAVDOMUserDataHandler@2@@Z 120bc850 f   DOMElementImpl.obj
 0001:000bb850       ?setUserData@DOMNotationImpl@xercesc_2_2@@UAEPAXPBGPAXPAVDOMUserDataHandler@2@@Z 120bc850 f   DOMElementImpl.obj
 0001:000bb850       ?setUserData@DOMCommentImpl@xercesc_2_2@@UAEPAXPBGPAXPAVDOMUserDataHandler@2@@Z 120bc850 f   DOMElementImpl.obj
 0001:000bb870       ?lookupNamespacePrefix@DOMDocumentImpl@xercesc_2_2@@UBEPBGPBG_N@Z 120bc870 f   DOMElementImpl.obj
 0001:000bb870       ?lookupNamespacePrefix@DOMAttrImpl@xercesc_2_2@@UBEPBGPBG_N@Z 120bc870 f   DOMElementImpl.obj
 0001:000bb870       ?lookupNamespacePrefix@DOMCDATASectionImpl@xercesc_2_2@@UBEPBGPBG_N@Z 120bc870 f   DOMElementImpl.obj
 0001:000bb870       ?lookupNamespacePrefix@DOMTextImpl@xercesc_2_2@@UBEPBGPBG_N@Z 120bc870 f   DOMElementImpl.obj
 0001:000bb870       ?lookupNamespacePrefix@DOMProcessingInstructionImpl@xercesc_2_2@@UBEPBGPBG_N@Z 120bc870 f   DOMElementImpl.obj
 0001:000bb870       ?lookupNamespacePrefix@DOMEntityImpl@xercesc_2_2@@UBEPBGPBG_N@Z 120bc870 f   DOMElementImpl.obj
 0001:000bb870       ?lookupNamespacePrefix@DOMDocumentFragmentImpl@xercesc_2_2@@UBEPBGPBG_N@Z 120bc870 f   DOMElementImpl.obj
 0001:000bb870       ?lookupNamespacePrefix@DOMCommentImpl@xercesc_2_2@@UBEPBGPBG_N@Z 120bc870 f   DOMElementImpl.obj
 0001:000bb870       ?lookupNamespacePrefix@DOMEntityReferenceImpl@xercesc_2_2@@UBEPBGPBG_N@Z 120bc870 f   DOMElementImpl.obj
 0001:000bb870       ?lookupNamespacePrefix@DOMElementImpl@xercesc_2_2@@UBEPBGPBG_N@Z 120bc870 f   DOMElementImpl.obj
 0001:000bb870       ?lookupNamespacePrefix@DOMNotationImpl@xercesc_2_2@@UBEPBGPBG_N@Z 120bc870 f   DOMElementImpl.obj
 0001:000bb870       ?lookupNamespacePrefix@DOMDocumentTypeImpl@xercesc_2_2@@UBEPBGPBG_N@Z 120bc870 f   DOMElementImpl.obj
 0001:000bb890       ?isEqualNode@DOMElementImpl@xercesc_2_2@@UBE_NPBVDOMNode@2@@Z 120bc890 f   DOMElementImpl.obj
 0001:000bb9d0       ?rename@DOMElementImpl@xercesc_2_2@@UAEPAVDOMNode@2@PBG0@Z 120bc9d0 f   DOMElementImpl.obj
 0001:000bbac0       ?getTypeInfo@DOMElementImpl@xercesc_2_2@@UBEPBVDOMTypeInfo@2@XZ 120bcac0 f   DOMElementImpl.obj
 0001:000bbb60       ?setTypeInfo@DOMElementImpl@xercesc_2_2@@UAEXPBG0@Z 120bcb60 f   DOMElementImpl.obj
 0001:000bbbd0       ??0DOMTypeInfoImpl@xercesc_2_2@@QAE@PBG0PAVDOMDocumentImpl@1@@Z 120bcbd0 f   DOMTypeInfoImpl.obj
 0001:000bbc40       ??0DOMTypeInfoImpl@xercesc_2_2@@QAE@XZ 120bcc40 f   DOMTypeInfoImpl.obj
 0001:000bbc60       ??0DOMElementNSImpl@xercesc_2_2@@QAE@PAVDOMDocument@1@PBG@Z 120bcc60 f   DOMElementNSImpl.obj
 0001:000bbc90       ??_EDOMElementNSImpl@xercesc_2_2@@UAEPAXI@Z 120bcc90 f i DOMElementNSImpl.obj
 0001:000bbcf0       ??0DOMElementNSImpl@xercesc_2_2@@QAE@PAVDOMDocument@1@PBG1@Z 120bccf0 f   DOMElementNSImpl.obj
 0001:000bbd50       ??0DOMElementNSImpl@xercesc_2_2@@QAE@ABV01@_N@Z 120bcd50 f   DOMElementNSImpl.obj
 0001:000bbd90       ?cloneNode@DOMElementNSImpl@xercesc_2_2@@UBEPAVDOMNode@2@_N@Z 120bcd90 f   DOMElementNSImpl.obj
 0001:000bbe30       ?getBaseURI@DOMElementNSImpl@xercesc_2_2@@UBEPBGXZ 120bce30 f   DOMElementNSImpl.obj
 0001:000bbf60       ?setPrefix@DOMElementNSImpl@xercesc_2_2@@UAEXPBG@Z 120bcf60 f   DOMElementNSImpl.obj
 0001:000bc1b0       ?release@DOMElementNSImpl@xercesc_2_2@@UAEXXZ 120bd1b0 f   DOMElementNSImpl.obj
 0001:000bc240       ?rename@DOMElementNSImpl@xercesc_2_2@@UAEPAVDOMNode@2@PBG0@Z 120bd240 f   DOMElementNSImpl.obj
 0001:000bc270       ?setName@DOMElementNSImpl@xercesc_2_2@@QAEXPBG0@Z 120bd270 f   DOMElementNSImpl.obj
 0001:000bc410       ??0DOMEntityImpl@xercesc_2_2@@QAE@PAVDOMDocument@1@PBG@Z 120bd410 f   DOMEntityImpl.obj
 0001:000bc4c0       ??_EDOMEntityImpl@xercesc_2_2@@UAEPAXI@Z 120bd4c0 f i DOMEntityImpl.obj
 0001:000bc520       ??0DOMEntityImpl@xercesc_2_2@@QAE@ABV01@_N@Z 120bd520 f   DOMEntityImpl.obj
 0001:000bc5f0       ??1DOMEntityImpl@xercesc_2_2@@UAE@XZ 120bd5f0 f   DOMEntityImpl.obj
 0001:000bc650       ?cloneNode@DOMEntityImpl@xercesc_2_2@@UBEPAVDOMNode@2@_N@Z 120bd650 f   DOMEntityImpl.obj
 0001:000bc6d0       ?getPublicId@DOMEntityImpl@xercesc_2_2@@UBEPBGXZ 120bd6d0 f   DOMEntityImpl.obj
 0001:000bc6e0       ?setNotationName@DOMEntityImpl@xercesc_2_2@@UAEXPBG@Z 120bd6e0 f   DOMEntityImpl.obj
 0001:000bc700       ?setPublicId@DOMEntityImpl@xercesc_2_2@@UAEXPBG@Z 120bd700 f   DOMEntityImpl.obj
 0001:000bc720       ?setSystemId@DOMEntityImpl@xercesc_2_2@@UAEXPBG@Z 120bd720 f   DOMEntityImpl.obj
 0001:000bc740       ?setBaseURI@DOMEntityImpl@xercesc_2_2@@UAEXPBG@Z 120bd740 f   DOMEntityImpl.obj
 0001:000bc7a0       ?setEntityRef@DOMEntityImpl@xercesc_2_2@@UAEXPAVDOMEntityReference@2@@Z 120bd7a0 f   DOMEntityImpl.obj
 0001:000bc7b0       ?cloneEntityRefTree@DOMEntityImpl@xercesc_2_2@@ABEXXZ 120bd7b0 f   DOMEntityImpl.obj
 0001:000bc800       ?getFirstChild@DOMEntityImpl@xercesc_2_2@@UBEPAVDOMNode@2@XZ 120bd800 f   DOMEntityImpl.obj
 0001:000bc850       ?getLastChild@DOMEntityImpl@xercesc_2_2@@UBEPAVDOMNode@2@XZ 120bd850 f   DOMEntityImpl.obj
 0001:000bc8a0       ?getChildNodes@DOMEntityImpl@xercesc_2_2@@UBEPAVDOMNodeList@2@XZ 120bd8a0 f   DOMEntityImpl.obj
 0001:000bc8f0       ?hasChildNodes@DOMEntityImpl@xercesc_2_2@@UBE_NXZ 120bd8f0 f   DOMEntityImpl.obj
 0001:000bc940       ?release@DOMEntityImpl@xercesc_2_2@@UAEXXZ 120bd940 f   DOMEntityImpl.obj
 0001:000bc9d0       ?appendChild@DOMEntityImpl@xercesc_2_2@@UAEPAVDOMNode@2@PAV32@@Z 120bd9d0 f   DOMEntityImpl.obj
 0001:000bca30       ?insertBefore@DOMEntityImpl@xercesc_2_2@@UAEPAVDOMNode@2@PAV32@0@Z 120bda30 f   DOMEntityImpl.obj
 0001:000bca90       ?normalize@DOMEntityImpl@xercesc_2_2@@UAEXXZ 120bda90 f   DOMEntityImpl.obj
 0001:000bcae0       ?removeChild@DOMEntityImpl@xercesc_2_2@@UAEPAVDOMNode@2@PAV32@@Z 120bdae0 f   DOMEntityImpl.obj
 0001:000bcb40       ?replaceChild@DOMEntityImpl@xercesc_2_2@@UAEPAVDOMNode@2@PAV32@0@Z 120bdb40 f   DOMEntityImpl.obj
 0001:000bcba0       ?isEqualNode@DOMEntityImpl@xercesc_2_2@@UBE_NPBVDOMNode@2@@Z 120bdba0 f   DOMEntityImpl.obj
 0001:000bcc00       ?setActualEncoding@DOMEntityImpl@xercesc_2_2@@UAEXPBG@Z 120bdc00 f   DOMEntityImpl.obj
 0001:000bcc20       ?setEncoding@DOMEntityImpl@xercesc_2_2@@UAEXPBG@Z 120bdc20 f   DOMEntityImpl.obj
 0001:000bcc40       ?setVersion@DOMEntityImpl@xercesc_2_2@@UAEXPBG@Z 120bdc40 f   DOMEntityImpl.obj
 0001:000bcc60       ??0DOMEntityReferenceImpl@xercesc_2_2@@QAE@PAVDOMDocument@1@PBG@Z 120bdc60 f   DOMEntityReferenceImpl.obj
 0001:000bcd70       ??_EDOMEntityReferenceImpl@xercesc_2_2@@UAEPAXI@Z 120bdd70 f i DOMEntityReferenceImpl.obj
 0001:000bcdd0       ??0DOMEntityReferenceImpl@xercesc_2_2@@QAE@ABV01@_N@Z 120bddd0 f   DOMEntityReferenceImpl.obj
 0001:000bce80       ??1DOMEntityReferenceImpl@xercesc_2_2@@UAE@XZ 120bde80 f   DOMEntityReferenceImpl.obj
 0001:000bcef0       ?cloneNode@DOMEntityReferenceImpl@xercesc_2_2@@UBEPAVDOMNode@2@_N@Z 120bdef0 f   DOMEntityReferenceImpl.obj
 0001:000bcf70       ?getNodeType@EntityReferenceImpl@xercesc_2_2@@UAEFXZ 120bdf70 f   DOMEntityReferenceImpl.obj
 0001:000bcf70       ?getNodeType@DOMEntityReferenceImpl@xercesc_2_2@@UBEFXZ 120bdf70 f   DOMEntityReferenceImpl.obj
 0001:000bcf80       ?setReadOnly@DOMEntityReferenceImpl@xercesc_2_2@@UAEX_N0@Z 120bdf80 f   DOMEntityReferenceImpl.obj
 0001:000bcfd0       ?release@DOMEntityReferenceImpl@xercesc_2_2@@UAEXXZ 120bdfd0 f   DOMEntityReferenceImpl.obj
 0001:000bd060       ?getLastChild@DOMElementImpl@xercesc_2_2@@UBEPAVDOMNode@2@XZ 120be060 f   DOMEntityReferenceImpl.obj
 0001:000bd060       ?getLastChild@DOMCDATASectionImpl@xercesc_2_2@@UBEPAVDOMNode@2@XZ 120be060 f   DOMEntityReferenceImpl.obj
 0001:000bd060       ?getLastChild@DOMAttrImpl@xercesc_2_2@@UBEPAVDOMNode@2@XZ 120be060 f   DOMEntityReferenceImpl.obj
 0001:000bd060       ?getLastChild@DOMDocumentFragmentImpl@xercesc_2_2@@UBEPAVDOMNode@2@XZ 120be060 f   DOMEntityReferenceImpl.obj
 0001:000bd060       ?getLastChild@DOMDocumentImpl@xercesc_2_2@@UBEPAVDOMNode@2@XZ 120be060 f   DOMEntityReferenceImpl.obj
 0001:000bd060       ?getLastChild@DOMEntityReferenceImpl@xercesc_2_2@@UBEPAVDOMNode@2@XZ 120be060 f   DOMEntityReferenceImpl.obj
 0001:000bd060       ?getLastChild@DOMDocumentTypeImpl@xercesc_2_2@@UBEPAVDOMNode@2@XZ 120be060 f   DOMEntityReferenceImpl.obj
 0001:000bd070       ?getNextSibling@DOMEntityReferenceImpl@xercesc_2_2@@UBEPAVDOMNode@2@XZ 120be070 f   DOMEntityReferenceImpl.obj
 0001:000bd070       ?getNextSibling@DOMElementImpl@xercesc_2_2@@UBEPAVDOMNode@2@XZ 120be070 f   DOMEntityReferenceImpl.obj
 0001:000bd070       ?getNextSibling@DOMDocumentTypeImpl@xercesc_2_2@@UBEPAVDOMNode@2@XZ 120be070 f   DOMEntityReferenceImpl.obj
 0001:000bd070       ?getNextSibling@DOMCDATASectionImpl@xercesc_2_2@@UBEPAVDOMNode@2@XZ 120be070 f   DOMEntityReferenceImpl.obj
 0001:000bd080       ?getParentNode@DOMElementImpl@xercesc_2_2@@UBEPAVDOMNode@2@XZ 120be080 f   DOMEntityReferenceImpl.obj
 0001:000bd080       ?getParentNode@DOMDocumentTypeImpl@xercesc_2_2@@UBEPAVDOMNode@2@XZ 120be080 f   DOMEntityReferenceImpl.obj
 0001:000bd080       ?getParentNode@DOMCDATASectionImpl@xercesc_2_2@@UBEPAVDOMNode@2@XZ 120be080 f   DOMEntityReferenceImpl.obj
 0001:000bd080       ?getParentNode@DOMEntityReferenceImpl@xercesc_2_2@@UBEPAVDOMNode@2@XZ 120be080 f   DOMEntityReferenceImpl.obj
 0001:000bd090       ?getPreviousSibling@DOMElementImpl@xercesc_2_2@@UBEPAVDOMNode@2@XZ 120be090 f   DOMEntityReferenceImpl.obj
 0001:000bd090       ?getPreviousSibling@DOMEntityReferenceImpl@xercesc_2_2@@UBEPAVDOMNode@2@XZ 120be090 f   DOMEntityReferenceImpl.obj
 0001:000bd090       ?getPreviousSibling@DOMDocumentTypeImpl@xercesc_2_2@@UBEPAVDOMNode@2@XZ 120be090 f   DOMEntityReferenceImpl.obj
 0001:000bd090       ?getPreviousSibling@DOMCDATASectionImpl@xercesc_2_2@@UBEPAVDOMNode@2@XZ 120be090 f   DOMEntityReferenceImpl.obj
 0001:000bd0a0       ??0DOMErrorImpl@xercesc_2_2@@QAE@F@Z 120be0a0 f   DOMErrorImpl.obj
 0001:000bd0c0       ??_EDOMErrorImpl@xercesc_2_2@@UAEPAXI@Z 120be0c0 f i DOMErrorImpl.obj
 0001:000bd120       ??0DOMErrorImpl@xercesc_2_2@@QAE@FQBGQAVDOMLocator@1@@Z 120be120 f   DOMErrorImpl.obj
 0001:000bd150       ??1DOMErrorImpl@xercesc_2_2@@UAE@XZ 120be150 f   DOMErrorImpl.obj
 0001:000bd1b0       ?setLocation@DOMErrorImpl@xercesc_2_2@@UAEXQAVDOMLocator@2@@Z 120be1b0 f   DOMErrorImpl.obj
 0001:000bd1f0       ??0DOMImplementationSource@xercesc_2_2@@IAE@XZ 120be1f0 f i DOMImplementationImpl.obj
 0001:000bd200       ??0DOMImplementationSource@xercesc_2_2@@IAE@ABV01@@Z 120be200 f i DOMImplementationImpl.obj
 0001:000bd210       ??1DOMImplementationSource@xercesc_2_2@@UAE@XZ 120be210 f i DOMImplementationImpl.obj
 0001:000bd220       ??_EDOMImplementationSource@xercesc_2_2@@UAEPAXI@Z 120be220 f i DOMImplementationImpl.obj
 0001:000bd280       ??0DOMWriterFilter@xercesc_2_2@@IAE@XZ 120be280 f i DOMImplementationImpl.obj
 0001:000bd290       ??0DOMWriterFilter@xercesc_2_2@@IAE@ABV01@@Z 120be290 f i DOMImplementationImpl.obj
 0001:000bd2a0       ??_EDOMWriterFilter@xercesc_2_2@@UAEPAXI@Z 120be2a0 f i DOMImplementationImpl.obj
 0001:000bd300       ??0DOMWriter@xercesc_2_2@@IAE@XZ 120be300 f i DOMImplementationImpl.obj
 0001:000bd310       ??0DOMWriter@xercesc_2_2@@IAE@ABV01@@Z 120be310 f i DOMImplementationImpl.obj
 0001:000bd320       ??1DOMWriter@xercesc_2_2@@UAE@XZ 120be320 f i DOMImplementationImpl.obj
 0001:000bd330       ??_EDOMWriter@xercesc_2_2@@UAEPAXI@Z 120be330 f i DOMImplementationImpl.obj
 0001:000bd390       ?setFeature@DOMWriterImpl@xercesc_2_2@@AAEXH_N@Z 120be390 f i DOMImplementationImpl.obj
 0001:000bd3c0       ?getFeature@DOMWriterImpl@xercesc_2_2@@ABE_NH@Z 120be3c0 f i DOMImplementationImpl.obj
 0001:000bd3e0       ?setURCharRef@DOMWriterImpl@xercesc_2_2@@AAEXXZ 120be3e0 f i DOMImplementationImpl.obj
 0001:000bd3f0       ?getMsgLoader4DOM@DOMImplementationImpl@xercesc_2_2@@SAPAVXMLMsgLoader@2@XZ 120be3f0 f   DOMImplementationImpl.obj
 0001:000bd510       ?getDOMImplementationImpl@DOMImplementationImpl@xercesc_2_2@@SAPAV12@XZ 120be510 f   DOMImplementationImpl.obj
 0001:000bd610       ??_GDOMImplementationImpl@xercesc_2_2@@UAEPAXI@Z 120be610 f i DOMImplementationImpl.obj
 0001:000bd610       ??_EDOMImplementationImpl@xercesc_2_2@@UAEPAXI@Z 120be610 f i DOMImplementationImpl.obj
 0001:000bd630       ??1DOMImplementationImpl@xercesc_2_2@@UAE@XZ 120be630 f i DOMImplementationImpl.obj
 0001:000bd690       ?hasFeature@DOMImplementationImpl@xercesc_2_2@@UBE_NPBG0@Z 120be690 f   DOMImplementationImpl.obj
 0001:000bd8c0       ?createDocumentType@DOMImplementationImpl@xercesc_2_2@@UAEPAVDOMDocumentType@2@PBG00@Z 120be8c0 f   DOMImplementationImpl.obj
 0001:000bd990       ?createDocument@DOMImplementationImpl@xercesc_2_2@@UAEPAVDOMDocument@2@PBG0PAVDOMDocumentType@2@@Z 120be990 f   DOMImplementationImpl.obj
 0001:000bda00       ?createDocument@DOMImplementationImpl@xercesc_2_2@@UAEPAVDOMDocument@2@XZ 120bea00 f   DOMImplementationImpl.obj
 0001:000bda60       ?getImplementation@DOMImplementation@xercesc_2_2@@SAPAV12@XZ 120bea60 f   DOMImplementationImpl.obj
 0001:000bda70       ?loadDOMExceptionMsg@DOMImplementation@xercesc_2_2@@SA_NW4ExceptionCode@DOMException@2@QAGI@Z 120bea70 f   DOMImplementationImpl.obj
 0001:000bdb70       ?loadDOMExceptionMsg@DOMImplementation@xercesc_2_2@@SA_NW4RangeExceptionCode@DOMRangeException@2@QAGI@Z 120beb70 f   DOMImplementationImpl.obj
 0001:000bdc70       ?createDOMBuilder@DOMImplementationImpl@xercesc_2_2@@UAEPAVDOMBuilder@2@FQBG@Z 120bec70 f   DOMImplementationImpl.obj
 0001:000bdd00       ?createDOMWriter@DOMImplementationImpl@xercesc_2_2@@UAEPAVDOMWriter@2@XZ 120bed00 f   DOMImplementationImpl.obj
 0001:000bdd60       ?getDOMImplementation@DOMImplementationImpl@xercesc_2_2@@UBEPAVDOMImplementation@2@PBG@Z 120bed60 f   DOMImplementationImpl.obj
 0001:000bdf00       ??_EDOMImplementationImpl@xercesc_2_2@@W3AEPAXI@Z 120bef00 f i DOMImplementationImpl.obj
 0001:000bdf10       ?getDOMImplSrcVector@xercesc_2_2@@YAPAV?$RefVectorOf@VDOMImplementationSource@xercesc_2_2@@@1@XZ 120bef10 f   DOMImplementationRegistry.obj
 0001:000be0c0       ?getDOMImplementation@DOMImplementationRegistry@xercesc_2_2@@SAPAVDOMImplementation@2@PBG@Z 120bf0c0 f   DOMImplementationRegistry.obj
 0001:000be450       ?addSource@DOMImplementationRegistry@xercesc_2_2@@SAXPAVDOMImplementationSource@2@@Z 120bf450 f   DOMImplementationRegistry.obj
 0001:000be700       ??0?$RefVectorOf@VDOMImplementationSource@xercesc_2_2@@@xercesc_2_2@@QAE@I_N@Z 120bf700 f i DOMImplementationRegistry.obj
 0001:000be760       ??_E?$RefVectorOf@VDOMImplementationSource@xercesc_2_2@@@xercesc_2_2@@UAEPAXI@Z 120bf760 f i DOMImplementationRegistry.obj
 0001:000be760       ??_G?$RefVectorOf@VDOMImplementationSource@xercesc_2_2@@@xercesc_2_2@@UAEPAXI@Z 120bf760 f i DOMImplementationRegistry.obj
 0001:000be780       ??1?$RefVectorOf@VDOMImplementationSource@xercesc_2_2@@@xercesc_2_2@@UAE@XZ 120bf780 f i DOMImplementationRegistry.obj
 0001:000be800       ??1?$BaseRefVectorOf@VDOMImplementationSource@xercesc_2_2@@@xercesc_2_2@@UAE@XZ 120bf800 f i DOMImplementationRegistry.obj
 0001:000be810       ??0?$BaseRefVectorOf@VDOMImplementationSource@xercesc_2_2@@@xercesc_2_2@@QAE@I_N@Z 120bf810 f i DOMImplementationRegistry.obj
 0001:000be870       ??0DOMLocatorImpl@xercesc_2_2@@QAE@XZ 120bf870 f   DOMLocatorImpl.obj
 0001:000be890       ??_EDOMLocatorImpl@xercesc_2_2@@UAEPAXI@Z 120bf890 f i DOMLocatorImpl.obj
 0001:000be8f0       ??0DOMLocatorImpl@xercesc_2_2@@QAE@JJQAVDOMNode@1@QBGJ@Z 120bf8f0 f   DOMLocatorImpl.obj
 0001:000be920       ??1DOMLocatorImpl@xercesc_2_2@@UAE@XZ 120bf920 f   DOMLocatorImpl.obj
 0001:000be930       ??0DOMNamedNodeMapImpl@xercesc_2_2@@QAE@PAVDOMNode@1@@Z 120bf930 f   DOMNamedNodeMapImpl.obj
 0001:000be950       ??1DOMNamedNodeMapImpl@xercesc_2_2@@UAE@XZ 120bf950 f   DOMNamedNodeMapImpl.obj
 0001:000be960       ?readOnly@DOMNamedNodeMapImpl@xercesc_2_2@@IAE_NXZ 120bf960 f   DOMNamedNodeMapImpl.obj
 0001:000be980       ?cloneMap@DOMNamedNodeMapImpl@xercesc_2_2@@UAEPAV12@PAVDOMNode@2@@Z 120bf980 f   DOMNamedNodeMapImpl.obj
 0001:000beab0       ?removeAll@DOMNamedNodeMapImpl@xercesc_2_2@@UAEXXZ 120bfab0 f   DOMNamedNodeMapImpl.obj
 0001:000beb00       ?findNamePoint@DOMNamedNodeMapImpl@xercesc_2_2@@UBEHPBG@Z 120bfb00 f   DOMNamedNodeMapImpl.obj
 0001:000beb70       ?getNamedItem@DOMNamedNodeMapImpl@xercesc_2_2@@UBEPAVDOMNode@2@PBG@Z 120bfb70 f   DOMNamedNodeMapImpl.obj
 0001:000beba0       ?removeNamedItem@DOMNamedNodeMapImpl@xercesc_2_2@@UAEPAVDOMNode@2@PBG@Z 120bfba0 f   DOMNamedNodeMapImpl.obj
 0001:000bec50       ?setNamedItem@DOMNamedNodeMapImpl@xercesc_2_2@@UAEPAVDOMNode@2@PAV32@@Z 120bfc50 f   DOMNamedNodeMapImpl.obj
 0001:000bedf0       ?setReadOnly@DOMNamedNodeMapImpl@xercesc_2_2@@UAEX_N0@Z 120bfdf0 f   DOMNamedNodeMapImpl.obj
 0001:000bee40       ?findNamePoint@DOMNamedNodeMapImpl@xercesc_2_2@@UBEHPBG0@Z 120bfe40 f   DOMNamedNodeMapImpl.obj
 0001:000bef90       ?getNamedItemNS@DOMNamedNodeMapImpl@xercesc_2_2@@UBEPAVDOMNode@2@PBG0@Z 120bff90 f   DOMNamedNodeMapImpl.obj
 0001:000befc0       ?setNamedItemNS@DOMNamedNodeMapImpl@xercesc_2_2@@UAEPAVDOMNode@2@PAV32@@Z 120bffc0 f   DOMNamedNodeMapImpl.obj
 0001:000bf160       ?removeNamedItemNS@DOMNamedNodeMapImpl@xercesc_2_2@@UAEPAVDOMNode@2@PBG0@Z 120c0160 f   DOMNamedNodeMapImpl.obj
 0001:000bf210       ?cloneContent@DOMNamedNodeMapImpl@xercesc_2_2@@MAEXPBV12@@Z 120c0210 f   DOMNamedNodeMapImpl.obj
 0001:000bf330       ?removeNamedItemAt@DOMNamedNodeMapImpl@xercesc_2_2@@UAEPAVDOMNode@2@K@Z 120c0330 f   DOMNamedNodeMapImpl.obj
 0001:000bf3d0       ??0DOMNodeIDMap@xercesc_2_2@@QAE@HPAVDOMDocument@1@@Z 120c03d0 f   DOMNodeIDMap.obj
 0001:000bf4c0       ??_GDOMNodeIDMap@xercesc_2_2@@UAEPAXI@Z 120c04c0 f i DOMNodeIDMap.obj
 0001:000bf4c0       ??_EDOMNodeIDMap@xercesc_2_2@@UAEPAXI@Z 120c04c0 f i DOMNodeIDMap.obj
 0001:000bf4f0       ?add@DOMNodeIDMap@xercesc_2_2@@QAEXPAVDOMAttr@2@@Z 120c04f0 f   DOMNodeIDMap.obj
 0001:000bf560       ?remove@DOMNodeIDMap@xercesc_2_2@@QAEXPAVDOMAttr@2@@Z 120c0560 f   DOMNodeIDMap.obj
 0001:000bf5c0       ?find@DOMNodeIDMap@xercesc_2_2@@QAEPAVDOMAttr@2@PBG@Z 120c05c0 f   DOMNodeIDMap.obj
 0001:000bf660       ?growTable@DOMNodeIDMap@xercesc_2_2@@AAEXXZ 120c0660 f   DOMNodeIDMap.obj
 0001:000bf7a0       ??0DOMNodeImpl@xercesc_2_2@@QAE@PAVDOMNode@1@@Z 120c07a0 f   DOMNodeImpl.obj
 0001:000bf7c0       ??0DOMNodeImpl@xercesc_2_2@@QAE@ABV01@@Z 120c07c0 f   DOMNodeImpl.obj
 0001:000bf850       ?replaceChild@DOMNodeImpl@xercesc_2_2@@QAEPAVDOMNode@2@PAV32@0@Z 120c0850 f   DOMNodeImpl.obj
 0001:000bf850       ?appendChild@DOMNodeImpl@xercesc_2_2@@QAEPAVDOMNode@2@PAV32@@Z 120c0850 f   DOMNodeImpl.obj
 0001:000bf850       ?insertBefore@DOMNodeImpl@xercesc_2_2@@QAEPAVDOMNode@2@PAV32@0@Z 120c0850 f   DOMNodeImpl.obj
 0001:000bf870       ?getChildNodes@DOMNodeImpl@xercesc_2_2@@QBEPAVDOMNodeList@2@XZ 120c0870 f   DOMNodeImpl.obj
 0001:000bf9b0       ?getOwnerDocument@DOMNodeImpl@xercesc_2_2@@QBEPAVDOMDocument@2@XZ 120c09b0 f   DOMNodeImpl.obj
 0001:000bfa00       ?setOwnerDocument@DOMNodeImpl@xercesc_2_2@@QAEXPAVDOMDocument@2@@Z 120c0a00 f   DOMNodeImpl.obj
 0001:000bfa30       ?setReadOnly@DOMNodeImpl@xercesc_2_2@@QAEX_N0@Z 120c0a30 f   DOMNodeImpl.obj
 0001:000bfae0       ?isSupported@DOMNodeImpl@xercesc_2_2@@QBE_NPBG0@Z 120c0ae0 f   DOMNodeImpl.obj
 0001:000bfb00       ?setPrefix@DOMNodeImpl@xercesc_2_2@@QAEXPBG@Z 120c0b00 f   DOMNodeImpl.obj
 0001:000bfb20       ?getXmlString@DOMNodeImpl@xercesc_2_2@@SAPBGXZ 120c0b20 f   DOMNodeImpl.obj
 0001:000bfb30       ?getXmlURIString@DOMNodeImpl@xercesc_2_2@@SAPBGXZ 120c0b30 f   DOMNodeImpl.obj
 0001:000bfb40       ?getXmlnsString@DOMNodeImpl@xercesc_2_2@@SAPBGXZ 120c0b40 f   DOMNodeImpl.obj
 0001:000bfb50       ?getXmlnsURIString@DOMNodeImpl@xercesc_2_2@@SAPBGXZ 120c0b50 f   DOMNodeImpl.obj
 0001:000bfb60       ?mapPrefix@DOMNodeImpl@xercesc_2_2@@SAPBGPBG0F@Z 120c0b60 f   DOMNodeImpl.obj
 0001:000bfd20       ?setUserData@DOMNodeImpl@xercesc_2_2@@QAEPAXPBGPAXPAVDOMUserDataHandler@2@@Z 120c0d20 f   DOMNodeImpl.obj
 0001:000bfdb0       ?getUserData@DOMNodeImpl@xercesc_2_2@@QBEPAXPBG@Z 120c0db0 f   DOMNodeImpl.obj
 0001:000bfe60       ?callUserDataHandlers@DOMNodeImpl@xercesc_2_2@@QBEXW4DOMOperationType@DOMUserDataHandler@2@PBVDOMNode@2@1@Z 120c0e60 f   DOMNodeImpl.obj
 0001:000bff10       ?isSameNode@DOMNodeImpl@xercesc_2_2@@QBE_NPBVDOMNode@2@@Z 120c0f10 f   DOMNodeImpl.obj
 0001:000bff20       ?isEqualNode@DOMNodeImpl@xercesc_2_2@@QBE_NPBVDOMNode@2@@Z 120c0f20 f   DOMNodeImpl.obj
 0001:000c0170       ?lookupNamespacePrefix@DOMNodeImpl@xercesc_2_2@@QBEPBGPBG_N@Z 120c1170 f   DOMNodeImpl.obj
 0001:000c0260       ?getElementAncestor@DOMNodeImpl@xercesc_2_2@@QBEPAVDOMNode@2@PBV32@@Z 120c1260 f   DOMNodeImpl.obj
 0001:000c02a0       ?lookupNamespacePrefix@DOMNodeImpl@xercesc_2_2@@QBEPBGQBG_NPAVDOMElement@2@@Z 120c12a0 f   DOMNodeImpl.obj
 0001:000c05c0       ?lookupNamespaceURI@DOMNodeImpl@xercesc_2_2@@QBEPBGPBG@Z 120c15c0 f   DOMNodeImpl.obj
 0001:000c0950       ?getBaseURI@DOMNodeImpl@xercesc_2_2@@QBEPBGXZ 120c1950 f   DOMNodeImpl.obj
 0001:000c0970       ?compareTreePosition@DOMNodeImpl@xercesc_2_2@@QBEFPBVDOMNode@2@@Z 120c1970 f   DOMNodeImpl.obj
 0001:000c0c40       ?reverseTreeOrderBitPattern@DOMNodeImpl@xercesc_2_2@@QBEFF@Z 120c1c40 f   DOMNodeImpl.obj
 0001:000c0c70       ?isDefaultNamespace@DOMNodeImpl@xercesc_2_2@@QBE_NPBG@Z 120c1c70 f   DOMNodeImpl.obj
 0001:000c0e80       ?release@DOMNodeImpl@xercesc_2_2@@QAEXXZ 120c1e80 f   DOMNodeImpl.obj
 0001:000c0ea0       ??0DOMNodeIteratorImpl@xercesc_2_2@@QAE@PAVDOMDocument@1@PAVDOMNode@1@KPAVDOMNodeFilter@1@_N@Z 120c1ea0 f   DOMNodeIteratorImpl.obj
 0001:000c0ee0       ??_EDOMNodeIteratorImpl@xercesc_2_2@@UAEPAXI@Z 120c1ee0 f i DOMNodeIteratorImpl.obj
 0001:000c0f40       ??0DOMNodeIteratorImpl@xercesc_2_2@@QAE@ABV01@@Z 120c1f40 f   DOMNodeIteratorImpl.obj
 0001:000c0f90       ??4DOMNodeIteratorImpl@xercesc_2_2@@QAEAAV01@ABV01@@Z 120c1f90 f   DOMNodeIteratorImpl.obj
 0001:000c0fd0       ??1DOMNodeIteratorImpl@xercesc_2_2@@UAE@XZ 120c1fd0 f   DOMNodeIteratorImpl.obj
 0001:000c0fe0       ?detach@DOMNodeIteratorImpl@xercesc_2_2@@UAEXXZ 120c1fe0 f   DOMNodeIteratorImpl.obj
 0001:000c1000       ?nextNode@DOMNodeIteratorImpl@xercesc_2_2@@UAEPAVDOMNode@2@XZ 120c2000 f   DOMNodeIteratorImpl.obj
 0001:000c10e0       ?previousNode@DOMNodeIteratorImpl@xercesc_2_2@@UAEPAVDOMNode@2@XZ 120c20e0 f   DOMNodeIteratorImpl.obj
 0001:000c1250       ?acceptNode@DOMNodeIteratorImpl@xercesc_2_2@@AAE_NPAVDOMNode@2@@Z 120c2250 f   DOMNodeIteratorImpl.obj
 0001:000c12f0       ?matchNodeOrParent@DOMNodeIteratorImpl@xercesc_2_2@@AAEPAVDOMNode@2@PAV32@@Z 120c22f0 f   DOMNodeIteratorImpl.obj
 0001:000c1320       ?nextNode@DOMNodeIteratorImpl@xercesc_2_2@@AAEPAVDOMNode@2@PAV32@_N@Z 120c2320 f   DOMNodeIteratorImpl.obj
 0001:000c13d0       ?previousNode@DOMNodeIteratorImpl@xercesc_2_2@@AAEPAVDOMNode@2@PAV32@@Z 120c23d0 f   DOMNodeIteratorImpl.obj
 0001:000c1460       ?removeNode@DOMNodeIteratorImpl@xercesc_2_2@@QAEXPAVDOMNode@2@@Z 120c2460 f   DOMNodeIteratorImpl.obj
 0001:000c1620       ?release@DOMNodeIteratorImpl@xercesc_2_2@@UAEXXZ 120c2620 f   DOMNodeIteratorImpl.obj
 0001:000c1630       ??0DOMNodeListImpl@xercesc_2_2@@QAE@PAVDOMNode@1@@Z 120c2630 f   DOMNodeListImpl.obj
 0001:000c1650       ??_EDOMNodeListImpl@xercesc_2_2@@UAEPAXI@Z 120c2650 f i DOMNodeListImpl.obj
 0001:000c16b0       ??1DOMNodeListImpl@xercesc_2_2@@UAE@XZ 120c26b0 f   DOMNodeListImpl.obj
 0001:000c16b0       ??1DOMDeepNodeListImpl@xercesc_2_2@@UAE@XZ 120c26b0 f   DOMNodeListImpl.obj
 0001:000c16c0       ?getLength@DOMNodeListImpl@xercesc_2_2@@UBEKXZ 120c26c0 f   DOMNodeListImpl.obj
 0001:000c16f0       ?item@DOMNodeListImpl@xercesc_2_2@@UBEPAVDOMNode@2@K@Z 120c26f0 f   DOMNodeListImpl.obj
 0001:000c1730       ??0DOMNodeVector@xercesc_2_2@@QAE@PAVDOMDocument@1@@Z 120c2730 f   DOMNodeVector.obj
 0001:000c1770       ??0DOMNodeVector@xercesc_2_2@@QAE@PAVDOMDocument@1@K@Z 120c2770 f   DOMNodeVector.obj
 0001:000c17b0       ?addElement@DOMNodeVector@xercesc_2_2@@QAEXPAVDOMNode@2@@Z 120c27b0 f   DOMNodeVector.obj
 0001:000c1820       ?insertElementAt@DOMNodeVector@xercesc_2_2@@QAEXPAVDOMNode@2@K@Z 120c2820 f   DOMNodeVector.obj
 0001:000c18b0       ??0DOMNotationImpl@xercesc_2_2@@QAE@PAVDOMDocument@1@PBG@Z 120c28b0 f   DOMNotationImpl.obj
 0001:000c1940       ??_EDOMNotationImpl@xercesc_2_2@@UAEPAXI@Z 120c2940 f i DOMNotationImpl.obj
 0001:000c19a0       ??0DOMNotationImpl@xercesc_2_2@@QAE@ABV01@_N@Z 120c29a0 f   DOMNotationImpl.obj
 0001:000c1a20       ??1DOMNotationImpl@xercesc_2_2@@UAE@XZ 120c2a20 f   DOMNotationImpl.obj
 0001:000c1a70       ?cloneNode@DOMNotationImpl@xercesc_2_2@@UBEPAVDOMNode@2@_N@Z 120c2a70 f   DOMNotationImpl.obj
 0001:000c1b30       ?setPublicId@DOMNotationImpl@xercesc_2_2@@UAEXPBG@Z 120c2b30 f   DOMNotationImpl.obj
 0001:000c1b80       ?setSystemId@DOMNotationImpl@xercesc_2_2@@UAEXPBG@Z 120c2b80 f   DOMNotationImpl.obj
 0001:000c1bd0       ?release@DOMNotationImpl@xercesc_2_2@@UAEXXZ 120c2bd0 f   DOMNotationImpl.obj
 0001:000c1c50       ?setBaseURI@DOMNotationImpl@xercesc_2_2@@UAEXPBG@Z 120c2c50 f   DOMNotationImpl.obj
 0001:000c1cb0       ?getChildNodes@DOMCommentImpl@xercesc_2_2@@UBEPAVDOMNodeList@2@XZ 120c2cb0 f   DOMNotationImpl.obj
 0001:000c1cb0       ?getChildNodes@DOMNotationImpl@xercesc_2_2@@UBEPAVDOMNodeList@2@XZ 120c2cb0 f   DOMNotationImpl.obj
 0001:000c1cb0       ?getChildNodes@DOMTextImpl@xercesc_2_2@@UBEPAVDOMNodeList@2@XZ 120c2cb0 f   DOMNotationImpl.obj
 0001:000c1cb0       ?getChildNodes@DOMProcessingInstructionImpl@xercesc_2_2@@UBEPAVDOMNodeList@2@XZ 120c2cb0 f   DOMNotationImpl.obj
 0001:000c1cc0       ?insertBefore@DOMProcessingInstructionImpl@xercesc_2_2@@UAEPAVDOMNode@2@PAV32@0@Z 120c2cc0 f   DOMNotationImpl.obj
 0001:000c1cc0       ?replaceChild@DOMProcessingInstructionImpl@xercesc_2_2@@UAEPAVDOMNode@2@PAV32@0@Z 120c2cc0 f   DOMNotationImpl.obj
 0001:000c1cc0       ?replaceChild@DOMCommentImpl@xercesc_2_2@@UAEPAVDOMNode@2@PAV32@0@Z 120c2cc0 f   DOMNotationImpl.obj
 0001:000c1cc0       ?insertBefore@DOMCommentImpl@xercesc_2_2@@UAEPAVDOMNode@2@PAV32@0@Z 120c2cc0 f   DOMNotationImpl.obj
 0001:000c1cc0       ?insertBefore@DOMTextImpl@xercesc_2_2@@UAEPAVDOMNode@2@PAV32@0@Z 120c2cc0 f   DOMNotationImpl.obj
 0001:000c1cc0       ?replaceChild@DOMNotationImpl@xercesc_2_2@@UAEPAVDOMNode@2@PAV32@0@Z 120c2cc0 f   DOMNotationImpl.obj
 0001:000c1cc0       ?insertBefore@DOMNotationImpl@xercesc_2_2@@UAEPAVDOMNode@2@PAV32@0@Z 120c2cc0 f   DOMNotationImpl.obj
 0001:000c1cc0       ?replaceChild@DOMTextImpl@xercesc_2_2@@UAEPAVDOMNode@2@PAV32@0@Z 120c2cc0 f   DOMNotationImpl.obj
 0001:000c1ce0       ?getInterface@DOMEntityImpl@xercesc_2_2@@UAEPAVDOMNode@2@PBG@Z 120c2ce0 f   DOMNotationImpl.obj
 0001:000c1ce0       ?setTextContent@DOMEntityReferenceImpl@xercesc_2_2@@UAEXPBG@Z 120c2ce0 f   DOMNotationImpl.obj
 0001:000c1ce0       ?setTextContent@DOMElementImpl@xercesc_2_2@@UAEXPBG@Z 120c2ce0 f   DOMNotationImpl.obj
 0001:000c1ce0       ?setTextContent@DOMProcessingInstructionImpl@xercesc_2_2@@UAEXPBG@Z 120c2ce0 f   DOMNotationImpl.obj
 0001:000c1ce0       ?setTextContent@DOMDocumentTypeImpl@xercesc_2_2@@UAEXPBG@Z 120c2ce0 f   DOMNotationImpl.obj
 0001:000c1ce0       ?getInterface@DOMElementImpl@xercesc_2_2@@UAEPAVDOMNode@2@PBG@Z 120c2ce0 f   DOMNotationImpl.obj
 0001:000c1ce0       ?getInterface@DOMNotationImpl@xercesc_2_2@@UAEPAVDOMNode@2@PBG@Z 120c2ce0 f   DOMNotationImpl.obj
 0001:000c1ce0       ?getInterface@DOMCommentImpl@xercesc_2_2@@UAEPAVDOMNode@2@PBG@Z 120c2ce0 f   DOMNotationImpl.obj
 0001:000c1ce0       ?setTextContent@DOMCDATASectionImpl@xercesc_2_2@@UAEXPBG@Z 120c2ce0 f   DOMNotationImpl.obj
 0001:000c1ce0       ?getInterface@DOMDocumentTypeImpl@xercesc_2_2@@UAEPAVDOMNode@2@PBG@Z 120c2ce0 f   DOMNotationImpl.obj
 0001:000c1ce0       ?getInterface@DOMAttrImpl@xercesc_2_2@@UAEPAVDOMNode@2@PBG@Z 120c2ce0 f   DOMNotationImpl.obj
 0001:000c1ce0       ?setTextContent@DOMTextImpl@xercesc_2_2@@UAEXPBG@Z 120c2ce0 f   DOMNotationImpl.obj
 0001:000c1ce0       ?getInterface@DOMTextImpl@xercesc_2_2@@UAEPAVDOMNode@2@PBG@Z 120c2ce0 f   DOMNotationImpl.obj
 0001:000c1ce0       ?getInterface@DOMDocumentFragmentImpl@xercesc_2_2@@UAEPAVDOMNode@2@PBG@Z 120c2ce0 f   DOMNotationImpl.obj
 0001:000c1ce0       ?setTextContent@DOMDocumentImpl@xercesc_2_2@@UAEXPBG@Z 120c2ce0 f   DOMNotationImpl.obj
 0001:000c1ce0       ?setTextContent@DOMDocumentFragmentImpl@xercesc_2_2@@UAEXPBG@Z 120c2ce0 f   DOMNotationImpl.obj
 0001:000c1ce0       ?setTextContent@DOMNotationImpl@xercesc_2_2@@UAEXPBG@Z 120c2ce0 f   DOMNotationImpl.obj
 0001:000c1ce0       ?setTextContent@DOMAttrImpl@xercesc_2_2@@UAEXPBG@Z 120c2ce0 f   DOMNotationImpl.obj
 0001:000c1ce0       ?setTextContent@DOMEntityImpl@xercesc_2_2@@UAEXPBG@Z 120c2ce0 f   DOMNotationImpl.obj
 0001:000c1ce0       ?getInterface@DOMCDATASectionImpl@xercesc_2_2@@UAEPAVDOMNode@2@PBG@Z 120c2ce0 f   DOMNotationImpl.obj
 0001:000c1ce0       ?getInterface@DOMEntityReferenceImpl@xercesc_2_2@@UAEPAVDOMNode@2@PBG@Z 120c2ce0 f   DOMNotationImpl.obj
 0001:000c1ce0       ?setTextContent@DOMCommentImpl@xercesc_2_2@@UAEXPBG@Z 120c2ce0 f   DOMNotationImpl.obj
 0001:000c1ce0       ?getInterface@DOMDocumentImpl@xercesc_2_2@@UAEPAVDOMNode@2@PBG@Z 120c2ce0 f   DOMNotationImpl.obj
 0001:000c1ce0       ?getInterface@DOMProcessingInstructionImpl@xercesc_2_2@@UAEPAVDOMNode@2@PBG@Z 120c2ce0 f   DOMNotationImpl.obj
 0001:000c1cf0       ?isDefaultNamespace@DOMEntityImpl@xercesc_2_2@@UBE_NPBG@Z 120c2cf0 f   DOMNotationImpl.obj
 0001:000c1cf0       ?isDefaultNamespace@DOMDocumentFragmentImpl@xercesc_2_2@@UBE_NPBG@Z 120c2cf0 f   DOMNotationImpl.obj
 0001:000c1cf0       ?isDefaultNamespace@DOMDocumentTypeImpl@xercesc_2_2@@UBE_NPBG@Z 120c2cf0 f   DOMNotationImpl.obj
 0001:000c1cf0       ?isDefaultNamespace@DOMNotationImpl@xercesc_2_2@@UBE_NPBG@Z 120c2cf0 f   DOMNotationImpl.obj
 0001:000c1cf0       ?isDefaultNamespace@DOMEntityReferenceImpl@xercesc_2_2@@UBE_NPBG@Z 120c2cf0 f   DOMNotationImpl.obj
 0001:000c1cf0       ?isDefaultNamespace@DOMAttrImpl@xercesc_2_2@@UBE_NPBG@Z 120c2cf0 f   DOMNotationImpl.obj
 0001:000c1cf0       ?isDefaultNamespace@DOMElementImpl@xercesc_2_2@@UBE_NPBG@Z 120c2cf0 f   DOMNotationImpl.obj
 0001:000c1cf0       ?isDefaultNamespace@DOMTextImpl@xercesc_2_2@@UBE_NPBG@Z 120c2cf0 f   DOMNotationImpl.obj
 0001:000c1cf0       ?isDefaultNamespace@DOMCDATASectionImpl@xercesc_2_2@@UBE_NPBG@Z 120c2cf0 f   DOMNotationImpl.obj
 0001:000c1cf0       ?isDefaultNamespace@DOMDocumentImpl@xercesc_2_2@@UBE_NPBG@Z 120c2cf0 f   DOMNotationImpl.obj
 0001:000c1cf0       ?isDefaultNamespace@DOMProcessingInstructionImpl@xercesc_2_2@@UBE_NPBG@Z 120c2cf0 f   DOMNotationImpl.obj
 0001:000c1cf0       ?isDefaultNamespace@DOMCommentImpl@xercesc_2_2@@UBE_NPBG@Z 120c2cf0 f   DOMNotationImpl.obj
 0001:000c1d00       ?lookupNamespaceURI@DOMAttrImpl@xercesc_2_2@@UBEPBGPBG@Z 120c2d00 f   DOMNotationImpl.obj
 0001:000c1d00       ?lookupNamespaceURI@DOMEntityImpl@xercesc_2_2@@UBEPBGPBG@Z 120c2d00 f   DOMNotationImpl.obj
 0001:000c1d00       ?lookupNamespaceURI@DOMProcessingInstructionImpl@xercesc_2_2@@UBEPBGPBG@Z 120c2d00 f   DOMNotationImpl.obj
 0001:000c1d00       ?lookupNamespaceURI@DOMNotationImpl@xercesc_2_2@@UBEPBGPBG@Z 120c2d00 f   DOMNotationImpl.obj
 0001:000c1d00       ?lookupNamespaceURI@DOMElementImpl@xercesc_2_2@@UBEPBGPBG@Z 120c2d00 f   DOMNotationImpl.obj
 0001:000c1d00       ?lookupNamespaceURI@DOMCDATASectionImpl@xercesc_2_2@@UBEPBGPBG@Z 120c2d00 f   DOMNotationImpl.obj
 0001:000c1d00       ?lookupNamespaceURI@DOMTextImpl@xercesc_2_2@@UBEPBGPBG@Z 120c2d00 f   DOMNotationImpl.obj
 0001:000c1d00       ?lookupNamespaceURI@DOMDocumentTypeImpl@xercesc_2_2@@UBEPBGPBG@Z 120c2d00 f   DOMNotationImpl.obj
 0001:000c1d00       ?lookupNamespaceURI@DOMDocumentFragmentImpl@xercesc_2_2@@UBEPBGPBG@Z 120c2d00 f   DOMNotationImpl.obj
 0001:000c1d00       ?lookupNamespaceURI@DOMCommentImpl@xercesc_2_2@@UBEPBGPBG@Z 120c2d00 f   DOMNotationImpl.obj
 0001:000c1d00       ?lookupNamespaceURI@DOMDocumentImpl@xercesc_2_2@@UBEPBGPBG@Z 120c2d00 f   DOMNotationImpl.obj
 0001:000c1d00       ?lookupNamespaceURI@DOMEntityReferenceImpl@xercesc_2_2@@UBEPBGPBG@Z 120c2d00 f   DOMNotationImpl.obj
 0001:000c1d10       ??0DOMParentNode@xercesc_2_2@@QAE@PAVDOMDocument@1@@Z 120c2d10 f   DOMParentNode.obj
 0001:000c1d40       ??0DOMParentNode@xercesc_2_2@@QAE@ABV01@@Z 120c2d40 f   DOMParentNode.obj
 0001:000c1d70       ?changes@DOMParentNode@xercesc_2_2@@QBEHXZ 120c2d70 f   DOMParentNode.obj
 0001:000c1d80       ?appendChild@DOMParentNode@xercesc_2_2@@QAEPAVDOMNode@2@PAV32@@Z 120c2d80 f   DOMParentNode.obj
 0001:000c1d90       ?cloneChildren@DOMParentNode@xercesc_2_2@@QAEXPBVDOMNode@2@@Z 120c2d90 f   DOMParentNode.obj
 0001:000c1dd0       ?getKey@KVStringPair@xercesc_2_2@@QBEPBGXZ 120c2dd0 f   DOMParentNode.obj
 0001:000c1dd0       ?getDocument@DOMParentNode@xercesc_2_2@@QBEPAVDOMDocument@2@XZ 120c2dd0 f   DOMParentNode.obj
 0001:000c1dd0       ?getKey@KVStringPair@xercesc_2_2@@QAEPAGXZ 120c2dd0 f   DOMParentNode.obj
 0001:000c1dd0       ?getOwnerDocument@DOMParentNode@xercesc_2_2@@QBEPAVDOMDocument@2@XZ 120c2dd0 f   DOMParentNode.obj
 0001:000c1de0       ?setOwnerDocument@DOMParentNode@xercesc_2_2@@QAEXPAVDOMDocument@2@@Z 120c2de0 f   DOMParentNode.obj
 0001:000c1df0       ?getChildNodes@DOMParentNode@xercesc_2_2@@QBEPAVDOMNodeList@2@XZ 120c2df0 f   DOMParentNode.obj
 0001:000c1e00       ?getLastChild@DOMParentNode@xercesc_2_2@@QBEPAVDOMNode@2@XZ 120c2e00 f   DOMParentNode.obj
 0001:000c1e00       ?lastChild@DOMParentNode@xercesc_2_2@@QBEPAVDOMNode@2@XZ 120c2e00 f   DOMParentNode.obj
 0001:000c1e30       ?lastChild@DOMParentNode@xercesc_2_2@@QAEXPAVDOMNode@2@@Z 120c2e30 f   DOMParentNode.obj
 0001:000c1e60       ?hasChildNodes@DOMParentNode@xercesc_2_2@@QBE_NXZ 120c2e60 f   DOMParentNode.obj
 0001:000c1e70       ?insertBefore@DOMParentNode@xercesc_2_2@@QAEPAVDOMNode@2@PAV32@0@Z 120c2e70 f   DOMParentNode.obj
 0001:000c2200       ?removeChild@DOMParentNode@xercesc_2_2@@QAEPAVDOMNode@2@PAV32@@Z 120c3200 f   DOMParentNode.obj
 0001:000c2460       ?replaceChild@DOMParentNode@xercesc_2_2@@QAEPAVDOMNode@2@PAV32@0@Z 120c3460 f   DOMParentNode.obj
 0001:000c2480       ?normalize@DOMParentNode@xercesc_2_2@@QAEXXZ 120c3480 f   DOMParentNode.obj
 0001:000c2500       ?isEqualNode@DOMParentNode@xercesc_2_2@@QBE_NPBVDOMNode@2@@Z 120c3500 f   DOMParentNode.obj
 0001:000c2590       ?release@DOMParentNode@xercesc_2_2@@QAEXXZ 120c3590 f   DOMParentNode.obj
 0001:000c25d0       ??0DOMProcessingInstructionImpl@xercesc_2_2@@QAE@PAVDOMDocument@1@PBG1@Z 120c35d0 f   DOMProcessingInstructionImpl.obj
 0001:000c2680       ??_EDOMProcessingInstructionImpl@xercesc_2_2@@UAEPAXI@Z 120c3680 f i DOMProcessingInstructionImpl.obj
 0001:000c26e0       ??0DOMProcessingInstructionImpl@xercesc_2_2@@QAE@ABV01@_N@Z 120c36e0 f   DOMProcessingInstructionImpl.obj
 0001:000c2780       ??1DOMProcessingInstructionImpl@xercesc_2_2@@UAE@XZ 120c3780 f   DOMProcessingInstructionImpl.obj
 0001:000c27f0       ?cloneNode@DOMProcessingInstructionImpl@xercesc_2_2@@UBEPAVDOMNode@2@_N@Z 120c37f0 f   DOMProcessingInstructionImpl.obj
 0001:000c2870       ?release@DOMProcessingInstructionImpl@xercesc_2_2@@UAEXXZ 120c3870 f   DOMProcessingInstructionImpl.obj
 0001:000c2900       ?setBaseURI@DOMProcessingInstructionImpl@xercesc_2_2@@UAEXPBG@Z 120c3900 f   DOMProcessingInstructionImpl.obj
 0001:000c2920       ?getBaseURI@DOMProcessingInstructionImpl@xercesc_2_2@@UBEPBGXZ 120c3920 f   DOMProcessingInstructionImpl.obj
 0001:000c2930       ?splitText@DOMProcessingInstructionImpl@xercesc_2_2@@QAEPAVDOMProcessingInstruction@2@K@Z 120c3930 f   DOMProcessingInstructionImpl.obj
 0001:000c2a80       ?appendChild@DOMCommentImpl@xercesc_2_2@@UAEPAVDOMNode@2@PAV32@@Z 120c3a80 f   DOMProcessingInstructionImpl.obj
 0001:000c2a80       ?appendChild@DOMTextImpl@xercesc_2_2@@UAEPAVDOMNode@2@PAV32@@Z 120c3a80 f   DOMProcessingInstructionImpl.obj
 0001:000c2a80       ?appendChild@DOMNotationImpl@xercesc_2_2@@UAEPAVDOMNode@2@PAV32@@Z 120c3a80 f   DOMProcessingInstructionImpl.obj
 0001:000c2a80       ?appendChild@DOMProcessingInstructionImpl@xercesc_2_2@@UAEPAVDOMNode@2@PAV32@@Z 120c3a80 f   DOMProcessingInstructionImpl.obj
 0001:000c2a90       ?isEqualNode@DOMProcessingInstructionImpl@xercesc_2_2@@UBE_NPBVDOMNode@2@@Z 120c3a90 f   DOMProcessingInstructionImpl.obj
 0001:000c2a90       ?isEqualNode@DOMCommentImpl@xercesc_2_2@@UBE_NPBVDOMNode@2@@Z 120c3a90 f   DOMProcessingInstructionImpl.obj
 0001:000c2a90       ?isEqualNode@DOMTextImpl@xercesc_2_2@@UBE_NPBVDOMNode@2@@Z 120c3a90 f   DOMProcessingInstructionImpl.obj
 0001:000c2a90       ?isEqualNode@DOMNotationImpl@xercesc_2_2@@UBE_NPBVDOMNode@2@@Z 120c3a90 f   DOMProcessingInstructionImpl.obj
 0001:000c2aa0       ?deleteData@DOMProcessingInstructionImpl@xercesc_2_2@@QAEXKK@Z 120c3aa0 f   DOMProcessingInstructionImpl.obj
 0001:000c2aa0       ?deleteData@DOMCommentImpl@xercesc_2_2@@UAEXKK@Z 120c3aa0 f   DOMProcessingInstructionImpl.obj
 0001:000c2aa0       ?deleteData@DOMTextImpl@xercesc_2_2@@UAEXKK@Z 120c3aa0 f   DOMProcessingInstructionImpl.obj
 0001:000c2ac0       ?substringData@DOMCommentImpl@xercesc_2_2@@UBEPBGKK@Z 120c3ac0 f   DOMProcessingInstructionImpl.obj
 0001:000c2ac0       ?substringData@DOMProcessingInstructionImpl@xercesc_2_2@@QBEPBGKK@Z 120c3ac0 f   DOMProcessingInstructionImpl.obj
 0001:000c2ac0       ?substringData@DOMTextImpl@xercesc_2_2@@UBEPBGKK@Z 120c3ac0 f   DOMProcessingInstructionImpl.obj
 0001:000c2ae0       ?setData@DOMTextImpl@xercesc_2_2@@UAEXPBG@Z 120c3ae0 f   DOMProcessingInstructionImpl.obj
 0001:000c2ae0       ?setData@DOMProcessingInstructionImpl@xercesc_2_2@@UAEXPBG@Z 120c3ae0 f   DOMProcessingInstructionImpl.obj
 0001:000c2ae0       ?setData@DOMCommentImpl@xercesc_2_2@@UAEXPBG@Z 120c3ae0 f   DOMProcessingInstructionImpl.obj
 0001:000c2b00       ??0DOMRangeImpl@xercesc_2_2@@QAE@PAVDOMDocument@1@@Z 120c3b00 f   DOMRangeImpl.obj
 0001:000c2b50       ??_EDOMRangeImpl@xercesc_2_2@@UAEPAXI@Z 120c3b50 f i DOMRangeImpl.obj
 0001:000c2bb0       ??0DOMRangeImpl@xercesc_2_2@@QAE@ABV01@@Z 120c3bb0 f   DOMRangeImpl.obj
 0001:000c2bf0       ??1DOMRangeImpl@xercesc_2_2@@UAE@XZ 120c3bf0 f   DOMRangeImpl.obj
 0001:000c2c00       ?getStartContainer@DOMRangeImpl@xercesc_2_2@@UBEPAVDOMNode@2@XZ 120c3c00 f   DOMRangeImpl.obj
 0001:000c2c30       ?getStartOffset@DOMRangeImpl@xercesc_2_2@@UBEKXZ 120c3c30 f   DOMRangeImpl.obj
 0001:000c2c60       ?getEndContainer@DOMRangeImpl@xercesc_2_2@@UBEPAVDOMNode@2@XZ 120c3c60 f   DOMRangeImpl.obj
 0001:000c2c90       ?getEndOffset@DOMRangeImpl@xercesc_2_2@@UBEKXZ 120c3c90 f   DOMRangeImpl.obj
 0001:000c2cc0       ?getCollapsed@DOMRangeImpl@xercesc_2_2@@UBE_NXZ 120c3cc0 f   DOMRangeImpl.obj
 0001:000c2d10       ?setStartContainer@DOMRangeImpl@xercesc_2_2@@AAEXPBVDOMNode@2@@Z 120c3d10 f   DOMRangeImpl.obj
 0001:000c2d50       ?setStartOffset@DOMRangeImpl@xercesc_2_2@@AAEXK@Z 120c3d50 f   DOMRangeImpl.obj
 0001:000c2d90       ?setEndContainer@DOMRangeImpl@xercesc_2_2@@AAEXPBVDOMNode@2@@Z 120c3d90 f   DOMRangeImpl.obj
 0001:000c2dd0       ?setEndOffset@DOMRangeImpl@xercesc_2_2@@AAEXK@Z 120c3dd0 f   DOMRangeImpl.obj
 0001:000c2e10       ?setStart@DOMRangeImpl@xercesc_2_2@@UAEXPBVDOMNode@2@K@Z 120c3e10 f   DOMRangeImpl.obj
 0001:000c2f30       ?setEnd@DOMRangeImpl@xercesc_2_2@@UAEXPBVDOMNode@2@K@Z 120c3f30 f   DOMRangeImpl.obj
 0001:000c3050       ?setStartBefore@DOMRangeImpl@xercesc_2_2@@UAEXPBVDOMNode@2@@Z 120c4050 f   DOMRangeImpl.obj
 0001:000c31d0       ?setStartAfter@DOMRangeImpl@xercesc_2_2@@UAEXPBVDOMNode@2@@Z 120c41d0 f   DOMRangeImpl.obj
 0001:000c3350       ?setEndBefore@DOMRangeImpl@xercesc_2_2@@UAEXPBVDOMNode@2@@Z 120c4350 f   DOMRangeImpl.obj
 0001:000c34d0       ?setEndAfter@DOMRangeImpl@xercesc_2_2@@UAEXPBVDOMNode@2@@Z 120c44d0 f   DOMRangeImpl.obj
 0001:000c3650       ?detach@DOMRangeImpl@xercesc_2_2@@UAEXXZ 120c4650 f   DOMRangeImpl.obj
 0001:000c36b0       ?collapse@DOMRangeImpl@xercesc_2_2@@UAEX_N@Z 120c46b0 f   DOMRangeImpl.obj
 0001:000c3710       ?selectNode@DOMRangeImpl@xercesc_2_2@@UAEXPBVDOMNode@2@@Z 120c4710 f   DOMRangeImpl.obj
 0001:000c38b0       ?selectNodeContents@DOMRangeImpl@xercesc_2_2@@UAEXPBVDOMNode@2@@Z 120c48b0 f   DOMRangeImpl.obj
 0001:000c3a00       ?surroundContents@DOMRangeImpl@xercesc_2_2@@UAEXPAVDOMNode@2@@Z 120c4a00 f   DOMRangeImpl.obj
 0001:000c3b70       ?compareBoundaryPoints@DOMRangeImpl@xercesc_2_2@@UBEFW4CompareHow@DOMRange@2@PBV42@@Z 120c4b70 f   DOMRangeImpl.obj
 0001:000c3e40       ?deleteContents@DOMRangeImpl@xercesc_2_2@@UAEXXZ 120c4e40 f   DOMRangeImpl.obj
 0001:000c3e50       ?extractContents@DOMRangeImpl@xercesc_2_2@@UAEPAVDOMDocumentFragment@2@XZ 120c4e50 f   DOMRangeImpl.obj
 0001:000c3e80       ?cloneContents@DOMRangeImpl@xercesc_2_2@@UBEPAVDOMDocumentFragment@2@XZ 120c4e80 f   DOMRangeImpl.obj
 0001:000c3e90       ?insertNode@DOMRangeImpl@xercesc_2_2@@UAEXPAVDOMNode@2@@Z 120c4e90 f   DOMRangeImpl.obj
 0001:000c4080       ?cloneRange@DOMRangeImpl@xercesc_2_2@@UBEPAVDOMRange@2@XZ 120c5080 f   DOMRangeImpl.obj
 0001:000c40e0       ?toString@DOMRangeImpl@xercesc_2_2@@UBEPBGXZ 120c50e0 f   DOMRangeImpl.obj
 0001:000c4490       ?getCommonAncestorContainer@DOMRangeImpl@xercesc_2_2@@UBEPBVDOMNode@2@XZ 120c5490 f   DOMRangeImpl.obj
 0001:000c44a0       ?release@DOMRangeImpl@xercesc_2_2@@UAEXXZ 120c54a0 f   DOMRangeImpl.obj
 0001:000c44b0       ?isValidAncestorType@DOMRangeImpl@xercesc_2_2@@ABE_NPBVDOMNode@2@@Z 120c54b0 f   DOMRangeImpl.obj
 0001:000c44f0       ?isAncestorOf@DOMRangeImpl@xercesc_2_2@@CA_NPBVDOMNode@2@0@Z 120c54f0 f   DOMRangeImpl.obj
 0001:000c4520       ?hasLegalRootContainer@DOMRangeImpl@xercesc_2_2@@ABE_NPBVDOMNode@2@@Z 120c5520 f   DOMRangeImpl.obj
 0001:000c4580       ?isLegalContainedNode@DOMRangeImpl@xercesc_2_2@@ABE_NPBVDOMNode@2@@Z 120c5580 f   DOMRangeImpl.obj
 0001:000c45d0       ?indexOf@DOMRangeImpl@xercesc_2_2@@ABEKPBVDOMNode@2@0@Z 120c55d0 f   DOMRangeImpl.obj
 0001:000c4610       ?validateNode@DOMRangeImpl@xercesc_2_2@@ABEXPBVDOMNode@2@@Z 120c5610 f   DOMRangeImpl.obj
 0001:000c4690       ?commonAncestorOf@DOMRangeImpl@xercesc_2_2@@ABEPBVDOMNode@2@PBV32@0@Z 120c5690 f   DOMRangeImpl.obj
 0001:000c48e0       ?checkIndex@DOMRangeImpl@xercesc_2_2@@ABEXPBVDOMNode@2@K@Z 120c58e0 f   DOMRangeImpl.obj
 0001:000c49a0       ?nextNode@DOMRangeImpl@xercesc_2_2@@ABEPAVDOMNode@2@PBV32@_N@Z 120c59a0 f   DOMRangeImpl.obj
 0001:000c4a10       ?traverseContents@DOMRangeImpl@xercesc_2_2@@AAEPAVDOMDocumentFragment@2@W4TraversalType@12@@Z 120c5a10 f   DOMRangeImpl.obj
 0001:000c4b70       ?traverseSameContainer@DOMRangeImpl@xercesc_2_2@@AAEPAVDOMDocumentFragment@2@H@Z 120c5b70 f   DOMRangeImpl.obj
 0001:000c4d90       ?traverseCommonStartContainer@DOMRangeImpl@xercesc_2_2@@AAEPAVDOMDocumentFragment@2@PAVDOMNode@2@H@Z 120c5d90 f   DOMRangeImpl.obj
 0001:000c4eb0       ?traverseCommonEndContainer@DOMRangeImpl@xercesc_2_2@@AAEPAVDOMDocumentFragment@2@PAVDOMNode@2@H@Z 120c5eb0 f   DOMRangeImpl.obj
 0001:000c4fb0       ?traverseCommonAncestors@DOMRangeImpl@xercesc_2_2@@AAEPAVDOMDocumentFragment@2@PAVDOMNode@2@0H@Z 120c5fb0 f   DOMRangeImpl.obj
 0001:000c5120       ?traverseRightBoundary@DOMRangeImpl@xercesc_2_2@@AAEPAVDOMNode@2@PAV32@H@Z 120c6120 f   DOMRangeImpl.obj
 0001:000c53e0       ?traverseLeftBoundary@DOMRangeImpl@xercesc_2_2@@AAEPAVDOMNode@2@PAV32@H@Z 120c63e0 f   DOMRangeImpl.obj
 0001:000c56b0       ?traverseNode@DOMRangeImpl@xercesc_2_2@@AAEPAVDOMNode@2@PAV32@_N1H@Z 120c66b0 f   DOMRangeImpl.obj
 0001:000c5760       ?traverseFullySelected@DOMRangeImpl@xercesc_2_2@@AAEPAVDOMNode@2@PAV32@H@Z 120c6760 f   DOMRangeImpl.obj
 0001:000c57b0       ?traversePartiallySelected@DOMRangeImpl@xercesc_2_2@@AAEPAVDOMNode@2@PAV32@H@Z 120c67b0 f   DOMRangeImpl.obj
 0001:000c57d0       ?traverseTextNode@DOMRangeImpl@xercesc_2_2@@AAEPAVDOMNode@2@PAV32@_NH@Z 120c67d0 f   DOMRangeImpl.obj
 0001:000c5b50       ?getSelectedNode@DOMRangeImpl@xercesc_2_2@@AAEPAVDOMNode@2@PAV32@H@Z 120c6b50 f   DOMRangeImpl.obj
 0001:000c5bb0       ?checkReadOnly@DOMRangeImpl@xercesc_2_2@@AAEXPAVDOMNode@2@0KK@Z 120c6bb0 f   DOMRangeImpl.obj
 0001:000c5cf0       ?recurseTreeAndCheck@DOMRangeImpl@xercesc_2_2@@AAEXPAVDOMNode@2@0@Z 120c6cf0 f   DOMRangeImpl.obj
 0001:000c5d90       ?removeChild@DOMRangeImpl@xercesc_2_2@@AAEPAVDOMNode@2@PAV32@0@Z 120c6d90 f   DOMRangeImpl.obj
 0001:000c5db0       ?receiveReplacedText@DOMRangeImpl@xercesc_2_2@@QAEXPAVDOMNode@2@@Z 120c6db0 f   DOMRangeImpl.obj
 0001:000c5e20       ?updateRangeForDeletedText@DOMRangeImpl@xercesc_2_2@@QAEXPAVDOMNode@2@KH@Z 120c6e20 f   DOMRangeImpl.obj
 0001:000c5ec0       ?updateRangeForInsertedText@DOMRangeImpl@xercesc_2_2@@QAEXPAVDOMNode@2@KH@Z 120c6ec0 f   DOMRangeImpl.obj
 0001:000c5f40       ?updateRangeForDeletedNode@DOMRangeImpl@xercesc_2_2@@QAEXPAVDOMNode@2@@Z 120c6f40 f   DOMRangeImpl.obj
 0001:000c6110       ?updateRangeForInsertedNode@DOMRangeImpl@xercesc_2_2@@QAEXPAVDOMNode@2@@Z 120c7110 f   DOMRangeImpl.obj
 0001:000c61b0       ?updateSplitInfo@DOMRangeImpl@xercesc_2_2@@QAEXPAVDOMNode@2@0K@Z 120c71b0 f   DOMRangeImpl.obj
 0001:000c6240       ??0DOMStringPool@xercesc_2_2@@QAE@HPAVDOMDocumentImpl@1@@Z 120c7240 f   DOMStringPool.obj
 0001:000c6280       ?getPooledString@DOMStringPool@xercesc_2_2@@QAEPBGPBG@Z 120c7280 f   DOMStringPool.obj
 0001:000c6350       ??0DOMBuffer@xercesc_2_2@@QAE@PAVDOMDocumentImpl@1@PBG@Z 120c7350 f   DOMStringPool.obj
 0001:000c63d0       ?append@DOMBuffer@xercesc_2_2@@QAEXQBGI@Z 120c73d0 f   DOMStringPool.obj
 0001:000c64a0       ?set@DOMBuffer@xercesc_2_2@@QAEXQBGI@Z 120c74a0 f   DOMStringPool.obj
 0001:000c6560       ??0DOMTextImpl@xercesc_2_2@@QAE@PAVDOMDocument@1@PBG@Z 120c7560 f   DOMTextImpl.obj
 0001:000c65f0       ??_EDOMTextImpl@xercesc_2_2@@UAEPAXI@Z 120c75f0 f i DOMTextImpl.obj
 0001:000c6650       ??0DOMTextImpl@xercesc_2_2@@QAE@ABV01@_N@Z 120c7650 f   DOMTextImpl.obj
 0001:000c66e0       ??1DOMTextImpl@xercesc_2_2@@UAE@XZ 120c76e0 f   DOMTextImpl.obj
 0001:000c6750       ?cloneNode@DOMTextImpl@xercesc_2_2@@UBEPAVDOMNode@2@_N@Z 120c7750 f   DOMTextImpl.obj
 0001:000c6810       ?getNodeName@DOMTextImpl@xercesc_2_2@@UBEPBGXZ 120c7810 f   DOMTextImpl.obj
 0001:000c6820       ?splitText@DOMTextImpl@xercesc_2_2@@UAEPAVDOMText@2@K@Z 120c7820 f   DOMTextImpl.obj
 0001:000c6960       ?setIgnorableWhitespace@DOMTextImpl@xercesc_2_2@@MAEX_N@Z 120c7960 f   DOMTextImpl.obj
 0001:000c69a0       ?release@DOMTextImpl@xercesc_2_2@@UAEXXZ 120c79a0 f   DOMTextImpl.obj
 0001:000c6a30       ?getNodeValue@DOMProcessingInstructionImpl@xercesc_2_2@@UBEPBGXZ 120c7a30 f   DOMTextImpl.obj
 0001:000c6a30       ?getData@DOMProcessingInstructionImpl@xercesc_2_2@@UBEPBGXZ 120c7a30 f   DOMTextImpl.obj
 0001:000c6a30       ?getData@DOMTextImpl@xercesc_2_2@@UBEPBGXZ 120c7a30 f   DOMTextImpl.obj
 0001:000c6a30       ?getNodeValue@DOMCommentImpl@xercesc_2_2@@UBEPBGXZ 120c7a30 f   DOMTextImpl.obj
 0001:000c6a30       ?getNodeValue@DOMTextImpl@xercesc_2_2@@UBEPBGXZ 120c7a30 f   DOMTextImpl.obj
 0001:000c6a30       ?getData@DOMCommentImpl@xercesc_2_2@@UBEPBGXZ 120c7a30 f   DOMTextImpl.obj
 0001:000c6a40       ?getOwnerDocument@DOMTextImpl@xercesc_2_2@@UBEPAVDOMDocument@2@XZ 120c7a40 f   DOMTextImpl.obj
 0001:000c6a40       ?getOwnerDocument@DOMNotationImpl@xercesc_2_2@@UBEPAVDOMDocument@2@XZ 120c7a40 f   DOMTextImpl.obj
 0001:000c6a40       ?getOwnerDocument@DOMCommentImpl@xercesc_2_2@@UBEPAVDOMDocument@2@XZ 120c7a40 f   DOMTextImpl.obj
 0001:000c6a40       ?getOwnerDocument@DOMProcessingInstructionImpl@xercesc_2_2@@UBEPAVDOMDocument@2@XZ 120c7a40 f   DOMTextImpl.obj
 0001:000c6a50       ?getPreviousSibling@DOMCommentImpl@xercesc_2_2@@UBEPAVDOMNode@2@XZ 120c7a50 f   DOMTextImpl.obj
 0001:000c6a50       ?getPreviousSibling@DOMProcessingInstructionImpl@xercesc_2_2@@UBEPAVDOMNode@2@XZ 120c7a50 f   DOMTextImpl.obj
 0001:000c6a50       ?getPreviousSibling@DOMTextImpl@xercesc_2_2@@UBEPAVDOMNode@2@XZ 120c7a50 f   DOMTextImpl.obj
 0001:000c6a60       ?normalize@DOMCDATASectionImpl@xercesc_2_2@@UAEXXZ 120c7a60 f   DOMTextImpl.obj
 0001:000c6a60       ?normalize@DOMTextImpl@xercesc_2_2@@UAEXXZ 120c7a60 f   DOMTextImpl.obj
 0001:000c6a60       ?normalize@DOMProcessingInstructionImpl@xercesc_2_2@@UAEXXZ 120c7a60 f   DOMTextImpl.obj
 0001:000c6a60       ?normalize@DOMCommentImpl@xercesc_2_2@@UAEXXZ 120c7a60 f   DOMTextImpl.obj
 0001:000c6a60       ?normalize@DOMNotationImpl@xercesc_2_2@@UAEXXZ 120c7a60 f   DOMTextImpl.obj
 0001:000c6a70       ?removeChild@DOMNotationImpl@xercesc_2_2@@UAEPAVDOMNode@2@PAV32@@Z 120c7a70 f   DOMTextImpl.obj
 0001:000c6a70       ?removeChild@DOMTextImpl@xercesc_2_2@@UAEPAVDOMNode@2@PAV32@@Z 120c7a70 f   DOMTextImpl.obj
 0001:000c6a70       ?removeChild@DOMProcessingInstructionImpl@xercesc_2_2@@UAEPAVDOMNode@2@PAV32@@Z 120c7a70 f   DOMTextImpl.obj
 0001:000c6a70       ?removeChild@DOMCommentImpl@xercesc_2_2@@UAEPAVDOMNode@2@PAV32@@Z 120c7a70 f   DOMTextImpl.obj
 0001:000c6a80       ?replaceData@DOMCommentImpl@xercesc_2_2@@UAEXKKPBG@Z 120c7a80 f   DOMTextImpl.obj
 0001:000c6a80       ?replaceData@DOMTextImpl@xercesc_2_2@@UAEXKKPBG@Z 120c7a80 f   DOMTextImpl.obj
 0001:000c6aa0       ?setNodeValue@DOMProcessingInstructionImpl@xercesc_2_2@@UAEXPBG@Z 120c7aa0 f   DOMTextImpl.obj
 0001:000c6aa0       ?setNodeValue@DOMTextImpl@xercesc_2_2@@UAEXPBG@Z 120c7aa0 f   DOMTextImpl.obj
 0001:000c6aa0       ?setNodeValue@DOMCommentImpl@xercesc_2_2@@UAEXPBG@Z 120c7aa0 f   DOMTextImpl.obj
 0001:000c6ac0       ??0DOMTreeWalkerImpl@xercesc_2_2@@QAE@PAVDOMNode@1@KPAVDOMNodeFilter@1@_N@Z 120c7ac0 f   DOMTreeWalkerImpl.obj
 0001:000c6af0       ??_EDOMTreeWalkerImpl@xercesc_2_2@@UAEPAXI@Z 120c7af0 f i DOMTreeWalkerImpl.obj
 0001:000c6b50       ??0DOMTreeWalkerImpl@xercesc_2_2@@QAE@ABV01@@Z 120c7b50 f   DOMTreeWalkerImpl.obj
 0001:000c6b90       ??4DOMTreeWalkerImpl@xercesc_2_2@@QAEAAV01@ABV01@@Z 120c7b90 f   DOMTreeWalkerImpl.obj
 0001:000c6bc0       ?getExpandEntityReferences@NodeIteratorImpl@xercesc_2_2@@QAE_NXZ 120c7bc0 f   DOMTreeWalkerImpl.obj
 0001:000c6bc0       ?getExpandEntityReferences@DOMTreeWalkerImpl@xercesc_2_2@@UAE_NXZ 120c7bc0 f   DOMTreeWalkerImpl.obj
 0001:000c6bc0       ?getExpandEntityReferences@DOMNodeIteratorImpl@xercesc_2_2@@UAE_NXZ 120c7bc0 f   DOMTreeWalkerImpl.obj
 0001:000c6bd0       ?setCurrentNode@DOMTreeWalkerImpl@xercesc_2_2@@UAEXPAVDOMNode@2@@Z 120c7bd0 f   DOMTreeWalkerImpl.obj
 0001:000c6c00       ?parentNode@DOMTreeWalkerImpl@xercesc_2_2@@UAEPAVDOMNode@2@XZ 120c7c00 f   DOMTreeWalkerImpl.obj
 0001:000c6c90       ?firstChild@DOMTreeWalkerImpl@xercesc_2_2@@UAEPAVDOMNode@2@XZ 120c7c90 f   DOMTreeWalkerImpl.obj
 0001:000c6d40       ?lastChild@DOMTreeWalkerImpl@xercesc_2_2@@UAEPAVDOMNode@2@XZ 120c7d40 f   DOMTreeWalkerImpl.obj
 0001:000c6df0       ?previousSibling@DOMTreeWalkerImpl@xercesc_2_2@@UAEPAVDOMNode@2@XZ 120c7df0 f   DOMTreeWalkerImpl.obj
 0001:000c6e10       ?nextSibling@DOMTreeWalkerImpl@xercesc_2_2@@UAEPAVDOMNode@2@XZ 120c7e10 f   DOMTreeWalkerImpl.obj
 0001:000c6e30       ?previousNode@DOMTreeWalkerImpl@xercesc_2_2@@UAEPAVDOMNode@2@XZ 120c7e30 f   DOMTreeWalkerImpl.obj
 0001:000c6f80       ?nextNode@DOMTreeWalkerImpl@xercesc_2_2@@UAEPAVDOMNode@2@XZ 120c7f80 f   DOMTreeWalkerImpl.obj
 0001:000c7140       ?getParentNode@DOMTreeWalkerImpl@xercesc_2_2@@IAEPAVDOMNode@2@PAV32@@Z 120c8140 f   DOMTreeWalkerImpl.obj
 0001:000c71c0       ?getNextSibling@DOMTreeWalkerImpl@xercesc_2_2@@IAEPAVDOMNode@2@PAV32@@Z 120c81c0 f   DOMTreeWalkerImpl.obj
 0001:000c73b0       ?getPreviousSibling@DOMTreeWalkerImpl@xercesc_2_2@@IAEPAVDOMNode@2@PAV32@@Z 120c83b0 f   DOMTreeWalkerImpl.obj
 0001:000c75a0       ?getFirstChild@DOMTreeWalkerImpl@xercesc_2_2@@IAEPAVDOMNode@2@PAV32@@Z 120c85a0 f   DOMTreeWalkerImpl.obj
 0001:000c7640       ?getLastChild@DOMTreeWalkerImpl@xercesc_2_2@@IAEPAVDOMNode@2@PAV32@@Z 120c8640 f   DOMTreeWalkerImpl.obj
 0001:000c76e0       ?acceptNode@DOMTreeWalkerImpl@xercesc_2_2@@IAEFPAVDOMNode@2@@Z 120c86e0 f   DOMTreeWalkerImpl.obj
 0001:000c77a0       ??1DOMWriterImpl@xercesc_2_2@@UAE@XZ 120c87a0 f   DOMWriterImpl.obj
 0001:000c7800       ??_EDOMWriterImpl@xercesc_2_2@@UAEPAXI@Z 120c8800 f i DOMWriterImpl.obj
 0001:000c7860       ??0DOMWriterImpl@xercesc_2_2@@QAE@XZ 120c8860 f   DOMWriterImpl.obj
 0001:000c7890       ?canSetFeature@DOMWriterImpl@xercesc_2_2@@UBE_NQBG_N@Z 120c8890 f   DOMWriterImpl.obj
 0001:000c78d0       ?setFeature@DOMWriterImpl@xercesc_2_2@@UAEXQBG_N@Z 120c88d0 f   DOMWriterImpl.obj
 0001:000c79e0       ?getFeature@DOMWriterImpl@xercesc_2_2@@UBE_NQBG@Z 120c89e0 f   DOMWriterImpl.obj
 0001:000c7a20       ?setNewLine@DOMWriterImpl@xercesc_2_2@@UAEXQBG@Z 120c8a20 f   DOMWriterImpl.obj
 0001:000c7a20       ?setSystemId@InputSource@xercesc_2_2@@UAEXQBG@Z 120c8a20 f   DOMWriterImpl.obj
 0001:000c7a90       ?setErrorHandler@DOMWriterImpl@xercesc_2_2@@UAEXPAVDOMErrorHandler@2@@Z 120c8a90 f   DOMWriterImpl.obj
 0001:000c7aa0       ?setFilter@DOMWriterImpl@xercesc_2_2@@UAEXPAVDOMWriterFilter@2@@Z 120c8aa0 f   DOMWriterImpl.obj
 0001:000c7ab0       ?writeNode@DOMWriterImpl@xercesc_2_2@@UAE_NQAVXMLFormatTarget@2@ABVDOMNode@2@@Z 120c8ab0 f   DOMWriterImpl.obj
 0001:000c7c20       ?writeToString@DOMWriterImpl@xercesc_2_2@@UAEPAGABVDOMNode@2@@Z 120c8c20 f   DOMWriterImpl.obj
 0001:000c7d40       ?initSession@DOMWriterImpl@xercesc_2_2@@AAEXQBVDOMNode@2@@Z 120c8d40 f   DOMWriterImpl.obj
 0001:000c7dd0       ?processNode@DOMWriterImpl@xercesc_2_2@@AAEXQBVDOMNode@2@H@Z 120c8dd0 f   DOMWriterImpl.obj
 0001:000c8f80       ?checkFilter@DOMWriterImpl@xercesc_2_2@@ABE?AW4FilterAction@DOMNodeFilter@2@QBVDOMNode@2@@Z 120c9f80 f   DOMWriterImpl.obj
 0001:000c8fd0       ?checkFeature@DOMWriterImpl@xercesc_2_2@@ABE_NQBG_NAAH@Z 120c9fd0 f   DOMWriterImpl.obj
 0001:000c9270       ?reportError@DOMWriterImpl@xercesc_2_2@@AAE_NQBVDOMNode@2@W4ErrorSeverity@DOMError@2@QBG@Z 120ca270 f   DOMWriterImpl.obj
 0001:000c9320       ?reportError@DOMWriterImpl@xercesc_2_2@@AAE_NQBVDOMNode@2@W4ErrorSeverity@DOMError@2@W4Codes@XMLDOMMsg@2@@Z 120ca320 f   DOMWriterImpl.obj
 0001:000c9430       ?procCdataSection@DOMWriterImpl@xercesc_2_2@@AAEXQBGQBVDOMNode@2@H@Z 120ca430 f   DOMWriterImpl.obj
 0001:000c9680       ?procUnrepCharInCdataSection@DOMWriterImpl@xercesc_2_2@@AAEXQBGQBVDOMNode@2@H@Z 120ca680 f   DOMWriterImpl.obj
 0001:000c99d0       ?processNode@DOMWriterImpl@xercesc_2_2@@AAEXQBVDOMNode@2@@Z 120ca9d0 f   DOMWriterImpl.obj
 0001:000c99e0       ?canSetFeature@DOMWriterImpl@xercesc_2_2@@ABE_NH_N@Z 120ca9e0 f   DOMWriterImpl.obj
 0001:000c9a00       ?printNewLine@DOMWriterImpl@xercesc_2_2@@AAEXXZ 120caa00 f   DOMWriterImpl.obj
 0001:000c9a20       ?printIndent@DOMWriterImpl@xercesc_2_2@@ABEXH@Z 120caa20 f   DOMWriterImpl.obj
 0001:000c9a60       ?processBOM@DOMWriterImpl@xercesc_2_2@@AAEXXZ 120caa60 f   DOMWriterImpl.obj
 0001:000c9c30       ??1?$Janitor@VXMLFormatter@xercesc_2_2@@@xercesc_2_2@@QAE@XZ 120cac30 f i DOMWriterImpl.obj
 0001:000c9c60       ??0XSDElementNSImpl@xercesc_2_2@@QAE@PAVDOMDocument@1@PBG@Z 120cac60 f   XSDElementNSImpl.obj
 0001:000c9c90       ??_EXSDElementNSImpl@xercesc_2_2@@UAEPAXI@Z 120cac90 f i XSDElementNSImpl.obj
 0001:000c9cf0       ??0XSDElementNSImpl@xercesc_2_2@@QAE@PAVDOMDocument@1@PBG1JJ@Z 120cacf0 f   XSDElementNSImpl.obj
 0001:000c9d30       ??0XSDElementNSImpl@xercesc_2_2@@QAE@ABV01@_N@Z 120cad30 f   XSDElementNSImpl.obj
 0001:000c9d60       ?cloneNode@XSDElementNSImpl@xercesc_2_2@@UBEPAVDOMNode@2@_N@Z 120cad60 f   XSDElementNSImpl.obj
 0001:000c9df0       ??0RefCountedImpl@xercesc_2_2@@QAE@ABV01@@Z 120cadf0 f i AttrImpl.obj
 0001:000c9e10       ??_ERefCountedImpl@xercesc_2_2@@UAEPAXI@Z 120cae10 f i AttrImpl.obj
 0001:000c9e70       ??0NodeListImpl@xercesc_2_2@@QAE@ABV01@@Z 120cae70 f i AttrImpl.obj
 0001:000c9e90       ??4NodeListImpl@xercesc_2_2@@QAEAAV01@ABV01@@Z 120cae90 f i AttrImpl.obj
 0001:000c9e90       ??4RefCountedImpl@xercesc_2_2@@QAEAAV01@ABV01@@Z 120cae90 f i AttrImpl.obj
 0001:000c9ea0       ??_ENodeListImpl@xercesc_2_2@@UAEPAXI@Z 120caea0 f i AttrImpl.obj
 0001:000c9f00       ?isReadOnly@NodeImpl@xercesc_2_2@@QBE_NXZ 120caf00 f i AttrImpl.obj
 0001:000c9f20       ?isReadOnly@NodeImpl@xercesc_2_2@@QAEX_N@Z 120caf20 f i AttrImpl.obj
 0001:000c9f60       ?needsSyncData@NodeImpl@xercesc_2_2@@QBE_NXZ 120caf60 f i AttrImpl.obj
 0001:000c9f80       ?needsSyncData@NodeImpl@xercesc_2_2@@QAEX_N@Z 120caf80 f i AttrImpl.obj
 0001:000c9fc0       ?needsSyncChildren@NodeImpl@xercesc_2_2@@QBE_NXZ 120cafc0 f i AttrImpl.obj
 0001:000c9fe0       ?needsSyncChildren@NodeImpl@xercesc_2_2@@QAEX_N@Z 120cafe0 f i AttrImpl.obj
 0001:000ca020       ?isOwned@NodeImpl@xercesc_2_2@@QBE_NXZ 120cb020 f i AttrImpl.obj
 0001:000ca040       ?isOwned@NodeImpl@xercesc_2_2@@QAEX_N@Z 120cb040 f i AttrImpl.obj
 0001:000ca080       ?isFirstChild@NodeImpl@xercesc_2_2@@QBE_NXZ 120cb080 f i AttrImpl.obj
 0001:000ca0a0       ?isFirstChild@NodeImpl@xercesc_2_2@@QAEX_N@Z 120cb0a0 f i AttrImpl.obj
 0001:000ca0e0       ?isSpecified@NodeImpl@xercesc_2_2@@QBE_NXZ 120cb0e0 f i AttrImpl.obj
 0001:000ca100       ?isSpecified@NodeImpl@xercesc_2_2@@QAEX_N@Z 120cb100 f i AttrImpl.obj
 0001:000ca140       ?ignorableWhitespace@NodeImpl@xercesc_2_2@@QBE_NXZ 120cb140 f i AttrImpl.obj
 0001:000ca160       ?ignorableWhitespace@NodeImpl@xercesc_2_2@@QAEX_N@Z 120cb160 f i AttrImpl.obj
 0001:000ca1a0       ?setValueCalled@NodeImpl@xercesc_2_2@@QBE_NXZ 120cb1a0 f i AttrImpl.obj
 0001:000ca1c0       ?setValueCalled@NodeImpl@xercesc_2_2@@QAEX_N@Z 120cb1c0 f i AttrImpl.obj
 0001:000ca200       ?isIdAttr@NodeImpl@xercesc_2_2@@QBE_NXZ 120cb200 f i AttrImpl.obj
 0001:000ca220       ?isIdAttr@NodeImpl@xercesc_2_2@@QAEX_N@Z 120cb220 f i AttrImpl.obj
 0001:000ca260       ?hasUserData@NodeImpl@xercesc_2_2@@QBE_NXZ 120cb260 f i AttrImpl.obj
 0001:000ca280       ?hasUserData@NodeImpl@xercesc_2_2@@QAEX_N@Z 120cb280 f i AttrImpl.obj
 0001:000ca2c0       ?hasStringValue@NodeImpl@xercesc_2_2@@QBE_NXZ 120cb2c0 f i AttrImpl.obj
 0001:000ca2e0       ?hasStringValue@NodeImpl@xercesc_2_2@@QAEX_N@Z 120cb2e0 f i AttrImpl.obj
 0001:000ca320       ??4NodeImpl@xercesc_2_2@@QAEAAV01@ABV01@@Z 120cb320 f i AttrImpl.obj
 0001:000ca340       ??4ChildNode@xercesc_2_2@@QAEAAV01@ABV01@@Z 120cb340 f i AttrImpl.obj
 0001:000ca370       ??4ElementDefinitionImpl@xercesc_2_2@@QAEAAV01@ABV01@@Z 120cb370 f i AttrImpl.obj
 0001:000ca370       ??4AttrImpl@xercesc_2_2@@QAEAAV01@ABV01@@Z 120cb370 f i AttrImpl.obj
 0001:000ca3b0       ??_OAttrImpl@xercesc_2_2@@QAEXABV01@@Z 120cb3b0 f i AttrImpl.obj
 0001:000ca3c0       ??4DOM_DOMException@xercesc_2_2@@QAEAAV01@ABV01@@Z 120cb3c0 f i AttrImpl.obj
 0001:000ca3e0       ??1ParentNode@xercesc_2_2@@UAE@XZ 120cb3e0 f i AttrImpl.obj
 0001:000ca3f0       ??4XMLDeclImpl@xercesc_2_2@@QAEAAV01@ABV01@@Z 120cb3f0 f i AttrImpl.obj
 0001:000ca450       ??_OXMLDeclImpl@xercesc_2_2@@QAEXABV01@@Z 120cb450 f i AttrImpl.obj
 0001:000ca460       ?setErrorChecking@DocumentImpl@xercesc_2_2@@QAEX_N@Z 120cb460 f i AttrImpl.obj
 0001:000ca470       ?getErrorChecking@DocumentImpl@xercesc_2_2@@QAE_NXZ 120cb470 f i AttrImpl.obj
 0001:000ca480       ??0DocumentImpl@xercesc_2_2@@QAE@ABV01@@Z 120cb480 f i AttrImpl.obj
 0001:000ca4e0       ??4DocumentImpl@xercesc_2_2@@QAEAAV01@ABV01@@Z 120cb4e0 f i AttrImpl.obj
 0001:000ca570       ??_EDocumentImpl@xercesc_2_2@@UAEPAXI@Z 120cb570 f i AttrImpl.obj
 0001:000ca5d0       ??_OCharacterDataImpl@xercesc_2_2@@QAEXABV01@@Z 120cb5d0 f i AttrImpl.obj
 0001:000ca5e0       ??_OTextImpl@xercesc_2_2@@QAEXABV01@@Z 120cb5e0 f i AttrImpl.obj
 0001:000ca5f0       ??0NamedNodeMapImpl@xercesc_2_2@@QAE@ABV01@@Z 120cb5f0 f i AttrImpl.obj
 0001:000ca620       ??4NamedNodeMapImpl@xercesc_2_2@@QAEAAV01@ABV01@@Z 120cb620 f i AttrImpl.obj
 0001:000ca650       ??_ENamedNodeMapImpl@xercesc_2_2@@UAEPAXI@Z 120cb650 f i AttrImpl.obj
 0001:000ca6b0       ??0AttrMapImpl@xercesc_2_2@@QAE@ABV01@@Z 120cb6b0 f i AttrImpl.obj
 0001:000ca6f0       ??4AttrMapImpl@xercesc_2_2@@QAEAAV01@ABV01@@Z 120cb6f0 f i AttrImpl.obj
 0001:000ca720       ??_EAttrMapImpl@xercesc_2_2@@UAEPAXI@Z 120cb720 f i AttrImpl.obj
 0001:000ca780       ?hasDefaults@AttrMapImpl@xercesc_2_2@@UAE_NXZ 120cb780 f i AttrImpl.obj
 0001:000ca780       ?getCreateCommentNodes@AbstractDOMParser@xercesc_2_2@@QBE_NXZ 120cb780 f i AttrImpl.obj
 0001:000ca790       ?hasDefaults@AttrMapImpl@xercesc_2_2@@UAEX_N@Z 120cb790 f i AttrImpl.obj
 0001:000ca790       ?setCreateCommentNodes@AbstractDOMParser@xercesc_2_2@@QAEX_N@Z 120cb790 f i AttrImpl.obj
 0001:000ca7a0       ??4ElementImpl@xercesc_2_2@@QAEAAV01@ABV01@@Z 120cb7a0 f i AttrImpl.obj
 0001:000ca800       ??_OElementImpl@xercesc_2_2@@QAEXABV01@@Z 120cb800 f i AttrImpl.obj
 0001:000ca810       ??4RangeImpl@xercesc_2_2@@QAEAAV01@ABV01@@Z 120cb810 f i AttrImpl.obj
 0001:000ca870       ??0AttrImpl@xercesc_2_2@@QAE@PAVDocumentImpl@1@ABVDOMString@1@@Z 120cb870 f   AttrImpl.obj
 0001:000ca920       ??_EAttrImpl@xercesc_2_2@@UAEPAXI@Z 120cb920 f i AttrImpl.obj
 0001:000ca980       ??0AttrImpl@xercesc_2_2@@QAE@ABV01@_N@Z 120cb980 f   AttrImpl.obj
 0001:000cab00       ??1AttrImpl@xercesc_2_2@@UAE@XZ 120cbb00 f   AttrImpl.obj
 0001:000cab70       ?makeChildNode@AttrImpl@xercesc_2_2@@IAEXXZ 120cbb70 f   AttrImpl.obj
 0001:000cabe0       ?cloneNode@AttrImpl@xercesc_2_2@@UAEPAVNodeImpl@2@_N@Z 120cbbe0 f   AttrImpl.obj
 0001:000cac50       ?getNodeValue@AttrImpl@xercesc_2_2@@UAE?AVDOMString@2@XZ 120cbc50 f   AttrImpl.obj
 0001:000cac70       ?getSpecified@AttrImpl@xercesc_2_2@@UAE_NXZ 120cbc70 f   AttrImpl.obj
 0001:000cac90       ?getValue@AttrImpl@xercesc_2_2@@UAE?AVDOMString@2@XZ 120cbc90 f   AttrImpl.obj
 0001:000cadf0       ?setNodeValue@AttrImpl@xercesc_2_2@@UAEXABVDOMString@2@@Z 120cbdf0 f   AttrImpl.obj
 0001:000cae00       ?setSpecified@AttrImpl@xercesc_2_2@@UAEX_N@Z 120cbe00 f   AttrImpl.obj
 0001:000cae40       ?setValue@AttrImpl@xercesc_2_2@@UAEXABVDOMString@2@@Z 120cbe40 f   AttrImpl.obj
 0001:000caf90       ?toString@AttrImpl@xercesc_2_2@@UAE?AVDOMString@2@XZ 120cbf90 f   AttrImpl.obj
 0001:000cb090       ?setOwnerElement@AttrImpl@xercesc_2_2@@QAEXPAVElementImpl@2@@Z 120cc090 f   AttrImpl.obj
 0001:000cb0b0       ?cloneChildren@ParentNode@xercesc_2_2@@IAEXABVNodeImpl@2@@Z 120cc0b0 f   AttrImpl.obj
 0001:000cb0b0       ?cloneChildren@AttrImpl@xercesc_2_2@@IAEXABVNodeImpl@2@@Z 120cc0b0 f   AttrImpl.obj
 0001:000cb0f0       ?getFirstChild@AttrImpl@xercesc_2_2@@UAEPAVNodeImpl@2@XZ 120cc0f0 f   AttrImpl.obj
 0001:000cb160       ?lastChild@AttrImpl@xercesc_2_2@@IAEPAVChildNode@2@XZ 120cc160 f   AttrImpl.obj
 0001:000cb160       ?getLastChild@AttrImpl@xercesc_2_2@@UAEPAVNodeImpl@2@XZ 120cc160 f   AttrImpl.obj
 0001:000cb1e0       ?lastChild@AttrImpl@xercesc_2_2@@IAEXPAVChildNode@2@@Z 120cc1e0 f   AttrImpl.obj
 0001:000cb200       ?getLength@AttrImpl@xercesc_2_2@@UAEIXZ 120cc200 f   AttrImpl.obj
 0001:000cb230       ?hasChildNodes@AttrImpl@xercesc_2_2@@UAE_NXZ 120cc230 f   AttrImpl.obj
 0001:000cb240       ?insertBefore@AttrImpl@xercesc_2_2@@UAEPAVNodeImpl@2@PAV32@0@Z 120cc240 f   AttrImpl.obj
 0001:000cb610       ?item@AttrImpl@xercesc_2_2@@UAEPAVNodeImpl@2@I@Z 120cc610 f   AttrImpl.obj
 0001:000cb6b0       ?removeChild@AttrImpl@xercesc_2_2@@UAEPAVNodeImpl@2@PAV32@@Z 120cc6b0 f   AttrImpl.obj
 0001:000cb890       ?setReadOnly@AttrImpl@xercesc_2_2@@UAEX_N0@Z 120cc890 f   AttrImpl.obj
 0001:000cb8e0       ?normalize@AttrImpl@xercesc_2_2@@UAEXXZ 120cc8e0 f   AttrImpl.obj
 0001:000cb990       ??0AttrMapImpl@xercesc_2_2@@QAE@PAVNodeImpl@1@@Z 120cc990 f   AttrMapImpl.obj
 0001:000cb9b0       ??0AttrMapImpl@xercesc_2_2@@QAE@PAVNodeImpl@1@PAVNamedNodeMapImpl@1@@Z 120cc9b0 f   AttrMapImpl.obj
 0001:000cba20       ??1AttrMapImpl@xercesc_2_2@@UAE@XZ 120cca20 f   AttrMapImpl.obj
 0001:000cba30       ?cloneAttrMap@AttrMapImpl@xercesc_2_2@@UAEPAV12@PAVNodeImpl@2@@Z 120cca30 f   AttrMapImpl.obj
 0001:000cbab0       ?removeNamedItem@AttrMapImpl@xercesc_2_2@@UAEPAVNodeImpl@2@ABVDOMString@2@@Z 120ccab0 f   AttrMapImpl.obj
 0001:000cbb00       ?removeNamedItemNS@AttrMapImpl@xercesc_2_2@@UAEPAVNodeImpl@2@ABVDOMString@2@0@Z 120ccb00 f   AttrMapImpl.obj
 0001:000cbb60       ??4AttrNSImpl@xercesc_2_2@@QAEAAV01@ABV01@@Z 120ccb60 f i AttrNSImpl.obj
 0001:000cbbb0       ??1AttrNSImpl@xercesc_2_2@@UAE@XZ 120ccbb0 f i AttrNSImpl.obj
 0001:000cbc10       ??_OAttrNSImpl@xercesc_2_2@@QAEXABV01@@Z 120ccc10 f i AttrNSImpl.obj
 0001:000cbc20       ??0AttrNSImpl@xercesc_2_2@@QAE@PAVDocumentImpl@1@ABVDOMString@1@@Z 120ccc20 f   AttrNSImpl.obj
 0001:000cbcb0       ??_EAttrNSImpl@xercesc_2_2@@UAEPAXI@Z 120cccb0 f i AttrNSImpl.obj
 0001:000cbd10       ??0AttrNSImpl@xercesc_2_2@@QAE@PAVDocumentImpl@1@ABVDOMString@1@1@Z 120ccd10 f   AttrNSImpl.obj
 0001:000cbfc0       ??0AttrNSImpl@xercesc_2_2@@QAE@ABV01@_N@Z 120ccfc0 f   AttrNSImpl.obj
 0001:000cc090       ?cloneNode@AttrNSImpl@xercesc_2_2@@UAEPAVNodeImpl@2@_N@Z 120cd090 f   AttrNSImpl.obj
 0001:000cc100       ?getPrefix@AttrNSImpl@xercesc_2_2@@UAE?AVDOMString@2@XZ 120cd100 f   AttrNSImpl.obj
 0001:000cc150       ?setPrefix@AttrNSImpl@xercesc_2_2@@UAEXABVDOMString@2@@Z 120cd150 f   AttrNSImpl.obj
 0001:000cc440       ??4CommentImpl@xercesc_2_2@@QAEAAV01@ABV01@@Z 120cd440 f i CDATASectionImpl.obj
 0001:000cc440       ??4CharacterDataImpl@xercesc_2_2@@QAEAAV01@ABV01@@Z 120cd440 f i CDATASectionImpl.obj
 0001:000cc440       ??4TextImpl@xercesc_2_2@@QAEAAV01@ABV01@@Z 120cd440 f i CDATASectionImpl.obj
 0001:000cc440       ??4CDATASectionImpl@xercesc_2_2@@QAEAAV01@ABV01@@Z 120cd440 f i CDATASectionImpl.obj
 0001:000cc480       ??_OCDATASectionImpl@xercesc_2_2@@QAEXABV01@@Z 120cd480 f i CDATASectionImpl.obj
 0001:000cc4b0       ??0CDATASectionImpl@xercesc_2_2@@QAE@PAVDocumentImpl@1@ABVDOMString@1@@Z 120cd4b0 f   CDATASectionImpl.obj
 0001:000cc4d0       ??_ECDATASectionImpl@xercesc_2_2@@UAEPAXI@Z 120cd4d0 f i CDATASectionImpl.obj
 0001:000cc530       ??0CDATASectionImpl@xercesc_2_2@@QAE@ABV01@_N@Z 120cd530 f   CDATASectionImpl.obj
 0001:000cc550       ??1CDATASectionImpl@xercesc_2_2@@UAE@XZ 120cd550 f   CDATASectionImpl.obj
 0001:000cc560       ?cloneNode@CDATASectionImpl@xercesc_2_2@@UAEPAVNodeImpl@2@_N@Z 120cd560 f   CDATASectionImpl.obj
 0001:000cc5c0       ?getNodeName@CDATASectionImpl@xercesc_2_2@@UAE?AVDOMString@2@XZ 120cd5c0 f   CDATASectionImpl.obj
 0001:000cc600       ?reinitCDATASectionImpl@CDATASectionImpl@xercesc_2_2@@SAXXZ 120cd600 f   CDATASectionImpl.obj
 0001:000cc630       ??0CharacterDataImpl@xercesc_2_2@@QAE@PAVDocumentImpl@1@ABVDOMString@1@@Z 120cd630 f   CharacterDataImpl.obj
 0001:000cc6c0       ??_ECharacterDataImpl@xercesc_2_2@@UAEPAXI@Z 120cd6c0 f i CharacterDataImpl.obj
 0001:000cc720       ??0CharacterDataImpl@xercesc_2_2@@QAE@ABV01@_N@Z 120cd720 f   CharacterDataImpl.obj
 0001:000cc7b0       ??1CharacterDataImpl@xercesc_2_2@@UAE@XZ 120cd7b0 f   CharacterDataImpl.obj
 0001:000cc810       ?setNodeValue@CharacterDataImpl@xercesc_2_2@@UAEXABVDOMString@2@@Z 120cd810 f   CharacterDataImpl.obj
 0001:000cc940       ?appendData@CharacterDataImpl@xercesc_2_2@@UAEXABVDOMString@2@@Z 120cd940 f   CharacterDataImpl.obj
 0001:000cc9c0       ?deleteData@CharacterDataImpl@xercesc_2_2@@UAEXII@Z 120cd9c0 f   CharacterDataImpl.obj
 0001:000ccb00       ?getData@CharacterDataImpl@xercesc_2_2@@UAEAAVDOMString@2@XZ 120cdb00 f   CharacterDataImpl.obj
 0001:000ccb10       ?getCharDataLength@CharacterDataImpl@xercesc_2_2@@UAEIXZ 120cdb10 f   CharacterDataImpl.obj
 0001:000ccb20       ?insertData@CharacterDataImpl@xercesc_2_2@@UAEXIABVDOMString@2@@Z 120cdb20 f   CharacterDataImpl.obj
 0001:000ccba0       ?replaceData@CharacterDataImpl@xercesc_2_2@@UAEXIIABVDOMString@2@@Z 120cdba0 f   CharacterDataImpl.obj
 0001:000ccc40       ?setData@CharacterDataImpl@xercesc_2_2@@UAEXABVDOMString@2@@Z 120cdc40 f   CharacterDataImpl.obj
 0001:000ccce0       ?substringData@CharacterDataImpl@xercesc_2_2@@UAE?AVDOMString@2@II@Z 120cdce0 f   CharacterDataImpl.obj
 0001:000ccd10       ??0ChildNode@xercesc_2_2@@QAE@PAVDocumentImpl@1@@Z 120cdd10 f   ChildNode.obj
 0001:000ccd40       ??_EChildNode@xercesc_2_2@@UAEPAXI@Z 120cdd40 f i ChildNode.obj
 0001:000ccda0       ??0ChildNode@xercesc_2_2@@QAE@ABV01@@Z 120cdda0 f   ChildNode.obj
 0001:000ccdd0       ??1ChildNode@xercesc_2_2@@UAE@XZ 120cddd0 f   ChildNode.obj
 0001:000ccde0       ?getOwnerElement@AttrImpl@xercesc_2_2@@QAEPAVElementImpl@2@XZ 120cdde0 f   ChildNode.obj
 0001:000ccde0       ?getParentNode@ChildNode@xercesc_2_2@@UAEPAVNodeImpl@2@XZ 120cdde0 f   ChildNode.obj
 0001:000cce00       ?getPreviousSibling@ChildNode@xercesc_2_2@@UAEPAVNodeImpl@2@XZ 120cde00 f   ChildNode.obj
 0001:000cce20       ??0CommentImpl@xercesc_2_2@@QAE@ABV01@@Z 120cde20 f i CommentImpl.obj
 0001:000cce40       ??_ECommentImpl@xercesc_2_2@@UAEPAXI@Z 120cde40 f i CommentImpl.obj
 0001:000ccec0       ??0CommentImpl@xercesc_2_2@@QAE@PAVDocumentImpl@1@ABVDOMString@1@@Z 120cdec0 f   CommentImpl.obj
 0001:000ccee0       ??0CommentImpl@xercesc_2_2@@QAE@ABV01@_N@Z 120cdee0 f   CommentImpl.obj
 0001:000ccf00       ??1CommentImpl@xercesc_2_2@@UAE@XZ 120cdf00 f   CommentImpl.obj
 0001:000ccf10       ?cloneNode@CommentImpl@xercesc_2_2@@UAEPAVNodeImpl@2@_N@Z 120cdf10 f   CommentImpl.obj
 0001:000ccf70       ?getNodeName@CommentImpl@xercesc_2_2@@UAE?AVDOMString@2@XZ 120cdf70 f   CommentImpl.obj
 0001:000ccfb0       ?reinitCommentImpl@CommentImpl@xercesc_2_2@@SAXXZ 120cdfb0 f   CommentImpl.obj
 0001:000ccfe0       ??0DeepNodeListImpl@xercesc_2_2@@QAE@ABV01@@Z 120cdfe0 f i DeepNodeListImpl.obj
 0001:000cd080       ??4DeepNodeListImpl@xercesc_2_2@@QAEAAV01@ABV01@@Z 120ce080 f i DeepNodeListImpl.obj
 0001:000cd0e0       ??_EDeepNodeListImpl@xercesc_2_2@@UAEPAXI@Z 120ce0e0 f i DeepNodeListImpl.obj
 0001:000cd160       ??0DeepNodeListImpl@xercesc_2_2@@QAE@PAVNodeImpl@1@ABVDOMString@1@@Z 120ce160 f   DeepNodeListImpl.obj
 0001:000cd240       ??0DeepNodeListImpl@xercesc_2_2@@QAE@PAVNodeImpl@1@ABVDOMString@1@1@Z 120ce240 f   DeepNodeListImpl.obj
 0001:000cd350       ??1DeepNodeListImpl@xercesc_2_2@@UAE@XZ 120ce350 f   DeepNodeListImpl.obj
 0001:000cd3d0       ?getLength@DeepNodeListImpl@xercesc_2_2@@UAEIXZ 120ce3d0 f   DeepNodeListImpl.obj
 0001:000cd3f0       ?item@DeepNodeListImpl@xercesc_2_2@@UAEPAVNodeImpl@2@I@Z 120ce3f0 f   DeepNodeListImpl.obj
 0001:000cd480       ?nextMatchingElementAfter@DeepNodeListImpl@xercesc_2_2@@EAEPAVNodeImpl@2@PAV32@@Z 120ce480 f   DeepNodeListImpl.obj
 0001:000cd610       ?reinitDeepNodeListImpl@DeepNodeListImpl@xercesc_2_2@@SAXXZ 120ce610 f   DeepNodeListImpl.obj
 0001:000cd640       ??0DocumentFragmentImpl@xercesc_2_2@@QAE@ABV01@@Z 120ce640 f i DocumentFragmentImpl.obj
 0001:000cd660       ??4ParentNode@xercesc_2_2@@QAEAAV01@ABV01@@Z 120ce660 f i DocumentFragmentImpl.obj
 0001:000cd660       ??4DocumentFragmentImpl@xercesc_2_2@@QAEAAV01@ABV01@@Z 120ce660 f i DocumentFragmentImpl.obj
 0001:000cd6b0       ??_EDocumentFragmentImpl@xercesc_2_2@@UAEPAXI@Z 120ce6b0 f i DocumentFragmentImpl.obj
 0001:000cd730       ??0DocumentFragmentImpl@xercesc_2_2@@IAE@PAVDocumentImpl@1@@Z 120ce730 f   DocumentFragmentImpl.obj
 0001:000cd750       ??0DocumentFragmentImpl@xercesc_2_2@@AAE@ABV01@_N@Z 120ce750 f   DocumentFragmentImpl.obj
 0001:000cd7b0       ??1DocumentFragmentImpl@xercesc_2_2@@UAE@XZ 120ce7b0 f   DocumentFragmentImpl.obj
 0001:000cd7c0       ?cloneNode@DocumentFragmentImpl@xercesc_2_2@@UAEPAVNodeImpl@2@_N@Z 120ce7c0 f   DocumentFragmentImpl.obj
 0001:000cd850       ?getNodeName@DocumentFragmentImpl@xercesc_2_2@@UAE?AVDOMString@2@XZ 120ce850 f   DocumentFragmentImpl.obj
 0001:000cd890       ?reinitDocumentFragmentImpl@DocumentFragmentImpl@xercesc_2_2@@SAXXZ 120ce890 f   DocumentFragmentImpl.obj
 0001:000cd8c0       ??4DocumentTypeImpl@xercesc_2_2@@QAEAAV01@ABV01@@Z 120ce8c0 f i DocumentImpl.obj
 0001:000cd960       ??_ODocumentTypeImpl@xercesc_2_2@@QAEXABV01@@Z 120ce960 f i DocumentImpl.obj
 0001:000cd970       ??4ElementNSImpl@xercesc_2_2@@QAEAAV01@ABV01@@Z 120ce970 f i DocumentImpl.obj
 0001:000cd9f0       ??1ElementNSImpl@xercesc_2_2@@UAE@XZ 120ce9f0 f i DocumentImpl.obj
 0001:000cda50       ??_OElementNSImpl@xercesc_2_2@@QAEXABV01@@Z 120cea50 f i DocumentImpl.obj
 0001:000cda60       ??4EntityReferenceImpl@xercesc_2_2@@QAEAAV01@ABV01@@Z 120cea60 f i DocumentImpl.obj
 0001:000cdac0       ??_OEntityReferenceImpl@xercesc_2_2@@QAEXABV01@@Z 120ceac0 f i DocumentImpl.obj
 0001:000cdad0       ??4EntityImpl@xercesc_2_2@@QAEAAV01@ABV01@@Z 120cead0 f i DocumentImpl.obj
 0001:000cdb60       ??_OEntityImpl@xercesc_2_2@@QAEXABV01@@Z 120ceb60 f i DocumentImpl.obj
 0001:000cdb70       ??4NotationImpl@xercesc_2_2@@QAEAAV01@ABV01@@Z 120ceb70 f i DocumentImpl.obj
 0001:000cdbc0       ??_ONotationImpl@xercesc_2_2@@QAEXABV01@@Z 120cebc0 f i DocumentImpl.obj
 0001:000cdbd0       ??4ProcessingInstructionImpl@xercesc_2_2@@QAEAAV01@ABV01@@Z 120cebd0 f i DocumentImpl.obj
 0001:000cdc20       ??_OProcessingInstructionImpl@xercesc_2_2@@QAEXABV01@@Z 120cec20 f i DocumentImpl.obj
 0001:000cdc30       ??1TreeWalkerImpl@xercesc_2_2@@UAE@XZ 120cec30 f i DocumentImpl.obj
 0001:000cdcb0       ??0DocumentImpl@xercesc_2_2@@QAE@XZ 120cecb0 f   DocumentImpl.obj
 0001:000cdd40       ??0DocumentImpl@xercesc_2_2@@QAE@ABVDOMString@1@0PAVDocumentTypeImpl@1@@Z 120ced40 f   DocumentImpl.obj
 0001:000cde70       ?setDocumentType@DocumentImpl@xercesc_2_2@@AAEXPAVDocumentTypeImpl@2@@Z 120cee70 f   DocumentImpl.obj
 0001:000cdf40       ??1DocumentImpl@xercesc_2_2@@UAE@XZ 120cef40 f   DocumentImpl.obj
 0001:000ce060       ?cloneNode@DocumentImpl@xercesc_2_2@@UAEPAVNodeImpl@2@_N@Z 120cf060 f   DocumentImpl.obj
 0001:000ce150       ?getNodeName@DocumentImpl@xercesc_2_2@@UAE?AVDOMString@2@XZ 120cf150 f   DocumentImpl.obj
 0001:000ce190       ?createAttribute@DocumentImpl@xercesc_2_2@@UAEPAVAttrImpl@2@ABVDOMString@2@@Z 120cf190 f   DocumentImpl.obj
 0001:000ce250       ?createCDATASection@DocumentImpl@xercesc_2_2@@UAEPAVCDATASectionImpl@2@ABVDOMString@2@@Z 120cf250 f   DocumentImpl.obj
 0001:000ce2c0       ?createComment@DocumentImpl@xercesc_2_2@@UAEPAVCommentImpl@2@ABVDOMString@2@@Z 120cf2c0 f   DocumentImpl.obj
 0001:000ce330       ?createDocumentFragment@DocumentImpl@xercesc_2_2@@UAEPAVDocumentFragmentImpl@2@XZ 120cf330 f   DocumentImpl.obj
 0001:000ce390       ?createDocumentType@DocumentImpl@xercesc_2_2@@UAEPAVDocumentTypeImpl@2@ABVDOMString@2@@Z 120cf390 f   DocumentImpl.obj
 0001:000ce450       ?createDocumentType@DocumentImpl@xercesc_2_2@@UAEPAVDocumentTypeImpl@2@ABVDOMString@2@00@Z 120cf450 f   DocumentImpl.obj
 0001:000ce520       ?createElement@DocumentImpl@xercesc_2_2@@UAEPAVElementImpl@2@ABVDOMString@2@@Z 120cf520 f   DocumentImpl.obj
 0001:000ce600       ?createElement@DocumentImpl@xercesc_2_2@@UAEPAVElementImpl@2@PBG@Z 120cf600 f   DocumentImpl.obj
 0001:000ce690       ?createEntity@DocumentImpl@xercesc_2_2@@UAEPAVEntityImpl@2@ABVDOMString@2@@Z 120cf690 f   DocumentImpl.obj
 0001:000ce750       ?createEntityReference@DocumentImpl@xercesc_2_2@@UAEPAVEntityReferenceImpl@2@ABVDOMString@2@@Z 120cf750 f   DocumentImpl.obj
 0001:000ce810       ?createNotation@DocumentImpl@xercesc_2_2@@UAEPAVNotationImpl@2@ABVDOMString@2@@Z 120cf810 f   DocumentImpl.obj
 0001:000ce8d0       ?createProcessingInstruction@DocumentImpl@xercesc_2_2@@UAEPAVProcessingInstructionImpl@2@ABVDOMString@2@0@Z 120cf8d0 f   DocumentImpl.obj
 0001:000ce9a0       ?createTextNode@DocumentImpl@xercesc_2_2@@UAEPAVTextImpl@2@ABVDOMString@2@@Z 120cf9a0 f   DocumentImpl.obj
 0001:000cea10       ?createNodeIterator@DocumentImpl@xercesc_2_2@@SAPAVNodeIteratorImpl@2@VDOM_Node@2@KPAVDOM_NodeFilter@2@_N@Z 120cfa10 f   DocumentImpl.obj
 0001:000cebb0       ?createTreeWalker@DocumentImpl@xercesc_2_2@@SAPAVTreeWalkerImpl@2@VDOM_Node@2@KPAVDOM_NodeFilter@2@_N@Z 120cfbb0 f   DocumentImpl.obj
 0001:000ced50       ?getElementsByTagName@DocumentImpl@xercesc_2_2@@UAEPAVDeepNodeListImpl@2@ABVDOMString@2@@Z 120cfd50 f   DocumentImpl.obj
 0001:000cedc0       ?insertBefore@DocumentImpl@xercesc_2_2@@UAEPAVNodeImpl@2@PAV32@0@Z 120cfdc0 f   DocumentImpl.obj
 0001:000cee80       ?isXMLName@DocumentImpl@xercesc_2_2@@QAE_NABVDOMString@2@@Z 120cfe80 f   DocumentImpl.obj
 0001:000ceeb0       ?removeChild@DocumentImpl@xercesc_2_2@@UAEPAVNodeImpl@2@PAV32@@Z 120cfeb0 f   DocumentImpl.obj
 0001:000ceef0       ?unreferenced@DocumentImpl@xercesc_2_2@@UAEXXZ 120cfef0 f   DocumentImpl.obj
 0001:000cef00       ?importNode@DocumentImpl@xercesc_2_2@@UAEPAVNodeImpl@2@PAV32@_N@Z 120cff00 f   DocumentImpl.obj
 0001:000cf7c0       ?createElementNS@DocumentImpl@xercesc_2_2@@UAEPAVElementImpl@2@ABVDOMString@2@0@Z 120d07c0 f   DocumentImpl.obj
 0001:000cf890       ?createAttributeNS@DocumentImpl@xercesc_2_2@@UAEPAVAttrImpl@2@ABVDOMString@2@0@Z 120d0890 f   DocumentImpl.obj
 0001:000cf950       ?getElementsByTagNameNS@DocumentImpl@xercesc_2_2@@UAEPAVDeepNodeListImpl@2@ABVDOMString@2@0@Z 120d0950 f   DocumentImpl.obj
 0001:000cf9c0       ?getElementById@DocumentImpl@xercesc_2_2@@UAEPAVElementImpl@2@ABVDOMString@2@@Z 120d09c0 f   DocumentImpl.obj
 0001:000cf9f0       ?indexofQualifiedName@DocumentImpl@xercesc_2_2@@SAHABVDOMString@2@@Z 120d09f0 f   DocumentImpl.obj
 0001:000cfa50       ?createXMLDecl@DocumentImpl@xercesc_2_2@@UAEPAVXMLDeclImpl@2@ABVDOMString@2@00@Z 120d0a50 f   DocumentImpl.obj
 0001:000cfac0       ?createRange@DocumentImpl@xercesc_2_2@@UAEPAVRangeImpl@2@XZ 120d0ac0 f   DocumentImpl.obj
 0001:000cfc00       ?getRanges@DocumentImpl@xercesc_2_2@@UAEPAV?$RefVectorOf@VRangeImpl@xercesc_2_2@@@2@XZ 120d0c00 f   DocumentImpl.obj
 0001:000cfc10       ?removeRange@DocumentImpl@xercesc_2_2@@UAEXPAVRangeImpl@2@@Z 120d0c10 f   DocumentImpl.obj
 0001:000cfd20       ?isKidOK@DocumentImpl@xercesc_2_2@@SA_NPAVNodeImpl@2@0@Z 120d0d20 f   DocumentImpl.obj
 0001:000cfdb0       ?setUserData@DocumentImpl@xercesc_2_2@@UAEXPAVNodeImpl@2@PAX@Z 120d0db0 f   DocumentImpl.obj
 0001:000d0020       ?getUserData@DocumentImpl@xercesc_2_2@@UAEPAXPAVNodeImpl@2@@Z 120d1020 f   DocumentImpl.obj
 0001:000d00c0       ?getUserData@DocumentImpl@xercesc_2_2@@UAEPAXXZ 120d10c0 f   DocumentImpl.obj
 0001:000d00e0       ?setUserData@DocumentImpl@xercesc_2_2@@UAEXPAX@Z 120d10e0 f   DocumentImpl.obj
 0001:000d0120       ?changed@DocumentImpl@xercesc_2_2@@UAEXXZ 120d1120 f   DocumentImpl.obj
 0001:000d0130       ?changes@DocumentImpl@xercesc_2_2@@UAEHXZ 120d1130 f   DocumentImpl.obj
 0001:000d0140       ?reinitDocumentImpl@DocumentImpl@xercesc_2_2@@SAXXZ 120d1140 f   DocumentImpl.obj
 0001:000d0170       ??_E?$RefVectorOf@VNodeIteratorImpl@xercesc_2_2@@@xercesc_2_2@@UAEPAXI@Z 120d1170 f i DocumentImpl.obj
 0001:000d0170       ??_G?$RefVectorOf@VNodeIteratorImpl@xercesc_2_2@@@xercesc_2_2@@UAEPAXI@Z 120d1170 f i DocumentImpl.obj
 0001:000d0190       ??1?$RefVectorOf@VNodeIteratorImpl@xercesc_2_2@@@xercesc_2_2@@UAE@XZ 120d1190 f i DocumentImpl.obj
 0001:000d0210       ??1?$BaseRefVectorOf@VNodeIteratorImpl@xercesc_2_2@@@xercesc_2_2@@UAE@XZ 120d1210 f i DocumentImpl.obj
 0001:000d0220       ??_E?$RefVectorOf@VTreeWalkerImpl@xercesc_2_2@@@xercesc_2_2@@UAEPAXI@Z 120d1220 f i DocumentImpl.obj
 0001:000d0220       ??_G?$RefVectorOf@VTreeWalkerImpl@xercesc_2_2@@@xercesc_2_2@@UAEPAXI@Z 120d1220 f i DocumentImpl.obj
 0001:000d0240       ??1?$RefVectorOf@VTreeWalkerImpl@xercesc_2_2@@@xercesc_2_2@@UAE@XZ 120d1240 f i DocumentImpl.obj
 0001:000d02c0       ??1?$BaseRefVectorOf@VTreeWalkerImpl@xercesc_2_2@@@xercesc_2_2@@UAE@XZ 120d12c0 f i DocumentImpl.obj
 0001:000d02d0       ??_E?$RefVectorOf@VRangeImpl@xercesc_2_2@@@xercesc_2_2@@UAEPAXI@Z 120d12d0 f i DocumentImpl.obj
 0001:000d02d0       ??_G?$RefVectorOf@VRangeImpl@xercesc_2_2@@@xercesc_2_2@@UAEPAXI@Z 120d12d0 f i DocumentImpl.obj
 0001:000d02f0       ??1?$RefVectorOf@VRangeImpl@xercesc_2_2@@@xercesc_2_2@@UAE@XZ 120d12f0 f i DocumentImpl.obj
 0001:000d0370       ??1?$BaseRefVectorOf@VRangeImpl@xercesc_2_2@@@xercesc_2_2@@UAE@XZ 120d1370 f i DocumentImpl.obj
 0001:000d0380       ??0DocumentTypeImpl@xercesc_2_2@@QAE@PAVDocumentImpl@1@ABVDOMString@1@@Z 120d1380 f   DocumentTypeImpl.obj
 0001:000d04b0       ??_EDocumentTypeImpl@xercesc_2_2@@UAEPAXI@Z 120d14b0 f i DocumentTypeImpl.obj
 0001:000d0510       ??0DocumentTypeImpl@xercesc_2_2@@QAE@PAVDocumentImpl@1@ABVDOMString@1@11@Z 120d1510 f   DocumentTypeImpl.obj
 0001:000d0690       ??0DocumentTypeImpl@xercesc_2_2@@QAE@ABV01@_N@Z 120d1690 f   DocumentTypeImpl.obj
 0001:000d0800       ??1DocumentTypeImpl@xercesc_2_2@@UAE@XZ 120d1800 f   DocumentTypeImpl.obj
 0001:000d08d0       ?cloneNode@DocumentTypeImpl@xercesc_2_2@@UAEPAVNodeImpl@2@_N@Z 120d18d0 f   DocumentTypeImpl.obj
 0001:000d0940       ?setOwnerDocument@DocumentTypeImpl@xercesc_2_2@@UAEXPAVDocumentImpl@2@@Z 120d1940 f   DocumentTypeImpl.obj
 0001:000d0970       ?getNodeName@EntityReferenceImpl@xercesc_2_2@@UAE?AVDOMString@2@XZ 120d1970 f   DocumentTypeImpl.obj
 0001:000d0970       ?getTagName@ElementImpl@xercesc_2_2@@UAE?AVDOMString@2@XZ 120d1970 f   DocumentTypeImpl.obj
 0001:000d0970       ?getNodeName@EntityImpl@xercesc_2_2@@UAE?AVDOMString@2@XZ 120d1970 f   DocumentTypeImpl.obj
 0001:000d0970       ?getNodeName@DocumentTypeImpl@xercesc_2_2@@UAE?AVDOMString@2@XZ 120d1970 f   DocumentTypeImpl.obj
 0001:000d0970       ?getNodeName@ElementImpl@xercesc_2_2@@UAE?AVDOMString@2@XZ 120d1970 f   DocumentTypeImpl.obj
 0001:000d0970       ?getName@DocumentTypeImpl@xercesc_2_2@@UAE?AVDOMString@2@XZ 120d1970 f   DocumentTypeImpl.obj
 0001:000d0990       ?getNodeType@DocumentTypeImpl@xercesc_2_2@@UAEFXZ 120d1990 f   DocumentTypeImpl.obj
 0001:000d0990       ?getNodeType@DOMDocumentTypeImpl@xercesc_2_2@@UBEFXZ 120d1990 f   DocumentTypeImpl.obj
 0001:000d09a0       ?getVersion@DOMEntityImpl@xercesc_2_2@@UBEPBGXZ 120d19a0 f   DocumentTypeImpl.obj
 0001:000d09a0       ?getSystemId@DOMDocumentTypeImpl@xercesc_2_2@@UBEPBGXZ 120d19a0 f   DocumentTypeImpl.obj
 0001:000d09a0       ?getLocalName@DOMElementNSImpl@xercesc_2_2@@UBEPBGXZ 120d19a0 f   DocumentTypeImpl.obj
 0001:000d09a0       ?getDocumentURI@DOMDocumentImpl@xercesc_2_2@@UBEPBGXZ 120d19a0 f   DocumentTypeImpl.obj
 0001:000d09a0       ?getEnumString@UnionDatatypeValidator@xercesc_2_2@@UBEPBV?$RefArrayVectorOf@G@2@XZ 120d19a0 f   DocumentTypeImpl.obj
 0001:000d09a0       ?getElements@DocumentTypeImpl@xercesc_2_2@@UAEPAVNamedNodeMapImpl@2@XZ 120d19a0 f   DocumentTypeImpl.obj
 0001:000d09b0       ?getEncoding@DOMEntityImpl@xercesc_2_2@@UBEPBGXZ 120d19b0 f   DocumentTypeImpl.obj
 0001:000d09b0       ?getPublicId@DOMDocumentTypeImpl@xercesc_2_2@@UBEPBGXZ 120d19b0 f   DocumentTypeImpl.obj
 0001:000d09b0       ?getNotations@DocumentTypeImpl@xercesc_2_2@@UAEPAVNamedNodeMapImpl@2@XZ 120d19b0 f   DocumentTypeImpl.obj
 0001:000d09b0       ?getNamespaceURI@DOMElementNSImpl@xercesc_2_2@@UBEPBGXZ 120d19b0 f   DocumentTypeImpl.obj
 0001:000d09b0       ?getVersion@DOMDocumentImpl@xercesc_2_2@@UBEPBGXZ 120d19b0 f   DocumentTypeImpl.obj
 0001:000d09c0       ?setReadOnly@DocumentTypeImpl@xercesc_2_2@@UAEX_N0@Z 120d19c0 f   DocumentTypeImpl.obj
 0001:000d09f0       ?getPublicId@DocumentTypeImpl@xercesc_2_2@@UAE?AVDOMString@2@XZ 120d19f0 f   DocumentTypeImpl.obj
 0001:000d0a10       ?getSystemId@DocumentTypeImpl@xercesc_2_2@@UAE?AVDOMString@2@XZ 120d1a10 f   DocumentTypeImpl.obj
 0001:000d0a30       ?getInternalSubset@DocumentTypeImpl@xercesc_2_2@@UAE?AVDOMString@2@XZ 120d1a30 f   DocumentTypeImpl.obj
 0001:000d0a50       ?isIntSubsetReading@DocumentTypeImpl@xercesc_2_2@@AAE_NXZ 120d1a50 f   DocumentTypeImpl.obj
 0001:000d0a60       ?setPublicId@DocumentTypeImpl@xercesc_2_2@@EAEXABVDOMString@2@@Z 120d1a60 f   DocumentTypeImpl.obj
 0001:000d0ad0       ?setSystemId@DocumentTypeImpl@xercesc_2_2@@EAEXABVDOMString@2@@Z 120d1ad0 f   DocumentTypeImpl.obj
 0001:000d0b40       ?setInternalSubset@DocumentTypeImpl@xercesc_2_2@@EAEXABVDOMString@2@@Z 120d1b40 f   DocumentTypeImpl.obj
 0001:000d0bb0       ?getName@DOM_Attr@xercesc_2_2@@QBE?AVDOMString@2@XZ 120d1bb0 f   DOM_Attr.obj
 0001:000d0c20       ?getSpecified@DOM_Attr@xercesc_2_2@@QBE_NXZ 120d1c20 f   DOM_Attr.obj
 0001:000d0c30       ?getValue@DOM_Attr@xercesc_2_2@@QBE?AVDOMString@2@XZ 120d1c30 f   DOM_Attr.obj
 0001:000d0c50       ?setValue@DOM_Attr@xercesc_2_2@@QAEXABVDOMString@2@@Z 120d1c50 f   DOM_Attr.obj
 0001:000d0c50       ?removeAttribute@DOM_Element@xercesc_2_2@@QAEXABVDOMString@2@@Z 120d1c50 f   DOM_Attr.obj
 0001:000d0c70       ?getOwnerElement@DOM_Attr@xercesc_2_2@@QBE?AVDOM_Element@2@XZ 120d1c70 f   DOM_Attr.obj
 0001:000d0ca0       ??0DOM_CDATASection@xercesc_2_2@@QAE@XZ 120d1ca0 f   DOM_CDATASection.obj
 0001:000d0cb0       ??0DOM_CDATASection@xercesc_2_2@@QAE@ABV01@@Z 120d1cb0 f   DOM_CDATASection.obj
 0001:000d0cd0       ??0DOM_CDATASection@xercesc_2_2@@IAE@PAVCDATASectionImpl@1@@Z 120d1cd0 f   DOM_CDATASection.obj
 0001:000d0cf0       ??1DOM_CDATASection@xercesc_2_2@@QAE@XZ 120d1cf0 f   DOM_CDATASection.obj
 0001:000d0d00       ??4DOM_CDATASection@xercesc_2_2@@QAEAAV01@ABV01@@Z 120d1d00 f   DOM_CDATASection.obj
 0001:000d0d10       ?getData@DOM_CharacterData@xercesc_2_2@@QBE?AVDOMString@2@XZ 120d1d10 f   DOM_CharacterData.obj
 0001:000d0d40       ?setData@DOM_CharacterData@xercesc_2_2@@QAEXABVDOMString@2@@Z 120d1d40 f   DOM_CharacterData.obj
 0001:000d0d60       ?changed@DOMParentNode@xercesc_2_2@@QAEXXZ 120d1d60 f   DOM_CharacterData.obj
 0001:000d0d60       ?getLength@DOM_CharacterData@xercesc_2_2@@QBEIXZ 120d1d60 f   DOM_CharacterData.obj
 0001:000d0d70       ?substringData@DOM_CharacterData@xercesc_2_2@@QBE?AVDOMString@2@II@Z 120d1d70 f   DOM_CharacterData.obj
 0001:000d0da0       ?appendData@DOM_CharacterData@xercesc_2_2@@QAEXABVDOMString@2@@Z 120d1da0 f   DOM_CharacterData.obj
 0001:000d0dc0       ?insertData@DOM_CharacterData@xercesc_2_2@@QAEXIABVDOMString@2@@Z 120d1dc0 f   DOM_CharacterData.obj
 0001:000d0de0       ?deleteData@DOM_CharacterData@xercesc_2_2@@QAEXII@Z 120d1de0 f   DOM_CharacterData.obj
 0001:000d0e00       ?replaceData@DOM_CharacterData@xercesc_2_2@@QAEXIIABVDOMString@2@@Z 120d1e00 f   DOM_CharacterData.obj
 0001:000d0e20       ??0DOM_Comment@xercesc_2_2@@QAE@ABV01@@Z 120d1e20 f   DOM_Comment.obj
 0001:000d0e20       ??0DOM_Text@xercesc_2_2@@QAE@ABV01@@Z 120d1e20 f   DOM_Comment.obj
 0001:000d0e40       ??0DOM_Text@xercesc_2_2@@IAE@PAVTextImpl@1@@Z 120d1e40 f   DOM_Comment.obj
 0001:000d0e40       ??0DOM_Comment@xercesc_2_2@@IAE@PAVCommentImpl@1@@Z 120d1e40 f   DOM_Comment.obj
 0001:000d0e60       ??0DOM_DocumentType@xercesc_2_2@@IAE@PAVDocumentTypeImpl@1@@Z 120d1e60 f   DOM_Document.obj
 0001:000d0e60       ??0DOM_Document@xercesc_2_2@@IAE@PAVDocumentImpl@1@@Z 120d1e60 f   DOM_Document.obj
 0001:000d0e60       ??0DOM_DocumentFragment@xercesc_2_2@@IAE@PAVDocumentFragmentImpl@1@@Z 120d1e60 f   DOM_Document.obj
 0001:000d0e60       ??0DOM_Element@xercesc_2_2@@IAE@PAVElementImpl@1@@Z 120d1e60 f   DOM_Document.obj
 0001:000d0e60       ??0DOM_XMLDecl@xercesc_2_2@@IAE@PAVXMLDeclImpl@1@@Z 120d1e60 f   DOM_Document.obj
 0001:000d0e60       ??0DOM_ProcessingInstruction@xercesc_2_2@@IAE@PAVProcessingInstructionImpl@1@@Z 120d1e60 f   DOM_Document.obj
 0001:000d0e60       ??0DOM_EntityReference@xercesc_2_2@@IAE@PAVEntityReferenceImpl@1@@Z 120d1e60 f   DOM_Document.obj
 0001:000d0e60       ??0DOM_Attr@xercesc_2_2@@IAE@PAVAttrImpl@1@@Z 120d1e60 f   DOM_Document.obj
 0001:000d0e60       ??0DOM_Entity@xercesc_2_2@@IAE@PAVEntityImpl@1@@Z 120d1e60 f   DOM_Document.obj
 0001:000d0e60       ??0DOM_Notation@xercesc_2_2@@IAE@PAVNotationImpl@1@@Z 120d1e60 f   DOM_Document.obj
 0001:000d0e60       ??0DOM_CharacterData@xercesc_2_2@@IAE@PAVCharacterDataImpl@1@@Z 120d1e60 f   DOM_Document.obj
 0001:000d0e80       ??0DOM_Entity@xercesc_2_2@@QAE@ABV01@@Z 120d1e80 f   DOM_Document.obj
 0001:000d0e80       ??0DOM_ProcessingInstruction@xercesc_2_2@@QAE@ABV01@@Z 120d1e80 f   DOM_Document.obj
 0001:000d0e80       ??0DOM_Document@xercesc_2_2@@QAE@ABV01@@Z 120d1e80 f   DOM_Document.obj
 0001:000d0e80       ??0DOM_Element@xercesc_2_2@@QAE@ABV01@@Z 120d1e80 f   DOM_Document.obj
 0001:000d0e80       ??0DOM_Notation@xercesc_2_2@@QAE@ABV01@@Z 120d1e80 f   DOM_Document.obj
 0001:000d0e80       ??0DOM_XMLDecl@xercesc_2_2@@QAE@ABV01@@Z 120d1e80 f   DOM_Document.obj
 0001:000d0e80       ??0DOM_DocumentFragment@xercesc_2_2@@QAE@ABV01@@Z 120d1e80 f   DOM_Document.obj
 0001:000d0e80       ??0DOM_Attr@xercesc_2_2@@QAE@ABV01@@Z 120d1e80 f   DOM_Document.obj
 0001:000d0e80       ??0DOM_EntityReference@xercesc_2_2@@QAE@ABV01@@Z 120d1e80 f   DOM_Document.obj
 0001:000d0e80       ??0DOM_CharacterData@xercesc_2_2@@QAE@ABV01@@Z 120d1e80 f   DOM_Document.obj
 0001:000d0e80       ??0DOM_DocumentType@xercesc_2_2@@QAE@ABV01@@Z 120d1e80 f   DOM_Document.obj
 0001:000d0ea0       ?createDocument@DOM_Document@xercesc_2_2@@SA?AV12@XZ 120d1ea0 f   DOM_Document.obj
 0001:000d0f10       ?createNotation@DOM_Document@xercesc_2_2@@QAE?AVDOM_Notation@2@ABVDOMString@2@@Z 120d1f10 f   DOM_Document.obj
 0001:000d0f40       ?getDoctype@DOM_Document@xercesc_2_2@@QBE?AVDOM_DocumentType@2@XZ 120d1f40 f   DOM_Document.obj
 0001:000d0f70       ?getImplementation@DOM_Document@xercesc_2_2@@QBEAAVDOM_DOMImplementation@2@XZ 120d1f70 f   DOM_Document.obj
 0001:000d0f80       ?getDocumentElement@DOM_Document@xercesc_2_2@@QBE?AVDOM_Element@2@XZ 120d1f80 f   DOM_Document.obj
 0001:000d0fb0       ?createElement@DOM_Document@xercesc_2_2@@QAE?AVDOM_Element@2@ABVDOMString@2@@Z 120d1fb0 f   DOM_Document.obj
 0001:000d0fe0       ?createElement@DOM_Document@xercesc_2_2@@QAE?AVDOM_Element@2@PBG@Z 120d1fe0 f   DOM_Document.obj
 0001:000d1010       ?splitText@DOM_Text@xercesc_2_2@@QAE?AV12@I@Z 120d2010 f   DOM_Document.obj
 0001:000d1010       ?createEntity@DOM_Document@xercesc_2_2@@QAE?AVDOM_Entity@2@ABVDOMString@2@@Z 120d2010 f   DOM_Document.obj
 0001:000d1040       ?createDocumentFragment@DOM_Document@xercesc_2_2@@QAE?AVDOM_DocumentFragment@2@XZ 120d2040 f   DOM_Document.obj
 0001:000d1070       ?createDocumentType@DOM_Document@xercesc_2_2@@QAE?AVDOM_DocumentType@2@ABVDOMString@2@@Z 120d2070 f   DOM_Document.obj
 0001:000d10a0       ?createTextNode@DOM_Document@xercesc_2_2@@QAE?AVDOM_Text@2@ABVDOMString@2@@Z 120d20a0 f   DOM_Document.obj
 0001:000d10d0       ?createComment@DOM_Document@xercesc_2_2@@QAE?AVDOM_Comment@2@ABVDOMString@2@@Z 120d20d0 f   DOM_Document.obj
 0001:000d1100       ?createCDATASection@DOM_Document@xercesc_2_2@@QAE?AVDOM_CDATASection@2@ABVDOMString@2@@Z 120d2100 f   DOM_Document.obj
 0001:000d1130       ?getAttributeNodeNS@DOM_Element@xercesc_2_2@@QBE?AVDOM_Attr@2@ABVDOMString@2@0@Z 120d2130 f   DOM_Document.obj
 0001:000d1130       ?createProcessingInstruction@DOM_Document@xercesc_2_2@@QAE?AVDOM_ProcessingInstruction@2@ABVDOMString@2@0@Z 120d2130 f   DOM_Document.obj
 0001:000d1170       ?createAttribute@DOM_Document@xercesc_2_2@@QAE?AVDOM_Attr@2@ABVDOMString@2@@Z 120d2170 f   DOM_Document.obj
 0001:000d11a0       ?createEntityReference@DOM_Document@xercesc_2_2@@QAE?AVDOM_EntityReference@2@ABVDOMString@2@@Z 120d21a0 f   DOM_Document.obj
 0001:000d11d0       ?createNodeIterator@DOM_Document@xercesc_2_2@@QAE?AVDOM_NodeIterator@2@VDOM_Node@2@KPAVDOM_NodeFilter@2@_N@Z 120d21d0 f   DOM_Document.obj
 0001:000d1260       ?createTreeWalker@DOM_Document@xercesc_2_2@@QAE?AVDOM_TreeWalker@2@VDOM_Node@2@KPAVDOM_NodeFilter@2@_N@Z 120d2260 f   DOM_Document.obj
 0001:000d12f0       ?getElementsByTagName@DOM_Document@xercesc_2_2@@QBE?AVDOM_NodeList@2@ABVDOMString@2@@Z 120d22f0 f   DOM_Document.obj
 0001:000d1320       ?importNode@DOM_Document@xercesc_2_2@@QAE?AVDOM_Node@2@ABV32@_N@Z 120d2320 f   DOM_Document.obj
 0001:000d1360       ?createElementNS@DOM_Document@xercesc_2_2@@QAE?AVDOM_Element@2@ABVDOMString@2@0@Z 120d2360 f   DOM_Document.obj
 0001:000d13a0       ?createAttributeNS@DOM_Document@xercesc_2_2@@QAE?AVDOM_Attr@2@ABVDOMString@2@0@Z 120d23a0 f   DOM_Document.obj
 0001:000d13e0       ?getElementsByTagNameNS@DOM_Document@xercesc_2_2@@QBE?AVDOM_NodeList@2@ABVDOMString@2@0@Z 120d23e0 f   DOM_Document.obj
 0001:000d1420       ?getElementById@DOM_Document@xercesc_2_2@@QAE?AVDOM_Element@2@ABVDOMString@2@@Z 120d2420 f   DOM_Document.obj
 0001:000d1450       ?createXMLDecl@DOM_Document@xercesc_2_2@@QAE?AVDOM_XMLDecl@2@ABVDOMString@2@00@Z 120d2450 f   DOM_Document.obj
 0001:000d1490       ?createRange@DOM_Document@xercesc_2_2@@QAE?AVDOM_Range@2@XZ 120d2490 f   DOM_Document.obj
 0001:000d14c0       ?setErrorChecking@DOM_Document@xercesc_2_2@@QAEX_N@Z 120d24c0 f   DOM_Document.obj
 0001:000d14d0       ?getErrorChecking@DOM_Document@xercesc_2_2@@QAE_NXZ 120d24d0 f   DOM_Document.obj
 0001:000d14e0       ??0DOM_DocumentType@xercesc_2_2@@QAE@H@Z 120d24e0 f   DOM_DocumentType.obj
 0001:000d14f0       ?getName@DOM_DocumentType@xercesc_2_2@@QBE?AVDOMString@2@XZ 120d24f0 f   DOM_DocumentType.obj
 0001:000d1560       ?getEntities@DOM_DocumentType@xercesc_2_2@@QBE?AVDOM_NamedNodeMap@2@XZ 120d2560 f   DOM_DocumentType.obj
 0001:000d1590       ?getNotations@DOM_DocumentType@xercesc_2_2@@QBE?AVDOM_NamedNodeMap@2@XZ 120d2590 f   DOM_DocumentType.obj
 0001:000d15c0       ?getPublicId@DOM_DocumentType@xercesc_2_2@@QBE?AVDOMString@2@XZ 120d25c0 f   DOM_DocumentType.obj
 0001:000d1630       ?getSystemId@DOM_DocumentType@xercesc_2_2@@QBE?AVDOMString@2@XZ 120d2630 f   DOM_DocumentType.obj
 0001:000d16a0       ?getInternalSubset@DOM_DocumentType@xercesc_2_2@@QBE?AVDOMString@2@XZ 120d26a0 f   DOM_DocumentType.obj
 0001:000d1710       ??0DOM_DOMException@xercesc_2_2@@QAE@XZ 120d2710 f   DOM_DOMException.obj
 0001:000d1730       ??_EDOM_DOMException@xercesc_2_2@@UAEPAXI@Z 120d2730 f i DOM_DOMException.obj
 0001:000d1790       ??0DOM_DOMException@xercesc_2_2@@QAE@FABVDOMString@1@@Z 120d2790 f   DOM_DOMException.obj
 0001:000d17c0       ??0DOM_DOMException@xercesc_2_2@@QAE@ABV01@@Z 120d27c0 f   DOM_DOMException.obj
 0001:000d17f0       ??1DOM_DOMException@xercesc_2_2@@UAE@XZ 120d27f0 f   DOM_DOMException.obj
 0001:000d1820       ??4DOM_DOMImplementation@xercesc_2_2@@QAEAAV01@ABV01@@Z 120d2820 f   DOM_DOMImplementation.obj
 0001:000d1820       ??0DOM_DOMImplementation@xercesc_2_2@@AAE@ABV01@@Z 120d2820 f   DOM_DOMImplementation.obj
 0001:000d1830       ?getImplementation@DOM_DOMImplementation@xercesc_2_2@@SAAAV12@XZ 120d2830 f   DOM_DOMImplementation.obj
 0001:000d1940       ?hasFeature@DOM_DOMImplementation@xercesc_2_2@@QAE_NABVDOMString@2@0@Z 120d2940 f   DOM_DOMImplementation.obj
 0001:000d1b10       ?createDocumentType@DOM_DOMImplementation@xercesc_2_2@@QAE?AVDOM_DocumentType@2@ABVDOMString@2@00@Z 120d2b10 f   DOM_DOMImplementation.obj
 0001:000d1c10       ?createDocument@DOM_DOMImplementation@xercesc_2_2@@QAE?AVDOM_Document@2@ABVDOMString@2@0ABVDOM_DocumentType@2@@Z 120d2c10 f   DOM_DOMImplementation.obj
 0001:000d1cb0       ?reinitDOM_DOMImplementation@DOM_DOMImplementation@xercesc_2_2@@SAXXZ 120d2cb0 f   DOM_DOMImplementation.obj
 0001:000d1d80       ?getTagName@DOM_Element@xercesc_2_2@@QBE?AVDOMString@2@XZ 120d2d80 f   DOM_Element.obj
 0001:000d1df0       ?getAttribute@DOM_Element@xercesc_2_2@@QBE?AVDOMString@2@ABV32@@Z 120d2df0 f   DOM_Element.obj
 0001:000d1e70       ?setAttribute@DOM_Element@xercesc_2_2@@QAEXABVDOMString@2@0@Z 120d2e70 f   DOM_Element.obj
 0001:000d1e90       ?getAttributeNode@DOM_Element@xercesc_2_2@@QBE?AVDOM_Attr@2@ABVDOMString@2@@Z 120d2e90 f   DOM_Element.obj
 0001:000d1ec0       ?setAttributeNode@DOM_Element@xercesc_2_2@@QAE?AVDOM_Attr@2@V32@@Z 120d2ec0 f   DOM_Element.obj
 0001:000d1f30       ?removeAttributeNode@DOM_Element@xercesc_2_2@@QAE?AVDOM_Attr@2@V32@@Z 120d2f30 f   DOM_Element.obj
 0001:000d1fa0       ?getElementsByTagName@DOM_Element@xercesc_2_2@@QBE?AVDOM_NodeList@2@ABVDOMString@2@@Z 120d2fa0 f   DOM_Element.obj
 0001:000d1fd0       ?getAttributeNS@DOM_Element@xercesc_2_2@@QBE?AVDOMString@2@ABV32@0@Z 120d2fd0 f   DOM_Element.obj
 0001:000d2050       ?setAttributeNS@DOM_Element@xercesc_2_2@@QAEXABVDOMString@2@00@Z 120d3050 f   DOM_Element.obj
 0001:000d2070       ?removeAttributeNS@DOM_Element@xercesc_2_2@@QAEXABVDOMString@2@0@Z 120d3070 f   DOM_Element.obj
 0001:000d2090       ?setAttributeNodeNS@DOM_Element@xercesc_2_2@@QAE?AVDOM_Attr@2@V32@@Z 120d3090 f   DOM_Element.obj
 0001:000d2100       ?getElementsByTagNameNS@DOM_Element@xercesc_2_2@@QBE?AVDOM_NodeList@2@ABVDOMString@2@0@Z 120d3100 f   DOM_Element.obj
 0001:000d2140       ?hasAttribute@DOM_Element@xercesc_2_2@@QBE_NABVDOMString@2@@Z 120d3140 f   DOM_Element.obj
 0001:000d2160       ?hasAttributeNS@DOM_Element@xercesc_2_2@@QBE_NABVDOMString@2@0@Z 120d3160 f   DOM_Element.obj
 0001:000d2180       ?getPublicId@DOM_Entity@xercesc_2_2@@QBE?AVDOMString@2@XZ 120d3180 f   DOM_Entity.obj
 0001:000d21f0       ?getSystemId@DOM_Entity@xercesc_2_2@@QBE?AVDOMString@2@XZ 120d31f0 f   DOM_Entity.obj
 0001:000d2260       ?getNotationName@DOM_Entity@xercesc_2_2@@QBE?AVDOMString@2@XZ 120d3260 f   DOM_Entity.obj
 0001:000d22d0       ?getFirstChild@DOM_Entity@xercesc_2_2@@QBE?AVDOM_Node@2@XZ 120d32d0 f   DOM_Entity.obj
 0001:000d2300       ?getLastChild@DOM_Entity@xercesc_2_2@@QBE?AVDOM_Node@2@XZ 120d3300 f   DOM_Entity.obj
 0001:000d2330       ?getChildNodes@DOM_Entity@xercesc_2_2@@QBE?AVDOM_NodeList@2@XZ 120d3330 f   DOM_Entity.obj
 0001:000d2330       ?getChildNodes@DOM_Node@xercesc_2_2@@QBE?AVDOM_NodeList@2@XZ 120d3330 f   DOM_Entity.obj
 0001:000d2350       ?getPreviousSibling@DOM_Entity@xercesc_2_2@@QBE?AVDOM_Node@2@XZ 120d3350 f   DOM_Entity.obj
 0001:000d2380       ?getNextSibling@DOM_Entity@xercesc_2_2@@QBE?AVDOM_Node@2@XZ 120d3380 f   DOM_Entity.obj
 0001:000d23b0       ??0DOM_NamedNodeMap@xercesc_2_2@@QAE@XZ 120d33b0 f   DOM_NamedNodeMap.obj
 0001:000d23c0       ??0DOM_NamedNodeMap@xercesc_2_2@@QAE@ABV01@@Z 120d33c0 f   DOM_NamedNodeMap.obj
 0001:000d2400       ??0DOM_NamedNodeMap@xercesc_2_2@@IAE@PAVNamedNodeMapImpl@1@@Z 120d3400 f   DOM_NamedNodeMap.obj
 0001:000d2430       ??0DOM_NamedNodeMap@xercesc_2_2@@IAE@PAVNodeImpl@1@@Z 120d3430 f   DOM_NamedNodeMap.obj
 0001:000d2450       ??1DOM_NamedNodeMap@xercesc_2_2@@QAE@XZ 120d3450 f   DOM_NamedNodeMap.obj
 0001:000d2470       ??4DOM_NamedNodeMap@xercesc_2_2@@QAEAAV01@ABV01@@Z 120d3470 f   DOM_NamedNodeMap.obj
 0001:000d24d0       ??4DOM_NamedNodeMap@xercesc_2_2@@QAEAAV01@PBVDOM_NullPtr@1@@Z 120d34d0 f   DOM_NamedNodeMap.obj
 0001:000d2510       ?getNamedItem@DOM_NamedNodeMap@xercesc_2_2@@QBE?AVDOM_Node@2@ABVDOMString@2@@Z 120d3510 f   DOM_NamedNodeMap.obj
 0001:000d25e0       ?setNamedItem@DOM_NamedNodeMap@xercesc_2_2@@QAE?AVDOM_Node@2@V32@@Z 120d35e0 f   DOM_NamedNodeMap.obj
 0001:000d26d0       ?removeNamedItem@DOM_NamedNodeMap@xercesc_2_2@@QAE?AVDOM_Node@2@ABVDOMString@2@@Z 120d36d0 f   DOM_NamedNodeMap.obj
 0001:000d27a0       ?item@DOM_NamedNodeMap@xercesc_2_2@@QBE?AVDOM_Node@2@I@Z 120d37a0 f   DOM_NamedNodeMap.obj
 0001:000d2870       ?getLength@DOM_NamedNodeMap@xercesc_2_2@@QBEIXZ 120d3870 f   DOM_NamedNodeMap.obj
 0001:000d2890       ?getNamedItemNS@DOM_NamedNodeMap@xercesc_2_2@@QAE?AVDOM_Node@2@ABVDOMString@2@0@Z 120d3890 f   DOM_NamedNodeMap.obj
 0001:000d2960       ?setNamedItemNS@DOM_NamedNodeMap@xercesc_2_2@@QAE?AVDOM_Node@2@V32@@Z 120d3960 f   DOM_NamedNodeMap.obj
 0001:000d2a50       ?removeNamedItemNS@DOM_NamedNodeMap@xercesc_2_2@@QAE?AVDOM_Node@2@ABVDOMString@2@0@Z 120d3a50 f   DOM_NamedNodeMap.obj
 0001:000d2b20       ??8DOM_NodeList@xercesc_2_2@@QBE_NABV01@@Z 120d3b20 f   DOM_Node.obj
 0001:000d2b20       ??8DOM_NodeIterator@xercesc_2_2@@QBE_NABV01@@Z 120d3b20 f   DOM_Node.obj
 0001:000d2b20       ??8DOMString@xercesc_2_2@@QBE_NABV01@@Z 120d3b20 f   DOM_Node.obj
 0001:000d2b20       ??8DOM_Range@xercesc_2_2@@QBE_NABV01@@Z 120d3b20 f   DOM_Node.obj
 0001:000d2b20       ??8DOM_Node@xercesc_2_2@@QBE_NABV01@@Z 120d3b20 f   DOM_Node.obj
 0001:000d2b20       ??8DOM_NamedNodeMap@xercesc_2_2@@QBE_NABV01@@Z 120d3b20 f   DOM_Node.obj
 0001:000d2b20       ??8DOM_TreeWalker@xercesc_2_2@@QBE_NABV01@@Z 120d3b20 f   DOM_Node.obj
 0001:000d2b30       ??9DOMString@xercesc_2_2@@QBE_NPBVDOM_NullPtr@1@@Z 120d3b30 f   DOM_Node.obj
 0001:000d2b30       ??9DOM_NamedNodeMap@xercesc_2_2@@QBE_NPBVDOM_NullPtr@1@@Z 120d3b30 f   DOM_Node.obj
 0001:000d2b30       ??9DOM_NodeList@xercesc_2_2@@QBE_NPBVDOM_NullPtr@1@@Z 120d3b30 f   DOM_Node.obj
 0001:000d2b30       ??9DOM_Node@xercesc_2_2@@QBE_NPBVDOM_NullPtr@1@@Z 120d3b30 f   DOM_Node.obj
 0001:000d2b30       ??9DOM_TreeWalker@xercesc_2_2@@QBE_NPBVDOM_NullPtr@1@@Z 120d3b30 f   DOM_Node.obj
 0001:000d2b30       ??9DOM_Range@xercesc_2_2@@QBE_NPBVDOM_NullPtr@1@@Z 120d3b30 f   DOM_Node.obj
 0001:000d2b30       ??9DOM_NodeIterator@xercesc_2_2@@QBE_NPBVDOM_NullPtr@1@@Z 120d3b30 f   DOM_Node.obj
 0001:000d2b40       ??8DOM_Node@xercesc_2_2@@QBE_NPBVDOM_NullPtr@1@@Z 120d3b40 f   DOM_Node.obj
 0001:000d2b40       ??8DOMString@xercesc_2_2@@QBE_NPBVDOM_NullPtr@1@@Z 120d3b40 f   DOM_Node.obj
 0001:000d2b40       ??8DOM_NodeList@xercesc_2_2@@QBE_NPBVDOM_NullPtr@1@@Z 120d3b40 f   DOM_Node.obj
 0001:000d2b40       ??8DOM_NamedNodeMap@xercesc_2_2@@QBE_NPBVDOM_NullPtr@1@@Z 120d3b40 f   DOM_Node.obj
 0001:000d2b40       ??8DOM_NodeIterator@xercesc_2_2@@QBE_NPBVDOM_NullPtr@1@@Z 120d3b40 f   DOM_Node.obj
 0001:000d2b40       ??8DOM_TreeWalker@xercesc_2_2@@QBE_NPBVDOM_NullPtr@1@@Z 120d3b40 f   DOM_Node.obj
 0001:000d2b40       ??8DOM_Range@xercesc_2_2@@QBE_NPBVDOM_NullPtr@1@@Z 120d3b40 f   DOM_Node.obj
 0001:000d2b50       ?appendChild@DOM_Node@xercesc_2_2@@QAE?AV12@ABV12@@Z 120d3b50 f   DOM_Node.obj
 0001:000d2b80       ?cloneNode@DOM_Node@xercesc_2_2@@QBE?AV12@_N@Z 120d3b80 f   DOM_Node.obj
 0001:000d2bb0       ?getNodeName@DOM_Node@xercesc_2_2@@QBE?AVDOMString@2@XZ 120d3bb0 f   DOM_Node.obj
 0001:000d2c20       ?getNodeValue@DOM_Node@xercesc_2_2@@QBE?AVDOMString@2@XZ 120d3c20 f   DOM_Node.obj
 0001:000d2c90       ?getNodeType@DOM_Node@xercesc_2_2@@QBEFXZ 120d3c90 f   DOM_Node.obj
 0001:000d2ca0       ?getParentNode@DOM_Node@xercesc_2_2@@QBE?AV12@XZ 120d3ca0 f   DOM_Node.obj
 0001:000d2cd0       ?getFirstChild@DOM_Node@xercesc_2_2@@QBE?AV12@XZ 120d3cd0 f   DOM_Node.obj
 0001:000d2d00       ?getLastChild@DOM_Node@xercesc_2_2@@QBE?AV12@XZ 120d3d00 f   DOM_Node.obj
 0001:000d2d30       ?getPreviousSibling@DOM_Node@xercesc_2_2@@QBE?AV12@XZ 120d3d30 f   DOM_Node.obj
 0001:000d2d60       ?getNextSibling@DOM_Node@xercesc_2_2@@QBE?AV12@XZ 120d3d60 f   DOM_Node.obj
 0001:000d2d90       ?getUserData@DOM_Node@xercesc_2_2@@QBEPAXXZ 120d3d90 f   DOM_Node.obj
 0001:000d2da0       ?getAttributes@DOM_Node@xercesc_2_2@@QBE?AVDOM_NamedNodeMap@2@XZ 120d3da0 f   DOM_Node.obj
 0001:000d2ea0       ?getOwnerDocument@DOM_Node@xercesc_2_2@@QBE?AVDOM_Document@2@XZ 120d3ea0 f   DOM_Node.obj
 0001:000d2ed0       ?hasChildNodes@DOM_Node@xercesc_2_2@@QBE_NXZ 120d3ed0 f   DOM_Node.obj
 0001:000d2ed0       ?hasChildNodes@DOM_Entity@xercesc_2_2@@QBE_NXZ 120d3ed0 f   DOM_Node.obj
 0001:000d2ee0       ?insertBefore@DOM_Node@xercesc_2_2@@QAE?AV12@ABV12@0@Z 120d3ee0 f   DOM_Node.obj
 0001:000d2f20       ?isNull@DOM_Node@xercesc_2_2@@QBE_NXZ 120d3f20 f   DOM_Node.obj
 0001:000d2f30       ?replaceChild@DOM_Node@xercesc_2_2@@QAE?AV12@ABV12@0@Z 120d3f30 f   DOM_Node.obj
 0001:000d2f70       ?removeChild@DOM_Node@xercesc_2_2@@QAE?AV12@ABV12@@Z 120d3f70 f   DOM_Node.obj
 0001:000d2fa0       ?setNodeValue@DOM_Node@xercesc_2_2@@QAEXABVDOMString@2@@Z 120d3fa0 f   DOM_Node.obj
 0001:000d2fc0       ?setUserData@DOM_Node@xercesc_2_2@@QAEXPAX@Z 120d3fc0 f   DOM_Node.obj
 0001:000d2fe0       ?normalize@DOM_Node@xercesc_2_2@@QAEXXZ 120d3fe0 f   DOM_Node.obj
 0001:000d2ff0       ?isSupported@DOM_Node@xercesc_2_2@@QBE_NABVDOMString@2@0@Z 120d3ff0 f   DOM_Node.obj
 0001:000d3010       ?getNamespaceURI@DOM_Node@xercesc_2_2@@QBE?AVDOMString@2@XZ 120d4010 f   DOM_Node.obj
 0001:000d3080       ?getPrefix@DOM_Node@xercesc_2_2@@QBE?AVDOMString@2@XZ 120d4080 f   DOM_Node.obj
 0001:000d30f0       ?getLocalName@DOM_Node@xercesc_2_2@@QBE?AVDOMString@2@XZ 120d40f0 f   DOM_Node.obj
 0001:000d3160       ?setPrefix@DOM_Node@xercesc_2_2@@QAEXABVDOMString@2@@Z 120d4160 f   DOM_Node.obj
 0001:000d3180       ?hasAttributes@DOM_Element@xercesc_2_2@@QBE_NXZ 120d4180 f   DOM_Node.obj
 0001:000d3180       ?hasAttributes@DOM_Node@xercesc_2_2@@QBE_NXZ 120d4180 f   DOM_Node.obj
 0001:000d3190       ??0DOM_NodeFilter@xercesc_2_2@@QAE@XZ 120d4190 f   DOM_NodeFilter.obj
 0001:000d31a0       ??_EDOM_NodeFilter@xercesc_2_2@@UAEPAXI@Z 120d41a0 f i DOM_NodeFilter.obj
 0001:000d3200       ??1DOM_NodeFilter@xercesc_2_2@@UAE@XZ 120d4200 f   DOM_NodeFilter.obj
 0001:000d3210       ??0DOM_TreeWalker@xercesc_2_2@@IAE@PAVTreeWalkerImpl@1@@Z 120d4210 f   DOM_NodeIterator.obj
 0001:000d3210       ??0DOM_Node@xercesc_2_2@@IAE@PAVNodeImpl@1@@Z 120d4210 f   DOM_NodeIterator.obj
 0001:000d3210       ??0DOM_Range@xercesc_2_2@@IAE@PAVRangeImpl@1@@Z 120d4210 f   DOM_NodeIterator.obj
 0001:000d3210       ??0DOM_NodeList@xercesc_2_2@@IAE@PAVNodeListImpl@1@@Z 120d4210 f   DOM_NodeIterator.obj
 0001:000d3210       ??0DOM_NodeIterator@xercesc_2_2@@IAE@PAVNodeIteratorImpl@1@@Z 120d4210 f   DOM_NodeIterator.obj
 0001:000d3230       ??0DOM_NodeList@xercesc_2_2@@QAE@ABV01@@Z 120d4230 f   DOM_NodeIterator.obj
 0001:000d3230       ??0DOM_Range@xercesc_2_2@@QAE@ABV01@@Z 120d4230 f   DOM_NodeIterator.obj
 0001:000d3230       ??0DOM_TreeWalker@xercesc_2_2@@QAE@ABV01@@Z 120d4230 f   DOM_NodeIterator.obj
 0001:000d3230       ??0DOM_Node@xercesc_2_2@@QAE@ABV01@@Z 120d4230 f   DOM_NodeIterator.obj
 0001:000d3230       ??0DOM_NodeIterator@xercesc_2_2@@QAE@ABV01@@Z 120d4230 f   DOM_NodeIterator.obj
 0001:000d3250       ??9DOM_Node@xercesc_2_2@@QBE_NABV01@@Z 120d4250 f   DOM_NodeIterator.obj
 0001:000d3250       ??9DOM_Range@xercesc_2_2@@QBE_NABV01@@Z 120d4250 f   DOM_NodeIterator.obj
 0001:000d3250       ??9DOMString@xercesc_2_2@@QBE_NABV01@@Z 120d4250 f   DOM_NodeIterator.obj
 0001:000d3250       ??9DOM_TreeWalker@xercesc_2_2@@QBE_NABV01@@Z 120d4250 f   DOM_NodeIterator.obj
 0001:000d3250       ??9DOM_NodeIterator@xercesc_2_2@@QBE_NABV01@@Z 120d4250 f   DOM_NodeIterator.obj
 0001:000d3250       ??9DOM_NamedNodeMap@xercesc_2_2@@QBE_NABV01@@Z 120d4250 f   DOM_NodeIterator.obj
 0001:000d3250       ??9DOM_NodeList@xercesc_2_2@@QBE_NABV01@@Z 120d4250 f   DOM_NodeIterator.obj
 0001:000d3270       ?detach@DOM_NodeIterator@xercesc_2_2@@QAEXXZ 120d4270 f   DOM_NodeIterator.obj
 0001:000d3280       ?getStartContainer@DOM_Range@xercesc_2_2@@QBE?AVDOM_Node@2@XZ 120d4280 f   DOM_NodeIterator.obj
 0001:000d3280       ?getRoot@DOM_NodeIterator@xercesc_2_2@@QAE?AVDOM_Node@2@XZ 120d4280 f   DOM_NodeIterator.obj
 0001:000d32a0       ?getFilter@DOM_NodeIterator@xercesc_2_2@@QAEPAVDOM_NodeFilter@2@XZ 120d42a0 f   DOM_NodeIterator.obj
 0001:000d32b0       ?getExpandEntityReferences@DOM_NodeIterator@xercesc_2_2@@QAE_NXZ 120d42b0 f   DOM_NodeIterator.obj
 0001:000d32c0       ?nextNode@DOM_NodeIterator@xercesc_2_2@@QAE?AVDOM_Node@2@XZ 120d42c0 f   DOM_NodeIterator.obj
 0001:000d32e0       ?previousNode@DOM_NodeIterator@xercesc_2_2@@QAE?AVDOM_Node@2@XZ 120d42e0 f   DOM_NodeIterator.obj
 0001:000d3300       ??4DOM_Range@xercesc_2_2@@QAEAAV01@ABV01@@Z 120d4300 f   DOM_NodeList.obj
 0001:000d3300       ??4DOM_NodeList@xercesc_2_2@@QAEAAV01@ABV01@@Z 120d4300 f   DOM_NodeList.obj
 0001:000d3300       ??4DOM_TreeWalker@xercesc_2_2@@QAEAAV01@ABV01@@Z 120d4300 f   DOM_NodeList.obj
 0001:000d3300       ??4DOM_NodeIterator@xercesc_2_2@@QAEAAV01@ABV01@@Z 120d4300 f   DOM_NodeList.obj
 0001:000d3300       ??4DOM_Node@xercesc_2_2@@QAEAAV01@ABV01@@Z 120d4300 f   DOM_NodeList.obj
 0001:000d3330       ?item@DOM_NodeList@xercesc_2_2@@QBE?AVDOM_Node@2@I@Z 120d4330 f   DOM_NodeList.obj
 0001:000d3360       ?getLength@DOM_NodeList@xercesc_2_2@@QBEIXZ 120d4360 f   DOM_NodeList.obj
 0001:000d3370       ?getPublicId@DOM_Notation@xercesc_2_2@@QBE?AVDOMString@2@XZ 120d4370 f   DOM_Notation.obj
 0001:000d3390       ?getSystemId@DOM_Notation@xercesc_2_2@@QBE?AVDOMString@2@XZ 120d4390 f   DOM_Notation.obj
 0001:000d33b0       ?getTarget@DOM_ProcessingInstruction@xercesc_2_2@@QBE?AVDOMString@2@XZ 120d43b0 f   DOM_ProcessingInstruction.obj
 0001:000d3420       ?getData@DOM_ProcessingInstruction@xercesc_2_2@@QBE?AVDOMString@2@XZ 120d4420 f   DOM_ProcessingInstruction.obj
 0001:000d3490       ?setData@DOM_ProcessingInstruction@xercesc_2_2@@QAEXABVDOMString@2@@Z 120d4490 f   DOM_ProcessingInstruction.obj
 0001:000d34f0       ?getEndOffset@DOM_Range@xercesc_2_2@@QBEIXZ 120d44f0 f   DOM_Range.obj
 0001:000d3500       ?getCommonAncestorContainer@DOM_Range@xercesc_2_2@@QBE?BVDOM_Node@2@XZ 120d4500 f   DOM_Range.obj
 0001:000d3520       ?setStart@DOM_Range@xercesc_2_2@@QAEXABVDOM_Node@2@I@Z 120d4520 f   DOM_Range.obj
 0001:000d3540       ?setEnd@DOM_Range@xercesc_2_2@@QAEXABVDOM_Node@2@I@Z 120d4540 f   DOM_Range.obj
 0001:000d3560       ?setStartBefore@DOM_Range@xercesc_2_2@@QAEXABVDOM_Node@2@@Z 120d4560 f   DOM_Range.obj
 0001:000d3570       ?setStartAfter@DOM_Range@xercesc_2_2@@QAEXABVDOM_Node@2@@Z 120d4570 f   DOM_Range.obj
 0001:000d3580       ?setEndBefore@DOM_Range@xercesc_2_2@@QAEXABVDOM_Node@2@@Z 120d4580 f   DOM_Range.obj
 0001:000d3590       ?setEndAfter@DOM_Range@xercesc_2_2@@QAEXABVDOM_Node@2@@Z 120d4590 f   DOM_Range.obj
 0001:000d35a0       ?collapse@DOM_Range@xercesc_2_2@@QAEX_N@Z 120d45a0 f   DOM_Range.obj
 0001:000d35b0       ?getCollapsed@DOM_Range@xercesc_2_2@@QBE_NXZ 120d45b0 f   DOM_Range.obj
 0001:000d35c0       ?selectNode@DOM_Range@xercesc_2_2@@QAEXABVDOM_Node@2@@Z 120d45c0 f   DOM_Range.obj
 0001:000d35d0       ?selectNodeContents@DOM_Range@xercesc_2_2@@QAEXABVDOM_Node@2@@Z 120d45d0 f   DOM_Range.obj
 0001:000d35e0       ?compareBoundaryPoints@DOM_Range@xercesc_2_2@@QBEFW4CompareHow@12@ABV12@@Z 120d45e0 f   DOM_Range.obj
 0001:000d3600       ?deleteContents@DOM_Range@xercesc_2_2@@QAEXXZ 120d4600 f   DOM_Range.obj
 0001:000d3610       ?extractContents@DOM_Range@xercesc_2_2@@QAE?AVDOM_DocumentFragment@2@XZ 120d4610 f   DOM_Range.obj
 0001:000d3630       ?cloneContents@DOM_Range@xercesc_2_2@@QBE?AVDOM_DocumentFragment@2@XZ 120d4630 f   DOM_Range.obj
 0001:000d3650       ?insertNode@DOM_Range@xercesc_2_2@@QAEXAAVDOM_Node@2@@Z 120d4650 f   DOM_Range.obj
 0001:000d3660       ?surroundContents@DOM_Range@xercesc_2_2@@QAEXAAVDOM_Node@2@@Z 120d4660 f   DOM_Range.obj
 0001:000d3670       ?cloneRange@DOM_Range@xercesc_2_2@@QBE?AV12@XZ 120d4670 f   DOM_Range.obj
 0001:000d36a0       ?toString@DOM_Range@xercesc_2_2@@QBE?AVDOMString@2@XZ 120d46a0 f   DOM_Range.obj
 0001:000d36c0       ?detach@DOM_Range@xercesc_2_2@@QAEXXZ 120d46c0 f   DOM_Range.obj
 0001:000d36d0       ??4DOM_RangeException@xercesc_2_2@@QAEAAV01@ABV01@@Z 120d46d0 f i DOM_RangeException.obj
 0001:000d3700       ??0DOM_RangeException@xercesc_2_2@@QAE@XZ 120d4700 f   DOM_RangeException.obj
 0001:000d3720       ??_EDOM_RangeException@xercesc_2_2@@UAEPAXI@Z 120d4720 f i DOM_RangeException.obj
 0001:000d3780       ??0DOM_RangeException@xercesc_2_2@@QAE@W4RangeExceptionCode@01@ABVDOMString@1@@Z 120d4780 f   DOM_RangeException.obj
 0001:000d37b0       ??0DOM_RangeException@xercesc_2_2@@QAE@ABV01@@Z 120d47b0 f   DOM_RangeException.obj
 0001:000d37e0       ??1DOM_RangeException@xercesc_2_2@@UAE@XZ 120d47e0 f   DOM_RangeException.obj
 0001:000d37f0       ??0DOM_Text@xercesc_2_2@@QAE@XZ 120d47f0 f   DOM_Text.obj
 0001:000d37f0       ??0DOM_Comment@xercesc_2_2@@QAE@XZ 120d47f0 f   DOM_Text.obj
 0001:000d3800       ??1DOM_Comment@xercesc_2_2@@QAE@XZ 120d4800 f   DOM_Text.obj
 0001:000d3800       ??1DOM_Text@xercesc_2_2@@QAE@XZ 120d4800 f   DOM_Text.obj
 0001:000d3810       ??4DOM_Text@xercesc_2_2@@QAEAAV01@ABV01@@Z 120d4810 f   DOM_Text.obj
 0001:000d3810       ??4DOM_Comment@xercesc_2_2@@QAEAAV01@ABV01@@Z 120d4810 f   DOM_Text.obj
 0001:000d3820       ?isIgnorableWhitespace@DOM_Text@xercesc_2_2@@QAE_NXZ 120d4820 f   DOM_Text.obj
 0001:000d3830       ??4DOM_Node@xercesc_2_2@@QAEAAV01@PBVDOM_NullPtr@1@@Z 120d4830 f   DOM_TreeWalker.obj
 0001:000d3830       ??4DOM_NodeIterator@xercesc_2_2@@QAEAAV01@PBVDOM_NullPtr@1@@Z 120d4830 f   DOM_TreeWalker.obj
 0001:000d3830       ??4DOM_Range@xercesc_2_2@@QAEAAV01@PBVDOM_NullPtr@1@@Z 120d4830 f   DOM_TreeWalker.obj
 0001:000d3830       ??4DOM_NodeList@xercesc_2_2@@QAEAAV01@PBVDOM_NullPtr@1@@Z 120d4830 f   DOM_TreeWalker.obj
 0001:000d3830       ??4DOM_TreeWalker@xercesc_2_2@@QAEAAV01@PBVDOM_NullPtr@1@@Z 120d4830 f   DOM_TreeWalker.obj
 0001:000d3850       ??1DOM_TreeWalker@xercesc_2_2@@QAE@XZ 120d4850 f   DOM_TreeWalker.obj
 0001:000d3850       ??1DOM_NodeIterator@xercesc_2_2@@QAE@XZ 120d4850 f   DOM_TreeWalker.obj
 0001:000d3850       ??1DOM_Range@xercesc_2_2@@QAE@XZ 120d4850 f   DOM_TreeWalker.obj
 0001:000d3850       ??1DOM_Node@xercesc_2_2@@QAE@XZ 120d4850 f   DOM_TreeWalker.obj
 0001:000d3850       ??1DOM_NodeList@xercesc_2_2@@QAE@XZ 120d4850 f   DOM_TreeWalker.obj
 0001:000d3870       ?getRoot@DOM_TreeWalker@xercesc_2_2@@QAE?AVDOM_Node@2@XZ 120d4870 f   DOM_TreeWalker.obj
 0001:000d3890       ?getWhatToShow@DOM_TreeWalker@xercesc_2_2@@QAEKXZ 120d4890 f   DOM_TreeWalker.obj
 0001:000d38a0       ?getStartOffset@DOM_Range@xercesc_2_2@@QBEIXZ 120d48a0 f   DOM_TreeWalker.obj
 0001:000d38a0       ?getWhatToShow@DOM_NodeIterator@xercesc_2_2@@QAEKXZ 120d48a0 f   DOM_TreeWalker.obj
 0001:000d38a0       ?getFilter@DOM_TreeWalker@xercesc_2_2@@QAEPAVDOM_NodeFilter@2@XZ 120d48a0 f   DOM_TreeWalker.obj
 0001:000d38b0       ?getEndContainer@DOM_Range@xercesc_2_2@@QBE?AVDOM_Node@2@XZ 120d48b0 f   DOM_TreeWalker.obj
 0001:000d38b0       ?getCurrentNode@DOM_TreeWalker@xercesc_2_2@@QAE?AVDOM_Node@2@XZ 120d48b0 f   DOM_TreeWalker.obj
 0001:000d38d0       ?setCurrentNode@DOM_TreeWalker@xercesc_2_2@@QAEXVDOM_Node@2@@Z 120d48d0 f   DOM_TreeWalker.obj
 0001:000d3930       ?parentNode@DOM_TreeWalker@xercesc_2_2@@QAE?AVDOM_Node@2@XZ 120d4930 f   DOM_TreeWalker.obj
 0001:000d3950       ?firstChild@DOM_TreeWalker@xercesc_2_2@@QAE?AVDOM_Node@2@XZ 120d4950 f   DOM_TreeWalker.obj
 0001:000d3970       ?lastChild@DOM_TreeWalker@xercesc_2_2@@QAE?AVDOM_Node@2@XZ 120d4970 f   DOM_TreeWalker.obj
 0001:000d3990       ?previousSibling@DOM_TreeWalker@xercesc_2_2@@QAE?AVDOM_Node@2@XZ 120d4990 f   DOM_TreeWalker.obj
 0001:000d39b0       ?nextSibling@DOM_TreeWalker@xercesc_2_2@@QAE?AVDOM_Node@2@XZ 120d49b0 f   DOM_TreeWalker.obj
 0001:000d39d0       ?previousNode@DOM_TreeWalker@xercesc_2_2@@QAE?AVDOM_Node@2@XZ 120d49d0 f   DOM_TreeWalker.obj
 0001:000d39f0       ?nextNode@DOM_TreeWalker@xercesc_2_2@@QAE?AVDOM_Node@2@XZ 120d49f0 f   DOM_TreeWalker.obj
 0001:000d3a10       ??0DOM_Element@xercesc_2_2@@QAE@XZ 120d4a10 f   DOM_XMLDecl.obj
 0001:000d3a10       ??0DOM_DocumentType@xercesc_2_2@@QAE@XZ 120d4a10 f   DOM_XMLDecl.obj
 0001:000d3a10       ??0DOM_ProcessingInstruction@xercesc_2_2@@QAE@XZ 120d4a10 f   DOM_XMLDecl.obj
 0001:000d3a10       ??0DOM_CharacterData@xercesc_2_2@@QAE@XZ 120d4a10 f   DOM_XMLDecl.obj
 0001:000d3a10       ??0DOM_XMLDecl@xercesc_2_2@@QAE@XZ 120d4a10 f   DOM_XMLDecl.obj
 0001:000d3a10       ??0DOM_Attr@xercesc_2_2@@QAE@XZ 120d4a10 f   DOM_XMLDecl.obj
 0001:000d3a10       ??0DOM_EntityReference@xercesc_2_2@@QAE@XZ 120d4a10 f   DOM_XMLDecl.obj
 0001:000d3a10       ??0DOM_Entity@xercesc_2_2@@QAE@XZ 120d4a10 f   DOM_XMLDecl.obj
 0001:000d3a10       ??0DOM_Document@xercesc_2_2@@QAE@XZ 120d4a10 f   DOM_XMLDecl.obj
 0001:000d3a10       ??0DOM_Notation@xercesc_2_2@@QAE@XZ 120d4a10 f   DOM_XMLDecl.obj
 0001:000d3a10       ??0DOM_DocumentFragment@xercesc_2_2@@QAE@XZ 120d4a10 f   DOM_XMLDecl.obj
 0001:000d3a20       ??1DOM_Entity@xercesc_2_2@@QAE@XZ 120d4a20 f   DOM_XMLDecl.obj
 0001:000d3a20       ??1DOM_DocumentFragment@xercesc_2_2@@QAE@XZ 120d4a20 f   DOM_XMLDecl.obj
 0001:000d3a20       ??1DOM_XMLDecl@xercesc_2_2@@QAE@XZ 120d4a20 f   DOM_XMLDecl.obj
 0001:000d3a20       ??1DOM_CharacterData@xercesc_2_2@@QAE@XZ 120d4a20 f   DOM_XMLDecl.obj
 0001:000d3a20       ??1DOM_Document@xercesc_2_2@@QAE@XZ 120d4a20 f   DOM_XMLDecl.obj
 0001:000d3a20       ??1DOM_ProcessingInstruction@xercesc_2_2@@QAE@XZ 120d4a20 f   DOM_XMLDecl.obj
 0001:000d3a20       ??1DOM_Element@xercesc_2_2@@QAE@XZ 120d4a20 f   DOM_XMLDecl.obj
 0001:000d3a20       ??1DOM_Notation@xercesc_2_2@@QAE@XZ 120d4a20 f   DOM_XMLDecl.obj
 0001:000d3a20       ??1DOM_DocumentType@xercesc_2_2@@QAE@XZ 120d4a20 f   DOM_XMLDecl.obj
 0001:000d3a20       ??1DOM_Attr@xercesc_2_2@@QAE@XZ 120d4a20 f   DOM_XMLDecl.obj
 0001:000d3a20       ??1DOM_EntityReference@xercesc_2_2@@QAE@XZ 120d4a20 f   DOM_XMLDecl.obj
 0001:000d3a30       ??4DOM_DocumentFragment@xercesc_2_2@@QAEAAV01@ABV01@@Z 120d4a30 f   DOM_XMLDecl.obj
 0001:000d3a30       ??4DOM_Document@xercesc_2_2@@QAEAAV01@ABV01@@Z 120d4a30 f   DOM_XMLDecl.obj
 0001:000d3a30       ??4DOM_Entity@xercesc_2_2@@QAEAAV01@ABV01@@Z 120d4a30 f   DOM_XMLDecl.obj
 0001:000d3a30       ??4DOM_Notation@xercesc_2_2@@QAEAAV01@ABV01@@Z 120d4a30 f   DOM_XMLDecl.obj
 0001:000d3a30       ??4DOM_EntityReference@xercesc_2_2@@QAEAAV01@ABV01@@Z 120d4a30 f   DOM_XMLDecl.obj
 0001:000d3a30       ??4DOM_CharacterData@xercesc_2_2@@QAEAAV01@ABV01@@Z 120d4a30 f   DOM_XMLDecl.obj
 0001:000d3a30       ??4DOM_ProcessingInstruction@xercesc_2_2@@QAEAAV01@ABV01@@Z 120d4a30 f   DOM_XMLDecl.obj
 0001:000d3a30       ??4DOM_XMLDecl@xercesc_2_2@@QAEAAV01@ABV01@@Z 120d4a30 f   DOM_XMLDecl.obj
 0001:000d3a30       ??4DOM_Attr@xercesc_2_2@@QAEAAV01@ABV01@@Z 120d4a30 f   DOM_XMLDecl.obj
 0001:000d3a30       ??4DOM_DocumentType@xercesc_2_2@@QAEAAV01@ABV01@@Z 120d4a30 f   DOM_XMLDecl.obj
 0001:000d3a30       ??4DOM_Element@xercesc_2_2@@QAEAAV01@ABV01@@Z 120d4a30 f   DOM_XMLDecl.obj
 0001:000d3a40       ??4DOM_Notation@xercesc_2_2@@QAEAAV01@PBVDOM_NullPtr@1@@Z 120d4a40 f   DOM_XMLDecl.obj
 0001:000d3a40       ??4DOM_Document@xercesc_2_2@@QAEAAV01@PBVDOM_NullPtr@1@@Z 120d4a40 f   DOM_XMLDecl.obj
 0001:000d3a40       ??4DOM_Attr@xercesc_2_2@@QAEAAV01@PBVDOM_NullPtr@1@@Z 120d4a40 f   DOM_XMLDecl.obj
 0001:000d3a40       ??4DOM_DocumentType@xercesc_2_2@@QAEAAV01@PBVDOM_NullPtr@1@@Z 120d4a40 f   DOM_XMLDecl.obj
 0001:000d3a40       ??4DOM_Element@xercesc_2_2@@QAEAAV01@PBVDOM_NullPtr@1@@Z 120d4a40 f   DOM_XMLDecl.obj
 0001:000d3a40       ??4DOM_Comment@xercesc_2_2@@QAEAAV01@PBVDOM_NullPtr@1@@Z 120d4a40 f   DOM_XMLDecl.obj
 0001:000d3a40       ??4DOM_CharacterData@xercesc_2_2@@QAEAAV01@PBVDOM_NullPtr@1@@Z 120d4a40 f   DOM_XMLDecl.obj
 0001:000d3a40       ??4DOM_EntityReference@xercesc_2_2@@QAEAAV01@PBVDOM_NullPtr@1@@Z 120d4a40 f   DOM_XMLDecl.obj
 0001:000d3a40       ??4DOM_Text@xercesc_2_2@@QAEAAV01@PBVDOM_NullPtr@1@@Z 120d4a40 f   DOM_XMLDecl.obj
 0001:000d3a40       ??4DOM_ProcessingInstruction@xercesc_2_2@@QAEAAV01@PBVDOM_NullPtr@1@@Z 120d4a40 f   DOM_XMLDecl.obj
 0001:000d3a40       ??4DOM_DocumentFragment@xercesc_2_2@@QAEAAV01@PBVDOM_NullPtr@1@@Z 120d4a40 f   DOM_XMLDecl.obj
 0001:000d3a40       ??4DOM_CDATASection@xercesc_2_2@@QAEAAV01@PBVDOM_NullPtr@1@@Z 120d4a40 f   DOM_XMLDecl.obj
 0001:000d3a40       ??4DOM_XMLDecl@xercesc_2_2@@QAEAAV01@PBVDOM_NullPtr@1@@Z 120d4a40 f   DOM_XMLDecl.obj
 0001:000d3a40       ??4DOM_Entity@xercesc_2_2@@QAEAAV01@PBVDOM_NullPtr@1@@Z 120d4a40 f   DOM_XMLDecl.obj
 0001:000d3a50       ?getVersion@DOM_XMLDecl@xercesc_2_2@@QBE?AVDOMString@2@XZ 120d4a50 f   DOM_XMLDecl.obj
 0001:000d3ac0       ?getEncoding@DOM_XMLDecl@xercesc_2_2@@QBE?AVDOMString@2@XZ 120d4ac0 f   DOM_XMLDecl.obj
 0001:000d3b30       ?getStandalone@DOM_XMLDecl@xercesc_2_2@@QBE?AVDOMString@2@XZ 120d4b30 f   DOM_XMLDecl.obj
 0001:000d3ba0       ??0DomMemDebug@xercesc_2_2@@QAE@XZ 120d4ba0 f   DomMemDebug.obj
 0001:000d3bf0       ??8DomMemDebug@xercesc_2_2@@QAE_NABV01@@Z 120d4bf0 f   DomMemDebug.obj
 0001:000d3c20       ??9DomMemDebug@xercesc_2_2@@QAE_NABV01@@Z 120d4c20 f   DomMemDebug.obj
 0001:000d3c60       ??4DomMemDebug@xercesc_2_2@@QAEXABV01@@Z 120d4c60 f   DomMemDebug.obj
 0001:000d3ca0       ?print@DomMemDebug@xercesc_2_2@@QAEXXZ 120d4ca0 f   DomMemDebug.obj
 0001:000d3cd0       ?printDifference@DomMemDebug@xercesc_2_2@@QAEXABV12@@Z 120d4cd0 f   DomMemDebug.obj
 0001:000d3d40       ??_FDOMParser@xercesc_2_2@@QAEXXZ 120d4d40 f i DOMParser.obj
 0001:000d3d50       ?expandSystemId@DOMBuilderImpl@xercesc_2_2@@UAE_NQBGAAVXMLBuffer@2@@Z 120d4d50 f i DOMParser.obj
 0001:000d3d50       ?expandSystemId@DOMParser@xercesc_2_2@@UAE_NQBGAAVXMLBuffer@2@@Z 120d4d50 f i DOMParser.obj
 0001:000d3d50       ?expandSystemId@XercesDOMParser@xercesc_2_2@@UAE_NQBGAAVXMLBuffer@2@@Z 120d4d50 f i DOMParser.obj
 0001:000d3d60       ?getDocument@DOMParser@xercesc_2_2@@QAE?AVDOM_Document@2@XZ 120d4d60 f i DOMParser.obj
 0001:000d3d80       ?getExpandEntityReferences@DOMParser@xercesc_2_2@@QBE_NXZ 120d4d80 f i DOMParser.obj
 0001:000d3d90       ?setExpandEntityReferences@DOMParser@xercesc_2_2@@QAEX_N@Z 120d4d90 f i DOMParser.obj
 0001:000d3da0       ?getCurrentNode@DOMParser@xercesc_2_2@@IAE?AVDOM_Node@2@XZ 120d4da0 f i DOMParser.obj
 0001:000d3dc0       ?setCurrentNode@DOMParser@xercesc_2_2@@IAEXVDOM_Node@2@@Z 120d4dc0 f i DOMParser.obj
 0001:000d3e10       ?setDocument@DOMParser@xercesc_2_2@@IAEXVDOM_Document@2@@Z 120d4e10 f i DOMParser.obj
 0001:000d3e60       ??0DOMParser@xercesc_2_2@@QAE@QAVXMLValidator@1@@Z 120d4e60 f   DOMParser.obj
 0001:000d3fc0       ??_EDOMParser@xercesc_2_2@@UAEPAXI@Z 120d4fc0 f i DOMParser.obj
 0001:000d4020       ??1DOMParser@xercesc_2_2@@UAE@XZ 120d5020 f   DOMParser.obj
 0001:000d4140       ?initialize@DOMParser@xercesc_2_2@@AAEXXZ 120d5140 f   DOMParser.obj
 0001:000d42e0       ?cleanUp@DOMParser@xercesc_2_2@@AAEXXZ 120d52e0 f   DOMParser.obj
 0001:000d4350       ?reset@DOMParser@xercesc_2_2@@QAEXXZ 120d5350 f   DOMParser.obj
 0001:000d43e0       ?getValidator@DOMParser@xercesc_2_2@@QBEABVXMLValidator@2@XZ 120d53e0 f   DOMParser.obj
 0001:000d43f0       ?getDoNamespaces@DOMParser@xercesc_2_2@@QBE_NXZ 120d53f0 f   DOMParser.obj
 0001:000d4400       ?getExitOnFirstFatalError@DOMParser@xercesc_2_2@@QBE_NXZ 120d5400 f   DOMParser.obj
 0001:000d4410       ?getValidationConstraintFatal@DOMParser@xercesc_2_2@@QBE_NXZ 120d5410 f   DOMParser.obj
 0001:000d4420       ?getValidationScheme@DOMParser@xercesc_2_2@@QBE?AW4ValSchemes@12@XZ 120d5420 f   DOMParser.obj
 0001:000d4440       ?getDoSchema@DOMParser@xercesc_2_2@@QBE_NXZ 120d5440 f   DOMParser.obj
 0001:000d4450       ?getValidationSchemaFullChecking@DOMParser@xercesc_2_2@@QBE_NXZ 120d5450 f   DOMParser.obj
 0001:000d4460       ?getErrorCount@DOMParser@xercesc_2_2@@QBEHXZ 120d5460 f   DOMParser.obj
 0001:000d4470       ?getExternalSchemaLocation@DOMParser@xercesc_2_2@@QBEPAGXZ 120d5470 f   DOMParser.obj
 0001:000d4480       ?getExternalNoNamespaceSchemaLocation@DOMParser@xercesc_2_2@@QBEPAGXZ 120d5480 f   DOMParser.obj
 0001:000d4490       ?isCachingGrammarFromParse@DOMParser@xercesc_2_2@@QBE_NXZ 120d5490 f   DOMParser.obj
 0001:000d44a0       ?isUsingCachedGrammarInParse@DOMParser@xercesc_2_2@@QBE_NXZ 120d54a0 f   DOMParser.obj
 0001:000d44b0       ?getGrammar@DOMParser@xercesc_2_2@@QAEPAVGrammar@2@QBG@Z 120d54b0 f   DOMParser.obj
 0001:000d44c0       ?getRootGrammar@DOMParser@xercesc_2_2@@QAEPAVGrammar@2@XZ 120d54c0 f   DOMParser.obj
 0001:000d44d0       ?getURIText@DOMParser@xercesc_2_2@@QBEPBGI@Z 120d54d0 f   DOMParser.obj
 0001:000d44e0       ?getCalculateSrcOfs@DOMParser@xercesc_2_2@@QBE_NXZ 120d54e0 f   DOMParser.obj
 0001:000d44f0       ?getStandardUriConformant@DOMParser@xercesc_2_2@@QBE_NXZ 120d54f0 f   DOMParser.obj
 0001:000d4500       ?getSrcOffset@DOMParser@xercesc_2_2@@QBEIXZ 120d5500 f   DOMParser.obj
 0001:000d4510       ?setDoNamespaces@DOMParser@xercesc_2_2@@QAEX_N@Z 120d5510 f   DOMParser.obj
 0001:000d4520       ?setErrorHandler@DOMParser@xercesc_2_2@@QAEXQAVErrorHandler@2@@Z 120d5520 f   DOMParser.obj
 0001:000d4560       ?setEntityResolver@DOMParser@xercesc_2_2@@QAEXQAVEntityResolver@2@@Z 120d5560 f   DOMParser.obj
 0001:000d4580       ?setExitOnFirstFatalError@DOMParser@xercesc_2_2@@QAEX_N@Z 120d5580 f   DOMParser.obj
 0001:000d4590       ?setValidationConstraintFatal@DOMParser@xercesc_2_2@@QAEX_N@Z 120d5590 f   DOMParser.obj
 0001:000d45a0       ?setValidationScheme@DOMParser@xercesc_2_2@@QAEXW4ValSchemes@12@@Z 120d55a0 f   DOMParser.obj
 0001:000d45f0       ?setDoSchema@DOMParser@xercesc_2_2@@QAEX_N@Z 120d55f0 f   DOMParser.obj
 0001:000d4600       ?setValidationSchemaFullChecking@DOMParser@xercesc_2_2@@QAEX_N@Z 120d5600 f   DOMParser.obj
 0001:000d4610       ?setExternalSchemaLocation@DOMParser@xercesc_2_2@@QAEXQBG@Z 120d5610 f   DOMParser.obj
 0001:000d4690       ?setExternalNoNamespaceSchemaLocation@DOMParser@xercesc_2_2@@QAEXQBG@Z 120d5690 f   DOMParser.obj
 0001:000d4710       ?setExternalSchemaLocation@DOMParser@xercesc_2_2@@QAEXQBD@Z 120d5710 f   DOMParser.obj
 0001:000d4740       ?setExternalNoNamespaceSchemaLocation@DOMParser@xercesc_2_2@@QAEXQBD@Z 120d5740 f   DOMParser.obj
 0001:000d4770       ?cacheGrammarFromParse@DOMParser@xercesc_2_2@@QAEX_N@Z 120d5770 f   DOMParser.obj
 0001:000d4790       ?useCachedGrammarInParse@DOMParser@xercesc_2_2@@QAEX_N@Z 120d5790 f   DOMParser.obj
 0001:000d47b0       ?setCalculateSrcOfs@DOMParser@xercesc_2_2@@QAEX_N@Z 120d57b0 f   DOMParser.obj
 0001:000d47c0       ?setStandardUriConformant@DOMParser@xercesc_2_2@@QAEX_N@Z 120d57c0 f   DOMParser.obj
 0001:000d47d0       ?useScanner@DOMParser@xercesc_2_2@@QAEXQBG@Z 120d57d0 f   DOMParser.obj
 0001:000d4820       ?parse@DOMParser@xercesc_2_2@@QAEXABVInputSource@2@@Z 120d5820 f   DOMParser.obj
 0001:000d48d0       ?parse@DOMParser@xercesc_2_2@@QAEXQBG@Z 120d58d0 f   DOMParser.obj
 0001:000d4980       ?parse@DOMParser@xercesc_2_2@@QAEXQBD@Z 120d5980 f   DOMParser.obj
 0001:000d4a30       ?parseFirst@DOMParser@xercesc_2_2@@QAE_NQBGAAVXMLPScanToken@2@@Z 120d5a30 f   DOMParser.obj
 0001:000d4a80       ?parseFirst@DOMParser@xercesc_2_2@@QAE_NQBDAAVXMLPScanToken@2@@Z 120d5a80 f   DOMParser.obj
 0001:000d4ad0       ?parseFirst@DOMParser@xercesc_2_2@@QAE_NABVInputSource@2@AAVXMLPScanToken@2@@Z 120d5ad0 f   DOMParser.obj
 0001:000d4b20       ?parseNext@DOMParser@xercesc_2_2@@QAE_NAAVXMLPScanToken@2@@Z 120d5b20 f   DOMParser.obj
 0001:000d4b30       ?parseReset@DOMParser@xercesc_2_2@@QAEXAAVXMLPScanToken@2@@Z 120d5b30 f   DOMParser.obj
 0001:000d4b50       ?error@DOMParser@xercesc_2_2@@UAEXIQBGW4ErrTypes@XMLErrorReporter@2@000JJ@Z 120d5b50 f   DOMParser.obj
 0001:000d4c10       ?resolveEntity@DOMParser@xercesc_2_2@@UAEPAVInputSource@2@QBG00@Z 120d5c10 f   DOMParser.obj
 0001:000d4c30       ?docCharacters@DOMParser@xercesc_2_2@@UAEXQBGI_N@Z 120d5c30 f   DOMParser.obj
 0001:000d4dd0       ?docComment@DOMParser@xercesc_2_2@@UAEXQBG@Z 120d5dd0 f   DOMParser.obj
 0001:000d4e70       ?docPI@DOMParser@xercesc_2_2@@UAEXQBG0@Z 120d5e70 f   DOMParser.obj
 0001:000d4f40       ?endEntityReference@DOMParser@xercesc_2_2@@UAEXABVXMLEntityDecl@2@@Z 120d5f40 f   DOMParser.obj
 0001:000d4fd0       ?endElement@DOMParser@xercesc_2_2@@UAEXABVXMLElementDecl@2@I_NQBG@Z 120d5fd0 f   DOMParser.obj
 0001:000d5050       ?ignorableWhitespace@DOMParser@xercesc_2_2@@UAEXQBGI_N@Z 120d6050 f   DOMParser.obj
 0001:000d5180       ?resetDocument@DOMParser@xercesc_2_2@@UAEXXZ 120d6180 f   DOMParser.obj
 0001:000d5190       ?startDocument@DOMParser@xercesc_2_2@@UAEXXZ 120d6190 f   DOMParser.obj
 0001:000d51c0       ?endDocument@DOMParser@xercesc_2_2@@UAEXXZ 120d61c0 f   DOMParser.obj
 0001:000d51d0       ?startElement@DOMParser@xercesc_2_2@@UAEXABVXMLElementDecl@2@IQBGABV?$RefVectorOf@VXMLAttr@xercesc_2_2@@@2@I_N3@Z 120d61d0 f   DOMParser.obj
 0001:000d5810       ?startEntityReference@DOMParser@xercesc_2_2@@UAEXABVXMLEntityDecl@2@@Z 120d6810 f   DOMParser.obj
 0001:000d59f0       ?XMLDecl@DOMParser@xercesc_2_2@@UAEXQBG000@Z 120d69f0 f   DOMParser.obj
 0001:000d5ae0       ?getDoValidation@DOMParser@xercesc_2_2@@QBE_NXZ 120d6ae0 f   DOMParser.obj
 0001:000d5af0       ?setDoValidation@DOMParser@xercesc_2_2@@QAEX_N@Z 120d6af0 f   DOMParser.obj
 0001:000d5b20       ?attDef@DOMParser@xercesc_2_2@@UAEXABVDTDElementDecl@2@ABVDTDAttDef@2@_N@Z 120d6b20 f   DOMParser.obj
 0001:000d5e80       ?doctypeComment@DOMParser@xercesc_2_2@@UAEXQBG@Z 120d6e80 f   DOMParser.obj
 0001:000d5f50       ?doctypeDecl@DOMParser@xercesc_2_2@@UAEXABVDTDElementDecl@2@QBG1_N2@Z 120d6f50 f   DOMParser.obj
 0001:000d6060       ?doctypePI@DOMParser@xercesc_2_2@@UAEXQBG0@Z 120d7060 f   DOMParser.obj
 0001:000d6120       ?doctypeWhitespace@DOMParser@xercesc_2_2@@UAEXQBGI@Z 120d7120 f   DOMParser.obj
 0001:000d6150       ?elementDecl@DOMParser@xercesc_2_2@@UAEXABVDTDElementDecl@2@_N@Z 120d7150 f   DOMParser.obj
 0001:000d6240       ?endAttList@DOMParser@xercesc_2_2@@UAEXABVDTDElementDecl@2@@Z 120d7240 f   DOMParser.obj
 0001:000d6560       ?endIntSubset@DOMParser@xercesc_2_2@@UAEXXZ 120d7560 f   DOMParser.obj
 0001:000d6570       ?entityDecl@DOMParser@xercesc_2_2@@UAEXABVDTDEntityDecl@2@_N1@Z 120d7570 f   DOMParser.obj
 0001:000d6910       ?resetDocType@DOMParser@xercesc_2_2@@UAEXXZ 120d7910 f   DOMParser.obj
 0001:000d6920       ?notationDecl@DOMParser@xercesc_2_2@@UAEXABVXMLNotationDecl@2@_N@Z 120d7920 f   DOMParser.obj
 0001:000d6a20       ?startIntSubset@DOMParser@xercesc_2_2@@UAEXXZ 120d7a20 f   DOMParser.obj
 0001:000d6a30       ?loadGrammar@DOMParser@xercesc_2_2@@QAEPAVGrammar@2@QBDF_N@Z 120d7a30 f   DOMParser.obj
 0001:000d6ae0       ?loadGrammar@DOMParser@xercesc_2_2@@QAEPAVGrammar@2@QBGF_N@Z 120d7ae0 f   DOMParser.obj
 0001:000d6b90       ?loadGrammar@DOMParser@xercesc_2_2@@QAEPAVGrammar@2@ABVInputSource@2@F_N@Z 120d7b90 f   DOMParser.obj
 0001:000d6c40       ?resetCachedGrammarPool@DOMParser@xercesc_2_2@@QAEXXZ 120d7c40 f   DOMParser.obj
 0001:000d6c50       ??1?$ValueStackOf@VDOM_Node@xercesc_2_2@@@xercesc_2_2@@QAE@XZ 120d7c50 f i DOMParser.obj
 0001:000d6c50       ??1?$ValueVectorOf@VDOM_Node@xercesc_2_2@@@xercesc_2_2@@QAE@XZ 120d7c50 f i DOMParser.obj
 0001:000d6c80       ?pop@?$ValueStackOf@VDOM_Node@xercesc_2_2@@@xercesc_2_2@@QAE?AVDOM_Node@2@XZ 120d7c80 f i DOMParser.obj
 0001:000d6e00       ??_EDOMParser@xercesc_2_2@@W3AEPAXI@Z 120d7e00 f i DOMParser.obj
 0001:000d6e10       ??_EDOMParser@xercesc_2_2@@W7AEPAXI@Z 120d7e10 f i DOMParser.obj
 0001:000d6e20       ??_EDOMParser@xercesc_2_2@@WM@AEPAXI@Z 120d7e20 f i DOMParser.obj
 0001:000d6e70       ?allocateBuffer@DOMStringData@xercesc_2_2@@SAPAV12@I@Z 120d7e70 f   DOMString.obj
 0001:000d6f70       ??2DOMStringHandle@xercesc_2_2@@SAPAXI@Z 120d7f70 f   DOMString.obj
 0001:000d7110       ??_EDOMStringHandle@xercesc_2_2@@QAEPAXI@Z 120d8110 f i DOMString.obj
 0001:000d7160       ??3DOMStringHandle@xercesc_2_2@@SAXPAX@Z 120d8160 f   DOMString.obj
 0001:000d72e0       ?createNewStringHandle@DOMStringHandle@xercesc_2_2@@SAPAV12@I@Z 120d82e0 f   DOMString.obj
 0001:000d7320       ?cloneStringHandle@DOMStringHandle@xercesc_2_2@@QAEPAV12@XZ 120d8320 f   DOMString.obj
 0001:000d7350       ??0DOMString@xercesc_2_2@@QAE@ABV01@@Z 120d8350 f   DOMString.obj
 0001:000d7380       ??0DOMString@xercesc_2_2@@QAE@PBG@Z 120d8380 f   DOMString.obj
 0001:000d73f0       ??0DOMString@xercesc_2_2@@QAE@PBGI@Z 120d83f0 f   DOMString.obj
 0001:000d7450       ??0DOMString@xercesc_2_2@@QAE@PBD@Z 120d8450 f   DOMString.obj
 0001:000d7610       ??0DOMString@xercesc_2_2@@QAE@H@Z 120d8610 f   DOMString.obj
 0001:000d7620       ??1DOMString@xercesc_2_2@@QAE@XZ 120d8620 f   DOMString.obj
 0001:000d7690       ??4DOMString@xercesc_2_2@@QAEAAV01@ABV01@@Z 120d8690 f   DOMString.obj
 0001:000d7720       ??4DOMString@xercesc_2_2@@QAEAAV01@PAVDOM_NullPtr@1@@Z 120d8720 f   DOMString.obj
 0001:000d7790       ?reserve@DOMString@xercesc_2_2@@QAEXI@Z 120d8790 f   DOMString.obj
 0001:000d77b0       ?appendData@DOMString@xercesc_2_2@@QAEXABV12@@Z 120d87b0 f   DOMString.obj
 0001:000d7920       ?appendData@DOMString@xercesc_2_2@@QAEXG@Z 120d8920 f   DOMString.obj
 0001:000d79e0       ?appendData@DOMString@xercesc_2_2@@QAEXPBG@Z 120d89e0 f   DOMString.obj
 0001:000d7c10       ??YDOMString@xercesc_2_2@@QAEAAV01@ABV01@@Z 120d8c10 f   DOMString.obj
 0001:000d7c30       ??YDOMString@xercesc_2_2@@QAEAAV01@PBG@Z 120d8c30 f   DOMString.obj
 0001:000d7c50       ??YDOMString@xercesc_2_2@@QAEAAV01@G@Z 120d8c50 f   DOMString.obj
 0001:000d7c70       ?charAt@DOMString@xercesc_2_2@@QBEGI@Z 120d8c70 f   DOMString.obj
 0001:000d7c90       ?clone@DOMString@xercesc_2_2@@QBE?AV12@XZ 120d8c90 f   DOMString.obj
 0001:000d7eb0       ?deleteData@DOMString@xercesc_2_2@@QAEXII@Z 120d8eb0 f   DOMString.obj
 0001:000d8040       ?equals@DOMString@xercesc_2_2@@QBE_NABV12@@Z 120d9040 f   DOMString.obj
 0001:000d80b0       ?equals@DOMString@xercesc_2_2@@QBE_NPBG@Z 120d90b0 f   DOMString.obj
 0001:000d8130       ?insertData@DOMString@xercesc_2_2@@QAEXIABV12@@Z 120d9130 f   DOMString.obj
 0001:000d83e0       ?removeRef@DOMStringData@xercesc_2_2@@QAEXXZ 120d93e0 f i DOMString.obj
 0001:000d8420       ?length@DOMString@xercesc_2_2@@QBEIXZ 120d9420 f   DOMString.obj
 0001:000d8430       ?print@DOMString@xercesc_2_2@@QBEXXZ 120d9430 f   DOMString.obj
 0001:000d8460       ?println@DOMString@xercesc_2_2@@QBEXXZ 120d9460 f   DOMString.obj
 0001:000d84a0       ?rawBuffer@DOMString@xercesc_2_2@@QBEPBGXZ 120d94a0 f   DOMString.obj
 0001:000d84b0       ?transcode@DOMString@xercesc_2_2@@QBEPADXZ 120d94b0 f   DOMString.obj
 0001:000d87b0       ?transcode@DOMString@xercesc_2_2@@SA?AV12@PBD@Z 120d97b0 f   DOMString.obj
 0001:000d87d0       ?compareString@DOMString@xercesc_2_2@@QBEHABV12@@Z 120d97d0 f   DOMString.obj
 0001:000d8840       ?substringData@DOMString@xercesc_2_2@@QBE?AV12@II@Z 120d9840 f   DOMString.obj
 0001:000d8a00       ??Hxercesc_2_2@@YA?AVDOMString@0@ABV10@0@Z 120d9a00 f   DOMString.obj
 0001:000d8c30       ??Hxercesc_2_2@@YA?AVDOMString@0@ABV10@PBG@Z 120d9c30 f   DOMString.obj
 0001:000d8e70       ?removeRef@DOMStringHandle@xercesc_2_2@@QAEXXZ 120d9e70 f i DOMString.obj
 0001:000d8ed0       ??Hxercesc_2_2@@YA?AVDOMString@0@PBGABV10@@Z 120d9ed0 f   DOMString.obj
 0001:000d9120       ??Hxercesc_2_2@@YA?AVDOMString@0@ABV10@G@Z 120da120 f   DOMString.obj
 0001:000d9350       ??Hxercesc_2_2@@YA?AVDOMString@0@GABV10@@Z 120da350 f   DOMString.obj
 0001:000d95d0       ??0DStringPool@xercesc_2_2@@QAE@H@Z 120da5d0 f   DStringPool.obj
 0001:000d9610       ??1DStringPool@xercesc_2_2@@QAE@XZ 120da610 f   DStringPool.obj
 0001:000d9670       ??1DStringPoolEntry@xercesc_2_2@@QAE@XZ 120da670 f i DStringPool.obj
 0001:000d9680       ?getPooledString@DStringPool@xercesc_2_2@@QAEABVDOMString@2@PBG@Z 120da680 f   DStringPool.obj
 0001:000d9760       ?getPooledString@DStringPool@xercesc_2_2@@QAEABVDOMString@2@ABV32@@Z 120da760 f   DStringPool.obj
 0001:000d9860       ?getStaticString@DStringPool@xercesc_2_2@@SAABVDOMString@2@PBDPAPAV32@P6AXXZAAVXMLRegisterCleanup@2@@Z 120da860 f   DStringPool.obj
 0001:000d9950       ??_OElementDefinitionImpl@xercesc_2_2@@QAEXABV01@@Z 120da950 f i ElementDefinitionImpl.obj
 0001:000d9960       ??0ElementDefinitionImpl@xercesc_2_2@@QAE@PAVDocumentImpl@1@ABVDOMString@1@@Z 120da960 f   ElementDefinitionImpl.obj
 0001:000d99f0       ??_EElementDefinitionImpl@xercesc_2_2@@UAEPAXI@Z 120da9f0 f i ElementDefinitionImpl.obj
 0001:000d9a50       ??0ElementDefinitionImpl@xercesc_2_2@@QAE@ABV01@_N@Z 120daa50 f   ElementDefinitionImpl.obj
 0001:000d9af0       ??1ElementDefinitionImpl@xercesc_2_2@@UAE@XZ 120daaf0 f   ElementDefinitionImpl.obj
 0001:000d9b50       ?cloneNode@ElementDefinitionImpl@xercesc_2_2@@UAEPAVNodeImpl@2@_N@Z 120dab50 f   ElementDefinitionImpl.obj
 0001:000d9c00       ?getNodeType@ElementDefinitionImpl@xercesc_2_2@@UAEFXZ 120dac00 f   ElementDefinitionImpl.obj
 0001:000d9c30       ??0ElementImpl@xercesc_2_2@@QAE@PAVDocumentImpl@1@ABVDOMString@1@@Z 120dac30 f   ElementImpl.obj
 0001:000d9cd0       ??_EElementImpl@xercesc_2_2@@UAEPAXI@Z 120dacd0 f i ElementImpl.obj
 0001:000d9d30       ??0ElementImpl@xercesc_2_2@@QAE@ABV01@_N@Z 120dad30 f   ElementImpl.obj
 0001:000d9e00       ??1ElementImpl@xercesc_2_2@@UAE@XZ 120dae00 f   ElementImpl.obj
 0001:000d9e70       ?cloneNode@ElementImpl@xercesc_2_2@@UAEPAVNodeImpl@2@_N@Z 120dae70 f   ElementImpl.obj
 0001:000d9ee0       ?setOwnerDocument@ElementImpl@xercesc_2_2@@UAEXPAVDocumentImpl@2@@Z 120daee0 f   ElementImpl.obj
 0001:000d9f00       ?getAttribute@ElementImpl@xercesc_2_2@@UAE?AVDOMString@2@ABV32@@Z 120daf00 f   ElementImpl.obj
 0001:000d9fb0       ?getAttributeNode@ElementImpl@xercesc_2_2@@UAEPAVAttrImpl@2@ABVDOMString@2@@Z 120dafb0 f   ElementImpl.obj
 0001:000d9fd0       ?getElementsByTagName@ElementImpl@xercesc_2_2@@UAEPAVDeepNodeListImpl@2@ABVDOMString@2@@Z 120dafd0 f   ElementImpl.obj
 0001:000da040       ?removeAttribute@ElementImpl@xercesc_2_2@@UAEXABVDOMString@2@@Z 120db040 f   ElementImpl.obj
 0001:000da0f0       ?removeAttributeNode@ElementImpl@xercesc_2_2@@UAEPAVAttrImpl@2@PAV32@@Z 120db0f0 f   ElementImpl.obj
 0001:000da230       ?setAttribute@ElementImpl@xercesc_2_2@@UAEPAVAttrImpl@2@ABVDOMString@2@0@Z 120db230 f   ElementImpl.obj
 0001:000da330       ?setAttributeNode@ElementImpl@xercesc_2_2@@UAEPAVAttrImpl@2@PAV32@@Z 120db330 f   ElementImpl.obj
 0001:000da470       ?setReadOnly@ElementImpl@xercesc_2_2@@UAEX_N0@Z 120db470 f   ElementImpl.obj
 0001:000da4a0       ?getAttributeNS@ElementImpl@xercesc_2_2@@UAE?AVDOMString@2@ABV32@0@Z 120db4a0 f   ElementImpl.obj
 0001:000da570       ?setAttributeNS@ElementImpl@xercesc_2_2@@UAEPAVAttrImpl@2@ABVDOMString@2@00@Z 120db570 f   ElementImpl.obj
 0001:000da670       ?removeAttributeNS@ElementImpl@xercesc_2_2@@UAEXABVDOMString@2@0@Z 120db670 f   ElementImpl.obj
 0001:000da730       ?getAttributeNodeNS@ElementImpl@xercesc_2_2@@UAEPAVAttrImpl@2@ABVDOMString@2@0@Z 120db730 f   ElementImpl.obj
 0001:000da750       ?setAttributeNodeNS@ElementImpl@xercesc_2_2@@UAEPAVAttrImpl@2@PAV32@@Z 120db750 f   ElementImpl.obj
 0001:000da8c0       ?getElementsByTagNameNS@ElementImpl@xercesc_2_2@@UAEPAVDeepNodeListImpl@2@ABVDOMString@2@0@Z 120db8c0 f   ElementImpl.obj
 0001:000da930       ?hasAttributes@ElementImpl@xercesc_2_2@@UAE_NXZ 120db930 f   ElementImpl.obj
 0001:000da950       ?hasAttribute@ElementImpl@xercesc_2_2@@UAE_NABVDOMString@2@@Z 120db950 f   ElementImpl.obj
 0001:000da970       ?hasAttributeNS@ElementImpl@xercesc_2_2@@UAE_NABVDOMString@2@0@Z 120db970 f   ElementImpl.obj
 0001:000da990       ?NNM_cloneMap@ElementImpl@xercesc_2_2@@UAEPAVNamedNodeMapImpl@2@PAVNodeImpl@2@@Z 120db990 f   ElementImpl.obj
 0001:000da9c0       ?NNM_findNamePoint@ElementImpl@xercesc_2_2@@UAEHABVDOMString@2@@Z 120db9c0 f   ElementImpl.obj
 0001:000da9f0       ?NNM_getLength@ElementImpl@xercesc_2_2@@UAEIXZ 120db9f0 f   ElementImpl.obj
 0001:000daa10       ?NNM_getNamedItem@ElementImpl@xercesc_2_2@@UAEPAVNodeImpl@2@ABVDOMString@2@@Z 120dba10 f   ElementImpl.obj
 0001:000daa40       ?NNM_item@ElementImpl@xercesc_2_2@@UAEPAVNodeImpl@2@I@Z 120dba40 f   ElementImpl.obj
 0001:000daa70       ?NNM_removeAll@ElementImpl@xercesc_2_2@@UAEXXZ 120dba70 f   ElementImpl.obj
 0001:000daa90       ?NNM_removeNamedItem@ElementImpl@xercesc_2_2@@UAEPAVNodeImpl@2@ABVDOMString@2@@Z 120dba90 f   ElementImpl.obj
 0001:000dab10       ?NNM_setNamedItem@ElementImpl@xercesc_2_2@@UAEPAVNodeImpl@2@PAV32@@Z 120dbb10 f   ElementImpl.obj
 0001:000dab90       ?NNM_setReadOnly@ElementImpl@xercesc_2_2@@UAEX_N0@Z 120dbb90 f   ElementImpl.obj
 0001:000dabc0       ?NNM_findNamePoint@ElementImpl@xercesc_2_2@@UAEHABVDOMString@2@0@Z 120dbbc0 f   ElementImpl.obj
 0001:000dabf0       ?NNM_getNamedItemNS@ElementImpl@xercesc_2_2@@UAEPAVNodeImpl@2@ABVDOMString@2@0@Z 120dbbf0 f   ElementImpl.obj
 0001:000dac20       ?NNM_setNamedItemNS@ElementImpl@xercesc_2_2@@UAEPAVNodeImpl@2@PAV32@@Z 120dbc20 f   ElementImpl.obj
 0001:000daca0       ?NNM_removeNamedItemNS@ElementImpl@xercesc_2_2@@UAEPAVNodeImpl@2@ABVDOMString@2@0@Z 120dbca0 f   ElementImpl.obj
 0001:000dad20       ?NNM_setOwnerDocument@ElementImpl@xercesc_2_2@@UAEXPAVDocumentImpl@2@@Z 120dbd20 f   ElementImpl.obj
 0001:000dad50       ?getDefaultAttributes@ElementImpl@xercesc_2_2@@UAEPAVAttrMapImpl@2@XZ 120dbd50 f   ElementImpl.obj
 0001:000dae10       ?setupDefaultAttributes@ElementImpl@xercesc_2_2@@UAEXXZ 120dbe10 f   ElementImpl.obj
 0001:000daec0       ?reinitElementImpl@ElementImpl@xercesc_2_2@@SAXXZ 120dbec0 f   ElementImpl.obj
 0001:000daef0       ??0ElementNSImpl@xercesc_2_2@@QAE@PAVDocumentImpl@1@ABVDOMString@1@@Z 120dbef0 f   ElementNSImpl.obj
 0001:000daf80       ??_EElementNSImpl@xercesc_2_2@@UAEPAXI@Z 120dbf80 f i ElementNSImpl.obj
 0001:000dafe0       ??0ElementNSImpl@xercesc_2_2@@QAE@PAVDocumentImpl@1@ABVDOMString@1@1@Z 120dbfe0 f   ElementNSImpl.obj
 0001:000db1f0       ??0ElementNSImpl@xercesc_2_2@@QAE@ABV01@_N@Z 120dc1f0 f   ElementNSImpl.obj
 0001:000db2c0       ?cloneNode@ElementNSImpl@xercesc_2_2@@UAEPAVNodeImpl@2@_N@Z 120dc2c0 f   ElementNSImpl.obj
 0001:000db330       ?getPrefix@ElementNSImpl@xercesc_2_2@@UAE?AVDOMString@2@XZ 120dc330 f   ElementNSImpl.obj
 0001:000db380       ?setPrefix@ElementNSImpl@xercesc_2_2@@UAEXABVDOMString@2@@Z 120dc380 f   ElementNSImpl.obj
 0001:000db600       ??0EntityImpl@xercesc_2_2@@QAE@PAVDocumentImpl@1@ABVDOMString@1@@Z 120dc600 f   EntityImpl.obj
 0001:000db6c0       ??_EEntityImpl@xercesc_2_2@@UAEPAXI@Z 120dc6c0 f i EntityImpl.obj
 0001:000db720       ??0EntityImpl@xercesc_2_2@@QAE@ABV01@_N@Z 120dc720 f   EntityImpl.obj
 0001:000db880       ??1EntityImpl@xercesc_2_2@@UAE@XZ 120dc880 f   EntityImpl.obj
 0001:000db900       ?cloneNode@EntityImpl@xercesc_2_2@@UAEPAVNodeImpl@2@_N@Z 120dc900 f   EntityImpl.obj
 0001:000db970       ?getNodeType@EntityImpl@xercesc_2_2@@UAEFXZ 120dc970 f   EntityImpl.obj
 0001:000db970       ?getNodeType@DOMEntityImpl@xercesc_2_2@@UBEFXZ 120dc970 f   EntityImpl.obj
 0001:000db980       ?getLocalName@ElementNSImpl@xercesc_2_2@@UAE?AVDOMString@2@XZ 120dc980 f   EntityImpl.obj
 0001:000db980       ?getNotationName@EntityImpl@xercesc_2_2@@UAE?AVDOMString@2@XZ 120dc980 f   EntityImpl.obj
 0001:000db9a0       ?getPublicId@EntityImpl@xercesc_2_2@@UAE?AVDOMString@2@XZ 120dc9a0 f   EntityImpl.obj
 0001:000db9c0       ?getNamespaceURI@ElementNSImpl@xercesc_2_2@@UAE?AVDOMString@2@XZ 120dc9c0 f   EntityImpl.obj
 0001:000db9c0       ?getSystemId@EntityImpl@xercesc_2_2@@UAE?AVDOMString@2@XZ 120dc9c0 f   EntityImpl.obj
 0001:000db9e0       ?setNotationName@EntityImpl@xercesc_2_2@@UAEXABVDOMString@2@@Z 120dc9e0 f   EntityImpl.obj
 0001:000db9f0       ?setPublicId@EntityImpl@xercesc_2_2@@UAEXABVDOMString@2@@Z 120dc9f0 f   EntityImpl.obj
 0001:000dba00       ?setSystemId@EntityImpl@xercesc_2_2@@UAEXABVDOMString@2@@Z 120dca00 f   EntityImpl.obj
 0001:000dba10       ?setEntityRef@EntityImpl@xercesc_2_2@@UAEXPAVEntityReferenceImpl@2@@Z 120dca10 f   EntityImpl.obj
 0001:000dba30       ?cloneEntityRefTree@EntityImpl@xercesc_2_2@@AAEXXZ 120dca30 f   EntityImpl.obj
 0001:000dba70       ?getFirstChild@EntityImpl@xercesc_2_2@@UAEPAVNodeImpl@2@XZ 120dca70 f   EntityImpl.obj
 0001:000dbab0       ?getLastChild@EntityImpl@xercesc_2_2@@UAEPAVNodeImpl@2@XZ 120dcab0 f   EntityImpl.obj
 0001:000dbaf0       ?getChildNodes@EntityImpl@xercesc_2_2@@UAEPAVNodeListImpl@2@XZ 120dcaf0 f   EntityImpl.obj
 0001:000dbb30       ?hasChildNodes@EntityImpl@xercesc_2_2@@UAE_NXZ 120dcb30 f   EntityImpl.obj
 0001:000dbb80       ?item@EntityImpl@xercesc_2_2@@UAEPAVNodeImpl@2@I@Z 120dcb80 f   EntityImpl.obj
 0001:000dbbe0       ??0EntityReferenceImpl@xercesc_2_2@@QAE@PAVDocumentImpl@1@ABVDOMString@1@@Z 120dcbe0 f   EntityReferenceImpl.obj
 0001:000dbce0       ??_EEntityReferenceImpl@xercesc_2_2@@UAEPAXI@Z 120dcce0 f i EntityReferenceImpl.obj
 0001:000dbd40       ??0EntityReferenceImpl@xercesc_2_2@@QAE@ABV01@_N@Z 120dcd40 f   EntityReferenceImpl.obj
 0001:000dbdf0       ??1EntityReferenceImpl@xercesc_2_2@@UAE@XZ 120dcdf0 f   EntityReferenceImpl.obj
 0001:000dbe50       ?cloneNode@EntityReferenceImpl@xercesc_2_2@@UAEPAVNodeImpl@2@_N@Z 120dce50 f   EntityReferenceImpl.obj
 0001:000dbf10       ?setReadOnly@EntityReferenceImpl@xercesc_2_2@@UAEX_N0@Z 120dcf10 f   EntityReferenceImpl.obj
 0001:000dbf90       ??0NamedNodeMapImpl@xercesc_2_2@@QAE@PAVNodeImpl@1@@Z 120dcf90 f   NamedNodeMapImpl.obj
 0001:000dbfc0       ??1NamedNodeMapImpl@xercesc_2_2@@UAE@XZ 120dcfc0 f   NamedNodeMapImpl.obj
 0001:000dc000       ?addRef@NamedNodeMapImpl@xercesc_2_2@@SAXPAV12@@Z 120dd000 f   NamedNodeMapImpl.obj
 0001:000dc010       ?cloneMap@NamedNodeMapImpl@xercesc_2_2@@UAEPAV12@PAVNodeImpl@2@@Z 120dd010 f   NamedNodeMapImpl.obj
 0001:000dc150       ?removeAll@NamedNodeMapImpl@xercesc_2_2@@UAEXXZ 120dd150 f   NamedNodeMapImpl.obj
 0001:000dc1c0       ?findNamePoint@NamedNodeMapImpl@xercesc_2_2@@UAEHABVDOMString@2@@Z 120dd1c0 f   NamedNodeMapImpl.obj
 0001:000dc280       ?getLength@DOMNamedNodeMapImpl@xercesc_2_2@@UBEKXZ 120dd280 f   NamedNodeMapImpl.obj
 0001:000dc280       ?getLength@NamedNodeMapImpl@xercesc_2_2@@UAEIXZ 120dd280 f   NamedNodeMapImpl.obj
 0001:000dc290       ?getNamedItem@NamedNodeMapImpl@xercesc_2_2@@UAEPAVNodeImpl@2@ABVDOMString@2@@Z 120dd290 f   NamedNodeMapImpl.obj
 0001:000dc2c0       ?item@NamedNodeMapImpl@xercesc_2_2@@UAEPAVNodeImpl@2@I@Z 120dd2c0 f   NamedNodeMapImpl.obj
 0001:000dc2c0       ?item@DOMNamedNodeMapImpl@xercesc_2_2@@UBEPAVDOMNode@2@K@Z 120dd2c0 f   NamedNodeMapImpl.obj
 0001:000dc2f0       ?removeNamedItem@NamedNodeMapImpl@xercesc_2_2@@UAEPAVNodeImpl@2@ABVDOMString@2@@Z 120dd2f0 f   NamedNodeMapImpl.obj
 0001:000dc3d0       ?removeRef@NamedNodeMapImpl@xercesc_2_2@@SAXPAV12@@Z 120dd3d0 f   NamedNodeMapImpl.obj
 0001:000dc3f0       ?setNamedItem@NamedNodeMapImpl@xercesc_2_2@@UAEPAVNodeImpl@2@PAV32@@Z 120dd3f0 f   NamedNodeMapImpl.obj
 0001:000dc5d0       ?setReadOnly@NamedNodeMapImpl@xercesc_2_2@@UAEX_N0@Z 120dd5d0 f   NamedNodeMapImpl.obj
 0001:000dc620       ?findNamePoint@NamedNodeMapImpl@xercesc_2_2@@UAEHABVDOMString@2@0@Z 120dd620 f   NamedNodeMapImpl.obj
 0001:000dc7e0       ?getNamedItemNS@NamedNodeMapImpl@xercesc_2_2@@UAEPAVNodeImpl@2@ABVDOMString@2@0@Z 120dd7e0 f   NamedNodeMapImpl.obj
 0001:000dc810       ?setNamedItemNS@NamedNodeMapImpl@xercesc_2_2@@UAEPAVNodeImpl@2@PAV32@@Z 120dd810 f   NamedNodeMapImpl.obj
 0001:000dca30       ?removeNamedItemNS@NamedNodeMapImpl@xercesc_2_2@@UAEPAVNodeImpl@2@ABVDOMString@2@0@Z 120dda30 f   NamedNodeMapImpl.obj
 0001:000dcb20       ?setOwnerDocument@NamedNodeMapImpl@xercesc_2_2@@UAEXPAVDocumentImpl@2@@Z 120ddb20 f   NamedNodeMapImpl.obj
 0001:000dcb70       ?cloneContent@NamedNodeMapImpl@xercesc_2_2@@MAEXPAV12@@Z 120ddb70 f   NamedNodeMapImpl.obj
 0001:000dcc90       ??0NodeIDMap@xercesc_2_2@@QAE@H@Z 120ddc90 f   NodeIDMap.obj
 0001:000dcd70       ??_ENodeIDMap@xercesc_2_2@@UAEPAXI@Z 120ddd70 f i NodeIDMap.obj
 0001:000dcd70       ??_GNodeIDMap@xercesc_2_2@@UAEPAXI@Z 120ddd70 f i NodeIDMap.obj
 0001:000dcdb0       ?add@NodeIDMap@xercesc_2_2@@QAEXPAVAttrImpl@2@@Z 120dddb0 f   NodeIDMap.obj
 0001:000dce70       ?remove@NodeIDMap@xercesc_2_2@@QAEXPAVAttrImpl@2@@Z 120dde70 f   NodeIDMap.obj
 0001:000dcf20       ?find@NodeIDMap@xercesc_2_2@@QAEPAVAttrImpl@2@ABVDOMString@2@@Z 120ddf20 f   NodeIDMap.obj
 0001:000dcff0       ?growTable@NodeIDMap@xercesc_2_2@@AAEXXZ 120ddff0 f   NodeIDMap.obj
 0001:000dd0f0       ??0NodeImpl@xercesc_2_2@@QAE@PAVDocumentImpl@1@@Z 120de0f0 f   NodeImpl.obj
 0001:000dd130       ??_ENodeImpl@xercesc_2_2@@UAEPAXI@Z 120de130 f i NodeImpl.obj
 0001:000dd190       ??0NodeImpl@xercesc_2_2@@QAE@ABV01@@Z 120de190 f   NodeImpl.obj
 0001:000dd230       ??1NodeImpl@xercesc_2_2@@UAE@XZ 120de230 f   NodeImpl.obj
 0001:000dd2c0       ?changed@NodeImpl@xercesc_2_2@@UAEXXZ 120de2c0 f   NodeImpl.obj
 0001:000dd2d0       ?changes@NodeImpl@xercesc_2_2@@UAEHXZ 120de2d0 f   NodeImpl.obj
 0001:000dd2e0       ?appendChild@NodeImpl@xercesc_2_2@@UAEPAV12@PAV12@@Z 120de2e0 f   NodeImpl.obj
 0001:000dd2f0       ?deleteIf@NodeImpl@xercesc_2_2@@SAXPAV12@@Z 120de2f0 f   NodeImpl.obj
 0001:000dd390       ?getDocument@NodeImpl@xercesc_2_2@@UAEPAVDocumentImpl@2@XZ 120de390 f   NodeImpl.obj
 0001:000dd390       ?getOwnerDocument@NodeImpl@xercesc_2_2@@UAEPAVDocumentImpl@2@XZ 120de390 f   NodeImpl.obj
 0001:000dd3b0       ?setOwnerDocument@NodeImpl@xercesc_2_2@@UAEXPAVDocumentImpl@2@@Z 120de3b0 f   NodeImpl.obj
 0001:000dd3d0       ?getUserData@NodeImpl@xercesc_2_2@@UAEPAXXZ 120de3d0 f   NodeImpl.obj
 0001:000dd400       ?insertBefore@NodeImpl@xercesc_2_2@@UAEPAV12@PAV12@0@Z 120de400 f   NodeImpl.obj
 0001:000dd450       ?item@NodeImpl@xercesc_2_2@@UAEPAV12@I@Z 120de450 f   NodeImpl.obj
 0001:000dd460       ?removeChild@NodeImpl@xercesc_2_2@@UAEPAV12@PAV12@@Z 120de460 f   NodeImpl.obj
 0001:000dd4b0       ?replaceChild@NodeImpl@xercesc_2_2@@UAEPAV12@PAV12@0@Z 120de4b0 f   NodeImpl.obj
 0001:000dd500       ?referenced@NodeImpl@xercesc_2_2@@UAEXXZ 120de500 f   NodeImpl.obj
 0001:000dd510       ?unreferenced@NodeImpl@xercesc_2_2@@UAEXXZ 120de510 f   NodeImpl.obj
 0001:000dd530       ?setReadOnly@NodeImpl@xercesc_2_2@@UAEX_N0@Z 120de530 f   NodeImpl.obj
 0001:000dd570       ?setUserData@NodeImpl@xercesc_2_2@@UAEXPAX@Z 120de570 f   NodeImpl.obj
 0001:000dd5b0       ?toString@NodeImpl@xercesc_2_2@@UAE?AVDOMString@2@XZ 120de5b0 f   NodeImpl.obj
 0001:000dd710       ?isSupported@NodeImpl@xercesc_2_2@@UAE_NABVDOMString@2@0@Z 120de710 f   NodeImpl.obj
 0001:000dd730       ?getPrefix@NodeImpl@xercesc_2_2@@UAE?AVDOMString@2@XZ 120de730 f   NodeImpl.obj
 0001:000dd730       ?getNamespaceURI@NodeImpl@xercesc_2_2@@UAE?AVDOMString@2@XZ 120de730 f   NodeImpl.obj
 0001:000dd730       ?getNodeValue@NodeImpl@xercesc_2_2@@UAE?AVDOMString@2@XZ 120de730 f   NodeImpl.obj
 0001:000dd730       ?getLocalName@NodeImpl@xercesc_2_2@@UAE?AVDOMString@2@XZ 120de730 f   NodeImpl.obj
 0001:000dd750       ?setPrefix@NodeImpl@xercesc_2_2@@UAEXABVDOMString@2@@Z 120de750 f   NodeImpl.obj
 0001:000dd7a0       ?hasAttributes@DOMNodeImpl@xercesc_2_2@@QBE_NXZ 120de7a0 f   NodeImpl.obj
 0001:000dd7a0       ?isAttrImpl@NodeImpl@xercesc_2_2@@UAE_NXZ 120de7a0 f   NodeImpl.obj
 0001:000dd7a0       ?isDocumentTypeImpl@NodeImpl@xercesc_2_2@@UAE_NXZ 120de7a0 f   NodeImpl.obj
 0001:000dd7a0       ?isDocumentImpl@NodeImpl@xercesc_2_2@@UAE_NXZ 120de7a0 f   NodeImpl.obj
 0001:000dd7a0       ?hasAttributes@NodeImpl@xercesc_2_2@@UAE_NXZ 120de7a0 f   NodeImpl.obj
 0001:000dd7a0       ?isCDATASectionImpl@NodeImpl@xercesc_2_2@@UAE_NXZ 120de7a0 f   NodeImpl.obj
 0001:000dd7a0       ?hasChildNodes@DOMNodeImpl@xercesc_2_2@@QBE_NXZ 120de7a0 f   NodeImpl.obj
 0001:000dd7a0       ?isDocumentFragmentImpl@NodeImpl@xercesc_2_2@@UAE_NXZ 120de7a0 f   NodeImpl.obj
 0001:000dd7a0       ?requiresNamespaces@DTDValidator@xercesc_2_2@@UBE_NXZ 120de7a0 f   NodeImpl.obj
 0001:000dd7a0       ?isEntityReference@NodeImpl@xercesc_2_2@@UAE_NXZ 120de7a0 f   NodeImpl.obj
 0001:000dd7a0       ?hasChildNodes@NodeImpl@xercesc_2_2@@UAE_NXZ 120de7a0 f   NodeImpl.obj
 0001:000dd7a0       ?isElementImpl@NodeImpl@xercesc_2_2@@UAE_NXZ 120de7a0 f   NodeImpl.obj
 0001:000dd7a0       ?isTextImpl@NodeImpl@xercesc_2_2@@UAE_NXZ 120de7a0 f   NodeImpl.obj
 0001:000dd7b0       ?getXmlnsString@NodeImpl@xercesc_2_2@@KA?AVDOMString@2@XZ 120de7b0 f   NodeImpl.obj
 0001:000dd7f0       ?getXmlnsURIString@NodeImpl@xercesc_2_2@@KA?AVDOMString@2@XZ 120de7f0 f   NodeImpl.obj
 0001:000dd830       ?getXmlString@NodeImpl@xercesc_2_2@@KA?AVDOMString@2@XZ 120de830 f   NodeImpl.obj
 0001:000dd870       ?getXmlURIString@NodeImpl@xercesc_2_2@@KA?AVDOMString@2@XZ 120de870 f   NodeImpl.obj
 0001:000dd8b0       ?mapPrefix@NodeImpl@xercesc_2_2@@KAABVDOMString@2@ABV32@0F@Z 120de8b0 f   NodeImpl.obj
 0001:000ddb40       ?reinitNodeImpl@NodeImpl@xercesc_2_2@@SAXXZ 120deb40 f   NodeImpl.obj
 0001:000ddbd0       ??0NodeIteratorImpl@xercesc_2_2@@IAE@XZ 120debd0 f   NodeIteratorImpl.obj
 0001:000ddc40       ??_ENodeIteratorImpl@xercesc_2_2@@UAEPAXI@Z 120dec40 f i NodeIteratorImpl.obj
 0001:000ddca0       ??1NodeIteratorImpl@xercesc_2_2@@UAE@XZ 120deca0 f   NodeIteratorImpl.obj
 0001:000ddd10       ?detach@NodeIteratorImpl@xercesc_2_2@@QAEXXZ 120ded10 f   NodeIteratorImpl.obj
 0001:000ddd20       ??0NodeIteratorImpl@xercesc_2_2@@QAE@VDOM_Node@1@KPAVDOM_NodeFilter@1@_N@Z 120ded20 f   NodeIteratorImpl.obj
 0001:000dddc0       ??0NodeIteratorImpl@xercesc_2_2@@QAE@ABV01@@Z 120dedc0 f   NodeIteratorImpl.obj
 0001:000dde50       ??4NodeIteratorImpl@xercesc_2_2@@QAEAAV01@ABV01@@Z 120dee50 f   NodeIteratorImpl.obj
 0001:000ddea0       ?nextNode@NodeIteratorImpl@xercesc_2_2@@QAE?AVDOM_Node@2@XZ 120deea0 f   NodeIteratorImpl.obj
 0001:000de030       ?previousNode@NodeIteratorImpl@xercesc_2_2@@QAE?AVDOM_Node@2@XZ 120df030 f   NodeIteratorImpl.obj
 0001:000de1d0       ?acceptNode@NodeIteratorImpl@xercesc_2_2@@QAE_NVDOM_Node@2@@Z 120df1d0 f   NodeIteratorImpl.obj
 0001:000de2a0       ?matchNodeOrParent@NodeIteratorImpl@xercesc_2_2@@QAE?AVDOM_Node@2@V32@@Z 120df2a0 f   NodeIteratorImpl.obj
 0001:000de3d0       ?nextNode@NodeIteratorImpl@xercesc_2_2@@QAE?AVDOM_Node@2@V32@_N@Z 120df3d0 f   NodeIteratorImpl.obj
 0001:000de660       ?previousNode@NodeIteratorImpl@xercesc_2_2@@QAE?AVDOM_Node@2@V32@@Z 120df660 f   NodeIteratorImpl.obj
 0001:000de800       ?removeNode@NodeIteratorImpl@xercesc_2_2@@QAEXVDOM_Node@2@@Z 120df800 f   NodeIteratorImpl.obj
 0001:000de9a0       ?unreferenced@NodeIteratorImpl@xercesc_2_2@@UAEXXZ 120df9a0 f   NodeIteratorImpl.obj
 0001:000deb20       ??0NodeListImpl@xercesc_2_2@@IAE@XZ 120dfb20 f   NodeListImpl.obj
 0001:000deb40       ??1NodeListImpl@xercesc_2_2@@UAE@XZ 120dfb40 f   NodeListImpl.obj
 0001:000deb50       ??0NodeVector@xercesc_2_2@@QAE@XZ 120dfb50 f   NodeVector.obj
 0001:000deb80       ??0NodeVector@xercesc_2_2@@QAE@I@Z 120dfb80 f   NodeVector.obj
 0001:000debb0       ?addElement@NodeVector@xercesc_2_2@@QAEXPAVNodeImpl@2@@Z 120dfbb0 f   NodeVector.obj
 0001:000dec20       ?elementAt@DOMNodeVector@xercesc_2_2@@QAEPAVDOMNode@2@K@Z 120dfc20 f   NodeVector.obj
 0001:000dec20       ?elementAt@NodeVector@xercesc_2_2@@QAEPAVNodeImpl@2@I@Z 120dfc20 f   NodeVector.obj
 0001:000dec40       ?lastElement@NodeVector@xercesc_2_2@@QAEPAVNodeImpl@2@XZ 120dfc40 f   NodeVector.obj
 0001:000dec50       ?insertElementAt@NodeVector@xercesc_2_2@@QAEXPAVNodeImpl@2@I@Z 120dfc50 f   NodeVector.obj
 0001:000dece0       ?removeElementAt@NodeVector@xercesc_2_2@@QAEXI@Z 120dfce0 f   NodeVector.obj
 0001:000dece0       ?removeElementAt@DOMNodeVector@xercesc_2_2@@QAEXK@Z 120dfce0 f   NodeVector.obj
 0001:000ded10       ?reset@NodeVector@xercesc_2_2@@QAEXXZ 120dfd10 f   NodeVector.obj
 0001:000ded10       ?reset@DOMNodeVector@xercesc_2_2@@QAEXXZ 120dfd10 f   NodeVector.obj
 0001:000ded20       ?setElementAt@NodeVector@xercesc_2_2@@QAEXPAVNodeImpl@2@I@Z 120dfd20 f   NodeVector.obj
 0001:000ded20       ?setElementAt@DOMNodeVector@xercesc_2_2@@QAEXPAVDOMNode@2@K@Z 120dfd20 f   NodeVector.obj
 0001:000ded30       ??0NotationImpl@xercesc_2_2@@QAE@PAVDocumentImpl@1@ABVDOMString@1@@Z 120dfd30 f   NotationImpl.obj
 0001:000dedd0       ??_ENotationImpl@xercesc_2_2@@UAEPAXI@Z 120dfdd0 f i NotationImpl.obj
 0001:000dee30       ??0NotationImpl@xercesc_2_2@@QAE@ABV01@_N@Z 120dfe30 f   NotationImpl.obj
 0001:000deed0       ??1NotationImpl@xercesc_2_2@@UAE@XZ 120dfed0 f   NotationImpl.obj
 0001:000def40       ?cloneNode@NotationImpl@xercesc_2_2@@UAEPAVNodeImpl@2@_N@Z 120dff40 f   NotationImpl.obj
 0001:000defb0       ?getNodeName@ElementDefinitionImpl@xercesc_2_2@@UAE?AVDOMString@2@XZ 120dffb0 f   NotationImpl.obj
 0001:000defb0       ?getName@AttrImpl@xercesc_2_2@@UAE?AVDOMString@2@XZ 120dffb0 f   NotationImpl.obj
 0001:000defb0       ?getNodeName@NotationImpl@xercesc_2_2@@UAE?AVDOMString@2@XZ 120dffb0 f   NotationImpl.obj
 0001:000defb0       ?getNodeName@AttrImpl@xercesc_2_2@@UAE?AVDOMString@2@XZ 120dffb0 f   NotationImpl.obj
 0001:000defd0       ?getNodeType@NotationImpl@xercesc_2_2@@UAEFXZ 120dffd0 f   NotationImpl.obj
 0001:000defd0       ?getNodeType@DOMNotationImpl@xercesc_2_2@@UBEFXZ 120dffd0 f   NotationImpl.obj
 0001:000defe0       ?getPublicId@NotationImpl@xercesc_2_2@@UAE?AVDOMString@2@XZ 120dffe0 f   NotationImpl.obj
 0001:000df000       ?getTarget@ProcessingInstructionImpl@xercesc_2_2@@UAE?AVDOMString@2@XZ 120e0000 f   NotationImpl.obj
 0001:000df000       ?getSystemId@NotationImpl@xercesc_2_2@@UAE?AVDOMString@2@XZ 120e0000 f   NotationImpl.obj
 0001:000df020       ?setPublicId@NotationImpl@xercesc_2_2@@UAEXABVDOMString@2@@Z 120e0020 f   NotationImpl.obj
 0001:000df0c0       ?setSystemId@NotationImpl@xercesc_2_2@@UAEXABVDOMString@2@@Z 120e00c0 f   NotationImpl.obj
 0001:000df160       ??0ParentNode@xercesc_2_2@@QAE@PAVDocumentImpl@1@@Z 120e0160 f   ParentNode.obj
 0001:000df190       ??_EParentNode@xercesc_2_2@@UAEPAXI@Z 120e0190 f i ParentNode.obj
 0001:000df1f0       ??0ParentNode@xercesc_2_2@@QAE@ABV01@@Z 120e01f0 f   ParentNode.obj
 0001:000df230       ?setOwnerDocument@ParentNode@xercesc_2_2@@UAEXPAVDocumentImpl@2@@Z 120e0230 f   ParentNode.obj
 0001:000df260       ??0DOM_DOMImplementation@xercesc_2_2@@QAE@XZ 120e0260 f   ParentNode.obj
 0001:000df260       ?getChildNodes@NodeImpl@xercesc_2_2@@UAEPAVNodeListImpl@2@XZ 120e0260 f   ParentNode.obj
 0001:000df260       ?getChildNodes@ParentNode@xercesc_2_2@@UAEPAVNodeListImpl@2@XZ 120e0260 f   ParentNode.obj
 0001:000df260       ?getChildNodes@AttrImpl@xercesc_2_2@@UAEPAVNodeListImpl@2@XZ 120e0260 f   ParentNode.obj
 0001:000df270       ?lastChild@ParentNode@xercesc_2_2@@IAEPAVChildNode@2@XZ 120e0270 f   ParentNode.obj
 0001:000df270       ?getLastChild@ParentNode@xercesc_2_2@@UAEPAVNodeImpl@2@XZ 120e0270 f   ParentNode.obj
 0001:000df280       ?lastChild@ParentNode@xercesc_2_2@@IAEXPAVChildNode@2@@Z 120e0280 f   ParentNode.obj
 0001:000df2a0       ?getLength@ParentNode@xercesc_2_2@@UAEIXZ 120e02a0 f   ParentNode.obj
 0001:000df2e0       ?hasChildNodes@ParentNode@xercesc_2_2@@UAE_NXZ 120e02e0 f   ParentNode.obj
 0001:000df2f0       ?insertBefore@ParentNode@xercesc_2_2@@UAEPAVNodeImpl@2@PAV32@0@Z 120e02f0 f   ParentNode.obj
 0001:000df680       ?item@ParentNode@xercesc_2_2@@UAEPAVNodeImpl@2@I@Z 120e0680 f   ParentNode.obj
 0001:000df720       ?removeChild@ParentNode@xercesc_2_2@@UAEPAVNodeImpl@2@PAV32@@Z 120e0720 f   ParentNode.obj
 0001:000df930       ?replaceChild@ParentNode@xercesc_2_2@@UAEPAVNodeImpl@2@PAV32@0@Z 120e0930 f   ParentNode.obj
 0001:000df930       ?replaceChild@AttrImpl@xercesc_2_2@@UAEPAVNodeImpl@2@PAV32@0@Z 120e0930 f   ParentNode.obj
 0001:000df960       ?setReadOnly@ParentNode@xercesc_2_2@@UAEX_N0@Z 120e0960 f   ParentNode.obj
 0001:000df9b0       ?normalize@ParentNode@xercesc_2_2@@UAEXXZ 120e09b0 f   ParentNode.obj
 0001:000dfa50       ??0ProcessingInstructionImpl@xercesc_2_2@@QAE@PAVDocumentImpl@1@ABVDOMString@1@1@Z 120e0a50 f   ProcessingInstructionImpl.obj
 0001:000dfb10       ??_EProcessingInstructionImpl@xercesc_2_2@@UAEPAXI@Z 120e0b10 f i ProcessingInstructionImpl.obj
 0001:000dfb70       ??0ProcessingInstructionImpl@xercesc_2_2@@QAE@ABV01@_N@Z 120e0b70 f   ProcessingInstructionImpl.obj
 0001:000dfc30       ??1ProcessingInstructionImpl@xercesc_2_2@@UAE@XZ 120e0c30 f   ProcessingInstructionImpl.obj
 0001:000dfc90       ?cloneNode@ProcessingInstructionImpl@xercesc_2_2@@UAEPAVNodeImpl@2@_N@Z 120e0c90 f   ProcessingInstructionImpl.obj
 0001:000dfd00       ?getNamespaceURI@AttrNSImpl@xercesc_2_2@@UAE?AVDOMString@2@XZ 120e0d00 f   ProcessingInstructionImpl.obj
 0001:000dfd00       ?getNodeName@ProcessingInstructionImpl@xercesc_2_2@@UAE?AVDOMString@2@XZ 120e0d00 f   ProcessingInstructionImpl.obj
 0001:000dfd00       ?getNodeValue@CharacterDataImpl@xercesc_2_2@@UAE?AVDOMString@2@XZ 120e0d00 f   ProcessingInstructionImpl.obj
 0001:000dfd00       ?getVersion@XMLDeclImpl@xercesc_2_2@@UBE?AVDOMString@2@XZ 120e0d00 f   ProcessingInstructionImpl.obj
 0001:000dfd20       ?getNodeType@ProcessingInstructionImpl@xercesc_2_2@@UAEFXZ 120e0d20 f   ProcessingInstructionImpl.obj
 0001:000dfd20       ?getNodeType@DOMProcessingInstructionImpl@xercesc_2_2@@UBEFXZ 120e0d20 f   ProcessingInstructionImpl.obj
 0001:000dfd30       ?setNodeValue@ProcessingInstructionImpl@xercesc_2_2@@UAEXABVDOMString@2@@Z 120e0d30 f   ProcessingInstructionImpl.obj
 0001:000dfdd0       ?getNodeValue@ProcessingInstructionImpl@xercesc_2_2@@UAE?AVDOMString@2@XZ 120e0dd0 f   ProcessingInstructionImpl.obj
 0001:000dfdd0       ?getData@ProcessingInstructionImpl@xercesc_2_2@@UAE?AVDOMString@2@XZ 120e0dd0 f   ProcessingInstructionImpl.obj
 0001:000dfdf0       ?setData@ProcessingInstructionImpl@xercesc_2_2@@UAEXABVDOMString@2@@Z 120e0df0 f   ProcessingInstructionImpl.obj
 0001:000dfe90       ??0RangeImpl@xercesc_2_2@@QAE@VDOM_Document@1@@Z 120e0e90 f   RangeImpl.obj
 0001:000dff40       ??_ERangeImpl@xercesc_2_2@@UAEPAXI@Z 120e0f40 f i RangeImpl.obj
 0001:000dffa0       ??0RangeImpl@xercesc_2_2@@QAE@ABV01@@Z 120e0fa0 f   RangeImpl.obj
 0001:000e0070       ??1RangeImpl@xercesc_2_2@@UAE@XZ 120e1070 f   RangeImpl.obj
 0001:000e00f0       ?unreferenced@RangeImpl@xercesc_2_2@@UAEXXZ 120e10f0 f   RangeImpl.obj
 0001:000e01f0       ?getRoot@NodeIteratorImpl@xercesc_2_2@@QAE?AVDOM_Node@2@XZ 120e11f0 f   RangeImpl.obj
 0001:000e01f0       ?getStartContainer@RangeImpl@xercesc_2_2@@QBE?AVDOM_Node@2@XZ 120e11f0 f   RangeImpl.obj
 0001:000e0210       ?getEndContainer@RangeImpl@xercesc_2_2@@QBE?AVDOM_Node@2@XZ 120e1210 f   RangeImpl.obj
 0001:000e0210       ?getCurrentNode@TreeWalkerImpl@xercesc_2_2@@QAE?AVDOM_Node@2@XZ 120e1210 f   RangeImpl.obj
 0001:000e0230       ?getCollapsed@RangeImpl@xercesc_2_2@@QBE_NXZ 120e1230 f   RangeImpl.obj
 0001:000e02d0       ?setStartContainer@RangeImpl@xercesc_2_2@@AAEXABVDOM_Node@2@@Z 120e12d0 f   RangeImpl.obj
 0001:000e0340       ?setStartOffset@RangeImpl@xercesc_2_2@@AAEXI@Z 120e1340 f   RangeImpl.obj
 0001:000e03b0       ?setEndContainer@RangeImpl@xercesc_2_2@@AAEXABVDOM_Node@2@@Z 120e13b0 f   RangeImpl.obj
 0001:000e0420       ?setEndOffset@RangeImpl@xercesc_2_2@@AAEXI@Z 120e1420 f   RangeImpl.obj
 0001:000e0490       ?setStart@RangeImpl@xercesc_2_2@@QAEXABVDOM_Node@2@I@Z 120e1490 f   RangeImpl.obj
 0001:000e0730       ?setEnd@RangeImpl@xercesc_2_2@@QAEXABVDOM_Node@2@I@Z 120e1730 f   RangeImpl.obj
 0001:000e09d0       ?setStartBefore@RangeImpl@xercesc_2_2@@QAEXABVDOM_Node@2@@Z 120e19d0 f   RangeImpl.obj
 0001:000e0cd0       ?setStartAfter@RangeImpl@xercesc_2_2@@QAEXABVDOM_Node@2@@Z 120e1cd0 f   RangeImpl.obj
 0001:000e0fc0       ?setEndBefore@RangeImpl@xercesc_2_2@@QAEXABVDOM_Node@2@@Z 120e1fc0 f   RangeImpl.obj
 0001:000e12c0       ?setEndAfter@RangeImpl@xercesc_2_2@@QAEXABVDOM_Node@2@@Z 120e22c0 f   RangeImpl.obj
 0001:000e15c0       ?detach@RangeImpl@xercesc_2_2@@QAEXXZ 120e25c0 f   RangeImpl.obj
 0001:000e1660       ?collapse@RangeImpl@xercesc_2_2@@QAEX_N@Z 120e2660 f   RangeImpl.obj
 0001:000e1700       ?selectNode@RangeImpl@xercesc_2_2@@QAEXABVDOM_Node@2@@Z 120e2700 f   RangeImpl.obj
 0001:000e19c0       ?selectNodeContents@RangeImpl@xercesc_2_2@@QAEXABVDOM_Node@2@@Z 120e29c0 f   RangeImpl.obj
 0001:000e1bf0       ?surroundContents@RangeImpl@xercesc_2_2@@QAEXAAVDOM_Node@2@@Z 120e2bf0 f   RangeImpl.obj
 0001:000e1ec0       ?compareBoundaryPoints@RangeImpl@xercesc_2_2@@QBEFW4CompareHow@DOM_Range@2@PAV12@@Z 120e2ec0 f   RangeImpl.obj
 0001:000e2670       ?deleteContents@RangeImpl@xercesc_2_2@@QAEXXZ 120e3670 f   RangeImpl.obj
 0001:000e2690       ?extractContents@RangeImpl@xercesc_2_2@@QAE?AVDOM_DocumentFragment@2@XZ 120e3690 f   RangeImpl.obj
 0001:000e26d0       ?cloneContents@RangeImpl@xercesc_2_2@@QBE?AVDOM_DocumentFragment@2@XZ 120e36d0 f   RangeImpl.obj
 0001:000e26f0       ?insertNode@RangeImpl@xercesc_2_2@@QAEXAAVDOM_Node@2@@Z 120e36f0 f   RangeImpl.obj
 0001:000e2b50       ?cloneRange@RangeImpl@xercesc_2_2@@QBEPAV12@XZ 120e3b50 f   RangeImpl.obj
 0001:000e2bf0       ?toString@RangeImpl@xercesc_2_2@@QBE?AVDOMString@2@XZ 120e3bf0 f   RangeImpl.obj
 0001:000e30d0       ?getDocument@RangeImpl@xercesc_2_2@@QAE?AVDOM_Document@2@XZ 120e40d0 f   RangeImpl.obj
 0001:000e30f0       ?getCommonAncestorContainer@RangeImpl@xercesc_2_2@@QBE?BVDOM_Node@2@XZ 120e40f0 f   RangeImpl.obj
 0001:000e3120       ?isValidAncestorType@RangeImpl@xercesc_2_2@@ABE_NABVDOM_Node@2@@Z 120e4120 f   RangeImpl.obj
 0001:000e3200       ?isAncestorOf@RangeImpl@xercesc_2_2@@CA_NABVDOM_Node@2@0@Z 120e4200 f   RangeImpl.obj
 0001:000e32d0       ?hasLegalRootContainer@RangeImpl@xercesc_2_2@@ABE_NABVDOM_Node@2@@Z 120e42d0 f   RangeImpl.obj
 0001:000e3420       ?isLegalContainedNode@RangeImpl@xercesc_2_2@@ABE_NABVDOM_Node@2@@Z 120e4420 f   RangeImpl.obj
 0001:000e3480       ?indexOf@RangeImpl@xercesc_2_2@@ABEGABVDOM_Node@2@0@Z 120e4480 f   RangeImpl.obj
 0001:000e3570       ?validateNode@RangeImpl@xercesc_2_2@@ABEXABVDOM_Node@2@@Z 120e4570 f   RangeImpl.obj
 0001:000e36a0       ?commonAncestorOf@RangeImpl@xercesc_2_2@@ABE?BVDOM_Node@2@ABV32@0@Z 120e46a0 f   RangeImpl.obj
 0001:000e3a80       ?checkIndex@RangeImpl@xercesc_2_2@@ABEXABVDOM_Node@2@I@Z 120e4a80 f   RangeImpl.obj
 0001:000e3bf0       ?nextNode@RangeImpl@xercesc_2_2@@ABE?AVDOM_Node@2@ABV32@_N@Z 120e4bf0 f   RangeImpl.obj
 0001:000e3e30       ?traverseContents@RangeImpl@xercesc_2_2@@AAE?AVDOM_DocumentFragment@2@W4TraversalType@12@@Z 120e4e30 f   RangeImpl.obj
 0001:000e41d0       ?traverseSameContainer@RangeImpl@xercesc_2_2@@AAE?AVDOM_DocumentFragment@2@H@Z 120e51d0 f   RangeImpl.obj
 0001:000e44d0       ?traverseCommonStartContainer@RangeImpl@xercesc_2_2@@AAE?AVDOM_DocumentFragment@2@VDOM_Node@2@H@Z 120e54d0 f   RangeImpl.obj
 0001:000e4850       ?traverseCommonEndContainer@RangeImpl@xercesc_2_2@@AAE?AVDOM_DocumentFragment@2@VDOM_Node@2@H@Z 120e5850 f   RangeImpl.obj
 0001:000e4b40       ?traverseCommonAncestors@RangeImpl@xercesc_2_2@@AAE?AVDOM_DocumentFragment@2@VDOM_Node@2@0H@Z 120e5b40 f   RangeImpl.obj
 0001:000e4f80       ?traverseRightBoundary@RangeImpl@xercesc_2_2@@AAE?AVDOM_Node@2@V32@H@Z 120e5f80 f   RangeImpl.obj
 0001:000e52a0       ?traverseLeftBoundary@RangeImpl@xercesc_2_2@@AAE?AVDOM_Node@2@V32@H@Z 120e62a0 f   RangeImpl.obj
 0001:000e55c0       ?traverseNode@RangeImpl@xercesc_2_2@@AAE?AVDOM_Node@2@V32@_N1H@Z 120e65c0 f   RangeImpl.obj
 0001:000e56a0       ?traverseFullySelected@RangeImpl@xercesc_2_2@@AAE?AVDOM_Node@2@V32@H@Z 120e66a0 f   RangeImpl.obj
 0001:000e57c0       ?traversePartiallySelected@RangeImpl@xercesc_2_2@@AAE?AVDOM_Node@2@V32@H@Z 120e67c0 f   RangeImpl.obj
 0001:000e5850       ?traverseTextNode@RangeImpl@xercesc_2_2@@AAE?AVDOM_Node@2@V32@_NH@Z 120e6850 f   RangeImpl.obj
 0001:000e5a90       ?getSelectedNode@RangeImpl@xercesc_2_2@@AAE?AVDOM_Node@2@V32@H@Z 120e6a90 f   RangeImpl.obj
 0001:000e5bc0       ?checkReadOnly@RangeImpl@xercesc_2_2@@AAEXAAVDOM_Node@2@0II@Z 120e6bc0 f   RangeImpl.obj
 0001:000e5d80       ?recurseTreeAndCheck@RangeImpl@xercesc_2_2@@AAEXAAVDOM_Node@2@0@Z 120e6d80 f   RangeImpl.obj
 0001:000e5ed0       ?removeChild@RangeImpl@xercesc_2_2@@AAE?AVDOM_Node@2@AAV32@0@Z 120e6ed0 f   RangeImpl.obj
 0001:000e5f60       ?receiveReplacedText@RangeImpl@xercesc_2_2@@QAEXPAVNodeImpl@2@@Z 120e6f60 f   RangeImpl.obj
 0001:000e6010       ?updateRangeForDeletedText@RangeImpl@xercesc_2_2@@QAEXAAVDOM_Node@2@IH@Z 120e7010 f   RangeImpl.obj
 0001:000e60b0       ?updateRangeForDeletedNode@RangeImpl@xercesc_2_2@@QAEXPAVNodeImpl@2@@Z 120e70b0 f   RangeImpl.obj
 0001:000e6620       ?updateRangeForInsertedNode@RangeImpl@xercesc_2_2@@QAEXPAVNodeImpl@2@@Z 120e7620 f   RangeImpl.obj
 0001:000e6840       ?updateSplitInfo@RangeImpl@xercesc_2_2@@QAEXPAVTextImpl@2@0I@Z 120e7840 f   RangeImpl.obj
 0001:000e6920       ??_E?$RefVectorOf@VNodeImpl@xercesc_2_2@@@xercesc_2_2@@UAEPAXI@Z 120e7920 f i RangeImpl.obj
 0001:000e6920       ??_G?$RefVectorOf@VNodeImpl@xercesc_2_2@@@xercesc_2_2@@UAEPAXI@Z 120e7920 f i RangeImpl.obj
 0001:000e6940       ??1?$RefVectorOf@VNodeImpl@xercesc_2_2@@@xercesc_2_2@@UAE@XZ 120e7940 f i RangeImpl.obj
 0001:000e69c0       ??1?$BaseRefVectorOf@VNodeImpl@xercesc_2_2@@@xercesc_2_2@@UAE@XZ 120e79c0 f i RangeImpl.obj
 0001:000e69d0       ??0RefCountedImpl@xercesc_2_2@@QAE@XZ 120e79d0 f   RefCountedImpl.obj
 0001:000e69e0       ??1RefCountedImpl@xercesc_2_2@@UAE@XZ 120e79e0 f   RefCountedImpl.obj
 0001:000e69f0       ?addRef@RefCountedImpl@xercesc_2_2@@SAXPAV12@@Z 120e79f0 f   RefCountedImpl.obj
 0001:000e6a10       ?removeRef@RefCountedImpl@xercesc_2_2@@SAXPAV12@@Z 120e7a10 f   RefCountedImpl.obj
 0001:000e6a50       ??0TextImpl@xercesc_2_2@@QAE@PAVDocumentImpl@1@ABVDOMString@1@@Z 120e7a50 f   TextImpl.obj
 0001:000e6a70       ??_ETextImpl@xercesc_2_2@@UAEPAXI@Z 120e7a70 f i TextImpl.obj
 0001:000e6ad0       ??0TextImpl@xercesc_2_2@@QAE@ABV01@_N@Z 120e7ad0 f   TextImpl.obj
 0001:000e6af0       ??1TextImpl@xercesc_2_2@@UAE@XZ 120e7af0 f   TextImpl.obj
 0001:000e6b00       ?cloneNode@TextImpl@xercesc_2_2@@UAEPAVNodeImpl@2@_N@Z 120e7b00 f   TextImpl.obj
 0001:000e6b60       ?getNodeName@TextImpl@xercesc_2_2@@UAE?AVDOMString@2@XZ 120e7b60 f   TextImpl.obj
 0001:000e6ba0       ?getNodeType@TextImpl@xercesc_2_2@@UAEFXZ 120e7ba0 f   TextImpl.obj
 0001:000e6ba0       ?getNodeType@DOMTextImpl@xercesc_2_2@@UBEFXZ 120e7ba0 f   TextImpl.obj
 0001:000e6bb0       ?splitText@TextImpl@xercesc_2_2@@UAEPAV12@I@Z 120e7bb0 f   TextImpl.obj
 0001:000e6db0       ?isIgnorableWhitespace@TextImpl@xercesc_2_2@@UAE_NXZ 120e7db0 f   TextImpl.obj
 0001:000e6dd0       ?setIgnorableWhitespace@TextImpl@xercesc_2_2@@MAEX_N@Z 120e7dd0 f   TextImpl.obj
 0001:000e6e10       ?reinitTextImpl@TextImpl@xercesc_2_2@@SAXXZ 120e7e10 f   TextImpl.obj
 0001:000e6e40       ??0TreeWalkerImpl@xercesc_2_2@@QAE@VDOM_Node@1@KPAVDOM_NodeFilter@1@_N@Z 120e7e40 f   TreeWalkerImpl.obj
 0001:000e6ed0       ??_ETreeWalkerImpl@xercesc_2_2@@UAEPAXI@Z 120e7ed0 f i TreeWalkerImpl.obj
 0001:000e6f30       ??0TreeWalkerImpl@xercesc_2_2@@QAE@ABV01@@Z 120e7f30 f   TreeWalkerImpl.obj
 0001:000e6fb0       ??4TreeWalkerImpl@xercesc_2_2@@QAEAAV01@ABV01@@Z 120e7fb0 f   TreeWalkerImpl.obj
 0001:000e6ff0       ?unreferenced@TreeWalkerImpl@xercesc_2_2@@UAEXXZ 120e7ff0 f   TreeWalkerImpl.obj
 0001:000e7170       ?getRoot@TreeWalkerImpl@xercesc_2_2@@QAE?AVDOM_Node@2@XZ 120e8170 f   TreeWalkerImpl.obj
 0001:000e7190       ?getExpandEntityReferences@TreeWalkerImpl@xercesc_2_2@@QAE_NXZ 120e8190 f   TreeWalkerImpl.obj
 0001:000e71a0       ?setCurrentNode@TreeWalkerImpl@xercesc_2_2@@QAEXVDOM_Node@2@@Z 120e81a0 f   TreeWalkerImpl.obj
 0001:000e71f0       ?parentNode@TreeWalkerImpl@xercesc_2_2@@QAE?AVDOM_Node@2@XZ 120e81f0 f   TreeWalkerImpl.obj
 0001:000e72d0       ?firstChild@TreeWalkerImpl@xercesc_2_2@@QAE?AVDOM_Node@2@XZ 120e82d0 f   TreeWalkerImpl.obj
 0001:000e73b0       ?lastChild@TreeWalkerImpl@xercesc_2_2@@QAE?AVDOM_Node@2@XZ 120e83b0 f   TreeWalkerImpl.obj
 0001:000e7490       ?previousSibling@TreeWalkerImpl@xercesc_2_2@@QAE?AVDOM_Node@2@XZ 120e8490 f   TreeWalkerImpl.obj
 0001:000e7570       ?nextSibling@TreeWalkerImpl@xercesc_2_2@@QAE?AVDOM_Node@2@XZ 120e8570 f   TreeWalkerImpl.obj
 0001:000e7650       ?previousNode@TreeWalkerImpl@xercesc_2_2@@QAE?AVDOM_Node@2@XZ 120e8650 f   TreeWalkerImpl.obj
 0001:000e7810       ?nextNode@TreeWalkerImpl@xercesc_2_2@@QAE?AVDOM_Node@2@XZ 120e8810 f   TreeWalkerImpl.obj
 0001:000e7a40       ?getParentNode@TreeWalkerImpl@xercesc_2_2@@IAE?AVDOM_Node@2@V32@@Z 120e8a40 f   TreeWalkerImpl.obj
 0001:000e7bd0       ?getNextSibling@TreeWalkerImpl@xercesc_2_2@@IAE?AVDOM_Node@2@V32@@Z 120e8bd0 f   TreeWalkerImpl.obj
 0001:000e7e60       ?getPreviousSibling@TreeWalkerImpl@xercesc_2_2@@IAE?AVDOM_Node@2@V32@@Z 120e8e60 f   TreeWalkerImpl.obj
 0001:000e80f0       ?getFirstChild@TreeWalkerImpl@xercesc_2_2@@IAE?AVDOM_Node@2@V32@@Z 120e90f0 f   TreeWalkerImpl.obj
 0001:000e82d0       ?getLastChild@TreeWalkerImpl@xercesc_2_2@@IAE?AVDOM_Node@2@V32@@Z 120e92d0 f   TreeWalkerImpl.obj
 0001:000e84b0       ?acceptNode@TreeWalkerImpl@xercesc_2_2@@IAEFVDOM_Node@2@@Z 120e94b0 f   TreeWalkerImpl.obj
 0001:000e85e0       ??0XMLDeclImpl@xercesc_2_2@@QAE@PAVDocumentImpl@1@@Z 120e95e0 f   XMLDeclImpl.obj
 0001:000e8660       ??_EXMLDeclImpl@xercesc_2_2@@UAEPAXI@Z 120e9660 f i XMLDeclImpl.obj
 0001:000e86c0       ??0XMLDeclImpl@xercesc_2_2@@QAE@PAVDocumentImpl@1@ABVDOMString@1@11@Z 120e96c0 f   XMLDeclImpl.obj
 0001:000e8740       ??0XMLDeclImpl@xercesc_2_2@@QAE@ABV01@_N@Z 120e9740 f   XMLDeclImpl.obj
 0001:000e8840       ??1XMLDeclImpl@xercesc_2_2@@UAE@XZ 120e9840 f   XMLDeclImpl.obj
 0001:000e88b0       ?cloneNode@XMLDeclImpl@xercesc_2_2@@UAEPAVNodeImpl@2@_N@Z 120e98b0 f   XMLDeclImpl.obj
 0001:000e8920       ?getNodeName@XMLDeclImpl@xercesc_2_2@@UAE?AVDOMString@2@XZ 120e9920 f   XMLDeclImpl.obj
 0001:000e8960       ?getNodeType@XMLDeclImpl@xercesc_2_2@@UAEFXZ 120e9960 f   XMLDeclImpl.obj
 0001:000e8970       ?getEncoding@XMLDeclImpl@xercesc_2_2@@UBE?AVDOMString@2@XZ 120e9970 f   XMLDeclImpl.obj
 0001:000e8970       ?getLocalName@AttrNSImpl@xercesc_2_2@@UAE?AVDOMString@2@XZ 120e9970 f   XMLDeclImpl.obj
 0001:000e8990       ?getStandalone@XMLDeclImpl@xercesc_2_2@@UBE?AVDOMString@2@XZ 120e9990 f   XMLDeclImpl.obj
 0001:000e89b0       ?setVersion@XMLDeclImpl@xercesc_2_2@@UAEXABVDOMString@2@@Z 120e99b0 f   XMLDeclImpl.obj
 0001:000e8a10       ?setEncoding@XMLDeclImpl@xercesc_2_2@@UAEXABVDOMString@2@@Z 120e9a10 f   XMLDeclImpl.obj
 0001:000e8a70       ?setStandalone@XMLDeclImpl@xercesc_2_2@@UAEXABVDOMString@2@@Z 120e9a70 f   XMLDeclImpl.obj
 0001:000e8ad0       ?reinitXMLDeclImpl@XMLDeclImpl@xercesc_2_2@@SAXXZ 120e9ad0 f   XMLDeclImpl.obj
 0001:000e8b00       ??0DOMException@xercesc_2_2@@QAE@XZ 120e9b00 f   DOMException.obj
 0001:000e8b20       ??_EDOMException@xercesc_2_2@@UAEPAXI@Z 120e9b20 f i DOMException.obj
 0001:000e8b80       ??0DOMException@xercesc_2_2@@QAE@FPBG@Z 120e9b80 f   DOMException.obj
 0001:000e8ba0       ??0DOMException@xercesc_2_2@@QAE@ABV01@@Z 120e9ba0 f   DOMException.obj
 0001:000e8bc0       ??1DOMException@xercesc_2_2@@UAE@XZ 120e9bc0 f   DOMException.obj
 0001:000e8bd0       ??0DOMRangeException@xercesc_2_2@@QAE@XZ 120e9bd0 f   DOMRangeException.obj
 0001:000e8bf0       ??_EDOMRangeException@xercesc_2_2@@UAEPAXI@Z 120e9bf0 f i DOMRangeException.obj
 0001:000e8c50       ??0DOMRangeException@xercesc_2_2@@QAE@W4RangeExceptionCode@01@PBG@Z 120e9c50 f   DOMRangeException.obj
 0001:000e8c80       ??0DOMRangeException@xercesc_2_2@@QAE@ABV01@@Z 120e9c80 f   DOMRangeException.obj
 0001:000e8cb0       ??1DOMRangeException@xercesc_2_2@@UAE@XZ 120e9cb0 f   DOMRangeException.obj
 0001:000e8cc0       __purecall                 120e9cc0 f   MSVCRT:MSVCRT.dll
 0001:000e8cc6       ??3@YAXPAX@Z               120e9cc6 f   MSVCRT:MSVCRT.dll
 0001:000e8ccc       ??_M@YGXPAXIHP6EX0@Z@Z     120e9ccc f   MSVCRT:ehvecdtr.obj
 0001:000e8d4c       ?__ArrayUnwind@@YGXPAXIHP6EX0@Z@Z 120e9d4c f   MSVCRT:ehvecdtr.obj
 0001:000e8dc0       ___CxxFrameHandler         120e9dc0 f   MSVCRT:MSVCRT.dll
 0001:000e8dd0       ??2@YAPAXI@Z               120e9dd0 f   MSVCRT:MSVCRT.dll
 0001:000e8dd6       ??_Etype_info@@UAEPAXI@Z   120e9dd6 f i MSVCRT:ti_inst.obj
 0001:000e8dd6       ??_Gtype_info@@UAEPAXI@Z   120e9dd6 f i MSVCRT:ti_inst.obj
 0001:000e8df2       __CxxThrowException@8      120e9df2 f   MSVCRT:MSVCRT.dll
 0001:000e8df8       __ftol                     120e9df8 f   MSVCRT:MSVCRT.dll
 0001:000e8dfe       __onexit                   120e9dfe f   MSVCRT:atonexit.obj
 0001:000e8e2a       _atexit                    120e9e2a f   MSVCRT:atonexit.obj
 0001:000e8e40       __alloca_probe             120e9e40 f   MSVCRT:chkstk.obj
 0001:000e8e40       __chkstk                   120e9e40 f   MSVCRT:chkstk.obj
 0001:000e8e6f       ??_L@YGXPAXIHP6EX0@Z1@Z    120e9e6f f   MSVCRT:ehvecctr.obj
 0001:000e8ef1       __CRT_INIT@12              120e9ef1 f   MSVCRT:crtdll.obj
 0001:000e8f9c       __DllMainCRTStartup@12     120e9f9c f   MSVCRT:crtdll.obj
 0001:000e903a       __except_handler3          120ea03a f   MSVCRT:MSVCRT.dll
 0001:000e9040       ?terminate@@YAXXZ          120ea040 f   MSVCRT:MSVCRT.dll
 0001:000e9046       ??1type_info@@UAE@XZ       120ea046 f   MSVCRT:MSVCRT.dll
 0001:000e904c       ___dllonexit               120ea04c f   MSVCRT:MSVCRT.dll
 0001:000e9052       __initterm                 120ea052 f   MSVCRT:MSVCRT.dll
 0002:00000000       __imp__RegOpenKeyExA@20    120fa000     advapi32:ADVAPI32.dll
 0002:00000004       __imp__RegEnumKeyExA@32    120fa004     advapi32:ADVAPI32.dll
 0002:00000008       __imp__RegQueryValueExA@24 120fa008     advapi32:ADVAPI32.dll
 0002:0000000c       __imp__RegCloseKey@4       120fa00c     advapi32:ADVAPI32.dll
 0002:00000010       \177ADVAPI32_NULL_THUNK_DATA 120fa010     advapi32:ADVAPI32.dll
 0002:00000014       __imp__GetFullPathNameW@16 120fa014     kernel32:KERNEL32.dll
 0002:00000018       __imp__GetStdHandle@4      120fa018     kernel32:KERNEL32.dll
 0002:0000001c       __imp__GetLastError@0      120fa01c     kernel32:KERNEL32.dll
 0002:00000020       __imp__ReadFile@20         120fa020     kernel32:KERNEL32.dll
 0002:00000024       __imp__WriteFile@20        120fa024     kernel32:KERNEL32.dll
 0002:00000028       __imp__DuplicateHandle@28  120fa028     kernel32:KERNEL32.dll
 0002:0000002c       __imp__GetCurrentProcess@0 120fa02c     kernel32:KERNEL32.dll
 0002:00000030       __imp__GetTickCount@0      120fa030     kernel32:KERNEL32.dll
 0002:00000034       __imp__DeleteCriticalSection@4 120fa034     kernel32:KERNEL32.dll
 0002:00000038       __imp__EnterCriticalSection@4 120fa038     kernel32:KERNEL32.dll
 0002:0000003c       __imp__InitializeCriticalSection@4 120fa03c     kernel32:KERNEL32.dll
 0002:00000040       __imp__LeaveCriticalSection@4 120fa040     kernel32:KERNEL32.dll
 0002:00000044       __imp__GetFullPathNameA@16 120fa044     kernel32:KERNEL32.dll
 0002:00000048       __imp__CloseHandle@4       120fa048     kernel32:KERNEL32.dll
 0002:0000004c       __imp__GetVersionExA@4     120fa04c     kernel32:KERNEL32.dll
 0002:00000050       __imp__GetModuleHandleA@4  120fa050     kernel32:KERNEL32.dll
 0002:00000054       __imp__LockResource@4      120fa054     kernel32:KERNEL32.dll
 0002:00000058       __imp__LoadResource@8      120fa058     kernel32:KERNEL32.dll
 0002:0000005c       __imp__FindResourceExA@16  120fa05c     kernel32:KERNEL32.dll
 0002:00000060       __imp__IsValidCodePage@4   120fa060     kernel32:KERNEL32.dll
 0002:00000064       __imp__MultiByteToWideChar@24 120fa064     kernel32:KERNEL32.dll
 0002:00000068       __imp__IsDBCSLeadByteEx@8  120fa068     kernel32:KERNEL32.dll
 0002:0000006c       __imp__WideCharToMultiByte@32 120fa06c     kernel32:KERNEL32.dll
 0002:00000070       __imp__FreeLibrary@4       120fa070     kernel32:KERNEL32.dll
 0002:00000074       __imp__GetProcAddress@8    120fa074     kernel32:KERNEL32.dll
 0002:00000078       __imp__LoadLibraryA@4      120fa078     kernel32:KERNEL32.dll
 0002:0000007c       __imp__CreateFileW@28      120fa07c     kernel32:KERNEL32.dll
 0002:00000080       __imp__CreateFileA@28      120fa080     kernel32:KERNEL32.dll
 0002:00000084       __imp__InterlockedIncrement@4 120fa084     kernel32:KERNEL32.dll
 0002:00000088       __imp__SetFilePointer@16   120fa088     kernel32:KERNEL32.dll
 0002:0000008c       __imp__InterlockedDecrement@4 120fa08c     kernel32:KERNEL32.dll
 0002:00000090       \177KERNEL32_NULL_THUNK_DATA 120fa090     kernel32:KERNEL32.dll
 0002:00000094       __imp_?write@ostream@@QAEAAV1@PBDH@Z 120fa094     msvcirt:MSVCIRT.dll
 0002:00000098       __imp_?cout@@3Vostream_withassign@@A 120fa098     msvcirt:MSVCIRT.dll
 0002:0000009c       __imp_?flush@ostream@@QAEAAV1@XZ 120fa09c     msvcirt:MSVCIRT.dll
 0002:000000a0       \177MSVCIRT_NULL_THUNK_DATA 120fa0a0     msvcirt:MSVCIRT.dll
 0002:000000a4       __imp_??2@YAPAXI@Z         120fa0a4     MSVCRT:MSVCRT.dll
 0002:000000a8       __imp____CxxFrameHandler   120fa0a8     MSVCRT:MSVCRT.dll
 0002:000000ac       __imp___purecall           120fa0ac     MSVCRT:MSVCRT.dll
 0002:000000b0       __imp___CxxThrowException@8 120fa0b0     MSVCRT:MSVCRT.dll
 0002:000000b4       __imp__wcsncpy             120fa0b4     MSVCRT:MSVCRT.dll
 0002:000000b8       __imp___wcsupr             120fa0b8     MSVCRT:MSVCRT.dll
 0002:000000bc       __imp__mbstowcs            120fa0bc     MSVCRT:MSVCRT.dll
 0002:000000c0       __imp__mblen               120fa0c0     MSVCRT:MSVCRT.dll
 0002:000000c4       __imp____mb_cur_max        120fa0c4     MSVCRT:MSVCRT.dll
 0002:000000c8       __imp__wcscmp              120fa0c8     MSVCRT:MSVCRT.dll
 0002:000000cc       __imp___wcsicmp            120fa0cc     MSVCRT:MSVCRT.dll
 0002:000000d0       __imp___wcsnicmp           120fa0d0     MSVCRT:MSVCRT.dll
 0002:000000d4       __imp__iswspace            120fa0d4     MSVCRT:MSVCRT.dll
 0002:000000d8       __imp___wcslwr             120fa0d8     MSVCRT:MSVCRT.dll
 0002:000000dc       __imp__wcstombs            120fa0dc     MSVCRT:MSVCRT.dll
 0002:000000e0       __imp__atoi                120fa0e0     MSVCRT:MSVCRT.dll
 0002:000000e4       __imp__strchr              120fa0e4     MSVCRT:MSVCRT.dll
 0002:000000e8       __imp__strstr              120fa0e8     MSVCRT:MSVCRT.dll
 0002:000000ec       __imp___itoa               120fa0ec     MSVCRT:MSVCRT.dll
 0002:000000f0       __imp_??3@YAXPAX@Z         120fa0f0     MSVCRT:MSVCRT.dll
 0002:000000f4       __imp__div                 120fa0f4     MSVCRT:MSVCRT.dll
 0002:000000f8       __imp__strtod              120fa0f8     MSVCRT:MSVCRT.dll
 0002:000000fc       __imp___errno              120fa0fc     MSVCRT:MSVCRT.dll
 0002:00000100       __imp__strncmp             120fa100     MSVCRT:MSVCRT.dll
 0002:00000104       __imp__isspace             120fa104     MSVCRT:MSVCRT.dll
 0002:00000108       __imp__strtoul             120fa108     MSVCRT:MSVCRT.dll
 0002:0000010c       __imp__strtol              120fa10c     MSVCRT:MSVCRT.dll
 0002:00000110       __imp__printf              120fa110     MSVCRT:MSVCRT.dll
 0002:00000114       __imp__fputs               120fa114     MSVCRT:MSVCRT.dll
 0002:00000118       __imp__putchar             120fa118     MSVCRT:MSVCRT.dll
 0002:0000011c       __imp___except_handler3    120fa11c     MSVCRT:MSVCRT.dll
 0002:00000120       __imp_?terminate@@YAXXZ    120fa120     MSVCRT:MSVCRT.dll
 0002:00000124       __imp_??1type_info@@UAE@XZ 120fa124     MSVCRT:MSVCRT.dll
 0002:00000128       __imp____dllonexit         120fa128     MSVCRT:MSVCRT.dll
 0002:0000012c       __imp___onexit             120fa12c     MSVCRT:MSVCRT.dll
 0002:00000130       __imp__free                120fa130     MSVCRT:MSVCRT.dll
 0002:00000134       __imp___initterm           120fa134     MSVCRT:MSVCRT.dll
 0002:00000138       __imp__malloc              120fa138     MSVCRT:MSVCRT.dll
 0002:0000013c       __imp___adjust_fdiv        120fa13c     MSVCRT:MSVCRT.dll
 0002:00000140       __imp___ftol               120fa140     MSVCRT:MSVCRT.dll
 0002:00000144       __imp__exit                120fa144     MSVCRT:MSVCRT.dll
 0002:00000148       __imp__fprintf             120fa148     MSVCRT:MSVCRT.dll
 0002:0000014c       __imp___iob                120fa14c     MSVCRT:MSVCRT.dll
 0002:00000150       __imp___stricmp            120fa150     MSVCRT:MSVCRT.dll
 0002:00000150       __imp__stricmp             120fa150     MSVCRT:MSVCRT.dll
 0002:00000154       __imp__strnicmp            120fa154     MSVCRT:MSVCRT.dll
 0002:00000154       __imp___strnicmp           120fa154     MSVCRT:MSVCRT.dll
 0002:00000158       \177MSVCRT_NULL_THUNK_DATA 120fa158     MSVCRT:MSVCRT.dll
 0002:00000160       ??_7XMLErrorReporter@xercesc_2_2@@6B@ 120fa160     Win32PlatformUtils.obj
 0002:0000016c       ??_7XMLPlatformUtilsException@xercesc_2_2@@6B@ 120fa16c     Win32PlatformUtils.obj
 0002:00000178       ??_7XMLDeleter@xercesc_2_2@@6B@ 120fa178     Win32PlatformUtils.obj
 0002:0000017c       ??_7RuntimeException@xercesc_2_2@@6B@ 120fa17c     Win32PlatformUtils.obj
 0002:00000188       ??_7ArrayIndexOutOfBoundsException@xercesc_2_2@@6B@ 120fa188     Win32PlatformUtils.obj
 0002:00000194       ??_7HashBase@xercesc_2_2@@6B@ 120fa194     Win32PlatformUtils.obj
 0002:0000019c       ??_7IllegalArgumentException@xercesc_2_2@@6B@ 120fa19c     Win32PlatformUtils.obj
 0002:000001a8       ??_7NoSuchElementException@xercesc_2_2@@6B@ 120fa1a8     Win32PlatformUtils.obj
 0002:000001b4       ??_7HashXMLCh@xercesc_2_2@@6B@ 120fa1b4     Win32PlatformUtils.obj
 0002:000001c0       ??_7NullPointerException@xercesc_2_2@@6B@ 120fa1c0     Win32PlatformUtils.obj
 0002:000001cc       ??_7XMLMsgLoader@xercesc_2_2@@6B@ 120fa1cc     Win32PlatformUtils.obj
 0002:000001e0       ??_7MalformedURLException@xercesc_2_2@@6B@ 120fa1e0     Win32PlatformUtils.obj
 0002:000001ec       ??_7XMLNetAccessor@xercesc_2_2@@6B@ 120fa1ec     Win32PlatformUtils.obj
 0002:000001f8       ??_7NetAccessorException@xercesc_2_2@@6B@ 120fa1f8     Win32PlatformUtils.obj
 0002:00000208       ??_7Win32MsgLoader@xercesc_2_2@@6B@ 120fa208     Win32MsgLoader.obj
 0002:00000228       ??_7TranscodingException@xercesc_2_2@@6B@ 120fa228     Win32TransService.obj
 0002:00000234       ??_7Win32TransService@xercesc_2_2@@6B@ 120fa234     Win32TransService.obj
 0002:0000025c       ??_7Win32LCPTranscoder@xercesc_2_2@@6B@ 120fa25c     Win32TransService.obj
 0002:00000278       ??_7Win32Transcoder@xercesc_2_2@@6B@ 120fa278     Win32TransService.obj
 0002:00000288       ??_7BinHTTPURLInputStream@xercesc_2_2@@6B@ 120fa288     BinHTTPURLInputStream.obj
 0002:00000294       ?fgMyName@WinSockNetAccessor@xercesc_2_2@@0QBGB 120fa294     WinSockNetAccessor.obj
 0002:000002bc       ??_7WinSockNetAccessor@xercesc_2_2@@6B@ 120fa2bc     WinSockNetAccessor.obj
 0002:00000364       ??_7ASCIIRangeFactory@xercesc_2_2@@6B@ 120fa364     ASCIIRangeFactory.obj
 0002:00004eb4       ??_7BlockRangeFactory@xercesc_2_2@@6B@ 120feeb4     BlockRangeFactory.obj
 0002:00004ec0       ??_7CharToken@xercesc_2_2@@6B@ 120feec0     CharToken.obj
 0002:00004f08       ??_7ClosureToken@xercesc_2_2@@6B@ 120fef08     ClosureToken.obj
 0002:00004f50       ??_7ConcatToken@xercesc_2_2@@6B@ 120fef50     ConcatToken.obj
 0002:00004f98       ??_7ConditionToken@xercesc_2_2@@6B@ 120fef98     ConditionToken.obj
 0002:00004fe0       ??_7Match@xercesc_2_2@@6B@ 120fefe0     Match.obj
 0002:00004fe4       ??_7ModifierToken@xercesc_2_2@@6B@ 120fefe4     ModifierToken.obj
 0002:0000502c       ??_7Op@xercesc_2_2@@6B@    120ff02c     Op.obj
 0002:0000505c       ??_7UnionOp@xercesc_2_2@@6B@ 120ff05c     Op.obj
 0002:0000508c       ??_7StringOp@xercesc_2_2@@6B@ 120ff08c     Op.obj
 0002:000050bc       ??_7CharOp@xercesc_2_2@@6B@ 120ff0bc     Op.obj
 0002:000050ec       ??_7?$RefVectorOf@VOp@xercesc_2_2@@@xercesc_2_2@@6B@ 120ff0ec     Op.obj
 0002:000050f0       ??_7?$BaseRefVectorOf@VOp@xercesc_2_2@@@xercesc_2_2@@6B@ 120ff0f0     Op.obj
 0002:000050f4       ??_7ChildOp@xercesc_2_2@@6B@ 120ff0f4     Op.obj
 0002:00005124       ??_7ModifierOp@xercesc_2_2@@6B@ 120ff124     Op.obj
 0002:00005154       ??_7RangeOp@xercesc_2_2@@6B@ 120ff154     Op.obj
 0002:00005184       ??_7ConditionOp@xercesc_2_2@@6B@ 120ff184     Op.obj
 0002:000051b4       ??_7ParenToken@xercesc_2_2@@6B@ 120ff1b4     ParenToken.obj
 0002:00005290       ??_7ParseException@xercesc_2_2@@6B@ 120ff290     ParserForXMLSchema.obj
 0002:0000529c       ??_7ParserForXMLSchema@xercesc_2_2@@6B@ 120ff29c     ParserForXMLSchema.obj
 0002:0000531c       ??_7RangeFactory@xercesc_2_2@@6B@ 120ff31c     RangeFactory.obj
 0002:00005328       ?MAPSIZE@RangeToken@xercesc_2_2@@2HB 120ff328     RangeToken.obj
 0002:0000532c       ?INITIALSIZE@RangeToken@xercesc_2_2@@2IB 120ff32c     RangeToken.obj
 0002:00005330       ??_7RangeToken@xercesc_2_2@@6B@ 120ff330     RangeToken.obj
 0002:00005378       __real@8@3fffa000000000000000 120ff378     RangeToken.obj
 0002:00005380       ??_7RangeTokenMap@xercesc_2_2@@6B@ 120ff380     RangeTokenMap.obj
 0002:00005398       ?MARK_PARENS@RegularExpression@xercesc_2_2@@2IB 120ff398     RegularExpression.obj
 0002:0000539c       ?IGNORE_CASE@RegularExpression@xercesc_2_2@@2IB 120ff39c     RegularExpression.obj
 0002:000053a0       ?SINGLE_LINE@RegularExpression@xercesc_2_2@@2IB 120ff3a0     RegularExpression.obj
 0002:000053a4       ?MULTIPLE_LINE@RegularExpression@xercesc_2_2@@2IB 120ff3a4     RegularExpression.obj
 0002:000053a8       ?EXTENDED_COMMENT@RegularExpression@xercesc_2_2@@2IB 120ff3a8     RegularExpression.obj
 0002:000053ac       ?USE_UNICODE_CATEGORY@RegularExpression@xercesc_2_2@@2IB 120ff3ac     RegularExpression.obj
 0002:000053b0       ?UNICODE_WORD_BOUNDARY@RegularExpression@xercesc_2_2@@2IB 120ff3b0     RegularExpression.obj
 0002:000053b4       ?PROHIBIT_HEAD_CHARACTER_OPTIMIZATION@RegularExpression@xercesc_2_2@@2IB 120ff3b4     RegularExpression.obj
 0002:000053b8       ?PROHIBIT_FIXED_STRING_OPTIMIZATION@RegularExpression@xercesc_2_2@@2IB 120ff3b8     RegularExpression.obj
 0002:000053bc       ?XMLSCHEMA_MODE@RegularExpression@xercesc_2_2@@2IB 120ff3bc     RegularExpression.obj
 0002:000053c0       ?SPECIAL_COMMA@RegularExpression@xercesc_2_2@@2IB 120ff3c0     RegularExpression.obj
 0002:000053c4       ?WT_IGNORE@RegularExpression@xercesc_2_2@@2GB 120ff3c4     RegularExpression.obj
 0002:000053c6       ?WT_LETTER@RegularExpression@xercesc_2_2@@2GB 120ff3c6     RegularExpression.obj
 0002:000053c8       ?WT_OTHER@RegularExpression@xercesc_2_2@@2GB 120ff3c8     RegularExpression.obj
 0002:000053cc       ??_7?$RefArrayVectorOf@G@xercesc_2_2@@6B@ 120ff3cc     RegularExpression.obj
 0002:000053d0       ??_7?$BaseRefVectorOf@G@xercesc_2_2@@6B@ 120ff3d0     RegularExpression.obj
 0002:000053d4       ??_7?$RefVectorOf@VMatch@xercesc_2_2@@@xercesc_2_2@@6B@ 120ff3d4     RegularExpression.obj
 0002:000053d8       ??_7?$BaseRefVectorOf@VMatch@xercesc_2_2@@@xercesc_2_2@@6B@ 120ff3d8     RegularExpression.obj
 0002:00005474       ?S_NORMAL@RegxParser@xercesc_2_2@@2GB 120ff474     RegxParser.obj
 0002:00005476       ?S_INBRACKETS@RegxParser@xercesc_2_2@@2GB 120ff476     RegxParser.obj
 0002:00005478       ?S_INXBRACKETS@RegxParser@xercesc_2_2@@2GB 120ff478     RegxParser.obj
 0002:0000547c       ??_7RegxParser@xercesc_2_2@@6B@ 120ff47c     RegxParser.obj
 0002:000054fc       ??_7?$RefVectorOf@VReferencePosition@RegxParser@xercesc_2_2@@@xercesc_2_2@@6B@ 120ff4fc     RegxParser.obj
 0002:00005500       ??_7?$BaseRefVectorOf@VReferencePosition@RegxParser@xercesc_2_2@@@xercesc_2_2@@6B@ 120ff500     RegxParser.obj
 0002:00005504       ??_7StringToken@xercesc_2_2@@6B@ 120ff504     StringToken.obj
 0002:0000554c       ?UTF16_MAX@Token@xercesc_2_2@@2HB 120ff54c     Token.obj
 0002:00005550       ?FC_CONTINUE@Token@xercesc_2_2@@2GB 120ff550     Token.obj
 0002:00005552       ?FC_TERMINAL@Token@xercesc_2_2@@2GB 120ff552     Token.obj
 0002:00005554       ?FC_ANY@Token@xercesc_2_2@@2GB 120ff554     Token.obj
 0002:00005558       ??_7Token@xercesc_2_2@@6B@ 120ff558     Token.obj
 0002:000055f0       ??_7?$RefVectorOf@VToken@xercesc_2_2@@@xercesc_2_2@@6B@ 120ff5f0     TokenFactory.obj
 0002:000055f4       ??_7?$BaseRefVectorOf@VToken@xercesc_2_2@@@xercesc_2_2@@6B@ 120ff5f4     TokenFactory.obj
 0002:00006108       ??_7UnicodeRangeFactory@xercesc_2_2@@6B@ 12100108     UnicodeRangeFactory.obj
 0002:00006114       ?INITIALSIZE@UnionToken@xercesc_2_2@@0GB 12100114     UnionToken.obj
 0002:00006118       ??_7UnionToken@xercesc_2_2@@6B@ 12100118     UnionToken.obj
 0002:00006684       ??_7XMLRangeFactory@xercesc_2_2@@6B@ 12100684     XMLRangeFactory.obj
 0002:00016690       ?base64Alphabet@Base64@xercesc_2_2@@0QBEB 12110690     Base64.obj
 0002:000166d1       ?base64Padding@Base64@xercesc_2_2@@0EB 121106d1     Base64.obj
 0002:000166d4       ?quadsPerLine@Base64@xercesc_2_2@@0IB 121106d4     Base64.obj
 0002:000166d8       ??_7BinFileInputStream@xercesc_2_2@@6B@ 121106d8     BinFileInputStream.obj
 0002:000166e4       ??_7BinInputStream@xercesc_2_2@@6B@ 121106e4     BinInputStream.obj
 0002:000166f0       ??_7BinMemInputStream@xercesc_2_2@@6B@ 121106f0     BinMemInputStream.obj
 0002:00028340       ??_7HashPtr@xercesc_2_2@@6B@ 12122340     HashPtr.obj
 0002:0002834c       ??_7EmptyStackException@xercesc_2_2@@6B@ 1212234c     HeaderDummy.obj
 0002:00028358       ??_7InvalidCastException@xercesc_2_2@@6B@ 12122358     HeaderDummy.obj
 0002:00028364       ??_7IOException@xercesc_2_2@@6B@ 12122364     HeaderDummy.obj
 0002:00028370       ??_7UnexpectedEOFException@xercesc_2_2@@6B@ 12122370     HeaderDummy.obj
 0002:0002837c       ??_7UnsupportedEncodingException@xercesc_2_2@@6B@ 1212237c     HeaderDummy.obj
 0002:00028388       ??_7UTFDataFormatException@xercesc_2_2@@6B@ 12122388     HeaderDummy.obj
 0002:00028398       __real@8@3fffc000000000000000 12122398     StringPool.obj
 0002:000283a0       ??_7?$RefVectorOf@VENameMap@xercesc_2_2@@@xercesc_2_2@@6B@ 121223a0     TransService.obj
 0002:000283a4       ??_7?$BaseRefVectorOf@VENameMap@xercesc_2_2@@@xercesc_2_2@@6B@ 121223a4     TransService.obj
 0002:000283a8       ??_7XMLTransService@xercesc_2_2@@6B@ 121223a8     TransService.obj
 0002:000283d0       ??_7ENameMap@xercesc_2_2@@6B@ 121223d0     TransService.obj
 0002:000283d4       ??_7?$EEndianNameMapFor@VXMLUTF16Transcoder@xercesc_2_2@@@xercesc_2_2@@6B@ 121223d4     TransService.obj
 0002:000283d8       ??_7?$ENameMapFor@VXML88591Transcoder@xercesc_2_2@@@xercesc_2_2@@6B@ 121223d8     TransService.obj
 0002:000283dc       ??_7?$ENameMapFor@VXMLUTF8Transcoder@xercesc_2_2@@@xercesc_2_2@@6B@ 121223dc     TransService.obj
 0002:000283e0       ??_7?$ENameMapFor@VXMLASCIITranscoder@xercesc_2_2@@@xercesc_2_2@@6B@ 121223e0     TransService.obj
 0002:000283e4       ??_7?$ENameMapFor@VXMLChTranscoder@xercesc_2_2@@@xercesc_2_2@@6B@ 121223e4     TransService.obj
 0002:000283e8       ??_7XMLTranscoder@xercesc_2_2@@6B@ 121223e8     TransService.obj
 0002:000283f8       ??_7XMLLCPTranscoder@xercesc_2_2@@6B@ 121223f8     TransService.obj
 0002:00028414       ??_7?$EEndianNameMapFor@VXMLUCS4Transcoder@xercesc_2_2@@@xercesc_2_2@@6B@ 12122414     TransService.obj
 0002:00028418       ??_7?$ENameMapFor@VXMLEBCDICTranscoder@xercesc_2_2@@@xercesc_2_2@@6B@ 12122418     TransService.obj
 0002:0002841c       ??_7?$ENameMapFor@VXMLIBM1140Transcoder@xercesc_2_2@@@xercesc_2_2@@6B@ 1212241c     TransService.obj
 0002:00028420       ??_7?$ENameMapFor@VXMLWin1252Transcoder@xercesc_2_2@@@xercesc_2_2@@6B@ 12122420     TransService.obj
 0002:00028424       ??_7XML256TableTranscoder@xercesc_2_2@@6B@ 12122424     XML256TableTranscoder.obj
 0002:00028434       ??_7XML88591Transcoder@xercesc_2_2@@6B@ 12122434     XML88591Transcoder.obj
 0002:00028444       ??_7XMLNumber@xercesc_2_2@@6B@ 12122444     XMLAbstractDoubleFloat.obj
 0002:00028458       ??_7NumberFormatException@xercesc_2_2@@6B@ 12122458     XMLAbstractDoubleFloat.obj
 0002:00028464       ??_7XMLAbstractDoubleFloat@xercesc_2_2@@6B@ 12122464     XMLAbstractDoubleFloat.obj
 0002:0002847c       ??_7XMLASCIITranscoder@xercesc_2_2@@6B@ 1212247c     XMLASCIITranscoder.obj
 0002:0002848c       ??_7XMLBigDecimal@xercesc_2_2@@6B@ 1212248c     XMLBigDecimal.obj
 0002:000284c0       ??_7XMLChTranscoder@xercesc_2_2@@6B@ 121224c0     XMLChTranscoder.obj
 0002:00028558       ??_7SchemaDateTimeException@xercesc_2_2@@6B@ 12122558     XMLDateTime.obj
 0002:00028564       ??_7XMLDateTime@xercesc_2_2@@6B@ 12122564     XMLDateTime.obj
 0002:00028578       ??_7XMLDouble@xercesc_2_2@@6B@ 12122578     XMLDouble.obj
 0002:00028590       __real@8@3c018000000000000000 12122590     XMLDouble.obj
 0002:00028598       __real@8@bc018000000000000000 12122598     XMLDouble.obj
 0002:000285a0       __real@8@00000000000000000000 121225a0     XMLDouble.obj
 0002:00028d28       ??_7XMLEBCDICTranscoder@xercesc_2_2@@6B@ 12122d28     XMLEBCDICTranscoder.obj
 0002:00028d68       ??_7XMLException@xercesc_2_2@@6B@ 12122d68     XMLException.obj
 0002:00028d70       ??_7XMLFloat@xercesc_2_2@@6B@ 12122d70     XMLFloat.obj
 0002:00028d88       __real@8@407effffff0000000000 12122d88     XMLFloat.obj
 0002:00028d90       __real@8@3f818000000000000000 12122d90     XMLFloat.obj
 0002:00028d98       __real@8@bf818000000000000000 12122d98     XMLFloat.obj
 0002:00028da0       __real@8@c07effffff0000000000 12122da0     XMLFloat.obj
 0002:00029524       ??_7XMLIBM1140Transcoder@xercesc_2_2@@6B@ 12123524     XMLIBM1140Transcoder.obj
 0002:00029570       ??_7XMLUCS4Transcoder@xercesc_2_2@@6B@ 12123570     XMLUCSTranscoder.obj
 0002:00029580       ?fgAnyString@XMLUni@xercesc_2_2@@2QBGB 12123580     XMLUni.obj
 0002:00029588       ?fgAttListString@XMLUni@xercesc_2_2@@2QBGB 12123588     XMLUni.obj
 0002:00029598       ?fgCommentString@XMLUni@xercesc_2_2@@2QBGB 12123598     XMLUni.obj
 0002:000295a4       ?fgCDATAString@XMLUni@xercesc_2_2@@2QBGB 121235a4     XMLUni.obj
 0002:000295b0       ?fgDefaultString@XMLUni@xercesc_2_2@@2QBGB 121235b0     XMLUni.obj
 0002:000295c4       ?fgDocTypeString@XMLUni@xercesc_2_2@@2QBGB 121235c4     XMLUni.obj
 0002:000295d8       ?fgEBCDICEncodingString@XMLUni@xercesc_2_2@@2QBGB 121235d8     XMLUni.obj
 0002:000295e8       ?fgElemString@XMLUni@xercesc_2_2@@2QBGB 121235e8     XMLUni.obj
 0002:000295f8       ?fgEmptyString@XMLUni@xercesc_2_2@@2QBGB 121235f8     XMLUni.obj
 0002:00029604       ?fgEncodingString@XMLUni@xercesc_2_2@@2QBGB 12123604     XMLUni.obj
 0002:00029618       ?fgEntitString@XMLUni@xercesc_2_2@@2QBGB 12123618     XMLUni.obj
 0002:00029624       ?fgEntityString@XMLUni@xercesc_2_2@@2QBGB 12123624     XMLUni.obj
 0002:00029634       ?fgEntitiesString@XMLUni@xercesc_2_2@@2QBGB 12123634     XMLUni.obj
 0002:00029648       ?fgEnumerationString@XMLUni@xercesc_2_2@@2QBGB 12123648     XMLUni.obj
 0002:00029660       ?fgExceptDomain@XMLUni@xercesc_2_2@@2QBGB 12123660     XMLUni.obj
 0002:000296b8       ?fgFixedString@XMLUni@xercesc_2_2@@2QBGB 121236b8     XMLUni.obj
 0002:000296c8       ?fgIBM037EncodingString@XMLUni@xercesc_2_2@@2QBGB 121236c8     XMLUni.obj
 0002:000296e4       ?fgIBM037EncodingString2@XMLUni@xercesc_2_2@@2QBGB 121236e4     XMLUni.obj
 0002:000296f4       ?fgIBM1140EncodingString@XMLUni@xercesc_2_2@@2QBGB 121236f4     XMLUni.obj
 0002:00029704       ?fgIBM1140EncodingString2@XMLUni@xercesc_2_2@@2QBGB 12123704     XMLUni.obj
 0002:00029718       ?fgIBM1140EncodingString3@XMLUni@xercesc_2_2@@2QBGB 12123718     XMLUni.obj
 0002:00029730       ?fgIBM1140EncodingString4@XMLUni@xercesc_2_2@@2QBGB 12123730     XMLUni.obj
 0002:00029740       ?fgIESString@XMLUni@xercesc_2_2@@2QBGB 12123740     XMLUni.obj
 0002:00029748       ?fgIDString@XMLUni@xercesc_2_2@@2QBGB 12123748     XMLUni.obj
 0002:00029750       ?fgIDRefString@XMLUni@xercesc_2_2@@2QBGB 12123750     XMLUni.obj
 0002:0002975c       ?fgIDRefsString@XMLUni@xercesc_2_2@@2QBGB 1212375c     XMLUni.obj
 0002:0002976c       ?fgImpliedString@XMLUni@xercesc_2_2@@2QBGB 1212376c     XMLUni.obj
 0002:00029780       ?fgIgnoreString@XMLUni@xercesc_2_2@@2QBGB 12123780     XMLUni.obj
 0002:00029790       ?fgIncludeString@XMLUni@xercesc_2_2@@2QBGB 12123790     XMLUni.obj
 0002:000297a0       ?fgISO88591EncodingString@XMLUni@xercesc_2_2@@2QBGB 121237a0     XMLUni.obj
 0002:000297b4       ?fgISO88591EncodingString2@XMLUni@xercesc_2_2@@2QBGB 121237b4     XMLUni.obj
 0002:000297cc       ?fgISO88591EncodingString3@XMLUni@xercesc_2_2@@2QBGB 121237cc     XMLUni.obj
 0002:000297e4       ?fgISO88591EncodingString4@XMLUni@xercesc_2_2@@2QBGB 121237e4     XMLUni.obj
 0002:000297f4       ?fgISO88591EncodingString5@XMLUni@xercesc_2_2@@2QBGB 121237f4     XMLUni.obj
 0002:00029804       ?fgISO88591EncodingString6@XMLUni@xercesc_2_2@@2QBGB 12123804     XMLUni.obj
 0002:00029814       ?fgISO88591EncodingString7@XMLUni@xercesc_2_2@@2QBGB 12123814     XMLUni.obj
 0002:00029824       ?fgISO88591EncodingString8@XMLUni@xercesc_2_2@@2QBGB 12123824     XMLUni.obj
 0002:00029834       ?fgISO88591EncodingString9@XMLUni@xercesc_2_2@@2QBGB 12123834     XMLUni.obj
 0002:00029840       ?fgISO88591EncodingString10@XMLUni@xercesc_2_2@@2QBGB 12123840     XMLUni.obj
 0002:00029858       ?fgISO88591EncodingString11@XMLUni@xercesc_2_2@@2QBGB 12123858     XMLUni.obj
 0002:00029870       ?fgISO88591EncodingString12@XMLUni@xercesc_2_2@@2QBGB 12123870     XMLUni.obj
 0002:00029878       ?fgLocalHostString@XMLUni@xercesc_2_2@@2QBGB 12123878     XMLUni.obj
 0002:0002988c       ?fgNoString@XMLUni@xercesc_2_2@@2QBGB 1212388c     XMLUni.obj
 0002:00029894       ?fgNotationString@XMLUni@xercesc_2_2@@2QBGB 12123894     XMLUni.obj
 0002:000298a8       ?fgNDATAString@XMLUni@xercesc_2_2@@2QBGB 121238a8     XMLUni.obj
 0002:000298b4       ?fgNmTokenString@XMLUni@xercesc_2_2@@2QBGB 121238b4     XMLUni.obj
 0002:000298c4       ?fgNmTokensString@XMLUni@xercesc_2_2@@2QBGB 121238c4     XMLUni.obj
 0002:000298d8       ?fgPCDATAString@XMLUni@xercesc_2_2@@2QBGB 121238d8     XMLUni.obj
 0002:000298e8       ?fgPIString@XMLUni@xercesc_2_2@@2QBGB 121238e8     XMLUni.obj
 0002:000298f0       ?fgPubIDString@XMLUni@xercesc_2_2@@2QBGB 121238f0     XMLUni.obj
 0002:00029900       ?fgRefString@XMLUni@xercesc_2_2@@2QBGB 12123900     XMLUni.obj
 0002:00029908       ?fgRequiredString@XMLUni@xercesc_2_2@@2QBGB 12123908     XMLUni.obj
 0002:0002991c       ?fgStandaloneString@XMLUni@xercesc_2_2@@2QBGB 1212391c     XMLUni.obj
 0002:00029934       ?fgVersion1_0@XMLUni@xercesc_2_2@@2QBGB 12123934     XMLUni.obj
 0002:0002993c       ?fgVersion1_1@XMLUni@xercesc_2_2@@2QBGB 1212393c     XMLUni.obj
 0002:00029944       ?fgSysIDString@XMLUni@xercesc_2_2@@2QBGB 12123944     XMLUni.obj
 0002:00029954       ?fgUnknownURIName@XMLUni@xercesc_2_2@@2QBGB 12123954     XMLUni.obj
 0002:00029994       ?fgUCS4EncodingString@XMLUni@xercesc_2_2@@2QBGB 12123994     XMLUni.obj
 0002:000299a0       ?fgUCS4EncodingString2@XMLUni@xercesc_2_2@@2QBGB 121239a0     XMLUni.obj
 0002:000299ac       ?fgUCS4EncodingString3@XMLUni@xercesc_2_2@@2QBGB 121239ac     XMLUni.obj
 0002:000299b8       ?fgUCS4BEncodingString@XMLUni@xercesc_2_2@@2QBGB 121239b8     XMLUni.obj
 0002:000299d0       ?fgUCS4BEncodingString2@XMLUni@xercesc_2_2@@2QBGB 121239d0     XMLUni.obj
 0002:000299e0       ?fgUCS4LEncodingString@XMLUni@xercesc_2_2@@2QBGB 121239e0     XMLUni.obj
 0002:000299f8       ?fgUCS4LEncodingString2@XMLUni@xercesc_2_2@@2QBGB 121239f8     XMLUni.obj
 0002:00029a08       ?fgUSASCIIEncodingString@XMLUni@xercesc_2_2@@2QBGB 12123a08     XMLUni.obj
 0002:00029a1c       ?fgUSASCIIEncodingString2@XMLUni@xercesc_2_2@@2QBGB 12123a1c     XMLUni.obj
 0002:00029a2c       ?fgUSASCIIEncodingString3@XMLUni@xercesc_2_2@@2QBGB 12123a2c     XMLUni.obj
 0002:00029a38       ?fgUSASCIIEncodingString4@XMLUni@xercesc_2_2@@2QBGB 12123a38     XMLUni.obj
 0002:00029a4c       ?fgUTF8EncodingString@XMLUni@xercesc_2_2@@2QBGB 12123a4c     XMLUni.obj
 0002:00029a58       ?fgUTF8EncodingString2@XMLUni@xercesc_2_2@@2QBGB 12123a58     XMLUni.obj
 0002:00029a64       ?fgUTF16EncodingString@XMLUni@xercesc_2_2@@2QBGB 12123a64     XMLUni.obj
 0002:00029a74       ?fgUTF16EncodingString2@XMLUni@xercesc_2_2@@2QBGB 12123a74     XMLUni.obj
 0002:00029a80       ?fgUTF16EncodingString3@XMLUni@xercesc_2_2@@2QBGB 12123a80     XMLUni.obj
 0002:00029a90       ?fgUTF16EncodingString4@XMLUni@xercesc_2_2@@2QBGB 12123a90     XMLUni.obj
 0002:00029aa4       ?fgUTF16EncodingString5@XMLUni@xercesc_2_2@@2QBGB 12123aa4     XMLUni.obj
 0002:00029ab0       ?fgUTF16BEncodingString@XMLUni@xercesc_2_2@@2QBGB 12123ab0     XMLUni.obj
 0002:00029ac8       ?fgUTF16BEncodingString2@XMLUni@xercesc_2_2@@2QBGB 12123ac8     XMLUni.obj
 0002:00029adc       ?fgUTF16LEncodingString@XMLUni@xercesc_2_2@@2QBGB 12123adc     XMLUni.obj
 0002:00029af4       ?fgUTF16LEncodingString2@XMLUni@xercesc_2_2@@2QBGB 12123af4     XMLUni.obj
 0002:00029b08       ?fgVersionString@XMLUni@xercesc_2_2@@2QBGB 12123b08     XMLUni.obj
 0002:00029b18       ?fgValidityDomain@XMLUni@xercesc_2_2@@2QBGB 12123b18     XMLUni.obj
 0002:00029b70       ?fgWin1252EncodingString@XMLUni@xercesc_2_2@@2QBGB 12123b70     XMLUni.obj
 0002:00029b8c       ?fgXMLChEncodingString@XMLUni@xercesc_2_2@@2QBGB 12123b8c     XMLUni.obj
 0002:00029ba8       ?fgXMLString@XMLUni@xercesc_2_2@@2QBGB 12123ba8     XMLUni.obj
 0002:00029bb0       ?fgXMLStringSpace@XMLUni@xercesc_2_2@@2QBGB 12123bb0     XMLUni.obj
 0002:00029bbc       ?fgXMLStringHTab@XMLUni@xercesc_2_2@@2QBGB 12123bbc     XMLUni.obj
 0002:00029bc8       ?fgXMLStringCR@XMLUni@xercesc_2_2@@2QBGB 12123bc8     XMLUni.obj
 0002:00029bd4       ?fgXMLStringLF@XMLUni@xercesc_2_2@@2QBGB 12123bd4     XMLUni.obj
 0002:00029be0       ?fgXMLStringSpaceU@XMLUni@xercesc_2_2@@2QBGB 12123be0     XMLUni.obj
 0002:00029bec       ?fgXMLStringHTabU@XMLUni@xercesc_2_2@@2QBGB 12123bec     XMLUni.obj
 0002:00029bf8       ?fgXMLStringCRU@XMLUni@xercesc_2_2@@2QBGB 12123bf8     XMLUni.obj
 0002:00029c04       ?fgXMLStringLFU@XMLUni@xercesc_2_2@@2QBGB 12123c04     XMLUni.obj
 0002:00029c10       ?fgXMLDeclString@XMLUni@xercesc_2_2@@2QBGB 12123c10     XMLUni.obj
 0002:00029c1c       ?fgXMLDeclStringSpace@XMLUni@xercesc_2_2@@2QBGB 12123c1c     XMLUni.obj
 0002:00029c2c       ?fgXMLDeclStringHTab@XMLUni@xercesc_2_2@@2QBGB 12123c2c     XMLUni.obj
 0002:00029c3c       ?fgXMLDeclStringLF@XMLUni@xercesc_2_2@@2QBGB 12123c3c     XMLUni.obj
 0002:00029c4c       ?fgXMLDeclStringCR@XMLUni@xercesc_2_2@@2QBGB 12123c4c     XMLUni.obj
 0002:00029c5c       ?fgXMLDeclStringSpaceU@XMLUni@xercesc_2_2@@2QBGB 12123c5c     XMLUni.obj
 0002:00029c6c       ?fgXMLDeclStringHTabU@XMLUni@xercesc_2_2@@2QBGB 12123c6c     XMLUni.obj
 0002:00029c7c       ?fgXMLDeclStringLFU@XMLUni@xercesc_2_2@@2QBGB 12123c7c     XMLUni.obj
 0002:00029c8c       ?fgXMLDeclStringCRU@XMLUni@xercesc_2_2@@2QBGB 12123c8c     XMLUni.obj
 0002:00029c9c       ?fgXMLNSString@XMLUni@xercesc_2_2@@2QBGB 12123c9c     XMLUni.obj
 0002:00029ca8       ?fgXMLNSColonString@XMLUni@xercesc_2_2@@2QBGB 12123ca8     XMLUni.obj
 0002:00029cb8       ?fgXMLNSURIName@XMLUni@xercesc_2_2@@2QBGB 12123cb8     XMLUni.obj
 0002:00029cf4       ?fgXMLErrDomain@XMLUni@xercesc_2_2@@2QBGB 12123cf4     XMLUni.obj
 0002:00029d48       ?fgXMLURIName@XMLUni@xercesc_2_2@@2QBGB 12123d48     XMLUni.obj
 0002:00029d94       ?fgYesString@XMLUni@xercesc_2_2@@2QBGB 12123d94     XMLUni.obj
 0002:00029d9c       ?fgZeroLenString@XMLUni@xercesc_2_2@@2QBGB 12123d9c     XMLUni.obj
 0002:00029da0       ?fgDTDEntityString@XMLUni@xercesc_2_2@@2QBGB 12123da0     XMLUni.obj
 0002:00029dac       ?fgAmp@XMLUni@xercesc_2_2@@2QBGB 12123dac     XMLUni.obj
 0002:00029db4       ?fgLT@XMLUni@xercesc_2_2@@2QBGB 12123db4     XMLUni.obj
 0002:00029dbc       ?fgGT@XMLUni@xercesc_2_2@@2QBGB 12123dbc     XMLUni.obj
 0002:00029dc4       ?fgQuot@XMLUni@xercesc_2_2@@2QBGB 12123dc4     XMLUni.obj
 0002:00029dd0       ?fgApos@XMLUni@xercesc_2_2@@2QBGB 12123dd0     XMLUni.obj
 0002:00029ddc       ?fgWFXMLScanner@XMLUni@xercesc_2_2@@2QBGB 12123ddc     XMLUni.obj
 0002:00029df8       ?fgIGXMLScanner@XMLUni@xercesc_2_2@@2QBGB 12123df8     XMLUni.obj
 0002:00029e14       ?fgSGXMLScanner@XMLUni@xercesc_2_2@@2QBGB 12123e14     XMLUni.obj
 0002:00029e30       ?fgDGXMLScanner@XMLUni@xercesc_2_2@@2QBGB 12123e30     XMLUni.obj
 0002:00029e4c       ?fgArrayIndexOutOfBoundsException_Name@XMLUni@xercesc_2_2@@2QBGB 12123e4c     XMLUni.obj
 0002:00029e8c       ?fgEmptyStackException_Name@XMLUni@xercesc_2_2@@2QBGB 12123e8c     XMLUni.obj
 0002:00029eb4       ?fgIllegalArgumentException_Name@XMLUni@xercesc_2_2@@2QBGB 12123eb4     XMLUni.obj
 0002:00029ee8       ?fgInvalidCastException_Name@XMLUni@xercesc_2_2@@2QBGB 12123ee8     XMLUni.obj
 0002:00029f14       ?fgIOException_Name@XMLUni@xercesc_2_2@@2QBGB 12123f14     XMLUni.obj
 0002:00029f2c       ?fgNoSuchElementException_Name@XMLUni@xercesc_2_2@@2QBGB 12123f2c     XMLUni.obj
 0002:00029f5c       ?fgNullPointerException_Name@XMLUni@xercesc_2_2@@2QBGB 12123f5c     XMLUni.obj
 0002:00029f88       ?fgXMLPlatformUtilsException_Name@XMLUni@xercesc_2_2@@2QBGB 12123f88     XMLUni.obj
 0002:00029fb4       ?fgRuntimeException_Name@XMLUni@xercesc_2_2@@2QBGB 12123fb4     XMLUni.obj
 0002:00029fd8       ?fgTranscodingException_Name@XMLUni@xercesc_2_2@@2QBGB 12123fd8     XMLUni.obj
 0002:0002a004       ?fgUnexpectedEOFException_Name@XMLUni@xercesc_2_2@@2QBGB 12124004     XMLUni.obj
 0002:0002a034       ?fgUnsupportedEncodingException_Name@XMLUni@xercesc_2_2@@2QBGB 12124034     XMLUni.obj
 0002:0002a070       ?fgUTFDataFormatException_Name@XMLUni@xercesc_2_2@@2QBGB 12124070     XMLUni.obj
 0002:0002a0a0       ?fgNetAccessorException_Name@XMLUni@xercesc_2_2@@2QBGB 121240a0     XMLUni.obj
 0002:0002a0cc       ?fgMalformedURLException_Name@XMLUni@xercesc_2_2@@2QBGB 121240cc     XMLUni.obj
 0002:0002a0f8       ?fgNumberFormatException_Name@XMLUni@xercesc_2_2@@2QBGB 121240f8     XMLUni.obj
 0002:0002a124       ?fgParseException_Name@XMLUni@xercesc_2_2@@2QBGB 12124124     XMLUni.obj
 0002:0002a144       ?fgInvalidDatatypeFacetException_Name@XMLUni@xercesc_2_2@@2QBGB 12124144     XMLUni.obj
 0002:0002a180       ?fgInvalidDatatypeValueException_Name@XMLUni@xercesc_2_2@@2QBGB 12124180     XMLUni.obj
 0002:0002a1bc       ?fgSchemaDateTimeException_Name@XMLUni@xercesc_2_2@@2QBGB 121241bc     XMLUni.obj
 0002:0002a1ec       ?fgXPathException_Name@XMLUni@xercesc_2_2@@2QBGB 121241ec     XMLUni.obj
 0002:0002a20c       ?fgNegINFString@XMLUni@xercesc_2_2@@2QBGB 1212420c     XMLUni.obj
 0002:0002a218       ?fgNegZeroString@XMLUni@xercesc_2_2@@2QBGB 12124218     XMLUni.obj
 0002:0002a220       ?fgPosZeroString@XMLUni@xercesc_2_2@@2QBGB 12124220     XMLUni.obj
 0002:0002a224       ?fgPosINFString@XMLUni@xercesc_2_2@@2QBGB 12124224     XMLUni.obj
 0002:0002a22c       ?fgNaNString@XMLUni@xercesc_2_2@@2QBGB 1212422c     XMLUni.obj
 0002:0002a234       ?fgEString@XMLUni@xercesc_2_2@@2QBGB 12124234     XMLUni.obj
 0002:0002a238       ?fgZeroString@XMLUni@xercesc_2_2@@2QBGB 12124238     XMLUni.obj
 0002:0002a23c       ?fgNullString@XMLUni@xercesc_2_2@@2QBGB 1212423c     XMLUni.obj
 0002:0002a248       ?fgSAX2CoreValidation@XMLUni@xercesc_2_2@@2QBGB 12124248     XMLUni.obj
 0002:0002a298       ?fgSAX2CoreNameSpaces@XMLUni@xercesc_2_2@@2QBGB 12124298     XMLUni.obj
 0002:0002a2e8       ?fgSAX2CoreNameSpacePrefixes@XMLUni@xercesc_2_2@@2QBGB 121242e8     XMLUni.obj
 0002:0002a348       ?fgXercesDynamic@XMLUni@xercesc_2_2@@2QBGB 12124348     XMLUni.obj
 0002:0002a3ac       ?fgXercesSchema@XMLUni@xercesc_2_2@@2QBGB 121243ac     XMLUni.obj
 0002:0002a410       ?fgXercesSchemaFullChecking@XMLUni@xercesc_2_2@@2QBGB 12124410     XMLUni.obj
 0002:0002a490       ?fgXercesLoadExternalDTD@XMLUni@xercesc_2_2@@2QBGB 12124490     XMLUni.obj
 0002:0002a510       ?fgXercesContinueAfterFatalError@XMLUni@xercesc_2_2@@2QBGB 12124510     XMLUni.obj
 0002:0002a584       ?fgXercesValidationErrorAsFatal@XMLUni@xercesc_2_2@@2QBGB 12124584     XMLUni.obj
 0002:0002a5f8       ?fgXercesCalculateSrcOfs@XMLUni@xercesc_2_2@@2QBGB 121245f8     XMLUni.obj
 0002:0002a65c       ?fgXercesStandardUriConformant@XMLUni@xercesc_2_2@@2QBGB 1212465c     XMLUni.obj
 0002:0002a6cc       ?fgXercesSchemaExternalSchemaLocation@XMLUni@xercesc_2_2@@2QBGB 121246cc     XMLUni.obj
 0002:0002a74c       ?fgXercesSchemaExternalNoNameSpaceSchemaLocation@XMLUni@xercesc_2_2@@2QBGB 1212474c     XMLUni.obj
 0002:0002a7e4       ?fgXercesScannerName@XMLUni@xercesc_2_2@@2QBGB 121247e4     XMLUni.obj
 0002:0002a840       ?fgXercesUserAdoptsDOMDocument@XMLUni@xercesc_2_2@@2QBGB 12124840     XMLUni.obj
 0002:0002a8b8       ?fgXercesCacheGrammarFromParse@XMLUni@xercesc_2_2@@2QBGB 121248b8     XMLUni.obj
 0002:0002a93c       ?fgXercesUseCachedGrammarInParse@XMLUni@xercesc_2_2@@2QBGB 1212493c     XMLUni.obj
 0002:0002a9c0       ?fgDOMCanonicalForm@XMLUni@xercesc_2_2@@2QBGB 121249c0     XMLUni.obj
 0002:0002a9e0       ?fgDOMCDATASections@XMLUni@xercesc_2_2@@2QBGB 121249e0     XMLUni.obj
 0002:0002aa00       ?fgDOMComments@XMLUni@xercesc_2_2@@2QBGB 12124a00     XMLUni.obj
 0002:0002aa14       ?fgDOMCharsetOverridesXMLEncoding@XMLUni@xercesc_2_2@@2QBGB 12124a14     XMLUni.obj
 0002:0002aa54       ?fgDOMDatatypeNormalization@XMLUni@xercesc_2_2@@2QBGB 12124a54     XMLUni.obj
 0002:0002aa84       ?fgDOMEntities@XMLUni@xercesc_2_2@@2QBGB 12124a84     XMLUni.obj
 0002:0002aa98       ?fgDOMInfoset@XMLUni@xercesc_2_2@@2QBGB 12124a98     XMLUni.obj
 0002:0002aaa8       ?fgDOMNamespaces@XMLUni@xercesc_2_2@@2QBGB 12124aa8     XMLUni.obj
 0002:0002aac0       ?fgDOMNamespaceDeclarations@XMLUni@xercesc_2_2@@2QBGB 12124ac0     XMLUni.obj
 0002:0002aaf0       ?fgDOMSupportedMediatypesOnly@XMLUni@xercesc_2_2@@2QBGB 12124af0     XMLUni.obj
 0002:0002ab24       ?fgDOMValidateIfSchema@XMLUni@xercesc_2_2@@2QBGB 12124b24     XMLUni.obj
 0002:0002ab4c       ?fgDOMValidation@XMLUni@xercesc_2_2@@2QBGB 12124b4c     XMLUni.obj
 0002:0002ab64       ?fgDOMWhitespaceInElementContent@XMLUni@xercesc_2_2@@2QBGB 12124b64     XMLUni.obj
 0002:0002aba0       ?fgDOMWRTCanonicalForm@XMLUni@xercesc_2_2@@2QBGB 12124ba0     XMLUni.obj
 0002:0002abc0       ?fgDOMWRTDiscardDefaultContent@XMLUni@xercesc_2_2@@2QBGB 12124bc0     XMLUni.obj
 0002:0002abf4       ?fgDOMWRTEntities@XMLUni@xercesc_2_2@@2QBGB 12124bf4     XMLUni.obj
 0002:0002ac08       ?fgDOMWRTFormatPrettyPrint@XMLUni@xercesc_2_2@@2QBGB 12124c08     XMLUni.obj
 0002:0002ac30       ?fgDOMWRTNormalizeCharacters@XMLUni@xercesc_2_2@@2QBGB 12124c30     XMLUni.obj
 0002:0002ac5c       ?fgDOMWRTSplitCdataSections@XMLUni@xercesc_2_2@@2QBGB 12124c5c     XMLUni.obj
 0002:0002ac88       ?fgDOMWRTValidation@XMLUni@xercesc_2_2@@2QBGB 12124c88     XMLUni.obj
 0002:0002aca0       ?fgDOMWRTWhitespaceInElementContent@XMLUni@xercesc_2_2@@2QBGB 12124ca0     XMLUni.obj
 0002:0002acdc       ?fgDOMWRTBOM@XMLUni@xercesc_2_2@@2QBGB 12124cdc     XMLUni.obj
 0002:0002ad44       ?fgXercescDefaultLocale@XMLUni@xercesc_2_2@@2QBDB 12124d44     XMLUni.obj
 0002:0002ad4c       ?fgXMLDOMMsgDomain@XMLUni@xercesc_2_2@@2QBGB 12124d4c     XMLUni.obj
 0002:0002ada0       ?RESERVED_CHARACTERS@XMLUri@xercesc_2_2@@0QBGB 12124da0     XMLUri.obj
 0002:0002adb8       ?MARK_CHARACTERS@XMLUri@xercesc_2_2@@0QBGB 12124db8     XMLUri.obj
 0002:0002adcc       ?SCHEME_CHARACTERS@XMLUri@xercesc_2_2@@0QBGB 12124dcc     XMLUri.obj
 0002:0002add4       ?USERINFO_CHARACTERS@XMLUri@xercesc_2_2@@0QBGB 12124dd4     XMLUri.obj
 0002:0002aea0       ??_7XMLUri@xercesc_2_2@@6B@ 12124ea0     XMLUri.obj
 0002:0002aee4       ??_7XMLURL@xercesc_2_2@@6B@ 12124ee4     XMLURL.obj
 0002:0002aee8       ??_7XMLUTF16Transcoder@xercesc_2_2@@6B@ 12124ee8     XMLUTF16Transcoder.obj
 0002:0002b018       ??_7XMLUTF8Transcoder@xercesc_2_2@@6B@ 12125018     XMLUTF8Transcoder.obj
 0002:0002b7a0       ??_7XMLWin1252Transcoder@xercesc_2_2@@6B@ 121257a0     XMLWin1252Transcoder.obj
 0002:0002b7b0       ??_7XMLFormatTarget@xercesc_2_2@@6B@ 121257b0     LocalFileFormatTarget.obj
 0002:0002b7bc       ??_7LocalFileFormatTarget@xercesc_2_2@@6B@ 121257bc     LocalFileFormatTarget.obj
 0002:0002b7c8       ??_7LocalFileInputSource@xercesc_2_2@@6B@ 121257c8     LocalFileInputSource.obj
 0002:0002b7f0       ??_7MemBufFormatTarget@xercesc_2_2@@6B@ 121257f0     MemBufFormatTarget.obj
 0002:0002b7fc       ??_7MemBufInputSource@xercesc_2_2@@6B@ 121257fc     MemBufInputSource.obj
 0002:0002b824       ??_7StdInInputSource@xercesc_2_2@@6B@ 12125824     StdInInputSource.obj
 0002:0002b84c       ??_7StdOutFormatTarget@xercesc_2_2@@6B@ 1212584c     StdOutFormatTarget.obj
 0002:0002b858       ??_7URLInputSource@xercesc_2_2@@6B@ 12125858     URLInputSource.obj
 0002:0002b880       ??_7DOMInputSource@xercesc_2_2@@6B@ 12125880     Wrapper4DOMInputSource.obj
 0002:0002b8b4       ??_7Wrapper4DOMInputSource@xercesc_2_2@@6B@ 121258b4     Wrapper4DOMInputSource.obj
 0002:0002b8dc       ??_7Wrapper4InputSource@xercesc_2_2@@6B@ 121258dc     Wrapper4InputSource.obj
 0002:0002b96c       ?fgInvalidAttrId@XMLAttDef@xercesc_2_2@@2IB 1212596c     XMLAttDef.obj
 0002:0002b970       ??_7XMLAttDef@xercesc_2_2@@6B@ 12125970     XMLAttDef.obj
 0002:0002b984       ?gInvalidTrans@XMLContentModel@xercesc_2_2@@2IB 12125984     XMLContentModel.obj
 0002:0002b988       ?gEOCFakeId@XMLContentModel@xercesc_2_2@@2IB 12125988     XMLContentModel.obj
 0002:0002b98c       ?gEpsilonFakeId@XMLContentModel@xercesc_2_2@@2IB 1212598c     XMLContentModel.obj
 0002:0002b990       ??_7XMLContentModel@xercesc_2_2@@6B@ 12125990     XMLContentModel.obj
 0002:0002b9a8       ?fgInvalidElemId@XMLElementDecl@xercesc_2_2@@2IB 121259a8     XMLElementDecl.obj
 0002:0002b9ac       ?fgPCDataElemId@XMLElementDecl@xercesc_2_2@@2IB 121259ac     XMLElementDecl.obj
 0002:0002b9b0       ?fgPCDataElemName@XMLElementDecl@xercesc_2_2@@2QBGB 121259b0     XMLElementDecl.obj
 0002:0002b9c0       ??_7XMLAttDefList@xercesc_2_2@@6B@ 121259c0     XMLElementDecl.obj
 0002:0002b9e4       ??_7XMLElementDecl@xercesc_2_2@@6B@ 121259e4     XMLElementDecl.obj
 0002:0002ba1c       ??_7XMLEntityDecl@xercesc_2_2@@6B@ 12125a1c     XMLEntityDecl.obj
 0002:0002baa0       ?fgASCIIPre@XMLRecognizer@xercesc_2_2@@2QBDB 12125aa0     XMLRecognizer.obj
 0002:0002baa8       ?fgASCIIPreLen@XMLRecognizer@xercesc_2_2@@2IB 12125aa8     XMLRecognizer.obj
 0002:0002baac       ?fgEBCDICPre@XMLRecognizer@xercesc_2_2@@2QBEB 12125aac     XMLRecognizer.obj
 0002:0002bab4       ?fgEBCDICPreLen@XMLRecognizer@xercesc_2_2@@2IB 12125ab4     XMLRecognizer.obj
 0002:0002bab8       ?fgUTF16BPre@XMLRecognizer@xercesc_2_2@@2QBEB 12125ab8     XMLRecognizer.obj
 0002:0002bac4       ?fgUTF16LPre@XMLRecognizer@xercesc_2_2@@2QBEB 12125ac4     XMLRecognizer.obj
 0002:0002bad0       ?fgUTF16PreLen@XMLRecognizer@xercesc_2_2@@2IB 12125ad0     XMLRecognizer.obj
 0002:0002bad4       ?fgUCS4BPre@XMLRecognizer@xercesc_2_2@@2QBEB 12125ad4     XMLRecognizer.obj
 0002:0002baec       ?fgUCS4LPre@XMLRecognizer@xercesc_2_2@@2QBEB 12125aec     XMLRecognizer.obj
 0002:0002bb04       ?fgUCS4PreLen@XMLRecognizer@xercesc_2_2@@2IB 12125b04     XMLRecognizer.obj
 0002:0002bb08       ?fgUTF8BOM@XMLRecognizer@xercesc_2_2@@2QBDB 12125b08     XMLRecognizer.obj
 0002:0002bb0c       ?fgUTF8BOMLen@XMLRecognizer@xercesc_2_2@@2IB 12125b0c     XMLRecognizer.obj
 0002:0002bb10       ??_7XMLValidator@xercesc_2_2@@6B@ 12125b10     XMLValidator.obj
 0002:0002bb44       ??_7Locator@xercesc_2_2@@6B@ 12125b44     XMLValidator.obj
 0002:0002bb58       ??_7DTDEntityDecl@xercesc_2_2@@6B@ 12125b58     XMLValidator.obj
 0002:0002bb84       ??_7Grammar@xercesc_2_2@@6B@ 12125b84     DGXMLScanner.obj
 0002:0002bbc8       ??_7XMLDocumentHandler@xercesc_2_2@@6B@ 12125bc8     DGXMLScanner.obj
 0002:0002bbfc       ??_7XMLEntityHandler@xercesc_2_2@@6B@ 12125bfc     DGXMLScanner.obj
 0002:0002bc14       ??_7DocTypeHandler@xercesc_2_2@@6B@ 12125c14     DGXMLScanner.obj
 0002:0002bc58       ??_7DTDGrammar@xercesc_2_2@@6B@ 12125c58     DGXMLScanner.obj
 0002:0002bc9c       ??_7?$NameIdPoolEnumerator@VDTDElementDecl@xercesc_2_2@@@xercesc_2_2@@6B@ 12125c9c     DGXMLScanner.obj
 0002:0002bcac       ??_7?$NameIdPoolEnumerator@VDTDEntityDecl@xercesc_2_2@@@xercesc_2_2@@6B@ 12125cac     DGXMLScanner.obj
 0002:0002bcbc       ??_7?$NameIdPoolEnumerator@VXMLNotationDecl@xercesc_2_2@@@xercesc_2_2@@6B@ 12125cbc     DGXMLScanner.obj
 0002:0002bccc       ??_7DTDScanner@xercesc_2_2@@6B@ 12125ccc     DGXMLScanner.obj
 0002:0002bcd0       ??_7DGXMLScanner@xercesc_2_2@@6B@ 12125cd0     DGXMLScanner.obj
 0002:0002bd08       ??_7?$XMLEnumerator@VDTDElementDecl@xercesc_2_2@@@xercesc_2_2@@6B@ 12125d08     DGXMLScanner.obj
 0002:0002bd18       ??_7?$XMLEnumerator@VDTDEntityDecl@xercesc_2_2@@@xercesc_2_2@@6B@ 12125d18     DGXMLScanner.obj
 0002:0002bd28       ??_7?$XMLEnumerator@VXMLNotationDecl@xercesc_2_2@@@xercesc_2_2@@6B@ 12125d28     DGXMLScanner.obj
 0002:0002bd60       ??_7DatatypeValidator@xercesc_2_2@@6B@ 12125d60     IGXMLScanner.obj
 0002:0002bd80       ??_7UnionDatatypeValidator@xercesc_2_2@@6B@ 12125d80     IGXMLScanner.obj
 0002:0002bda0       ??_7?$RefVectorOf@VSchemaElementDecl@xercesc_2_2@@@xercesc_2_2@@6B@ 12125da0     IGXMLScanner.obj
 0002:0002bda4       ??_7?$BaseRefVectorOf@VSchemaElementDecl@xercesc_2_2@@@xercesc_2_2@@6B@ 12125da4     IGXMLScanner.obj
 0002:0002bda8       ??_7?$RefHash2KeysTableOfEnumerator@VSchemaAttDef@xercesc_2_2@@@xercesc_2_2@@6B@ 12125da8     IGXMLScanner.obj
 0002:0002bdb8       ??_7XPathMatcher@xercesc_2_2@@6B@ 12125db8     IGXMLScanner.obj
 0002:0002bdd0       ??_7FieldMatcher@xercesc_2_2@@6B@ 12125dd0     IGXMLScanner.obj
 0002:0002bde8       ??_7?$RefVectorOf@VIC_Field@xercesc_2_2@@@xercesc_2_2@@6B@ 12125de8     IGXMLScanner.obj
 0002:0002bdec       ??_7?$BaseRefVectorOf@VIC_Field@xercesc_2_2@@@xercesc_2_2@@6B@ 12125dec     IGXMLScanner.obj
 0002:0002bdf0       ??_7?$RefVectorOf@VIdentityConstraint@xercesc_2_2@@@xercesc_2_2@@6B@ 12125df0     IGXMLScanner.obj
 0002:0002bdf4       ??_7?$BaseRefVectorOf@VIdentityConstraint@xercesc_2_2@@@xercesc_2_2@@6B@ 12125df4     IGXMLScanner.obj
 0002:0002bdf8       ??_7AbstractStringValidator@xercesc_2_2@@6B@ 12125df8     IGXMLScanner.obj
 0002:0002be44       ??_7StringDatatypeValidator@xercesc_2_2@@6B@ 12125e44     IGXMLScanner.obj
 0002:0002be90       ??_7IDDatatypeValidator@xercesc_2_2@@6B@ 12125e90     IGXMLScanner.obj
 0002:0002bedc       ??_7SchemaGrammar@xercesc_2_2@@6B@ 12125edc     IGXMLScanner.obj
 0002:0002bf20       ??_7?$RefHash3KeysIdPoolEnumerator@VSchemaElementDecl@xercesc_2_2@@@xercesc_2_2@@6B@ 12125f20     IGXMLScanner.obj
 0002:0002bf30       ??_7XSDErrorReporter@xercesc_2_2@@6B@ 12125f30     IGXMLScanner.obj
 0002:0002bf34       ??_7SelectorMatcher@xercesc_2_2@@6B@ 12125f34     IGXMLScanner.obj
 0002:0002bf4c       ??_7IGXMLScanner@xercesc_2_2@@6B@ 12125f4c     IGXMLScanner.obj
 0002:0002bf84       ??_7?$RefVectorOf@VKVStringPair@xercesc_2_2@@@xercesc_2_2@@6B@ 12125f84     IGXMLScanner.obj
 0002:0002bf88       ??_7?$BaseRefVectorOf@VKVStringPair@xercesc_2_2@@@xercesc_2_2@@6B@ 12125f88     IGXMLScanner.obj
 0002:0002bf8c       ??_7?$XMLEnumerator@VSchemaAttDef@xercesc_2_2@@@xercesc_2_2@@6B@ 12125f8c     IGXMLScanner.obj
 0002:0002bf9c       ??_7?$XMLEnumerator@VSchemaElementDecl@xercesc_2_2@@@xercesc_2_2@@6B@ 12125f9c     IGXMLScanner.obj
 0002:0002bfb4       ??_7DOMNode@xercesc_2_2@@6B@ 12125fb4     IGXMLScanner2.obj
 0002:0002c050       ??_7DOMElement@xercesc_2_2@@6B@ 12126050     IGXMLScanner2.obj
 0002:0002c13c       ??_7DOMAttr@xercesc_2_2@@6B@ 1212613c     IGXMLScanner2.obj
 0002:0002c1f4       ??_7?$BaseRefVectorEnumerator@VSchemaInfo@xercesc_2_2@@@xercesc_2_2@@6B@ 121261f4     IGXMLScanner2.obj
 0002:0002c204       ??_7?$BaseRefVectorOf@VSchemaInfo@xercesc_2_2@@@xercesc_2_2@@6B@ 12126204     IGXMLScanner2.obj
 0002:0002c208       ??_7?$RefVectorOf@VSchemaInfo@xercesc_2_2@@@xercesc_2_2@@6B@ 12126208     IGXMLScanner2.obj
 0002:0002c20c       ??_7DOMDocumentRange@xercesc_2_2@@6B@ 1212620c     IGXMLScanner2.obj
 0002:0002c214       ??_7DOMDocumentTraversal@xercesc_2_2@@6B@ 12126214     IGXMLScanner2.obj
 0002:0002c220       ??_7DOMDocument@xercesc_2_2@@6BDOMNode@1@@ 12126220     IGXMLScanner2.obj
 0002:0002c2bc       ??_7DOMDocument@xercesc_2_2@@6BDOMDocumentTraversal@1@@ 121262bc     IGXMLScanner2.obj
 0002:0002c2c8       ??_7DOMDocument@xercesc_2_2@@6BDOMDocumentRange@1@@ 121262c8     IGXMLScanner2.obj
 0002:0002c374       ??_7DOMDocumentType@xercesc_2_2@@6B@ 12126374     IGXMLScanner2.obj
 0002:0002c428       ??_7?$XMLEnumerator@VSchemaInfo@xercesc_2_2@@@xercesc_2_2@@6B@ 12126428     IGXMLScanner2.obj
 0002:0002c438       ??_7ReaderMgr@xercesc_2_2@@6B@ 12126438     ReaderMgr.obj
 0002:0002c44c       ??_7?$BaseRefVectorOf@VXMLEntityDecl@xercesc_2_2@@@xercesc_2_2@@6B@ 1212644c     ReaderMgr.obj
 0002:0002c450       ??_7?$RefVectorOf@VXMLEntityDecl@xercesc_2_2@@@xercesc_2_2@@6B@ 12126450     ReaderMgr.obj
 0002:0002c454       ??_7?$BaseRefVectorOf@VXMLReader@xercesc_2_2@@@xercesc_2_2@@6B@ 12126454     ReaderMgr.obj
 0002:0002c458       ??_7?$RefVectorOf@VXMLReader@xercesc_2_2@@@xercesc_2_2@@6B@ 12126458     ReaderMgr.obj
 0002:0002c48c       ??_7SGXMLScanner@xercesc_2_2@@6B@ 1212648c     SGXMLScanner.obj
 0002:0002c4c4       ??_7Attributes@xercesc_2_2@@6B@ 121264c4     VecAttributesImpl.obj
 0002:0002c4f8       ??_7VecAttributesImpl@xercesc_2_2@@6B@ 121264f8     VecAttributesImpl.obj
 0002:0002c52c       ??_7AttributeList@xercesc_2_2@@6B@ 1212652c     VecAttrListImpl.obj
 0002:0002c54c       ??_7VecAttrListImpl@xercesc_2_2@@6B@ 1212654c     VecAttrListImpl.obj
 0002:0002c5b0       ??_7WFXMLScanner@xercesc_2_2@@6B@ 121265b0     WFXMLScanner.obj
 0002:0002c5e8       ??_7?$RefVectorOf@VXMLElementDecl@xercesc_2_2@@@xercesc_2_2@@6B@ 121265e8     WFXMLScanner.obj
 0002:0002c5ec       ??_7?$BaseRefVectorOf@VXMLElementDecl@xercesc_2_2@@@xercesc_2_2@@6B@ 121265ec     WFXMLScanner.obj
 0002:0002c608       ??_7?$RefVectorOf@VXMLAttr@xercesc_2_2@@@xercesc_2_2@@6B@ 12126608     XMLScanner.obj
 0002:0002c60c       ??_7XMLScanner@xercesc_2_2@@6B@ 1212660c     XMLScanner.obj
 0002:0002c644       ??_7?$BaseRefVectorOf@VXMLAttr@xercesc_2_2@@@xercesc_2_2@@6B@ 12126644     XMLScanner.obj
 0002:0002c648       ??_7?$RefHashTableOfEnumerator@VXMLRefInfo@xercesc_2_2@@@xercesc_2_2@@6B@ 12126648     XMLScanner.obj
 0002:0002c658       ??_7?$XMLEnumerator@VXMLRefInfo@xercesc_2_2@@@xercesc_2_2@@6B@ 12126658     XMLScanner.obj
 0002:0002c668       ??_7DocumentHandler@xercesc_2_2@@6B@ 12126668     Dummy.obj
 0002:0002c690       ??_7DTDHandler@xercesc_2_2@@6B@ 12126690     Dummy.obj
 0002:0002c6a0       ??_7EntityResolver@xercesc_2_2@@6B@ 121266a0     Dummy.obj
 0002:0002c6a8       ??_7ErrorHandler@xercesc_2_2@@6B@ 121266a8     Dummy.obj
 0002:0002c6bc       ??_7SAXException@xercesc_2_2@@6B@ 121266bc     Dummy.obj
 0002:0002c6c4       ??_7SAXNotSupportedException@xercesc_2_2@@6B@ 121266c4     Dummy.obj
 0002:0002c6cc       ??_7SAXNotRecognizedException@xercesc_2_2@@6B@ 121266cc     Dummy.obj
 0002:0002c6d4       ??_7HandlerBase@xercesc_2_2@@6BErrorHandler@1@@ 121266d4     Dummy.obj
 0002:0002c6e8       ??_7HandlerBase@xercesc_2_2@@6BDocumentHandler@1@@ 121266e8     Dummy.obj
 0002:0002c710       ??_7HandlerBase@xercesc_2_2@@6BDTDHandler@1@@ 12126710     Dummy.obj
 0002:0002c720       ??_7HandlerBase@xercesc_2_2@@6BEntityResolver@1@@ 12126720     Dummy.obj
 0002:0002c728       ??_7Parser@xercesc_2_2@@6B@ 12126728     Dummy.obj
 0002:0002c748       ??_7InputSource@xercesc_2_2@@6B@ 12126748     InputSource.obj
 0002:0002c770       ??_7SAXParseException@xercesc_2_2@@6B@ 12126770     SAXParseException.obj
 0002:0002c798       ??_7DOMImplementationLS@xercesc_2_2@@6B@ 12126798     AbstractDOMParser.obj
 0002:0002c7a8       ??_7DOMImplementation@xercesc_2_2@@6B@ 121267a8     AbstractDOMParser.obj
 0002:0002c7cc       ??_7DOMNodeList@xercesc_2_2@@6B@ 121267cc     AbstractDOMParser.obj
 0002:0002c7d8       ??_7DOMUserDataHandler@xercesc_2_2@@6B@ 121267d8     AbstractDOMParser.obj
 0002:0002c7e0       ??_7DOMDocumentImpl@xercesc_2_2@@6BDOMNode@1@@ 121267e0     AbstractDOMParser.obj
 0002:0002c87c       ??_7DOMDocumentImpl@xercesc_2_2@@6BDOMDocumentTraversal@1@@ 1212687c     AbstractDOMParser.obj
 0002:0002c888       ??_7DOMDocumentImpl@xercesc_2_2@@6BDOMDocumentRange@1@@ 12126888     AbstractDOMParser.obj
 0002:0002c958       ??_7DOMTypeInfo@xercesc_2_2@@6B@ 12126958     AbstractDOMParser.obj
 0002:0002c964       ??_7DOMCharacterData@xercesc_2_2@@6B@ 12126964     AbstractDOMParser.obj
 0002:0002ca20       ??_7DOMText@xercesc_2_2@@6B@ 12126a20     AbstractDOMParser.obj
 0002:0002caf0       ??_7DOMCDATASection@xercesc_2_2@@6B@ 12126af0     AbstractDOMParser.obj
 0002:0002cbc0       ??_7DOMComment@xercesc_2_2@@6B@ 12126bc0     AbstractDOMParser.obj
 0002:0002cc7c       ??_7DOMDocumentTypeImpl@xercesc_2_2@@6B@ 12126c7c     AbstractDOMParser.obj
 0002:0002cd48       ??_7DOMNamedNodeMap@xercesc_2_2@@6B@ 12126d48     AbstractDOMParser.obj
 0002:0002cd6c       ??_7DOMNamedNodeMapImpl@xercesc_2_2@@6B@ 12126d6c     AbstractDOMParser.obj
 0002:0002cdac       ??_7DOMAttrMapImpl@xercesc_2_2@@6B@ 12126dac     AbstractDOMParser.obj
 0002:0002cdf8       ??_7DOMEntity@xercesc_2_2@@6B@ 12126df8     AbstractDOMParser.obj
 0002:0002ceb8       ??_7DOMEntityReference@xercesc_2_2@@6B@ 12126eb8     AbstractDOMParser.obj
 0002:0002cf54       ??_7DOMNotation@xercesc_2_2@@6B@ 12126f54     AbstractDOMParser.obj
 0002:0002cff8       ??_7DOMProcessingInstruction@xercesc_2_2@@6B@ 12126ff8     AbstractDOMParser.obj
 0002:0002d0a0       ??_7AbstractDOMParser@xercesc_2_2@@6BDocTypeHandler@1@@ 121270a0     AbstractDOMParser.obj
 0002:0002d0e4       ??_7AbstractDOMParser@xercesc_2_2@@6BXMLEntityHandler@1@@ 121270e4     AbstractDOMParser.obj
 0002:0002d0fc       ??_7AbstractDOMParser@xercesc_2_2@@6BXMLErrorReporter@1@@ 121270fc     AbstractDOMParser.obj
 0002:0002d108       ??_7AbstractDOMParser@xercesc_2_2@@6BXMLDocumentHandler@1@@ 12127108     AbstractDOMParser.obj
 0002:0002d140       ??_7?$RefVectorOf@VDOMDocumentImpl@xercesc_2_2@@@xercesc_2_2@@6B@ 12127140     AbstractDOMParser.obj
 0002:0002d144       ??_7?$BaseRefVectorOf@VDOMDocumentImpl@xercesc_2_2@@@xercesc_2_2@@6B@ 12127144     AbstractDOMParser.obj
 0002:0002d148       ??_7DOMBuilder@xercesc_2_2@@6B@ 12127148     DOMBuilderImpl.obj
 0002:0002d1bc       ??_7DOMEntityResolver@xercesc_2_2@@6B@ 121271bc     DOMBuilderImpl.obj
 0002:0002d1c4       ??_7DOMErrorHandler@xercesc_2_2@@6B@ 121271c4     DOMBuilderImpl.obj
 0002:0002d1cc       ??_7DOMError@xercesc_2_2@@6B@ 121271cc     DOMBuilderImpl.obj
 0002:0002d1f0       ??_7DOMLocator@xercesc_2_2@@6B@ 121271f0     DOMBuilderImpl.obj
 0002:0002d21c       ??_7DOMBuilderImpl@xercesc_2_2@@6B@ 1212721c     DOMBuilderImpl.obj
 0002:0002d290       ??_7DOMBuilderImpl@xercesc_2_2@@6BDocTypeHandler@1@@ 12127290     DOMBuilderImpl.obj
 0002:0002d2d4       ??_7DOMBuilderImpl@xercesc_2_2@@6BXMLEntityHandler@1@@ 121272d4     DOMBuilderImpl.obj
 0002:0002d2ec       ??_7DOMBuilderImpl@xercesc_2_2@@6BXMLErrorReporter@1@@ 121272ec     DOMBuilderImpl.obj
 0002:0002d2f8       ??_7DOMBuilderImpl@xercesc_2_2@@6BXMLDocumentHandler@1@@ 121272f8     DOMBuilderImpl.obj
 0002:0002d33c       ??_7ContentHandler@xercesc_2_2@@6B@ 1212733c     SAX2XMLReaderImpl.obj
 0002:0002d36c       ??_7LexicalHandler@xercesc_2_2@@6B@ 1212736c     SAX2XMLReaderImpl.obj
 0002:0002d38c       ??_7DeclHandler@xercesc_2_2@@6B@ 1212738c     SAX2XMLReaderImpl.obj
 0002:0002d3a0       ??_7SAX2XMLReader@xercesc_2_2@@6B@ 121273a0     SAX2XMLReaderImpl.obj
 0002:0002d448       ??_7SAX2XMLReaderImpl@xercesc_2_2@@6BDocTypeHandler@1@@ 12127448     SAX2XMLReaderImpl.obj
 0002:0002d48c       ??_7SAX2XMLReaderImpl@xercesc_2_2@@6BXMLEntityHandler@1@@ 1212748c     SAX2XMLReaderImpl.obj
 0002:0002d4a4       ??_7SAX2XMLReaderImpl@xercesc_2_2@@6BXMLErrorReporter@1@@ 121274a4     SAX2XMLReaderImpl.obj
 0002:0002d4b0       ??_7SAX2XMLReaderImpl@xercesc_2_2@@6BXMLDocumentHandler@1@@ 121274b0     SAX2XMLReaderImpl.obj
 0002:0002d4e4       ??_7SAX2XMLReaderImpl@xercesc_2_2@@6BSAX2XMLReader@1@@ 121274e4     SAX2XMLReaderImpl.obj
 0002:0002d58c       ??_7?$RefVectorOf@VXMLBuffer@xercesc_2_2@@@xercesc_2_2@@6B@ 1212758c     SAX2XMLReaderImpl.obj
 0002:0002d590       ??_7?$BaseRefVectorOf@VXMLBuffer@xercesc_2_2@@@xercesc_2_2@@6B@ 12127590     SAX2XMLReaderImpl.obj
 0002:0002d594       ??_7SAXParser@xercesc_2_2@@6BDocTypeHandler@1@@ 12127594     SAXParser.obj
 0002:0002d5d8       ??_7SAXParser@xercesc_2_2@@6BXMLEntityHandler@1@@ 121275d8     SAXParser.obj
 0002:0002d5f0       ??_7SAXParser@xercesc_2_2@@6BXMLErrorReporter@1@@ 121275f0     SAXParser.obj
 0002:0002d5fc       ??_7SAXParser@xercesc_2_2@@6BXMLDocumentHandler@1@@ 121275fc     SAXParser.obj
 0002:0002d630       ??_7SAXParser@xercesc_2_2@@6BParser@1@@ 12127630     SAXParser.obj
 0002:0002d650       ??_7XercesDOMParser@xercesc_2_2@@6BDocTypeHandler@1@@ 12127650     XercesDOMParser.obj
 0002:0002d694       ??_7XercesDOMParser@xercesc_2_2@@6BXMLEntityHandler@1@@ 12127694     XercesDOMParser.obj
 0002:0002d6ac       ??_7XercesDOMParser@xercesc_2_2@@6BXMLErrorReporter@1@@ 121276ac     XercesDOMParser.obj
 0002:0002d6b8       ??_7XercesDOMParser@xercesc_2_2@@6BXMLDocumentHandler@1@@ 121276b8     XercesDOMParser.obj
 0002:0002d6f0       ??_7AllContentModel@xercesc_2_2@@6B@ 121276f0     AllContentModel.obj
 0002:0002d708       ??_7CMAny@xercesc_2_2@@6B@ 12127708     CMAny.obj
 0002:0002d718       ??_7CMNode@xercesc_2_2@@6B@ 12127718     CMAny.obj
 0002:0002d728       ??_7CMBinaryOp@xercesc_2_2@@6B@ 12127728     CMBinaryOp.obj
 0002:0002d738       ??_7CMUnaryOp@xercesc_2_2@@6B@ 12127738     CMUnaryOp.obj
 0002:0002d748       ??_7HashCMStateSet@xercesc_2_2@@6B@ 12127748     DFAContentModel.obj
 0002:0002d754       ??_7DFAContentModel@xercesc_2_2@@6B@ 12127754     DFAContentModel.obj
 0002:0002d76c       ??_7CMLeaf@xercesc_2_2@@6B@ 1212776c     DFAContentModel.obj
 0002:0002d77c       ??_7?$RefHashTableOfEnumerator@VGrammar@xercesc_2_2@@@xercesc_2_2@@6B@ 1212777c     GrammarResolver.obj
 0002:0002d78c       ??_7?$XMLEnumerator@VGrammar@xercesc_2_2@@@xercesc_2_2@@6B@ 1212778c     GrammarResolver.obj
 0002:0002d79c       ??_7MixedContentModel@xercesc_2_2@@6B@ 1212779c     MixedContentModel.obj
 0002:0002d7b4       ?INDETERMINATE@AbstractNumericFacetValidator@xercesc_2_2@@1HB 121277b4     AbstractNumericFacetValidator.obj
 0002:0002d7b8       ??_7AbstractNumericFacetValidator@xercesc_2_2@@6B@ 121277b8     AbstractNumericFacetValidator.obj
 0002:0002d804       ??_7InvalidDatatypeFacetException@xercesc_2_2@@6B@ 12127804     AbstractNumericFacetValidator.obj
 0002:0002d810       ??_7?$RefHashTableOfEnumerator@VKVStringPair@xercesc_2_2@@@xercesc_2_2@@6B@ 12127810     AbstractNumericFacetValidator.obj
 0002:0002d820       ??_7?$XMLEnumerator@VKVStringPair@xercesc_2_2@@@xercesc_2_2@@6B@ 12127820     AbstractNumericFacetValidator.obj
 0002:0002d830       ??_7AbstractNumericValidator@xercesc_2_2@@6B@ 12127830     AbstractNumericValidator.obj
 0002:0002d87c       ??_7InvalidDatatypeValueException@xercesc_2_2@@6B@ 1212787c     AbstractNumericValidator.obj
 0002:0002d888       ??_7AnySimpleTypeDatatypeValidator@xercesc_2_2@@6B@ 12127888     AnySimpleTypeDatatypeValidator.obj
 0002:0002d8d8       ??_7AnyURIDatatypeValidator@xercesc_2_2@@6B@ 121278d8     AnyURIDatatypeValidator.obj
 0002:0002d924       ??_7Base64BinaryDatatypeValidator@xercesc_2_2@@6B@ 12127924     Base64BinaryDatatypeValidator.obj
 0002:0002da70       ??_7BooleanDatatypeValidator@xercesc_2_2@@6B@ 12127a70     BooleanDatatypeValidator.obj
 0002:0002dbfc       ??_7DecimalDatatypeValidator@xercesc_2_2@@6B@ 12127bfc     DatatypeValidatorFactory.obj
 0002:0002dc48       ??_7HexBinaryDatatypeValidator@xercesc_2_2@@6B@ 12127c48     DatatypeValidatorFactory.obj
 0002:0002dc94       ??_7IDREFDatatypeValidator@xercesc_2_2@@6B@ 12127c94     DatatypeValidatorFactory.obj
 0002:0002dce0       ??_7NOTATIONDatatypeValidator@xercesc_2_2@@6B@ 12127ce0     DatatypeValidatorFactory.obj
 0002:0002dd2c       ??_7ENTITYDatatypeValidator@xercesc_2_2@@6B@ 12127d2c     DatatypeValidatorFactory.obj
 0002:0002dd78       ??_7QNameDatatypeValidator@xercesc_2_2@@6B@ 12127d78     DatatypeValidatorFactory.obj
 0002:0002ddc4       ??_7NameDatatypeValidator@xercesc_2_2@@6B@ 12127dc4     DatatypeValidatorFactory.obj
 0002:0002de10       ??_7NCNameDatatypeValidator@xercesc_2_2@@6B@ 12127e10     DatatypeValidatorFactory.obj
 0002:0002de5c       ??_7ListDatatypeValidator@xercesc_2_2@@6B@ 12127e5c     DatatypeValidatorFactory.obj
 0002:0002dea8       ??_7DoubleDatatypeValidator@xercesc_2_2@@6B@ 12127ea8     DatatypeValidatorFactory.obj
 0002:0002def4       ??_7FloatDatatypeValidator@xercesc_2_2@@6B@ 12127ef4     DatatypeValidatorFactory.obj
 0002:0002df40       ??_7DateTimeValidator@xercesc_2_2@@6B@ 12127f40     DatatypeValidatorFactory.obj
 0002:0002df94       ??_7DateTimeDatatypeValidator@xercesc_2_2@@6B@ 12127f94     DatatypeValidatorFactory.obj
 0002:0002dfe8       ??_7DateDatatypeValidator@xercesc_2_2@@6B@ 12127fe8     DatatypeValidatorFactory.obj
 0002:0002e03c       ??_7TimeDatatypeValidator@xercesc_2_2@@6B@ 1212803c     DatatypeValidatorFactory.obj
 0002:0002e090       ??_7DayDatatypeValidator@xercesc_2_2@@6B@ 12128090     DatatypeValidatorFactory.obj
 0002:0002e0e4       ??_7MonthDatatypeValidator@xercesc_2_2@@6B@ 121280e4     DatatypeValidatorFactory.obj
 0002:0002e138       ??_7MonthDayDatatypeValidator@xercesc_2_2@@6B@ 12128138     DatatypeValidatorFactory.obj
 0002:0002e18c       ??_7YearDatatypeValidator@xercesc_2_2@@6B@ 1212818c     DatatypeValidatorFactory.obj
 0002:0002e1e0       ??_7YearMonthDatatypeValidator@xercesc_2_2@@6B@ 121281e0     DatatypeValidatorFactory.obj
 0002:0002e234       ??_7DurationDatatypeValidator@xercesc_2_2@@6B@ 12128234     DatatypeValidatorFactory.obj
 0002:0002e288       ??_7?$RefVectorOf@VXMLNumber@xercesc_2_2@@@xercesc_2_2@@6B@ 12128288     DateTimeValidator.obj
 0002:0002e28c       ??_7?$BaseRefVectorOf@VXMLNumber@xercesc_2_2@@@xercesc_2_2@@6B@ 1212828c     DateTimeValidator.obj
 0002:0002e290       ??_7DTDAttDef@xercesc_2_2@@6B@ 12128290     DTDAttDef.obj
 0002:0002e2a4       ??_7DTDAttDefList@xercesc_2_2@@6B@ 121282a4     DTDAttDefList.obj
 0002:0002e2c8       ??_7?$RefHashTableOfEnumerator@VDTDAttDef@xercesc_2_2@@@xercesc_2_2@@6B@ 121282c8     DTDAttDefList.obj
 0002:0002e2d8       ??_7?$XMLEnumerator@VDTDAttDef@xercesc_2_2@@@xercesc_2_2@@6B@ 121282d8     DTDAttDefList.obj
 0002:0002e2e8       ??_7DTDElementDecl@xercesc_2_2@@6B@ 121282e8     DTDElementDecl.obj
 0002:0002e320       ??_7SimpleContentModel@xercesc_2_2@@6B@ 12128320     DTDElementDecl.obj
 0002:0002e348       ??_7DTDValidator@xercesc_2_2@@6B@ 12128348     DTDValidator.obj
 0002:0002e37c       ??_7XPathScanner@xercesc_2_2@@6B@ 1212837c     IC_Field.obj
 0002:0002e384       ??_7?$RefVectorOf@VXercesStep@xercesc_2_2@@@xercesc_2_2@@6B@ 12128384     IC_Field.obj
 0002:0002e388       ??_7?$BaseRefVectorOf@VXercesStep@xercesc_2_2@@@xercesc_2_2@@6B@ 12128388     IC_Field.obj
 0002:0002e38c       ??_7IC_Key@xercesc_2_2@@6B@ 1212838c     IC_Key.obj
 0002:0002e394       ??_7IC_KeyRef@xercesc_2_2@@6B@ 12128394     IC_KeyRef.obj
 0002:0002e39c       ??_7IC_Unique@xercesc_2_2@@6B@ 1212839c     IC_Unique.obj
 0002:0002e3a4       ??_7IdentityConstraint@xercesc_2_2@@6B@ 121283a4     IdentityConstraint.obj
 0002:0002e3ac       ??_7?$RefVectorOf@VFieldValueMap@xercesc_2_2@@@xercesc_2_2@@6B@ 121283ac     ValueStore.obj
 0002:0002e3b0       ??_7?$BaseRefVectorOf@VFieldValueMap@xercesc_2_2@@@xercesc_2_2@@6B@ 121283b0     ValueStore.obj
 0002:0002e3b4       ??_7?$BaseRefVectorOf@V?$RefHashTableOf@VValueStore@xercesc_2_2@@@xercesc_2_2@@@xercesc_2_2@@6B@ 121283b4     ValueStoreCache.obj
 0002:0002e3b8       ??_7?$RefVectorOf@V?$RefHashTableOf@VValueStore@xercesc_2_2@@@xercesc_2_2@@@xercesc_2_2@@6B@ 121283b8     ValueStoreCache.obj
 0002:0002e3bc       ??_7?$RefHashTableOfEnumerator@VValueStore@xercesc_2_2@@@xercesc_2_2@@6B@ 121283bc     ValueStoreCache.obj
 0002:0002e3cc       ??_7?$RefVectorOf@VValueStore@xercesc_2_2@@@xercesc_2_2@@6B@ 121283cc     ValueStoreCache.obj
 0002:0002e3d0       ??_7?$BaseRefVectorOf@VValueStore@xercesc_2_2@@@xercesc_2_2@@6B@ 121283d0     ValueStoreCache.obj
 0002:0002e3d4       ??_7?$XMLEnumerator@VValueStore@xercesc_2_2@@@xercesc_2_2@@6B@ 121283d4     ValueStoreCache.obj
 0002:0002e3e4       ?fASCIICharMap@XPathScanner@xercesc_2_2@@0QBEB 121283e4     XercesXPath.obj
 0002:0002e464       ??_7XPathException@xercesc_2_2@@6B@ 12128464     XercesXPath.obj
 0002:0002e470       ??_7?$RefVectorOf@VXercesLocationPath@xercesc_2_2@@@xercesc_2_2@@6B@ 12128470     XercesXPath.obj
 0002:0002e474       ??_7XPathScannerForSchema@xercesc_2_2@@6B@ 12128474     XercesXPath.obj
 0002:0002e47c       ??_7?$BaseRefVectorOf@VXercesLocationPath@xercesc_2_2@@@xercesc_2_2@@6B@ 1212847c     XercesXPath.obj
 0002:0002e480       ??_7?$RefVectorOf@V?$ValueStackOf@H@xercesc_2_2@@@xercesc_2_2@@6B@ 12128480     XPathMatcher.obj
 0002:0002e484       ??_7?$BaseRefVectorOf@V?$ValueStackOf@H@xercesc_2_2@@@xercesc_2_2@@6B@ 12128484     XPathMatcher.obj
 0002:0002e488       ??_7?$RefVectorOf@VXPathMatcher@xercesc_2_2@@@xercesc_2_2@@6B@ 12128488     XPathMatcherStack.obj
 0002:0002e48c       ??_7?$BaseRefVectorOf@VXPathMatcher@xercesc_2_2@@@xercesc_2_2@@6B@ 1212848c     XPathMatcherStack.obj
 0002:0002e490       ?fgSYMBOL_AND@XPathSymbols@xercesc_2_2@@2QBGB 12128490     XPathSymbols.obj
 0002:0002e498       ?fgSYMBOL_OR@XPathSymbols@xercesc_2_2@@2QBGB 12128498     XPathSymbols.obj
 0002:0002e4a0       ?fgSYMBOL_MOD@XPathSymbols@xercesc_2_2@@2QBGB 121284a0     XPathSymbols.obj
 0002:0002e4a8       ?fgSYMBOL_DIV@XPathSymbols@xercesc_2_2@@2QBGB 121284a8     XPathSymbols.obj
 0002:0002e4b0       ?fgSYMBOL_COMMENT@XPathSymbols@xercesc_2_2@@2QBGB 121284b0     XPathSymbols.obj
 0002:0002e4c0       ?fgSYMBOL_TEXT@XPathSymbols@xercesc_2_2@@2QBGB 121284c0     XPathSymbols.obj
 0002:0002e4cc       ?fgSYMBOL_PI@XPathSymbols@xercesc_2_2@@2QBGB 121284cc     XPathSymbols.obj
 0002:0002e4fc       ?fgSYMBOL_NODE@XPathSymbols@xercesc_2_2@@2QBGB 121284fc     XPathSymbols.obj
 0002:0002e508       ?fgSYMBOL_ANCESTOR@XPathSymbols@xercesc_2_2@@2QBGB 12128508     XPathSymbols.obj
 0002:0002e51c       ?fgSYMBOL_ANCESTOR_OR_SELF@XPathSymbols@xercesc_2_2@@2QBGB 1212851c     XPathSymbols.obj
 0002:0002e540       ?fgSYMBOL_ATTRIBUTE@XPathSymbols@xercesc_2_2@@2QBGB 12128540     XPathSymbols.obj
 0002:0002e554       ?fgSYMBOL_CHILD@XPathSymbols@xercesc_2_2@@2QBGB 12128554     XPathSymbols.obj
 0002:0002e560       ?fgSYMBOL_DESCENDANT@XPathSymbols@xercesc_2_2@@2QBGB 12128560     XPathSymbols.obj
 0002:0002e578       ?fgSYMBOL_DESCENDANT_OR_SELF@XPathSymbols@xercesc_2_2@@2QBGB 12128578     XPathSymbols.obj
 0002:0002e5a0       ?fgSYMBOL_FOLLOWING@XPathSymbols@xercesc_2_2@@2QBGB 121285a0     XPathSymbols.obj
 0002:0002e5b4       ?fgSYMBOL_FOLLOWING_SIBLING@XPathSymbols@xercesc_2_2@@2QBGB 121285b4     XPathSymbols.obj
 0002:0002e5d8       ?fgSYMBOL_NAMESPACE@XPathSymbols@xercesc_2_2@@2QBGB 121285d8     XPathSymbols.obj
 0002:0002e5ec       ?fgSYMBOL_PARENT@XPathSymbols@xercesc_2_2@@2QBGB 121285ec     XPathSymbols.obj
 0002:0002e5fc       ?fgSYMBOL_PRECEDING@XPathSymbols@xercesc_2_2@@2QBGB 121285fc     XPathSymbols.obj
 0002:0002e610       ?fgSYMBOL_PRECEDING_SIBLING@XPathSymbols@xercesc_2_2@@2QBGB 12128610     XPathSymbols.obj
 0002:0002e634       ?fgSYMBOL_SELF@XPathSymbols@xercesc_2_2@@2QBGB 12128634     XPathSymbols.obj
 0002:0002e640       ??_7SchemaAttDefList@xercesc_2_2@@6B@ 12128640     ComplexTypeInfo.obj
 0002:0002e664       ??_7?$RefVectorOf@VContentSpecNode@xercesc_2_2@@@xercesc_2_2@@6B@ 12128664     ComplexTypeInfo.obj
 0002:0002e668       ??_7?$BaseRefVectorOf@VContentSpecNode@xercesc_2_2@@@xercesc_2_2@@6B@ 12128668     ComplexTypeInfo.obj
 0002:0002e6a4       ??_7SchemaAttDef@xercesc_2_2@@6B@ 121286a4     SchemaAttDef.obj
 0002:0002e6b8       ??_7SchemaElementDecl@xercesc_2_2@@6B@ 121286b8     SchemaElementDecl.obj
 0002:0002e6f4       ??_7?$RefVectorOf@VSchemaAttDef@xercesc_2_2@@@xercesc_2_2@@6B@ 121286f4     SchemaGrammar.obj
 0002:0002e6f8       ??_7?$BaseRefVectorOf@VSchemaAttDef@xercesc_2_2@@@xercesc_2_2@@6B@ 121286f8     SchemaGrammar.obj
 0002:0002e6fc       ?fgURI_XSI@SchemaSymbols@xercesc_2_2@@2QBGB 121286fc     SchemaSymbols.obj
 0002:0002e750       ?fgURI_SCHEMAFORSCHEMA@SchemaSymbols@xercesc_2_2@@2QBGB 12128750     SchemaSymbols.obj
 0002:0002e794       ?fgXSI_SCHEMALOCACTION@SchemaSymbols@xercesc_2_2@@2QBGB 12128794     SchemaSymbols.obj
 0002:0002e7b4       ?fgXSI_NONAMESPACESCHEMALOCACTION@SchemaSymbols@xercesc_2_2@@2QBGB 121287b4     SchemaSymbols.obj
 0002:0002e7e8       ?fgXSI_TYPE@SchemaSymbols@xercesc_2_2@@2QBGB 121287e8     SchemaSymbols.obj
 0002:0002e7f4       ?fgELT_ALL@SchemaSymbols@xercesc_2_2@@2QBGB 121287f4     SchemaSymbols.obj
 0002:0002e7fc       ?fgELT_ANNOTATION@SchemaSymbols@xercesc_2_2@@2QBGB 121287fc     SchemaSymbols.obj
 0002:0002e814       ?fgELT_ANY@SchemaSymbols@xercesc_2_2@@2QBGB 12128814     SchemaSymbols.obj
 0002:0002e81c       ?fgELT_WILDCARD@SchemaSymbols@xercesc_2_2@@2QBGB 1212881c     SchemaSymbols.obj
 0002:0002e824       ?fgELT_ANYATTRIBUTE@SchemaSymbols@xercesc_2_2@@2QBGB 12128824     SchemaSymbols.obj
 0002:0002e840       ?fgELT_APPINFO@SchemaSymbols@xercesc_2_2@@2QBGB 12128840     SchemaSymbols.obj
 0002:0002e850       ?fgELT_ATTRIBUTE@SchemaSymbols@xercesc_2_2@@2QBGB 12128850     SchemaSymbols.obj
 0002:0002e864       ?fgELT_ATTRIBUTEGROUP@SchemaSymbols@xercesc_2_2@@2QBGB 12128864     SchemaSymbols.obj
 0002:0002e884       ?fgELT_CHOICE@SchemaSymbols@xercesc_2_2@@2QBGB 12128884     SchemaSymbols.obj
 0002:0002e894       ?fgELT_COMPLEXTYPE@SchemaSymbols@xercesc_2_2@@2QBGB 12128894     SchemaSymbols.obj
 0002:0002e8ac       ?fgELT_CONTENT@SchemaSymbols@xercesc_2_2@@2QBGB 121288ac     SchemaSymbols.obj
 0002:0002e8bc       ?fgELT_DOCUMENTATION@SchemaSymbols@xercesc_2_2@@2QBGB 121288bc     SchemaSymbols.obj
 0002:0002e8d8       ?fgELT_DURATION@SchemaSymbols@xercesc_2_2@@2QBGB 121288d8     SchemaSymbols.obj
 0002:0002e8ec       ?fgELT_ELEMENT@SchemaSymbols@xercesc_2_2@@2QBGB 121288ec     SchemaSymbols.obj
 0002:0002e8fc       ?fgELT_ENCODING@SchemaSymbols@xercesc_2_2@@2QBGB 121288fc     SchemaSymbols.obj
 0002:0002e910       ?fgELT_ENUMERATION@SchemaSymbols@xercesc_2_2@@2QBGB 12128910     SchemaSymbols.obj
 0002:0002e928       ?fgELT_FIELD@SchemaSymbols@xercesc_2_2@@2QBGB 12128928     SchemaSymbols.obj
 0002:0002e934       ?fgELT_WHITESPACE@SchemaSymbols@xercesc_2_2@@2QBGB 12128934     SchemaSymbols.obj
 0002:0002e94c       ?fgELT_GROUP@SchemaSymbols@xercesc_2_2@@2QBGB 1212894c     SchemaSymbols.obj
 0002:0002e958       ?fgELT_IMPORT@SchemaSymbols@xercesc_2_2@@2QBGB 12128958     SchemaSymbols.obj
 0002:0002e968       ?fgELT_INCLUDE@SchemaSymbols@xercesc_2_2@@2QBGB 12128968     SchemaSymbols.obj
 0002:0002e978       ?fgELT_REDEFINE@SchemaSymbols@xercesc_2_2@@2QBGB 12128978     SchemaSymbols.obj
 0002:0002e98c       ?fgELT_KEY@SchemaSymbols@xercesc_2_2@@2QBGB 1212898c     SchemaSymbols.obj
 0002:0002e994       ?fgELT_KEYREF@SchemaSymbols@xercesc_2_2@@2QBGB 12128994     SchemaSymbols.obj
 0002:0002e9a4       ?fgELT_LENGTH@SchemaSymbols@xercesc_2_2@@2QBGB 121289a4     SchemaSymbols.obj
 0002:0002e9b4       ?fgELT_MAXEXCLUSIVE@SchemaSymbols@xercesc_2_2@@2QBGB 121289b4     SchemaSymbols.obj
 0002:0002e9d0       ?fgELT_MAXINCLUSIVE@SchemaSymbols@xercesc_2_2@@2QBGB 121289d0     SchemaSymbols.obj
 0002:0002e9ec       ?fgELT_MAXLENGTH@SchemaSymbols@xercesc_2_2@@2QBGB 121289ec     SchemaSymbols.obj
 0002:0002ea00       ?fgELT_MINEXCLUSIVE@SchemaSymbols@xercesc_2_2@@2QBGB 12128a00     SchemaSymbols.obj
 0002:0002ea1c       ?fgELT_MININCLUSIVE@SchemaSymbols@xercesc_2_2@@2QBGB 12128a1c     SchemaSymbols.obj
 0002:0002ea38       ?fgELT_MINLENGTH@SchemaSymbols@xercesc_2_2@@2QBGB 12128a38     SchemaSymbols.obj
 0002:0002ea4c       ?fgELT_NOTATION@SchemaSymbols@xercesc_2_2@@2QBGB 12128a4c     SchemaSymbols.obj
 0002:0002ea60       ?fgELT_PATTERN@SchemaSymbols@xercesc_2_2@@2QBGB 12128a60     SchemaSymbols.obj
 0002:0002ea70       ?fgELT_PERIOD@SchemaSymbols@xercesc_2_2@@2QBGB 12128a70     SchemaSymbols.obj
 0002:0002ea80       ?fgELT_TOTALDIGITS@SchemaSymbols@xercesc_2_2@@2QBGB 12128a80     SchemaSymbols.obj
 0002:0002ea98       ?fgELT_FRACTIONDIGITS@SchemaSymbols@xercesc_2_2@@2QBGB 12128a98     SchemaSymbols.obj
 0002:0002eab8       ?fgELT_SCHEMA@SchemaSymbols@xercesc_2_2@@2QBGB 12128ab8     SchemaSymbols.obj
 0002:0002eac8       ?fgELT_SELECTOR@SchemaSymbols@xercesc_2_2@@2QBGB 12128ac8     SchemaSymbols.obj
 0002:0002eadc       ?fgELT_SEQUENCE@SchemaSymbols@xercesc_2_2@@2QBGB 12128adc     SchemaSymbols.obj
 0002:0002eaf0       ?fgELT_SIMPLETYPE@SchemaSymbols@xercesc_2_2@@2QBGB 12128af0     SchemaSymbols.obj
 0002:0002eb08       ?fgELT_UNION@SchemaSymbols@xercesc_2_2@@2QBGB 12128b08     SchemaSymbols.obj
 0002:0002eb14       ?fgELT_LIST@SchemaSymbols@xercesc_2_2@@2QBGB 12128b14     SchemaSymbols.obj
 0002:0002eb20       ?fgELT_UNIQUE@SchemaSymbols@xercesc_2_2@@2QBGB 12128b20     SchemaSymbols.obj
 0002:0002eb30       ?fgELT_COMPLEXCONTENT@SchemaSymbols@xercesc_2_2@@2QBGB 12128b30     SchemaSymbols.obj
 0002:0002eb50       ?fgELT_SIMPLECONTENT@SchemaSymbols@xercesc_2_2@@2QBGB 12128b50     SchemaSymbols.obj
 0002:0002eb6c       ?fgELT_RESTRICTION@SchemaSymbols@xercesc_2_2@@2QBGB 12128b6c     SchemaSymbols.obj
 0002:0002eb84       ?fgELT_EXTENSION@SchemaSymbols@xercesc_2_2@@2QBGB 12128b84     SchemaSymbols.obj
 0002:0002eb98       ?fgATT_ABSTRACT@SchemaSymbols@xercesc_2_2@@2QBGB 12128b98     SchemaSymbols.obj
 0002:0002ebac       ?fgATT_ATTRIBUTEFORMDEFAULT@SchemaSymbols@xercesc_2_2@@2QBGB 12128bac     SchemaSymbols.obj
 0002:0002ebd8       ?fgATT_BASE@SchemaSymbols@xercesc_2_2@@2QBGB 12128bd8     SchemaSymbols.obj
 0002:0002ebe4       ?fgATT_ITEMTYPE@SchemaSymbols@xercesc_2_2@@2QBGB 12128be4     SchemaSymbols.obj
 0002:0002ebf8       ?fgATT_MEMBERTYPES@SchemaSymbols@xercesc_2_2@@2QBGB 12128bf8     SchemaSymbols.obj
 0002:0002ec10       ?fgATT_BLOCK@SchemaSymbols@xercesc_2_2@@2QBGB 12128c10     SchemaSymbols.obj
 0002:0002ec1c       ?fgATT_BLOCKDEFAULT@SchemaSymbols@xercesc_2_2@@2QBGB 12128c1c     SchemaSymbols.obj
 0002:0002ec38       ?fgATT_DEFAULT@SchemaSymbols@xercesc_2_2@@2QBGB 12128c38     SchemaSymbols.obj
 0002:0002ec48       ?fgATT_ELEMENTFORMDEFAULT@SchemaSymbols@xercesc_2_2@@2QBGB 12128c48     SchemaSymbols.obj
 0002:0002ec70       ?fgATT_SUBSTITUTIONGROUP@SchemaSymbols@xercesc_2_2@@2QBGB 12128c70     SchemaSymbols.obj
 0002:0002ec94       ?fgATT_FINAL@SchemaSymbols@xercesc_2_2@@2QBGB 12128c94     SchemaSymbols.obj
 0002:0002eca0       ?fgATT_FINALDEFAULT@SchemaSymbols@xercesc_2_2@@2QBGB 12128ca0     SchemaSymbols.obj
 0002:0002ecbc       ?fgATT_FIXED@SchemaSymbols@xercesc_2_2@@2QBGB 12128cbc     SchemaSymbols.obj
 0002:0002ecc8       ?fgATT_FORM@SchemaSymbols@xercesc_2_2@@2QBGB 12128cc8     SchemaSymbols.obj
 0002:0002ecd4       ?fgATT_ID@SchemaSymbols@xercesc_2_2@@2QBGB 12128cd4     SchemaSymbols.obj
 0002:0002ecdc       ?fgATT_MAXOCCURS@SchemaSymbols@xercesc_2_2@@2QBGB 12128cdc     SchemaSymbols.obj
 0002:0002ecf0       ?fgATT_MINOCCURS@SchemaSymbols@xercesc_2_2@@2QBGB 12128cf0     SchemaSymbols.obj
 0002:0002ed04       ?fgATT_NAME@SchemaSymbols@xercesc_2_2@@2QBGB 12128d04     SchemaSymbols.obj
 0002:0002ed10       ?fgATT_NAMESPACE@SchemaSymbols@xercesc_2_2@@2QBGB 12128d10     SchemaSymbols.obj
 0002:0002ed24       ?fgATT_NILL@SchemaSymbols@xercesc_2_2@@2QBGB 12128d24     SchemaSymbols.obj
 0002:0002ed2c       ?fgATT_NILLABLE@SchemaSymbols@xercesc_2_2@@2QBGB 12128d2c     SchemaSymbols.obj
 0002:0002ed40       ?fgATT_PROCESSCONTENTS@SchemaSymbols@xercesc_2_2@@2QBGB 12128d40     SchemaSymbols.obj
 0002:0002ed60       ?fgATT_REF@SchemaSymbols@xercesc_2_2@@2QBGB 12128d60     SchemaSymbols.obj
 0002:0002ed68       ?fgATT_REFER@SchemaSymbols@xercesc_2_2@@2QBGB 12128d68     SchemaSymbols.obj
 0002:0002ed74       ?fgATT_SCHEMALOCATION@SchemaSymbols@xercesc_2_2@@2QBGB 12128d74     SchemaSymbols.obj
 0002:0002ed94       ?fgATT_SOURCE@SchemaSymbols@xercesc_2_2@@2QBGB 12128d94     SchemaSymbols.obj
 0002:0002eda4       ?fgATT_SYSTEM@SchemaSymbols@xercesc_2_2@@2QBGB 12128da4     SchemaSymbols.obj
 0002:0002edb4       ?fgATT_PUBLIC@SchemaSymbols@xercesc_2_2@@2QBGB 12128db4     SchemaSymbols.obj
 0002:0002edc4       ?fgATT_TARGETNAMESPACE@SchemaSymbols@xercesc_2_2@@2QBGB 12128dc4     SchemaSymbols.obj
 0002:0002ede4       ?fgATT_TYPE@SchemaSymbols@xercesc_2_2@@2QBGB 12128de4     SchemaSymbols.obj
 0002:0002edf0       ?fgATT_USE@SchemaSymbols@xercesc_2_2@@2QBGB 12128df0     SchemaSymbols.obj
 0002:0002edf8       ?fgATT_VALUE@SchemaSymbols@xercesc_2_2@@2QBGB 12128df8     SchemaSymbols.obj
 0002:0002ee04       ?fgATT_MIXED@SchemaSymbols@xercesc_2_2@@2QBGB 12128e04     SchemaSymbols.obj
 0002:0002ee10       ?fgATT_VERSION@SchemaSymbols@xercesc_2_2@@2QBGB 12128e10     SchemaSymbols.obj
 0002:0002ee20       ?fgATT_XPATH@SchemaSymbols@xercesc_2_2@@2QBGB 12128e20     SchemaSymbols.obj
 0002:0002ee2c       ?fgATTVAL_TWOPOUNDANY@SchemaSymbols@xercesc_2_2@@2QBGB 12128e2c     SchemaSymbols.obj
 0002:0002ee38       ?fgATTVAL_TWOPOUNDLOCAL@SchemaSymbols@xercesc_2_2@@2QBGB 12128e38     SchemaSymbols.obj
 0002:0002ee48       ?fgATTVAL_TWOPOUNDOTHER@SchemaSymbols@xercesc_2_2@@2QBGB 12128e48     SchemaSymbols.obj
 0002:0002ee58       ?fgATTVAL_TWOPOUNDTRAGETNAMESPACE@SchemaSymbols@xercesc_2_2@@2QBGB 12128e58     SchemaSymbols.obj
 0002:0002ee7c       ?fgATTVAL_POUNDALL@SchemaSymbols@xercesc_2_2@@2QBGB 12128e7c     SchemaSymbols.obj
 0002:0002ee88       ?fgATTVAL_BASE64@SchemaSymbols@xercesc_2_2@@2QBGB 12128e88     SchemaSymbols.obj
 0002:0002ee98       ?fgATTVAL_BOOLEAN@SchemaSymbols@xercesc_2_2@@2QBGB 12128e98     SchemaSymbols.obj
 0002:0002eea8       ?fgATTVAL_DEFAULT@SchemaSymbols@xercesc_2_2@@2QBGB 12128ea8     SchemaSymbols.obj
 0002:0002eeb8       ?fgATTVAL_ELEMENTONLY@SchemaSymbols@xercesc_2_2@@2QBGB 12128eb8     SchemaSymbols.obj
 0002:0002eed0       ?fgATTVAL_EMPTY@SchemaSymbols@xercesc_2_2@@2QBGB 12128ed0     SchemaSymbols.obj
 0002:0002eedc       ?fgATTVAL_EXTENSION@SchemaSymbols@xercesc_2_2@@2QBGB 12128edc     SchemaSymbols.obj
 0002:0002eef0       ?fgATTVAL_FALSE@SchemaSymbols@xercesc_2_2@@2QBGB 12128ef0     SchemaSymbols.obj
 0002:0002eefc       ?fgATTVAL_FIXED@SchemaSymbols@xercesc_2_2@@2QBGB 12128efc     SchemaSymbols.obj
 0002:0002ef08       ?fgATTVAL_HEX@SchemaSymbols@xercesc_2_2@@2QBGB 12128f08     SchemaSymbols.obj
 0002:0002ef10       ?fgATTVAL_ID@SchemaSymbols@xercesc_2_2@@2QBGB 12128f10     SchemaSymbols.obj
 0002:0002ef18       ?fgATTVAL_LAX@SchemaSymbols@xercesc_2_2@@2QBGB 12128f18     SchemaSymbols.obj
 0002:0002ef20       ?fgATTVAL_MAXLENGTH@SchemaSymbols@xercesc_2_2@@2QBGB 12128f20     SchemaSymbols.obj
 0002:0002ef34       ?fgATTVAL_MINLENGTH@SchemaSymbols@xercesc_2_2@@2QBGB 12128f34     SchemaSymbols.obj
 0002:0002ef48       ?fgATTVAL_MIXED@SchemaSymbols@xercesc_2_2@@2QBGB 12128f48     SchemaSymbols.obj
 0002:0002ef54       ?fgATTVAL_NCNAME@SchemaSymbols@xercesc_2_2@@2QBGB 12128f54     SchemaSymbols.obj
 0002:0002ef64       ?fgATTVAL_OPTIONAL@SchemaSymbols@xercesc_2_2@@2QBGB 12128f64     SchemaSymbols.obj
 0002:0002ef78       ?fgATTVAL_PROHIBITED@SchemaSymbols@xercesc_2_2@@2QBGB 12128f78     SchemaSymbols.obj
 0002:0002ef90       ?fgATTVAL_QNAME@SchemaSymbols@xercesc_2_2@@2QBGB 12128f90     SchemaSymbols.obj
 0002:0002ef9c       ?fgATTVAL_QUALIFIED@SchemaSymbols@xercesc_2_2@@2QBGB 12128f9c     SchemaSymbols.obj
 0002:0002efb0       ?fgATTVAL_REQUIRED@SchemaSymbols@xercesc_2_2@@2QBGB 12128fb0     SchemaSymbols.obj
 0002:0002efc4       ?fgATTVAL_RESTRICTION@SchemaSymbols@xercesc_2_2@@2QBGB 12128fc4     SchemaSymbols.obj
 0002:0002efdc       ?fgATTVAL_SKIP@SchemaSymbols@xercesc_2_2@@2QBGB 12128fdc     SchemaSymbols.obj
 0002:0002efe8       ?fgATTVAL_STRICT@SchemaSymbols@xercesc_2_2@@2QBGB 12128fe8     SchemaSymbols.obj
 0002:0002eff8       ?fgATTVAL_STRING@SchemaSymbols@xercesc_2_2@@2QBGB 12128ff8     SchemaSymbols.obj
 0002:0002f008       ?fgATTVAL_TEXTONLY@SchemaSymbols@xercesc_2_2@@2QBGB 12129008     SchemaSymbols.obj
 0002:0002f01c       ?fgATTVAL_TIMEDURATION@SchemaSymbols@xercesc_2_2@@2QBGB 1212901c     SchemaSymbols.obj
 0002:0002f038       ?fgATTVAL_TRUE@SchemaSymbols@xercesc_2_2@@2QBGB 12129038     SchemaSymbols.obj
 0002:0002f044       ?fgATTVAL_UNQUALIFIED@SchemaSymbols@xercesc_2_2@@2QBGB 12129044     SchemaSymbols.obj
 0002:0002f05c       ?fgATTVAL_URI@SchemaSymbols@xercesc_2_2@@2QBGB 1212905c     SchemaSymbols.obj
 0002:0002f064       ?fgATTVAL_URIREFERENCE@SchemaSymbols@xercesc_2_2@@2QBGB 12129064     SchemaSymbols.obj
 0002:0002f080       ?fgATTVAL_SUBSTITUTIONGROUP@SchemaSymbols@xercesc_2_2@@2QBGB 12129080     SchemaSymbols.obj
 0002:0002f0a4       ?fgATTVAL_SUBSTITUTION@SchemaSymbols@xercesc_2_2@@2QBGB 121290a4     SchemaSymbols.obj
 0002:0002f0c0       ?fgATTVAL_ANYTYPE@SchemaSymbols@xercesc_2_2@@2QBGB 121290c0     SchemaSymbols.obj
 0002:0002f0d0       ?fgWS_PRESERVE@SchemaSymbols@xercesc_2_2@@2QBGB 121290d0     SchemaSymbols.obj
 0002:0002f0e4       ?fgWS_COLLAPSE@SchemaSymbols@xercesc_2_2@@2QBGB 121290e4     SchemaSymbols.obj
 0002:0002f0f8       ?fgWS_REPLACE@SchemaSymbols@xercesc_2_2@@2QBGB 121290f8     SchemaSymbols.obj
 0002:0002f108       ?fgDT_STRING@SchemaSymbols@xercesc_2_2@@2QBGB 12129108     SchemaSymbols.obj
 0002:0002f118       ?fgDT_TOKEN@SchemaSymbols@xercesc_2_2@@2QBGB 12129118     SchemaSymbols.obj
 0002:0002f124       ?fgDT_LANGUAGE@SchemaSymbols@xercesc_2_2@@2QBGB 12129124     SchemaSymbols.obj
 0002:0002f138       ?fgDT_NAME@SchemaSymbols@xercesc_2_2@@2QBGB 12129138     SchemaSymbols.obj
 0002:0002f144       ?fgDT_NCNAME@SchemaSymbols@xercesc_2_2@@2QBGB 12129144     SchemaSymbols.obj
 0002:0002f154       ?fgDT_INTEGER@SchemaSymbols@xercesc_2_2@@2QBGB 12129154     SchemaSymbols.obj
 0002:0002f164       ?fgDT_DECIMAL@SchemaSymbols@xercesc_2_2@@2QBGB 12129164     SchemaSymbols.obj
 0002:0002f174       ?fgDT_BOOLEAN@SchemaSymbols@xercesc_2_2@@2QBGB 12129174     SchemaSymbols.obj
 0002:0002f184       ?fgDT_NONPOSITIVEINTEGER@SchemaSymbols@xercesc_2_2@@2QBGB 12129184     SchemaSymbols.obj
 0002:0002f1ac       ?fgDT_NEGATIVEINTEGER@SchemaSymbols@xercesc_2_2@@2QBGB 121291ac     SchemaSymbols.obj
 0002:0002f1cc       ?fgDT_LONG@SchemaSymbols@xercesc_2_2@@2QBGB 121291cc     SchemaSymbols.obj
 0002:0002f1d8       ?fgDT_INT@SchemaSymbols@xercesc_2_2@@2QBGB 121291d8     SchemaSymbols.obj
 0002:0002f1e0       ?fgDT_SHORT@SchemaSymbols@xercesc_2_2@@2QBGB 121291e0     SchemaSymbols.obj
 0002:0002f1ec       ?fgDT_BYTE@SchemaSymbols@xercesc_2_2@@2QBGB 121291ec     SchemaSymbols.obj
 0002:0002f1f8       ?fgDT_NONNEGATIVEINTEGER@SchemaSymbols@xercesc_2_2@@2QBGB 121291f8     SchemaSymbols.obj
 0002:0002f220       ?fgDT_ULONG@SchemaSymbols@xercesc_2_2@@2QBGB 12129220     SchemaSymbols.obj
 0002:0002f23c       ?fgDT_UINT@SchemaSymbols@xercesc_2_2@@2QBGB 1212923c     SchemaSymbols.obj
 0002:0002f254       ?fgDT_USHORT@SchemaSymbols@xercesc_2_2@@2QBGB 12129254     SchemaSymbols.obj
 0002:0002f270       ?fgDT_UBYTE@SchemaSymbols@xercesc_2_2@@2QBGB 12129270     SchemaSymbols.obj
 0002:0002f28c       ?fgDT_POSITIVEINTEGER@SchemaSymbols@xercesc_2_2@@2QBGB 1212928c     SchemaSymbols.obj
 0002:0002f2ac       ?fgDT_DATETIME@SchemaSymbols@xercesc_2_2@@2QBGB 121292ac     SchemaSymbols.obj
 0002:0002f2c0       ?fgDT_DATE@SchemaSymbols@xercesc_2_2@@2QBGB 121292c0     SchemaSymbols.obj
 0002:0002f2cc       ?fgDT_TIME@SchemaSymbols@xercesc_2_2@@2QBGB 121292cc     SchemaSymbols.obj
 0002:0002f2d8       ?fgDT_DURATION@SchemaSymbols@xercesc_2_2@@2QBGB 121292d8     SchemaSymbols.obj
 0002:0002f2ec       ?fgDT_DAY@SchemaSymbols@xercesc_2_2@@2QBGB 121292ec     SchemaSymbols.obj
 0002:0002f2f8       ?fgDT_MONTH@SchemaSymbols@xercesc_2_2@@2QBGB 121292f8     SchemaSymbols.obj
 0002:0002f308       ?fgDT_MONTHDAY@SchemaSymbols@xercesc_2_2@@2QBGB 12129308     SchemaSymbols.obj
 0002:0002f31c       ?fgDT_YEAR@SchemaSymbols@xercesc_2_2@@2QBGB 1212931c     SchemaSymbols.obj
 0002:0002f328       ?fgDT_YEARMONTH@SchemaSymbols@xercesc_2_2@@2QBGB 12129328     SchemaSymbols.obj
 0002:0002f340       ?fgDT_BASE64BINARY@SchemaSymbols@xercesc_2_2@@2QBGB 12129340     SchemaSymbols.obj
 0002:0002f35c       ?fgDT_HEXBINARY@SchemaSymbols@xercesc_2_2@@2QBGB 1212935c     SchemaSymbols.obj
 0002:0002f370       ?fgDT_FLOAT@SchemaSymbols@xercesc_2_2@@2QBGB 12129370     SchemaSymbols.obj
 0002:0002f37c       ?fgDT_DOUBLE@SchemaSymbols@xercesc_2_2@@2QBGB 1212937c     SchemaSymbols.obj
 0002:0002f38c       ?fgDT_URIREFERENCE@SchemaSymbols@xercesc_2_2@@2QBGB 1212938c     SchemaSymbols.obj
 0002:0002f3a8       ?fgDT_ANYURI@SchemaSymbols@xercesc_2_2@@2QBGB 121293a8     SchemaSymbols.obj
 0002:0002f3b8       ?fgDT_QNAME@SchemaSymbols@xercesc_2_2@@2QBGB 121293b8     SchemaSymbols.obj
 0002:0002f3c4       ?fgDT_NORMALIZEDSTRING@SchemaSymbols@xercesc_2_2@@2QBGB 121293c4     SchemaSymbols.obj
 0002:0002f3e8       ?fgDT_ANYSIMPLETYPE@SchemaSymbols@xercesc_2_2@@2QBGB 121293e8     SchemaSymbols.obj
 0002:0002f404       ?fgRegEx_XOption@SchemaSymbols@xercesc_2_2@@2QBGB 12129404     SchemaSymbols.obj
 0002:0002f408       ?fgRedefIdentifier@SchemaSymbols@xercesc_2_2@@2QBGB 12129408     SchemaSymbols.obj
 0002:0002f414       ?fgINT_MIN_VALUE@SchemaSymbols@xercesc_2_2@@2HB 12129414     SchemaSymbols.obj
 0002:0002f418       ?fgINT_MAX_VALUE@SchemaSymbols@xercesc_2_2@@2HB 12129418     SchemaSymbols.obj
 0002:0002f41c       ??_7SchemaValidator@xercesc_2_2@@6B@ 1212941c     SchemaValidator.obj
 0002:0002f450       ??_7?$XMLEnumerator@VComplexTypeInfo@xercesc_2_2@@@xercesc_2_2@@6B@ 12129450     SchemaValidator.obj
 0002:0002f460       ??_7?$XMLEnumerator@VXercesGroupInfo@xercesc_2_2@@@xercesc_2_2@@6B@ 12129460     SchemaValidator.obj
 0002:0002f470       ??_7?$RefHashTableOfEnumerator@VXercesGroupInfo@xercesc_2_2@@@xercesc_2_2@@6B@ 12129470     SchemaValidator.obj
 0002:0002f480       ??_7?$RefHashTableOfEnumerator@VComplexTypeInfo@xercesc_2_2@@@xercesc_2_2@@6B@ 12129480     SchemaValidator.obj
 0002:0002f4f8       ??_7?$RefVectorOf@VDatatypeValidator@xercesc_2_2@@@xercesc_2_2@@6B@ 121294f8     TraverseSchema.obj
 0002:0002f4fc       ??_7?$BaseRefVectorOf@VDatatypeValidator@xercesc_2_2@@@xercesc_2_2@@6B@ 121294fc     TraverseSchema.obj
 0002:0002f500       ??_7XSDDOMParser@xercesc_2_2@@6BDocTypeHandler@1@@ 12129500     XSDDOMParser.obj
 0002:0002f544       ??_7XSDDOMParser@xercesc_2_2@@6BXMLEntityHandler@1@@ 12129544     XSDDOMParser.obj
 0002:0002f55c       ??_7XSDDOMParser@xercesc_2_2@@6BXMLErrorReporter@1@@ 1212955c     XSDDOMParser.obj
 0002:0002f568       ??_7XSDDOMParser@xercesc_2_2@@6BXMLDocumentHandler@1@@ 12129568     XSDDOMParser.obj
 0002:0002f5a0       ??_7XSDLocator@xercesc_2_2@@6B@ 121295a0     XSDLocator.obj
 0002:0002f5b4       ??_7DefaultHandler@xercesc_2_2@@6BDeclHandler@1@@ 121295b4     sax2Dummy.obj
 0002:0002f5c8       ??_7DefaultHandler@xercesc_2_2@@6BLexicalHandler@1@@ 121295c8     sax2Dummy.obj
 0002:0002f5e8       ??_7DefaultHandler@xercesc_2_2@@6BErrorHandler@1@@ 121295e8     sax2Dummy.obj
 0002:0002f5fc       ??_7DefaultHandler@xercesc_2_2@@6BContentHandler@1@@ 121295fc     sax2Dummy.obj
 0002:0002f62c       ??_7DefaultHandler@xercesc_2_2@@6BDTDHandler@1@@ 1212962c     sax2Dummy.obj
 0002:0002f63c       ??_7DefaultHandler@xercesc_2_2@@6BEntityResolver@1@@ 1212963c     sax2Dummy.obj
 0002:0002f648       ??_7DOMTypeInfoImpl@xercesc_2_2@@6B@ 12129648     DOMAttrImpl.obj
 0002:0002f654       ??_7DOMAttrImpl@xercesc_2_2@@6B@ 12129654     DOMAttrImpl.obj
 0002:0002f720       ??_7DOMAttrNSImpl@xercesc_2_2@@6B@ 12129720     DOMAttrNSImpl.obj
 0002:0002f80c       ??_7DOMRange@xercesc_2_2@@6B@ 1212980c     DOMCDATASectionImpl.obj
 0002:0002f874       ??_7DOMCDATASectionImpl@xercesc_2_2@@6B@ 12129874     DOMCDATASectionImpl.obj
 0002:0002f958       ??_7DOMCommentImpl@xercesc_2_2@@6B@ 12129958     DOMCommentImpl.obj
 0002:0002fa18       ??_7DOMDeepNodeListImpl@xercesc_2_2@@6B@ 12129a18     DOMDeepNodeListImpl.obj
 0002:0002fa4c       ??_7DOMDocumentFragment@xercesc_2_2@@6B@ 12129a4c     DOMDocumentFragmentImpl.obj
 0002:0002fae8       ??_7DOMDocumentFragmentImpl@xercesc_2_2@@6B@ 12129ae8     DOMDocumentFragmentImpl.obj
 0002:0002fb98       ??_7DOMNodeFilter@xercesc_2_2@@6B@ 12129b98     DOMDocumentImpl.obj
 0002:0002fba0       ??_7DOMTreeWalker@xercesc_2_2@@6B@ 12129ba0     DOMDocumentImpl.obj
 0002:0002fbdc       ??_7DOMNodeIterator@xercesc_2_2@@6B@ 12129bdc     DOMDocumentImpl.obj
 0002:0002fc00       ??_7?$RefVectorOf@VDOMNodeIteratorImpl@xercesc_2_2@@@xercesc_2_2@@6B@ 12129c00     DOMDocumentImpl.obj
 0002:0002fc04       ??_7?$BaseRefVectorOf@VDOMNodeIteratorImpl@xercesc_2_2@@@xercesc_2_2@@6B@ 12129c04     DOMDocumentImpl.obj
 0002:0002fc08       ??_7?$RefVectorOf@VDOMRangeImpl@xercesc_2_2@@@xercesc_2_2@@6B@ 12129c08     DOMDocumentImpl.obj
 0002:0002fc0c       ??_7?$BaseRefVectorOf@VDOMRangeImpl@xercesc_2_2@@@xercesc_2_2@@6B@ 12129c0c     DOMDocumentImpl.obj
 0002:0002fc10       ??_7?$RefHashTableOfEnumerator@V?$KeyRefPair@XVDOMUserDataHandler@xercesc_2_2@@@xercesc_2_2@@@xercesc_2_2@@6B@ 12129c10     DOMDocumentImpl.obj
 0002:0002fc20       ??_7?$RefVectorOf@VDOMNode@xercesc_2_2@@@xercesc_2_2@@6B@ 12129c20     DOMDocumentImpl.obj
 0002:0002fc24       ??_7?$RefVectorOf@VDOMBuffer@xercesc_2_2@@@xercesc_2_2@@6B@ 12129c24     DOMDocumentImpl.obj
 0002:0002fc28       ??_7?$BaseRefVectorOf@VDOMBuffer@xercesc_2_2@@@xercesc_2_2@@6B@ 12129c28     DOMDocumentImpl.obj
 0002:0002fc2c       ??_7?$XMLEnumerator@V?$KeyRefPair@XVDOMUserDataHandler@xercesc_2_2@@@xercesc_2_2@@@xercesc_2_2@@6B@ 12129c2c     DOMDocumentImpl.obj
 0002:0002fc3c       ??_7?$BaseRefVectorOf@VDOMNode@xercesc_2_2@@@xercesc_2_2@@6B@ 12129c3c     DOMDocumentImpl.obj
 0002:0002fc44       ??_7DOMElementImpl@xercesc_2_2@@6B@ 12129c44     DOMElementImpl.obj
 0002:0002fd4c       ??_7DOMElementNSImpl@xercesc_2_2@@6B@ 12129d4c     DOMElementNSImpl.obj
 0002:0002fe54       ??_7DOMEntityImpl@xercesc_2_2@@6B@ 12129e54     DOMEntityImpl.obj
 0002:0002ff2c       ??_7DOMEntityReferenceImpl@xercesc_2_2@@6B@ 12129f2c     DOMEntityReferenceImpl.obj
 0002:0002ffcc       ??_7DOMErrorImpl@xercesc_2_2@@6B@ 12129fcc     DOMErrorImpl.obj
 0002:00030044       ??_7DOMImplementationSource@xercesc_2_2@@6B@ 1212a044     DOMImplementationImpl.obj
 0002:0003004c       ??_7DOMWriterFilter@xercesc_2_2@@6B@ 1212a04c     DOMImplementationImpl.obj
 0002:0003005c       ??_7DOMWriter@xercesc_2_2@@6B@ 1212a05c     DOMImplementationImpl.obj
 0002:00030098       ??_7DOMImplementationImpl@xercesc_2_2@@6BDOMImplementationSource@1@@ 1212a098     DOMImplementationImpl.obj
 0002:000300a0       ??_7DOMImplementationImpl@xercesc_2_2@@6BDOMImplementation@1@@ 1212a0a0     DOMImplementationImpl.obj
 0002:000300c4       ??_7?$RefVectorOf@VDOMImplementationSource@xercesc_2_2@@@xercesc_2_2@@6B@ 1212a0c4     DOMImplementationRegistry.obj
 0002:000300c8       ??_7?$BaseRefVectorOf@VDOMImplementationSource@xercesc_2_2@@@xercesc_2_2@@6B@ 1212a0c8     DOMImplementationRegistry.obj
 0002:000300cc       ??_7DOMLocatorImpl@xercesc_2_2@@6B@ 1212a0cc     DOMLocatorImpl.obj
 0002:00030110       ??_7DOMNodeIDMap@xercesc_2_2@@6B@ 1212a110     DOMNodeIDMap.obj
 0002:00030114       ?READONLY@DOMNodeImpl@xercesc_2_2@@2GB 1212a114     DOMNodeImpl.obj
 0002:00030116       ?SYNCDATA@DOMNodeImpl@xercesc_2_2@@2GB 1212a116     DOMNodeImpl.obj
 0002:00030118       ?SYNCCHILDREN@DOMNodeImpl@xercesc_2_2@@2GB 1212a118     DOMNodeImpl.obj
 0002:0003011a       ?OWNED@DOMNodeImpl@xercesc_2_2@@2GB 1212a11a     DOMNodeImpl.obj
 0002:0003011c       ?FIRSTCHILD@DOMNodeImpl@xercesc_2_2@@2GB 1212a11c     DOMNodeImpl.obj
 0002:0003011e       ?SPECIFIED@DOMNodeImpl@xercesc_2_2@@2GB 1212a11e     DOMNodeImpl.obj
 0002:00030120       ?IGNORABLEWS@DOMNodeImpl@xercesc_2_2@@2GB 1212a120     DOMNodeImpl.obj
 0002:00030122       ?SETVALUE@DOMNodeImpl@xercesc_2_2@@2GB 1212a122     DOMNodeImpl.obj
 0002:00030124       ?ID_ATTR@DOMNodeImpl@xercesc_2_2@@2GB 1212a124     DOMNodeImpl.obj
 0002:00030126       ?USERDATA@DOMNodeImpl@xercesc_2_2@@2GB 1212a126     DOMNodeImpl.obj
 0002:00030128       ?LEAFNODETYPE@DOMNodeImpl@xercesc_2_2@@2GB 1212a128     DOMNodeImpl.obj
 0002:0003012a       ?CHILDNODE@DOMNodeImpl@xercesc_2_2@@2GB 1212a12a     DOMNodeImpl.obj
 0002:0003012c       ?TOBERELEASED@DOMNodeImpl@xercesc_2_2@@2GB 1212a12c     DOMNodeImpl.obj
 0002:00030268       ??_7DOMNodeIteratorImpl@xercesc_2_2@@6B@ 1212a268     DOMNodeIteratorImpl.obj
 0002:0003028c       ??_7DOMNodeListImpl@xercesc_2_2@@6B@ 1212a28c     DOMNodeListImpl.obj
 0002:00030298       ??_7DOMNotationImpl@xercesc_2_2@@6B@ 1212a298     DOMNotationImpl.obj
 0002:00030348       ??_7DOMProcessingInstructionImpl@xercesc_2_2@@6B@ 1212a348     DOMProcessingInstructionImpl.obj
 0002:000303f4       ??_7DOMRangeImpl@xercesc_2_2@@6B@ 1212a3f4     DOMRangeImpl.obj
 0002:00030468       ??_7DOMTextImpl@xercesc_2_2@@6B@ 1212a468     DOMTextImpl.obj
 0002:0003053c       ??_7DOMTreeWalkerImpl@xercesc_2_2@@6B@ 1212a53c     DOMTreeWalkerImpl.obj
 0002:00030718       ??_7DOMWriterImpl@xercesc_2_2@@6B@ 1212a718     DOMWriterImpl.obj
 0002:00030754       ??_7XSDElementNSImpl@xercesc_2_2@@6B@ 1212a754     XSDElementNSImpl.obj
 0002:0003085c       ??_7RefCountedImpl@xercesc_2_2@@6B@ 1212a85c     AttrImpl.obj
 0002:00030868       ??_7NodeListImpl@xercesc_2_2@@6B@ 1212a868     AttrImpl.obj
 0002:0003087c       ??_7DocumentImpl@xercesc_2_2@@6B@ 1212a87c     AttrImpl.obj
 0002:000309a0       ??_7NamedNodeMapImpl@xercesc_2_2@@6B@ 1212a9a0     AttrImpl.obj
 0002:000309e0       ??_7AttrMapImpl@xercesc_2_2@@6B@ 1212a9e0     AttrImpl.obj
 0002:00030a2c       ??_7AttrImpl@xercesc_2_2@@6B@ 1212aa2c     AttrImpl.obj
 0002:00030af8       ??_7AttrNSImpl@xercesc_2_2@@6B@ 1212aaf8     AttrNSImpl.obj
 0002:00030bc4       ??_7CDATASectionImpl@xercesc_2_2@@6B@ 1212abc4     CDATASectionImpl.obj
 0002:00030ca8       ??_7CharacterDataImpl@xercesc_2_2@@6B@ 1212aca8     CharacterDataImpl.obj
 0002:00030d80       ??_7ChildNode@xercesc_2_2@@6B@ 1212ad80     ChildNode.obj
 0002:00030e38       ??_7CommentImpl@xercesc_2_2@@6B@ 1212ae38     CommentImpl.obj
 0002:00030f10       ??_7DeepNodeListImpl@xercesc_2_2@@6B@ 1212af10     DeepNodeListImpl.obj
 0002:00030f28       ??_7DocumentFragmentImpl@xercesc_2_2@@6B@ 1212af28     DocumentFragmentImpl.obj
 0002:00030fe0       ??_7?$RefVectorOf@VNodeIteratorImpl@xercesc_2_2@@@xercesc_2_2@@6B@ 1212afe0     DocumentImpl.obj
 0002:00030fe4       ??_7?$BaseRefVectorOf@VNodeIteratorImpl@xercesc_2_2@@@xercesc_2_2@@6B@ 1212afe4     DocumentImpl.obj
 0002:00030fe8       ??_7?$RefVectorOf@VTreeWalkerImpl@xercesc_2_2@@@xercesc_2_2@@6B@ 1212afe8     DocumentImpl.obj
 0002:00030fec       ??_7?$BaseRefVectorOf@VTreeWalkerImpl@xercesc_2_2@@@xercesc_2_2@@6B@ 1212afec     DocumentImpl.obj
 0002:00030ff0       ??_7?$RefVectorOf@VRangeImpl@xercesc_2_2@@@xercesc_2_2@@6B@ 1212aff0     DocumentImpl.obj
 0002:00030ff4       ??_7?$BaseRefVectorOf@VRangeImpl@xercesc_2_2@@@xercesc_2_2@@6B@ 1212aff4     DocumentImpl.obj
 0002:00030ff8       ??_7DocumentTypeImpl@xercesc_2_2@@6B@ 1212aff8     DocumentTypeImpl.obj
 0002:000310d8       ??_7DOM_DOMException@xercesc_2_2@@6B@ 1212b0d8     DOM_DOMException.obj
 0002:000310dc       ?NNM_ELEMENT@DOM_NamedNodeMap@xercesc_2_2@@0GB 1212b0dc     DOM_NamedNodeMap.obj
 0002:000310de       ?NNM_OTHER@DOM_NamedNodeMap@xercesc_2_2@@0GB 1212b0de     DOM_NamedNodeMap.obj
 0002:000310e0       ??_7DOM_NodeFilter@xercesc_2_2@@6B@ 1212b0e0     DOM_NodeFilter.obj
 0002:000310e8       ??_7DOM_RangeException@xercesc_2_2@@6B@ 1212b0e8     DOM_RangeException.obj
 0002:00031104       ??_7DOMParser@xercesc_2_2@@6BDocTypeHandler@1@@ 1212b104     DOMParser.obj
 0002:00031148       ??_7DOMParser@xercesc_2_2@@6BXMLEntityHandler@1@@ 1212b148     DOMParser.obj
 0002:00031160       ??_7DOMParser@xercesc_2_2@@6BXMLErrorReporter@1@@ 1212b160     DOMParser.obj
 0002:0003116c       ??_7DOMParser@xercesc_2_2@@6BXMLDocumentHandler@1@@ 1212b16c     DOMParser.obj
 0002:000311a0       ??_7ElementDefinitionImpl@xercesc_2_2@@6B@ 1212b1a0     ElementDefinitionImpl.obj
 0002:00031258       ??_7ElementImpl@xercesc_2_2@@6B@ 1212b258     ElementImpl.obj
 0002:00031390       ??_7ElementNSImpl@xercesc_2_2@@6B@ 1212b390     ElementNSImpl.obj
 0002:000314c8       ??_7EntityImpl@xercesc_2_2@@6B@ 1212b4c8     EntityImpl.obj
 0002:000315a0       ??_7EntityReferenceImpl@xercesc_2_2@@6B@ 1212b5a0     EntityReferenceImpl.obj
 0002:00031670       ??_7NodeIDMap@xercesc_2_2@@6B@ 1212b670     NodeIDMap.obj
 0002:00031674       ?READONLY@NodeImpl@xercesc_2_2@@2GB 1212b674     NodeImpl.obj
 0002:00031676       ?SYNCDATA@NodeImpl@xercesc_2_2@@2GB 1212b676     NodeImpl.obj
 0002:00031678       ?SYNCCHILDREN@NodeImpl@xercesc_2_2@@2GB 1212b678     NodeImpl.obj
 0002:0003167a       ?OWNED@NodeImpl@xercesc_2_2@@2GB 1212b67a     NodeImpl.obj
 0002:0003167c       ?FIRSTCHILD@NodeImpl@xercesc_2_2@@2GB 1212b67c     NodeImpl.obj
 0002:0003167e       ?SPECIFIED@NodeImpl@xercesc_2_2@@2GB 1212b67e     NodeImpl.obj
 0002:00031680       ?IGNORABLEWS@NodeImpl@xercesc_2_2@@2GB 1212b680     NodeImpl.obj
 0002:00031682       ?SETVALUE@NodeImpl@xercesc_2_2@@2GB 1212b682     NodeImpl.obj
 0002:00031684       ?ID_ATTR@NodeImpl@xercesc_2_2@@2GB 1212b684     NodeImpl.obj
 0002:00031686       ?USERDATA@NodeImpl@xercesc_2_2@@2GB 1212b686     NodeImpl.obj
 0002:00031688       ?HASSTRING@NodeImpl@xercesc_2_2@@2GB 1212b688     NodeImpl.obj
 0002:0003168c       ??_7NodeImpl@xercesc_2_2@@6B@ 1212b68c     NodeImpl.obj
 0002:00031744       ??_7NodeIteratorImpl@xercesc_2_2@@6B@ 1212b744     NodeIteratorImpl.obj
 0002:00031750       ??_7NotationImpl@xercesc_2_2@@6B@ 1212b750     NotationImpl.obj
 0002:00031818       ??_7ParentNode@xercesc_2_2@@6B@ 1212b818     ParentNode.obj
 0002:000318d0       ??_7ProcessingInstructionImpl@xercesc_2_2@@6B@ 1212b8d0     ProcessingInstructionImpl.obj
 0002:00031994       ??_7RangeImpl@xercesc_2_2@@6B@ 1212b994     RangeImpl.obj
 0002:000319a0       ??_7?$RefVectorOf@VNodeImpl@xercesc_2_2@@@xercesc_2_2@@6B@ 1212b9a0     RangeImpl.obj
 0002:000319a4       ??_7?$BaseRefVectorOf@VNodeImpl@xercesc_2_2@@@xercesc_2_2@@6B@ 1212b9a4     RangeImpl.obj
 0002:000319a8       ??_7TextImpl@xercesc_2_2@@6B@ 1212b9a8     TextImpl.obj
 0002:00031a8c       ??_7TreeWalkerImpl@xercesc_2_2@@6B@ 1212ba8c     TreeWalkerImpl.obj
 0002:00031a98       ??_7XMLDeclImpl@xercesc_2_2@@6B@ 1212ba98     XMLDeclImpl.obj
 0002:00031b68       ??_7DOMException@xercesc_2_2@@6B@ 1212bb68     DOMException.obj
 0002:00031b6c       ??_7DOMRangeException@xercesc_2_2@@6B@ 1212bb6c     DOMRangeException.obj
 0002:00031b90       ??_7type_info@@6B@         1212bb90     MSVCRT:ti_inst.obj
 0002:00031ba8       ??_R1A@?0A@A@type_info@@8  1212bba8     MSVCRT:ti_inst.obj
 0002:00031bc0       ??_R2type_info@@8          1212bbc0     MSVCRT:ti_inst.obj
 0002:00031bc8       ??_R3type_info@@8          1212bbc8     MSVCRT:ti_inst.obj
 0002:00031bd8       ??_R4type_info@@6B@        1212bbd8     MSVCRT:ti_inst.obj
 0002:000320f0       __CT??_R0?AVXMLException@xercesc_2_2@@@8??0XMLException@xercesc_2_2@@QAE@ABV01@@Z20 1212c0f0     Win32PlatformUtils.obj
 0002:00032110       __CT??_R0?AVXMLPlatformUtilsException@xercesc_2_2@@@8??0XMLPlatformUtilsException@xercesc_2_2@@QAE@ABV01@@Z20 1212c110     Win32PlatformUtils.obj
 0002:00032130       __CTA2?AVXMLPlatformUtilsException@xercesc_2_2@@ 1212c130     Win32PlatformUtils.obj
 0002:00032140       __TI2?AVXMLPlatformUtilsException@xercesc_2_2@@ 1212c140     Win32PlatformUtils.obj
 0002:00032310       __CT??_R0?AVRuntimeException@xercesc_2_2@@@8??0RuntimeException@xercesc_2_2@@QAE@ABV01@@Z20 1212c310     Win32TransService.obj
 0002:00032330       __CTA2?AVRuntimeException@xercesc_2_2@@ 1212c330     Win32TransService.obj
 0002:00032340       __TI2?AVRuntimeException@xercesc_2_2@@ 1212c340     Win32TransService.obj
 0002:00032420       __CT??_R0?AVTranscodingException@xercesc_2_2@@@8??0TranscodingException@xercesc_2_2@@QAE@ABV01@@Z20 1212c420     Win32TransService.obj
 0002:00032440       __CTA2?AVTranscodingException@xercesc_2_2@@ 1212c440     Win32TransService.obj
 0002:00032450       __TI2?AVTranscodingException@xercesc_2_2@@ 1212c450     Win32TransService.obj
 0002:00032460       __CT??_R0?AVNetAccessorException@xercesc_2_2@@@8??0NetAccessorException@xercesc_2_2@@QAE@ABV01@@Z20 1212c460     BinHTTPURLInputStream.obj
 0002:00032480       __CTA2?AVNetAccessorException@xercesc_2_2@@ 1212c480     BinHTTPURLInputStream.obj
 0002:00032490       __TI2?AVNetAccessorException@xercesc_2_2@@ 1212c490     BinHTTPURLInputStream.obj
 0002:00032598       __CT??_R0?AVMalformedURLException@xercesc_2_2@@@8??0MalformedURLException@xercesc_2_2@@QAE@ABV01@@Z20 1212c598     WinSockNetAccessor.obj
 0002:000325b8       __CTA2?AVMalformedURLException@xercesc_2_2@@ 1212c5b8     WinSockNetAccessor.obj
 0002:000325c8       __TI2?AVMalformedURLException@xercesc_2_2@@ 1212c5c8     WinSockNetAccessor.obj
 0002:000326e0       __CT??_R0?AVArrayIndexOutOfBoundsException@xercesc_2_2@@@8??0ArrayIndexOutOfBoundsException@xercesc_2_2@@QAE@ABV01@@Z20 1212c6e0     Match.obj
 0002:00032700       __CTA2?AVArrayIndexOutOfBoundsException@xercesc_2_2@@ 1212c700     Match.obj
 0002:00032710       __TI2?AVArrayIndexOutOfBoundsException@xercesc_2_2@@ 1212c710     Match.obj
 0002:00032b10       __CT??_R0?AVParseException@xercesc_2_2@@@8??0ParseException@xercesc_2_2@@QAE@ABV01@@Z20 1212cb10     ParserForXMLSchema.obj
 0002:00032b30       __CTA2?AVParseException@xercesc_2_2@@ 1212cb30     ParserForXMLSchema.obj
 0002:00032b40       __TI2?AVParseException@xercesc_2_2@@ 1212cb40     ParserForXMLSchema.obj
 0002:00032b78       __CT??_R0?AVIllegalArgumentException@xercesc_2_2@@@8??0IllegalArgumentException@xercesc_2_2@@QAE@ABV01@@Z20 1212cb78     RangeToken.obj
 0002:00032b98       __CTA2?AVIllegalArgumentException@xercesc_2_2@@ 1212cb98     RangeToken.obj
 0002:00032ba8       __TI2?AVIllegalArgumentException@xercesc_2_2@@ 1212cba8     RangeToken.obj
 0002:000332d0       __CT??_R0?AW4Codes@XMLErrs@xercesc_2_2@@@84 1212d2d0     RegxParser.obj
 0002:000332f0       __CTA1?AW4Codes@XMLErrs@xercesc_2_2@@ 1212d2f0     RegxParser.obj
 0002:000332f8       __TI1?AW4Codes@XMLErrs@xercesc_2_2@@ 1212d2f8     RegxParser.obj
 0002:00033458       __CT??_R0H@84              1212d458     RegxParser.obj
 0002:00033478       __CTA1H                    1212d478     RegxParser.obj
 0002:00033480       __TI1H                     1212d480     RegxParser.obj
 0002:00034470       __CT??_R0?AVNumberFormatException@xercesc_2_2@@@8??0NumberFormatException@xercesc_2_2@@QAE@ABV01@@Z20 1212e470     XMLAbstractDoubleFloat.obj
 0002:00034490       __CTA2?AVNumberFormatException@xercesc_2_2@@ 1212e490     XMLAbstractDoubleFloat.obj
 0002:000344a0       __TI2?AVNumberFormatException@xercesc_2_2@@ 1212e4a0     XMLAbstractDoubleFloat.obj
 0002:000346e0       __CT??_R0?AVSchemaDateTimeException@xercesc_2_2@@@8??0SchemaDateTimeException@xercesc_2_2@@QAE@ABV01@@Z20 1212e6e0     XMLDateTime.obj
 0002:00034700       __CTA2?AVSchemaDateTimeException@xercesc_2_2@@ 1212e700     XMLDateTime.obj
 0002:00034710       __TI2?AVSchemaDateTimeException@xercesc_2_2@@ 1212e710     XMLDateTime.obj
 0002:00035198       __CT??_R0?AVIOException@xercesc_2_2@@@8??0IOException@xercesc_2_2@@QAE@ABV01@@Z20 1212f198     LocalFileFormatTarget.obj
 0002:000351b8       __CTA2?AVIOException@xercesc_2_2@@ 1212f1b8     LocalFileFormatTarget.obj
 0002:000351c8       __TI2?AVIOException@xercesc_2_2@@ 1212f1c8     LocalFileFormatTarget.obj
 0002:000354b8       __CT??_R0?AVNullPointerException@xercesc_2_2@@@8??0NullPointerException@xercesc_2_2@@QAE@ABV01@@Z20 1212f4b8     Wrapper4DOMInputSource.obj
 0002:000354d8       __CTA2?AVNullPointerException@xercesc_2_2@@ 1212f4d8     Wrapper4DOMInputSource.obj
 0002:000354e8       __TI2?AVNullPointerException@xercesc_2_2@@ 1212f4e8     Wrapper4DOMInputSource.obj
 0002:00035898       __CT??_R0?AW4Codes@XMLValid@xercesc_2_2@@@84 1212f898     XMLValidator.obj
 0002:000358b8       __CTA1?AW4Codes@XMLValid@xercesc_2_2@@ 1212f8b8     XMLValidator.obj
 0002:000358c0       __TI1?AW4Codes@XMLValid@xercesc_2_2@@ 1212f8c0     XMLValidator.obj
 0002:00035900       __CT??_R0?AVNoSuchElementException@xercesc_2_2@@@8??0NoSuchElementException@xercesc_2_2@@QAE@ABV01@@Z20 1212f900     DGXMLScanner.obj
 0002:00035920       __CTA2?AVNoSuchElementException@xercesc_2_2@@ 1212f920     DGXMLScanner.obj
 0002:00035930       __TI2?AVNoSuchElementException@xercesc_2_2@@ 1212f930     DGXMLScanner.obj
 0002:00035d08       __CT??_R0?AVUnexpectedEOFException@xercesc_2_2@@@8??0UnexpectedEOFException@xercesc_2_2@@QAE@ABV01@@Z20 1212fd08     DGXMLScanner.obj
 0002:00035d28       __CTA2?AVUnexpectedEOFException@xercesc_2_2@@ 1212fd28     DGXMLScanner.obj
 0002:00035d38       __TI2?AVUnexpectedEOFException@xercesc_2_2@@ 1212fd38     DGXMLScanner.obj
 0002:000361e0       __CT??_R0?AVEmptyStackException@xercesc_2_2@@@8??0EmptyStackException@xercesc_2_2@@QAE@ABV01@@Z20 121301e0     ElemStack.obj
 0002:00036200       __CTA2?AVEmptyStackException@xercesc_2_2@@ 12130200     ElemStack.obj
 0002:00036210       __TI2?AVEmptyStackException@xercesc_2_2@@ 12130210     ElemStack.obj
 0002:00037360       __CT??_R0?AVEndOfEntityException@xercesc_2_2@@@8??0EndOfEntityException@xercesc_2_2@@QAE@ABV01@@Z8 12131360     ReaderMgr.obj
 0002:00037380       __CTA1?AVEndOfEntityException@xercesc_2_2@@ 12131380     ReaderMgr.obj
 0002:00037388       __TI1?AVEndOfEntityException@xercesc_2_2@@ 12131388     ReaderMgr.obj
 0002:00038ba8       __CT??_R0?AVSAXException@xercesc_2_2@@@8??0SAXException@xercesc_2_2@@QAE@ABV01@@Z8 12132ba8     Dummy.obj
 0002:00038bc8       __CT??_R0?AVSAXParseException@xercesc_2_2@@@8??0SAXParseException@xercesc_2_2@@QAE@ABV01@@Z24 12132bc8     Dummy.obj
 0002:00038be8       __CTA2?AVSAXParseException@xercesc_2_2@@ 12132be8     Dummy.obj
 0002:00038bf8       __TI2?AVSAXParseException@xercesc_2_2@@ 12132bf8     Dummy.obj
 0002:00039020       __CT??_R0?AVDOMException@xercesc_2_2@@@8??0DOMException@xercesc_2_2@@QAE@ABV01@@Z12 12133020     DOMBuilderImpl.obj
 0002:00039040       __CTA1?AVDOMException@xercesc_2_2@@ 12133040     DOMBuilderImpl.obj
 0002:00039048       __TI1?AVDOMException@xercesc_2_2@@ 12133048     DOMBuilderImpl.obj
 0002:00039538       __CT??_R0?AVSAXNotRecognizedException@xercesc_2_2@@@8??0SAXNotRecognizedException@xercesc_2_2@@QAE@ABV01@@Z8 12133538     SAX2XMLReaderImpl.obj
 0002:00039558       __CTA2?AVSAXNotRecognizedException@xercesc_2_2@@ 12133558     SAX2XMLReaderImpl.obj
 0002:00039568       __CT??_R0?AVSAXNotSupportedException@xercesc_2_2@@@8??0SAXNotSupportedException@xercesc_2_2@@QAE@ABV01@@Z8 12133568     SAX2XMLReaderImpl.obj
 0002:00039588       __CTA2?AVSAXNotSupportedException@xercesc_2_2@@ 12133588     SAX2XMLReaderImpl.obj
 0002:00039598       __TI2?AVSAXNotRecognizedException@xercesc_2_2@@ 12133598     SAX2XMLReaderImpl.obj
 0002:000395a8       __TI2?AVSAXNotSupportedException@xercesc_2_2@@ 121335a8     SAX2XMLReaderImpl.obj
 0002:0003a3e0       __CT??_R0?AVInvalidDatatypeFacetException@xercesc_2_2@@@8??0InvalidDatatypeFacetException@xercesc_2_2@@QAE@ABV01@@Z20 121343e0     AbstractNumericFacetValidator.obj
 0002:0003a400       __CTA2?AVInvalidDatatypeFacetException@xercesc_2_2@@ 12134400     AbstractNumericFacetValidator.obj
 0002:0003a410       __TI2?AVInvalidDatatypeFacetException@xercesc_2_2@@ 12134410     AbstractNumericFacetValidator.obj
 0002:0003a878       __CT??_R0?AVInvalidDatatypeValueException@xercesc_2_2@@@8??0InvalidDatatypeValueException@xercesc_2_2@@QAE@ABV01@@Z20 12134878     AbstractNumericValidator.obj
 0002:0003a898       __CTA2?AVInvalidDatatypeValueException@xercesc_2_2@@ 12134898     AbstractNumericValidator.obj
 0002:0003a8a8       __TI2?AVInvalidDatatypeValueException@xercesc_2_2@@ 121348a8     AbstractNumericValidator.obj
 0002:0003dc68       __CT??_R0?AVXPathException@xercesc_2_2@@@8??0XPathException@xercesc_2_2@@QAE@ABV01@@Z20 12137c68     XercesXPath.obj
 0002:0003dc88       __CTA2?AVXPathException@xercesc_2_2@@ 12137c88     XercesXPath.obj
 0002:0003dc98       __TI2?AVXPathException@xercesc_2_2@@ 12137c98     XercesXPath.obj
 0002:0003f780       __CT??_R0?AW4ExceptionCodes@TraverseSchema@xercesc_2_2@@@84 12139780     TraverseSchema.obj
 0002:0003f7a0       __CTA1?AW4ExceptionCodes@TraverseSchema@xercesc_2_2@@ 121397a0     TraverseSchema.obj
 0002:0003f7a8       __TI1?AW4ExceptionCodes@TraverseSchema@xercesc_2_2@@ 121397a8     TraverseSchema.obj
 0002:00041a30       __CT??_R0?AVDOMRangeException@xercesc_2_2@@@8??0DOMRangeException@xercesc_2_2@@QAE@ABV01@@Z16 1213ba30     DOMRangeImpl.obj
 0002:00041a50       __CTA2?AVDOMRangeException@xercesc_2_2@@ 1213ba50     DOMRangeImpl.obj
 0002:00041a60       __TI2?AVDOMRangeException@xercesc_2_2@@ 1213ba60     DOMRangeImpl.obj
 0002:00042008       __CT??_R0?AW4Codes@XMLDOMMsg@xercesc_2_2@@@84 1213c008     DOMWriterImpl.obj
 0002:00042028       __CTA1?AW4Codes@XMLDOMMsg@xercesc_2_2@@ 1213c028     DOMWriterImpl.obj
 0002:00042030       __TI1?AW4Codes@XMLDOMMsg@xercesc_2_2@@ 1213c030     DOMWriterImpl.obj
 0002:000422c8       __CT??_R0?AVDOM_DOMException@xercesc_2_2@@@8??0DOM_DOMException@xercesc_2_2@@QAE@ABV01@@Z12 1213c2c8     AttrImpl.obj
 0002:000422e8       __CTA1?AVDOM_DOMException@xercesc_2_2@@ 1213c2e8     AttrImpl.obj
 0002:000422f0       __TI1?AVDOM_DOMException@xercesc_2_2@@ 1213c2f0     AttrImpl.obj
 0002:00045b40       __CT??_R0?AVDOM_RangeException@xercesc_2_2@@@8??0DOM_RangeException@xercesc_2_2@@QAE@ABV01@@Z16 1213fb40     RangeImpl.obj
 0002:00045b60       __CTA2?AVDOM_RangeException@xercesc_2_2@@ 1213fb60     RangeImpl.obj
 0002:00045b70       __TI2?AVDOM_RangeException@xercesc_2_2@@ 1213fb70     RangeImpl.obj
 0002:000471a8       __IMPORT_DESCRIPTOR_KERNEL32 121411a8     kernel32:KERNEL32.dll
 0002:000471bc       __IMPORT_DESCRIPTOR_ADVAPI32 121411bc     advapi32:ADVAPI32.dll
 0002:000471d0       __IMPORT_DESCRIPTOR_MSVCRT 121411d0     MSVCRT:MSVCRT.dll
 0002:000471e4       __IMPORT_DESCRIPTOR_MSVCIRT 121411e4     msvcirt:MSVCIRT.dll
 0002:000471f8       __NULL_IMPORT_DESCRIPTOR   121411f8     kernel32:KERNEL32.dll
 0003:00000000       ___xc_a                    121af000     MSVCRT:cinitexe.obj
 0003:00000054       ___xc_z                    121af054     MSVCRT:cinitexe.obj
 0003:00000058       ___xi_a                    121af058     MSVCRT:cinitexe.obj
 0003:0000005c       ___xi_z                    121af05c     MSVCRT:cinitexe.obj
 0003:00000060       ??_C@_0BI@FFPD@Xerces?5Panic?5Error?3?5?$CFs?6?$AA@ 121af060     Win32PlatformUtils.obj
 0003:00000078       ??_C@_0CG@NDGG@Cannot?5initialize?5the?5system?5or?5@ 121af078     Win32PlatformUtils.obj
 0003:000000a0       ??_C@_0CD@KFKN@Cannot?5synchronize?5system?5or?5mut@ 121af0a0     Win32PlatformUtils.obj
 0003:000000c4       ??_C@_0BL@HHGI@Cannot?5load?5message?5domain?$AA@ 121af0c4     Win32PlatformUtils.obj
 0003:000000e0       ??_C@_0BH@NKGC@Unknown?5message?5domain?$AA@ 121af0e0     Win32PlatformUtils.obj
 0003:000000f8       ??_C@_0CA@LBJK@Could?5not?5find?5the?5xerces?9c?5DLL?$AA@ 121af0f8     Win32PlatformUtils.obj
 0003:00000118       ??_C@_0CM@CIGD@Could?5not?5load?5a?5local?5code?5page@ 121af118     Win32PlatformUtils.obj
 0003:00000144       ??_C@_0CF@CLOA@Could?5not?5load?5a?5transcoding?5ser@ 121af144     Win32PlatformUtils.obj
 0003:0000016c       ??_C@_0P@BFFG@Unknown?5reason?$AA@ 121af16c     Win32PlatformUtils.obj
 0003:00000180       ??_R0?AVXMLException@xercesc_2_2@@@8 121af180     Win32PlatformUtils.obj
 0003:000001a8       ??_R0?AVXMLPlatformUtilsException@xercesc_2_2@@@8 121af1a8     Win32PlatformUtils.obj
 0003:000001dc       ??_C@_0FI@DNKP@c?3?2xml4c_root?2xerces?9c?9src2_2_0?2@ 121af1dc     Win32PlatformUtils.obj
 0003:00000234       ??_C@_06FFNI@IXUTIL?$AA@   121af234     Win32MsgLoader.obj
 0003:00000240       ??_R0?AVRuntimeException@xercesc_2_2@@@8 121af240     Win32TransService.obj
 0003:0000026c       ??_C@_0DB@IMPN@?4?4?2?4?4?2?4?4?2?4?4?2?4?4?2src?2xercesc?1util?1@ 121af26c     Win32TransService.obj
 0003:000002a0       ??_C@_0BB@GMML@InternetEncoding?$AA@ 121af2a0     Win32TransService.obj
 0003:000002b4       ??_C@_08GJEK@Codepage?$AA@ 121af2b4     Win32TransService.obj
 0003:000002c0       ??_C@_0BA@OCEI@AliasForCharset?$AA@ 121af2c0     Win32TransService.obj
 0003:000002d0       ??_C@_0BG@EHIG@MIME?2Database?2Charset?$AA@ 121af2d0     Win32TransService.obj
 0003:000002e8       ??_R0?AVTranscodingException@xercesc_2_2@@@8 121af2e8     Win32TransService.obj
 0003:00000318       ??_C@_0FJ@NBPK@c?3?2xml4c_root?2xerces?9c?9src2_2_0?2@ 121af318     Win32TransService.obj
 0003:00000378       ??_R0?AVNetAccessorException@xercesc_2_2@@@8 121af378     BinHTTPURLInputStream.obj
 0003:000003a8       ??_C@_0M@BGOH@closesocket?$AA@ 121af3a8     BinHTTPURLInputStream.obj
 0003:000003b4       ??_C@_08DHEI@shutdown?$AA@ 121af3b4     BinHTTPURLInputStream.obj
 0003:000003c0       ??_C@_04NJFL@recv?$AA@     121af3c0     BinHTTPURLInputStream.obj
 0003:000003c8       ??_C@_04PJAD@send?$AA@     121af3c8     BinHTTPURLInputStream.obj
 0003:000003d0       ??_C@_07DHIJ@connect?$AA@  121af3d0     BinHTTPURLInputStream.obj
 0003:000003d8       ??_C@_06KDPK@socket?$AA@   121af3d8     BinHTTPURLInputStream.obj
 0003:000003e0       ??_C@_05MHGE@htons?$AA@    121af3e0     BinHTTPURLInputStream.obj
 0003:000003e8       ??_C@_0O@IOIG@gethostbyaddr?$AA@ 121af3e8     BinHTTPURLInputStream.obj
 0003:000003f8       ??_C@_09NHDB@inet_addr?$AA@ 121af3f8     BinHTTPURLInputStream.obj
 0003:00000404       ??_C@_0O@BLIP@gethostbyname?$AA@ 121af404     BinHTTPURLInputStream.obj
 0003:00000414       ??_C@_0L@KLBB@WSACleanup?$AA@ 121af414     BinHTTPURLInputStream.obj
 0003:00000420       ??_C@_0L@BKPI@WSAStartup?$AA@ 121af420     BinHTTPURLInputStream.obj
 0003:0000042c       ??_C@_0GA@PDFH@c?3?2xml4c_root?2xerces?9c?9src2_2_0?2@ 121af42c     BinHTTPURLInputStream.obj
 0003:0000048c       ??_C@_07JDFI@WSOCK32?$AA@  121af48c     BinHTTPURLInputStream.obj
 0003:00000494       ??_C@_04EJJ@HTTP?$AA@      121af494     BinHTTPURLInputStream.obj
 0003:0000049c       ??_C@_02JJJH@?6?6?$AA@     121af49c     BinHTTPURLInputStream.obj
 0003:000004a0       ??_C@_04FGNA@?$AN?6?$AN?6?$AA@ 121af4a0     BinHTTPURLInputStream.obj
 0003:000004a8       ??_C@_01PKAG@?3?$AA@       121af4a8     BinHTTPURLInputStream.obj
 0003:000004ac       ??_C@_06LGGD@Host?3?5?$AA@ 121af4ac     BinHTTPURLInputStream.obj
 0003:000004b4       ??_C@_0M@BGOJ@?5HTTP?11?40?$AN?6?$AA@ 121af4b4     BinHTTPURLInputStream.obj
 0003:000004c0       ??_C@_01PKMN@?$DP?$AA@     121af4c0     BinHTTPURLInputStream.obj
 0003:000004c4       ??_C@_04PJJL@GET?5?$AA@    121af4c4     BinHTTPURLInputStream.obj
 0003:000004d0       ??_R0?AVMalformedURLException@xercesc_2_2@@@8 121af4d0     WinSockNetAccessor.obj
 0003:00000500       ??_C@_0FN@GCAB@c?3?2xml4c_root?2xerces?9c?9src2_2_0?2@ 121af500     WinSockNetAccessor.obj
 0003:00000560       ??_C@_0CP@JDCL@?4?4?2?4?4?2?4?4?2?4?4?2?4?4?2src?2xercesc?1util?1@ 121af560     ASCIIRangeFactory.obj
 0003:00000590       ??_C@_0DI@JHFM@?4?4?2?4?4?2?4?4?2?4?4?2?4?4?2src?2xercesc?1util?1@ 121af590     ConditionToken.obj
 0003:000005c8       ??_C@_0CP@HPDD@?4?4?2?4?4?2?4?4?2?4?4?2?4?4?2src?2xercesc?1util?1@ 121af5c8     Match.obj
 0003:000005f8       ??_R0?AVArrayIndexOutOfBoundsException@xercesc_2_2@@@8 121af5f8     Match.obj
 0003:00000634       ??_C@_0CM@JAIE@?4?4?2?4?4?2?4?4?2?4?4?2?4?4?2src?2xercesc?1util?1@ 121af634     Op.obj
 0003:00000660       ??_C@_0DN@OPDH@c?3?2xml4c_root?2xerces?9c?9src2_2_0?2@ 121af660     Op.obj
 0003:000006a0       ??_C@_0DC@MEPO@?4?4?2?4?4?2?4?4?2?4?4?2?4?4?2src?2xercesc?1util?1@ 121af6a0     Op.obj
 0003:000006d8       ??_R0?AVParseException@xercesc_2_2@@@8 121af6d8     ParserForXMLSchema.obj
 0003:00000704       ??_C@_0EN@DLMG@c?3?2xml4c_root?2xerces?9c?9src2_2_0?2@ 121af704     ParserForXMLSchema.obj
 0003:00000758       ??_R0?AVIllegalArgumentException@xercesc_2_2@@@8 121af758     RangeToken.obj
 0003:0000078c       ??_C@_0EF@HFPG@c?3?2xml4c_root?2xerces?9c?9src2_2_0?2@ 121af78c     RangeToken.obj
 0003:000007d4       ??_C@_0EI@EDIM@c?3?2xml4c_root?2xerces?9c?9src2_2_0?2@ 121af7d4     RangeTokenMap.obj
 0003:0000081c       ??_C@_0EM@KGHE@c?3?2xml4c_root?2xerces?9c?9src2_2_0?2@ 121af81c     RegularExpression.obj
 0003:00000868       ??_C@_0EF@PMIP@c?3?2xml4c_root?2xerces?9c?9src2_2_0?2@ 121af868     RegxParser.obj
 0003:000008b0       ??_R0?AW4Codes@XMLErrs@xercesc_2_2@@@8 121af8b0     RegxParser.obj
 0003:000008e0       ??_R0H@8                   121af8e0     RegxParser.obj
 0003:000008ec       ??_C@_0DD@FBDC@?4?4?2?4?4?2?4?4?2?4?4?2?4?4?2src?2xercesc?1util?1@ 121af8ec     EncodingValidator.obj
 0003:00000920       ??_C@_0ED@NOFP@c?3?2xml4c_root?2xerces?9c?9src2_2_0?2@ 121af920     PlatformUtils.obj
 0003:00000964       ??_C@_0EA@JJHF@c?3?2xml4c_root?2xerces?9c?9src2_2_0?2@ 121af964     StringPool.obj
 0003:000009a4       ??_C@_0EL@FKID@c?3?2xml4c_root?2xerces?9c?9src2_2_0?2@ 121af9a4     XML256TableTranscoder.obj
 0003:000009f0       ??_C@_0EI@HCNA@c?3?2xml4c_root?2xerces?9c?9src2_2_0?2@ 121af9f0     XML88591Transcoder.obj
 0003:00000a38       ??_R0?AVNumberFormatException@xercesc_2_2@@@8 121afa38     XMLAbstractDoubleFloat.obj
 0003:00000a68       ??_C@_0EM@BJEI@c?3?2xml4c_root?2xerces?9c?9src2_2_0?2@ 121afa68     XMLAbstractDoubleFloat.obj
 0003:00000ab4       ??_C@_0EI@OJJI@c?3?2xml4c_root?2xerces?9c?9src2_2_0?2@ 121afab4     XMLASCIITranscoder.obj
 0003:00000afc       ??_C@_0ED@HHPC@c?3?2xml4c_root?2xerces?9c?9src2_2_0?2@ 121afafc     XMLBigDecimal.obj
 0003:00000b40       ??_C@_0ED@DLHK@c?3?2xml4c_root?2xerces?9c?9src2_2_0?2@ 121afb40     XMLBigInteger.obj
 0003:00000b84       ?fgCharCharsTable1_0@XMLChar1_0@xercesc_2_2@@0PAEA 121afb84     XMLChar.obj
 0003:00010b84       ?fgCharCharsTable1_1@XMLChar1_1@xercesc_2_2@@0PAEA 121bfb84     XMLChar.obj
 0003:00020b88       ??_R0?AVSchemaDateTimeException@xercesc_2_2@@@8 121cfb88     XMLDateTime.obj
 0003:00020bbc       ??_C@_0DA@JBEC@?4?4?2?4?4?2?4?4?2?4?4?2?4?4?2src?2xercesc?1util?1@ 121cfbbc     XMLDateTime.obj
 0003:00020bec       ??_C@_0EB@KABN@c?3?2xml4c_root?2xerces?9c?9src2_2_0?2@ 121cfbec     XMLDateTime.obj
 0003:00020c30       ??_C@_0DP@NBGM@c?3?2xml4c_root?2xerces?9c?9src2_2_0?2@ 121cfc30     XMLDouble.obj
 0003:00020c70       ??_C@_0DO@FCJA@c?3?2xml4c_root?2xerces?9c?9src2_2_0?2@ 121cfc70     XMLFloat.obj
 0003:00020cb0       ?fLanguage@XMLMsgLoader@xercesc_2_2@@0PAGA 121cfcb0     XMLMsgLoader.obj
 0003:00020cc8       ??_C@_0DP@GGMM@c?3?2xml4c_root?2xerces?9c?9src2_2_0?2@ 121cfcc8     XMLString.obj
 0003:00020d08       ??_C@_0EG@PNHA@c?3?2xml4c_root?2xerces?9c?9src2_2_0?2@ 121cfd08     XMLUCSTranscoder.obj
 0003:00020d50       ??_C@_0DM@BGF@c?3?2xml4c_root?2xerces?9c?9src2_2_0?2@ 121cfd50     XMLUri.obj
 0003:00020db4       ??_C@_0DM@JBHL@c?3?2xml4c_root?2xerces?9c?9src2_2_0?2@ 121cfdb4     XMLURL.obj
 0003:00020df0       ??_C@_0EH@JMCP@c?3?2xml4c_root?2xerces?9c?9src2_2_0?2@ 121cfdf0     XMLUTF8Transcoder.obj
 0003:00020e38       ??_R0?AVIOException@xercesc_2_2@@@8 121cfe38     LocalFileFormatTarget.obj
 0003:00020e60       ??_C@_0FA@CJDA@c?3?2xml4c_root?2xerces?9c?9src2_2_0?2@ 121cfe60     LocalFileFormatTarget.obj
 0003:00020eb0       ??_C@_05NOKM@stdin?$AA@    121cfeb0     StdInInputSource.obj
 0003:00020eb8       ??_R0?AVNullPointerException@xercesc_2_2@@@8 121cfeb8     Wrapper4DOMInputSource.obj
 0003:00020ee8       ??_C@_0FB@DAOJ@c?3?2xml4c_root?2xerces?9c?9src2_2_0?2@ 121cfee8     Wrapper4DOMInputSource.obj
 0003:00020f3c       ??_C@_0EO@DJMA@c?3?2xml4c_root?2xerces?9c?9src2_2_0?2@ 121cff3c     Wrapper4InputSource.obj
 0003:00020f8c       ??_C@_0EE@EMFC@c?3?2xml4c_root?2xerces?9c?9src2_2_0?2@ 121cff8c     XMLAttDef.obj
 0003:00020fd0       ??_C@_0EH@PPF@c?3?2xml4c_root?2xerces?9c?9src2_2_0?2@ 121cffd0     XMLBufferMgr.obj
 0003:00021018       ??_C@_0EH@DPKN@c?3?2xml4c_root?2xerces?9c?9src2_2_0?2@ 121d0018     XMLFormatter.obj
 0003:00021080       ??_C@_0EI@NDJP@c?3?2xml4c_root?2xerces?9c?9src2_2_0?2@ 121d0080     XMLRecognizer.obj
 0003:000210c8       ??_R0?AW4Codes@XMLValid@xercesc_2_2@@@8 121d00c8     XMLValidator.obj
 0003:000210f8       ??_R0?AVNoSuchElementException@xercesc_2_2@@@8 121d00f8     DGXMLScanner.obj
 0003:0002112c       ??_C@_0CN@GFNC@?4?4?2?4?4?2?4?4?2?4?4?2?4?4?2src?2xercesc?1util?1@ 121d012c     DGXMLScanner.obj
 0003:0002115c       ??_C@_0EG@PJAC@c?3?2xml4c_root?2xerces?9c?9src2_2_0?2@ 121d015c     DGXMLScanner.obj
 0003:000211a8       ??_R0?AVEndOfEntityException@xercesc_2_2@@@8 121d01a8     DGXMLScanner.obj
 0003:000211d8       ??_R0?AVUnexpectedEOFException@xercesc_2_2@@@8 121d01d8     DGXMLScanner.obj
 0003:0002120c       ??_C@_0DA@CACO@?4?4?2?4?4?2?4?4?2?4?4?2?4?4?2src?2xercesc?1util?1@ 121d020c     DGXMLScanner.obj
 0003:00021240       ??_R0?AVEmptyStackException@xercesc_2_2@@@8 121d0240     ElemStack.obj
 0003:00021270       ??_C@_0ED@KIFN@c?3?2xml4c_root?2xerces?9c?9src2_2_0?2@ 121d0270     ElemStack.obj
 0003:000212b4       ??_C@_0DG@GENG@?4?4?2?4?4?2?4?4?2?4?4?2?4?4?2src?2xercesc?1util?1@ 121d02b4     IGXMLScanner.obj
 0003:000212ec       ??_C@_0DF@DOIO@?4?4?2?4?4?2?4?4?2?4?4?2?4?4?2src?2xercesc?1util?1@ 121d02ec     IGXMLScanner.obj
 0003:00021324       ??_C@_0CP@NCIM@?4?4?2?4?4?2?4?4?2?4?4?2?4?4?2src?2xercesc?1util?1@ 121d0324     IGXMLScanner.obj
 0003:00021354       ??_C@_0EG@FBNP@c?3?2xml4c_root?2xerces?9c?9src2_2_0?2@ 121d0354     IGXMLScanner.obj
 0003:0002139c       ??_C@_0EH@OJLF@c?3?2xml4c_root?2xerces?9c?9src2_2_0?2@ 121d039c     IGXMLScanner2.obj
 0003:000213e4       ??_C@_0CN@LDGJ@?4?4?2?4?4?2?4?4?2?4?4?2?4?4?2src?2xercesc?1util?1@ 121d03e4     ReaderMgr.obj
 0003:00021414       ??_C@_0ED@OIJG@c?3?2xml4c_root?2xerces?9c?9src2_2_0?2@ 121d0414     ReaderMgr.obj
 0003:00021458       ??_C@_0EG@GF@c?3?2xml4c_root?2xerces?9c?9src2_2_0?2@ 121d0458     SGXMLScanner.obj
 0003:000214a0       ??_C@_0EG@EFMP@c?3?2xml4c_root?2xerces?9c?9src2_2_0?2@ 121d04a0     WFXMLScanner.obj
 0003:000214e8       ??_C@_0ED@ILKH@c?3?2xml4c_root?2xerces?9c?9src2_2_0?2@ 121d04e8     XMLReader.obj
 0003:0002152c       ??_C@_0EE@DGB@c?3?2xml4c_root?2xerces?9c?9src2_2_0?2@ 121d052c     XMLScanner.obj
 0003:00021570       ??_C@_09NHPD@in?5prolog?$AA@ 121d0570     XMLScanner.obj
 0003:00021580       ??_R0?AVSAXException@xercesc_2_2@@@8 121d0580     Dummy.obj
 0003:000215a8       ??_R0?AVSAXParseException@xercesc_2_2@@@8 121d05a8     Dummy.obj
 0003:000215d4       ??_C@_0EK@FJAM@c?3?2xml4c_root?2xerces?9c?9src2_2_0?2@ 121d05d4     AbstractDOMParser.obj
 0003:00021620       ??_R0?AVDOMException@xercesc_2_2@@@8 121d0620     DOMBuilderImpl.obj
 0003:00021648       ??_C@_0EH@BGNN@c?3?2xml4c_root?2xerces?9c?9src2_2_0?2@ 121d0648     DOMBuilderImpl.obj
 0003:00021690       ??_C@_0EK@IJJN@c?3?2xml4c_root?2xerces?9c?9src2_2_0?2@ 121d0690     SAX2XMLReaderImpl.obj
 0003:000216e0       ??_R0?AVSAXNotRecognizedException@xercesc_2_2@@@8 121d06e0     SAX2XMLReaderImpl.obj
 0003:00021718       ??_R0?AVSAXNotSupportedException@xercesc_2_2@@@8 121d0718     SAX2XMLReaderImpl.obj
 0003:0002174c       ??_C@_0BA@IJFN@Unknown?5Feature?$AA@ 121d074c     SAX2XMLReaderImpl.obj
 0003:0002175c       ??_C@_0DE@KAIE@Feature?5modification?5is?5not?5supp@ 121d075c     SAX2XMLReaderImpl.obj
 0003:00021790       ??_C@_0BB@MDM@Unknown?5Property?$AA@ 121d0790     SAX2XMLReaderImpl.obj
 0003:000217a4       ??_C@_0DF@CGAC@Property?5modification?5is?5not?5sup@ 121d07a4     SAX2XMLReaderImpl.obj
 0003:000217dc       ??_C@_0EC@OPFF@c?3?2xml4c_root?2xerces?9c?9src2_2_0?2@ 121d07dc     SAXParser.obj
 0003:00021820       ??_C@_0EI@OBAD@c?3?2xml4c_root?2xerces?9c?9src2_2_0?2@ 121d0820     XercesDOMParser.obj
 0003:00021868       ??_C@_0FC@IINI@c?3?2xml4c_root?2xerces?9c?9src2_2_0?2@ 121d0868     AllContentModel.obj
 0003:000218bc       ??_C@_05ONKL@CMAny?$AA@    121d08bc     CMAny.obj
 0003:000218c4       ??_C@_0EI@FMFO@c?3?2xml4c_root?2xerces?9c?9src2_2_0?2@ 121d08c4     CMAny.obj
 0003:0002190c       ??_C@_0DM@NIED@?4?4?2?4?4?2?4?4?2?4?4?2?4?4?2src?2xercesc?1valid@ 121d090c     CMAny.obj
 0003:00021948       ??_C@_0EN@MABL@c?3?2xml4c_root?2xerces?9c?9src2_2_0?2@ 121d0948     CMBinaryOp.obj
 0003:00021998       ??_C@_0EM@IHJO@c?3?2xml4c_root?2xerces?9c?9src2_2_0?2@ 121d0998     CMUnaryOp.obj
 0003:000219e4       ??_C@_0FM@NOAB@c?3?2xml4c_root?2xerces?9c?9src2_2_0?2@ 121d09e4     ContentLeafNameTypeVector.obj
 0003:00021a40       ??_C@_0EB@DCJN@?4?4?2?4?4?2?4?4?2?4?4?2?4?4?2src?2xercesc?1valid@ 121d0a40     DFAContentModel.obj
 0003:00021a84       ??_C@_0FC@LFMH@c?3?2xml4c_root?2xerces?9c?9src2_2_0?2@ 121d0a84     DFAContentModel.obj
 0003:00021ad8       ??_C@_0FC@LCPC@c?3?2xml4c_root?2xerces?9c?9src2_2_0?2@ 121d0ad8     GrammarResolver.obj
 0003:00021b2c       ??_C@_0FE@JKEI@c?3?2xml4c_root?2xerces?9c?9src2_2_0?2@ 121d0b2c     MixedContentModel.obj
 0003:00021b80       ??_C@_0FF@JGEA@c?3?2xml4c_root?2xerces?9c?9src2_2_0?2@ 121d0b80     SimpleContentModel.obj
 0003:00021bd8       ??_R0?AVInvalidDatatypeFacetException@xercesc_2_2@@@8 121d0bd8     AbstractNumericFacetValidator.obj
 0003:00021c10       ??_C@_0GC@ILHP@c?3?2xml4c_root?2xerces?9c?9src2_2_0?2@ 121d0c10     AbstractNumericFacetValidator.obj
 0003:00021c78       ??_R0?AVInvalidDatatypeValueException@xercesc_2_2@@@8 121d0c78     AbstractNumericValidator.obj
 0003:00021cb0       ??_C@_0FN@HILC@c?3?2xml4c_root?2xerces?9c?9src2_2_0?2@ 121d0cb0     AbstractNumericValidator.obj
 0003:00021d10       ??_C@_0FM@BPLD@c?3?2xml4c_root?2xerces?9c?9src2_2_0?2@ 121d0d10     AbstractStringValidator.obj
 0003:00021d6c       ??_C@_0GD@EJFK@c?3?2xml4c_root?2xerces?9c?9src2_2_0?2@ 121d0d6c     AnySimpleTypeDatatypeValidator.obj
 0003:00021dd0       ??_C@_0FM@BKH@c?3?2xml4c_root?2xerces?9c?9src2_2_0?2@ 121d0dd0     AnyURIDatatypeValidator.obj
 0003:00021e2c       ??_C@_0GC@HCEM@c?3?2xml4c_root?2xerces?9c?9src2_2_0?2@ 121d0e2c     Base64BinaryDatatypeValidator.obj
 0003:00021e90       ??_C@_0M@NIGK@enumeration?$AA@ 121d0e90     BooleanDatatypeValidator.obj
 0003:00021e9c       ??_C@_0FN@FPMP@c?3?2xml4c_root?2xerces?9c?9src2_2_0?2@ 121d0e9c     BooleanDatatypeValidator.obj
 0003:00021efc       ??_C@_0FG@OJIM@c?3?2xml4c_root?2xerces?9c?9src2_2_0?2@ 121d0efc     DateTimeValidator.obj
 0003:00021f54       ??_C@_0FN@GODJ@c?3?2xml4c_root?2xerces?9c?9src2_2_0?2@ 121d0f54     DecimalDatatypeValidator.obj
 0003:00021fb4       ??_C@_0FM@EILL@c?3?2xml4c_root?2xerces?9c?9src2_2_0?2@ 121d0fb4     DoubleDatatypeValidator.obj
 0003:00022010       ??_C@_0FM@LBOF@c?3?2xml4c_root?2xerces?9c?9src2_2_0?2@ 121d1010     ENTITYDatatypeValidator.obj
 0003:0002206c       ??_C@_0FL@JDLI@c?3?2xml4c_root?2xerces?9c?9src2_2_0?2@ 121d106c     FloatDatatypeValidator.obj
 0003:000220c8       ??_C@_0FP@EECJ@c?3?2xml4c_root?2xerces?9c?9src2_2_0?2@ 121d10c8     HexBinaryDatatypeValidator.obj
 0003:00022128       ??_C@_0FI@ODPB@c?3?2xml4c_root?2xerces?9c?9src2_2_0?2@ 121d1128     IDDatatypeValidator.obj
 0003:00022180       ??_C@_0FL@OLDO@c?3?2xml4c_root?2xerces?9c?9src2_2_0?2@ 121d1180     IDREFDatatypeValidator.obj
 0003:000221dc       ??_C@_0FK@HNLK@c?3?2xml4c_root?2xerces?9c?9src2_2_0?2@ 121d11dc     ListDatatypeValidator.obj
 0003:00022238       ??_C@_0FK@EPLH@c?3?2xml4c_root?2xerces?9c?9src2_2_0?2@ 121d1238     NameDatatypeValidator.obj
 0003:00022294       ??_C@_0FM@JENL@c?3?2xml4c_root?2xerces?9c?9src2_2_0?2@ 121d1294     NCNameDatatypeValidator.obj
 0003:000222f0       ??_C@_0FO@MOGK@c?3?2xml4c_root?2xerces?9c?9src2_2_0?2@ 121d12f0     NOTATIONDatatypeValidator.obj
 0003:00022350       ??_C@_0FL@MN@c?3?2xml4c_root?2xerces?9c?9src2_2_0?2@ 121d1350     QNameDatatypeValidator.obj
 0003:000223ac       ??_C@_0FM@FNPB@c?3?2xml4c_root?2xerces?9c?9src2_2_0?2@ 121d13ac     StringDatatypeValidator.obj
 0003:00022408       ??_C@_0FL@MMHC@c?3?2xml4c_root?2xerces?9c?9src2_2_0?2@ 121d1408     UnionDatatypeValidator.obj
 0003:00022464       ??_C@_0EO@LKEG@c?3?2xml4c_root?2xerces?9c?9src2_2_0?2@ 121d1464     DTDElementDecl.obj
 0003:000224b4       ??_C@_0EK@DFCL@c?3?2xml4c_root?2xerces?9c?9src2_2_0?2@ 121d14b4     DTDScanner.obj
 0003:00022500       ??_C@_0EM@GDBH@c?3?2xml4c_root?2xerces?9c?9src2_2_0?2@ 121d1500     DTDValidator.obj
 0003:00022550       ??_R0?AVXPathException@xercesc_2_2@@@8 121d1550     XercesXPath.obj
 0003:0002257c       ??_C@_0FH@MLFC@c?3?2xml4c_root?2xerces?9c?9src2_2_0?2@ 121d157c     XercesXPath.obj
 0003:000225d4       ??_C@_0FI@GFGE@c?3?2xml4c_root?2xerces?9c?9src2_2_0?2@ 121d15d4     XPathMatcher.obj
 0003:0002262c       ??_C@_0FC@FMPP@c?3?2xml4c_root?2xerces?9c?9src2_2_0?2@ 121d162c     ComplexTypeInfo.obj
 0003:00022680       ?fgElemAttTable@GeneralAttributeCheck@xercesc_2_2@@0PAY0CC@GA 121d1680     GeneralAttributeCheck.obj
 0003:000233c8       ?fAttNames@GeneralAttributeCheck@xercesc_2_2@@0PAPBGA 121d23c8     GeneralAttributeCheck.obj
 0003:00023450       ??_C@_0FB@JPAF@c?3?2xml4c_root?2xerces?9c?9src2_2_0?2@ 121d2450     NamespaceScope.obj
 0003:000234a4       ??_C@_0FD@HAHB@c?3?2xml4c_root?2xerces?9c?9src2_2_0?2@ 121d24a4     SchemaAttDefList.obj
 0003:000234f8       ??_C@_0FE@HBID@c?3?2xml4c_root?2xerces?9c?9src2_2_0?2@ 121d24f8     SchemaElementDecl.obj
 0003:0002354c       ??_C@_0FC@NIJD@c?3?2xml4c_root?2xerces?9c?9src2_2_0?2@ 121d254c     SchemaValidator.obj
 0003:000235a0       ??_C@_0FO@HKIG@c?3?2xml4c_root?2xerces?9c?9src2_2_0?2@ 121d25a0     SubstitutionGroupComparator.obj
 0003:00023600       ?fgIdentityConstraints@xercesc_2_2@@3PAPBGA 121d2600     TraverseSchema.obj
 0003:00023610       ??_R0?AW4ExceptionCodes@TraverseSchema@xercesc_2_2@@@8 121d2610     TraverseSchema.obj
 0003:0002364c       ??_C@_0FB@KPKN@c?3?2xml4c_root?2xerces?9c?9src2_2_0?2@ 121d264c     TraverseSchema.obj
 0003:000236a0       ??_C@_0CN@FACH@?4?4?2?4?4?2?4?4?2?4?4?2?4?4?2src?2xercesc?1util?1@ 121d26a0     DOMDocumentImpl.obj
 0003:000236d0       ??_C@_0EJ@PAFG@c?3?2xml4c_root?2xerces?9c?9src2_2_0?2@ 121d26d0     DOMDocumentImpl.obj
 0003:0002371c       ??_C@_0DK@LODD@?4?4?2?4?4?2?4?4?2?4?4?2?4?4?2src?2xercesc?1dom?1i@ 121d271c     DOMDocumentImpl.obj
 0003:00023758       ??_C@_0EG@NODL@c?3?2xml4c_root?2xerces?9c?9src2_2_0?2@ 121d2758     DOMNodeIDMap.obj
 0003:000237a0       ??_R0?AVDOMRangeException@xercesc_2_2@@@8 121d27a0     DOMRangeImpl.obj
 0003:000237e0       ??_R0?AW4Codes@XMLDOMMsg@xercesc_2_2@@@8 121d27e0     DOMWriterImpl.obj
 0003:00023810       ??_R0?AVDOM_DOMException@xercesc_2_2@@@8 121d2810     AttrImpl.obj
 0003:0002383c       ??_C@_01HMO@?$CC?$AA@      121d283c     AttrImpl.obj
 0003:00023840       ??_C@_02EBGB@?$DN?$CC?$AA@ 121d2840     AttrImpl.obj
 0003:00023844       ??_C@_0P@CKBI@?$CDcdata?9section?$AA@ 121d2844     CDATASectionImpl.obj
 0003:00023854       ??_C@_08JMOF@?$CDcomment?$AA@ 121d2854     CommentImpl.obj
 0003:00023860       ??_C@_01FDHG@?$CK?$AA@     121d2860     DeepNodeListImpl.obj
 0003:00023864       ??_C@_0BD@CBIP@?$CDdocument?9fragment?$AA@ 121d2864     DocumentFragmentImpl.obj
 0003:00023878       ??_C@_09FGFB@?$CDdocument?$AA@ 121d2878     DocumentImpl.obj
 0003:00023884       ??_C@_05MCCK@Range?$AA@    121d2884     DOM_DOMImplementation.obj
 0003:0002388c       ??_C@_09LNFH@Traversal?$AA@ 121d288c     DOM_DOMImplementation.obj
 0003:00023898       ??_C@_04BNDI@Core?$AA@     121d2898     DOM_DOMImplementation.obj
 0003:000238a0       ??_C@_03DMKA@XML?$AA@      121d28a0     DOM_DOMImplementation.obj
 0003:000238a4       ??_C@_03CLPL@2?40?$AA@     121d28a4     DOM_DOMImplementation.obj
 0003:000238a8       ??_C@_03NNMA@1?40?$AA@     121d28a8     DOM_DOMImplementation.obj
 0003:000238ac       ??_C@_0BCM@GHMG@DOM?5reference?5counted?5memory?5all@ 121d28ac     DomMemDebug.obj
 0003:000239d8       ??_C@_01BJG@?6?$AA@        121d29d8     DomMemDebug.obj
 0003:000239dc       ??_C@_0BF@JFNJ@?5?5?5?$CFd?5NamedNodeMaps?4?$AA@ 121d29dc     DomMemDebug.obj
 0003:000239f4       ??_C@_0BB@IEON@?5?5?5?$CFd?5NodeImpls?4?$AA@ 121d29f4     DomMemDebug.obj
 0003:00023a08       ??_C@_0BF@IGHB@?5?5?5?$CFd?5StringBuffers?4?$AA@ 121d2a08     DomMemDebug.obj
 0003:00023a20       ??_C@_0BF@HJNG@?5?5?5?$CFd?5StringHandles?4?$AA@ 121d2a20     DomMemDebug.obj
 0003:00023a38       ??_C@_0EJ@DIOG@c?3?2xml4c_root?2xerces?9c?9src2_2_0?2@ 121d2a38     DOMParser.obj
 0003:00023a84       ??_C@_0EJ@LGJC@c?3?2xml4c_root?2xerces?9c?9src2_2_0?2@ 121d2a84     DOMString.obj
 0003:00023ad0       ??_C@_0EJ@CFMA@c?3?2xml4c_root?2xerces?9c?9src2_2_0?2@ 121d2ad0     NodeIDMap.obj
 0003:00023b1c       ??_C@_01KHLB@?$FL?$AA@     121d2b1c     NodeImpl.obj
 0003:00023b20       ??_C@_02HFBK@?3?5?$AA@     121d2b20     NodeImpl.obj
 0003:00023b24       ??_C@_01FIMD@?$FN?$AA@     121d2b24     NodeImpl.obj
 0003:00023b28       ??_C@_05GJOJ@xmlns?$AA@    121d2b28     NodeImpl.obj
 0003:00023b30       ??_C@_0BO@DOBD@http?3?1?1www?4w3?4org?12000?1xmlns?1?$AA@ 121d2b30     NodeImpl.obj
 0003:00023b50       ??_C@_03PJMH@xml?$AA@      121d2b50     NodeImpl.obj
 0003:00023b54       ??_C@_0CF@JEIF@http?3?1?1www?4w3?4org?1XML?11998?1names@ 121d2b54     NodeImpl.obj
 0003:00023b80       ??_R0?AVDOM_RangeException@xercesc_2_2@@@8 121d2b80     RangeImpl.obj
 0003:00023bb0       ??_C@_05FDFO@?$CDtext?$AA@ 121d2bb0     TextImpl.obj
 0003:00023bb8       ??_C@_08PCJH@?$CDxmldecl?$AA@ 121d2bb8     XMLDeclImpl.obj
 0003:00023bd0       ??_R0?AVtype_info@@@8      121d2bd0     MSVCRT:ti_inst.obj
 0003:00023bf0       ??_C@_00A@?$AA@            121d2bf0     Win32PlatformUtils.obj
 0003:00023bf8       ?globalModuleHandle@@3PAUHINSTANCE__@@A 121d2bf8     Win32MsgLoader.obj
 0003:00023bfc       ?gWinsockLib@xercesc_2_2@@3PAUHINSTANCE__@@A 121d2bfc     BinHTTPURLInputStream.obj
 0003:00023c00       ?gWSgethostbyname@xercesc_2_2@@3P6GPAUhostent@@PBD@ZA 121d2c00     BinHTTPURLInputStream.obj
 0003:00023c04       ?gWSinet_addr@xercesc_2_2@@3P6GKPBD@ZA 121d2c04     BinHTTPURLInputStream.obj
 0003:00023c08       ?gWSgethostbyaddr@xercesc_2_2@@3P6GPAUhostent@@PBDHH@ZA 121d2c08     BinHTTPURLInputStream.obj
 0003:00023c0c       ?gWShtons@xercesc_2_2@@3P6GGG@ZA 121d2c0c     BinHTTPURLInputStream.obj
 0003:00023c10       ?gWSsocket@xercesc_2_2@@3P6GIHHH@ZA 121d2c10     BinHTTPURLInputStream.obj
 0003:00023c14       ?gWSconnect@xercesc_2_2@@3P6GHIPBUsockaddr@@H@ZA 121d2c14     BinHTTPURLInputStream.obj
 0003:00023c18       ?gWSsend@xercesc_2_2@@3P6GHIPBDHH@ZA 121d2c18     BinHTTPURLInputStream.obj
 0003:00023c1c       ?gWSrecv@xercesc_2_2@@3P6GHIPADHH@ZA 121d2c1c     BinHTTPURLInputStream.obj
 0003:00023c20       ?gWSshutdown@xercesc_2_2@@3P6GHIH@ZA 121d2c20     BinHTTPURLInputStream.obj
 0003:00023c24       ?gWSclosesocket@xercesc_2_2@@3P6GHI@ZA 121d2c24     BinHTTPURLInputStream.obj
 0003:00023c28       ?gWSACleanup@xercesc_2_2@@3P6GHXZA 121d2c28     BinHTTPURLInputStream.obj
 0003:00023c2c       ?fInitialized@BinHTTPURLInputStream@xercesc_2_2@@0_NA 121d2c2c     BinHTTPURLInputStream.obj
 0003:00023c30       ?fInitMutex@BinHTTPURLInputStream@xercesc_2_2@@0PAVXMLMutex@2@A 121d2c30     BinHTTPURLInputStream.obj
 0003:00023c4c       ?fInstance@RangeTokenMap@xercesc_2_2@@0PAV12@A 121d2c4c     RangeTokenMap.obj
 0003:00023c50       ?fWordRange@RegularExpression@xercesc_2_2@@0PAVRangeToken@2@A 121d2c50     RegularExpression.obj
 0003:00023c54       ?base64Inverse@Base64@xercesc_2_2@@0PAEA 121d2c54     Base64.obj
 0003:00023d53       ?isInitialized@Base64@xercesc_2_2@@0_NA 121d2d53     Base64.obj
 0003:00023d6c       ?fInstance@EncodingValidator@xercesc_2_2@@0PAV12@A 121d2d6c     EncodingValidator.obj
 0003:00023d70       ?hexNumberTable@HexBin@xercesc_2_2@@0PA_NA 121d2d70     HexBin.obj
 0003:00023e6f       ?isInitialized@HexBin@xercesc_2_2@@0_NA 121d2e6f     HexBin.obj
 0003:00023e78       ?gXMLCleanupList@xercesc_2_2@@3PAVXMLRegisterCleanup@1@A 121d2e78     PlatformUtils.obj
 0003:00023e7c       ?gXMLCleanupListMutex@xercesc_2_2@@3PAVXMLMutex@1@A 121d2e7c     PlatformUtils.obj
 0003:00023e80       ?fgNetAccessor@XMLPlatformUtils@xercesc_2_2@@2PAVXMLNetAccessor@2@A 121d2e80     PlatformUtils.obj
 0003:00023e84       ?fgTransService@XMLPlatformUtils@xercesc_2_2@@2PAVXMLTransService@2@A 121d2e84     PlatformUtils.obj
 0003:00023f38       ?enableNEL@XMLChar1_0@xercesc_2_2@@0_NA 121d2f38     XMLChar.obj
 0003:00023f64       ?fLocale@XMLMsgLoader@xercesc_2_2@@0PADA 121d2f64     XMLMsgLoader.obj
 0003:00024164       ?fBuiltInRegistry@DatatypeValidatorFactory@xercesc_2_2@@0PAV?$RefHashTableOf@VDatatypeValidator@xercesc_2_2@@@2@A 121d3164     DatatypeValidatorFactory.obj
 0003:0002448c       ?fAttMap@GeneralAttributeCheck@xercesc_2_2@@0PAV?$ValueHashTableOf@G@2@A 121d348c     GeneralAttributeCheck.obj
 0003:00024490       ?fFacetsMap@GeneralAttributeCheck@xercesc_2_2@@0PAV?$ValueHashTableOf@G@2@A 121d3490     GeneralAttributeCheck.obj
 0003:00024494       ?fNonNegIntDV@GeneralAttributeCheck@xercesc_2_2@@0PAVDatatypeValidator@2@A 121d3494     GeneralAttributeCheck.obj
 0003:00024498       ?fBooleanDV@GeneralAttributeCheck@xercesc_2_2@@0PAVDatatypeValidator@2@A 121d3498     GeneralAttributeCheck.obj
 0003:0002449c       ?fAnyURIDV@GeneralAttributeCheck@xercesc_2_2@@0PAVDatatypeValidator@2@A 121d349c     GeneralAttributeCheck.obj
 0003:0002466c       ?freeListPtr@DOMStringHandle@xercesc_2_2@@0PAXA 121d366c     DOMString.obj
 0003:00024670       ?blockListPtr@DOMStringHandle@xercesc_2_2@@0PAV12@A 121d3670     DOMString.obj
 0003:00024674       ?gLiveStringDataCount@DOMString@xercesc_2_2@@0HA 121d3674     DOMString.obj
 0003:00024678       ?gTotalStringDataCount@DOMString@xercesc_2_2@@0HA 121d3678     DOMString.obj
 0003:0002467c       ?gLiveStringHandleCount@DOMString@xercesc_2_2@@0HA 121d367c     DOMString.obj
 0003:00024680       ?gTotalStringHandleCount@DOMString@xercesc_2_2@@0HA 121d3680     DOMString.obj
 0003:00024698       ?gLiveNamedNodeMaps@NamedNodeMapImpl@xercesc_2_2@@1HA 121d3698     NamedNodeMapImpl.obj
 0003:0002469c       ?gTotalNamedNodeMaps@NamedNodeMapImpl@xercesc_2_2@@1HA 121d369c     NamedNodeMapImpl.obj
 0003:000246bc       ?gLiveNodeImpls@NodeImpl@xercesc_2_2@@2HA 121d36bc     NodeImpl.obj
 0003:000246c0       ?gTotalNodeImpls@NodeImpl@xercesc_2_2@@2HA 121d36c0     NodeImpl.obj
 0003:000246ec       __adjust_fdiv              121d36ec     <common>
 0003:000246f0       __pRawDllMain              121d36f0     <common>
 0003:000246f4       ___onexitend               121d36f4     <common>
 0003:000246f8       ___onexitbegin             121d36f8     <common>

 entry point at        0001:000e8f9c

 Static symbols

 0001:000e85c0       _$E207                     120e95c0 f   XMLDeclImpl.obj
 0001:000e6a30       _$E207                     120e7a30 f   TextImpl.obj
 0001:000dd0d0       _$E207                     120de0d0 f   NodeImpl.obj
 0001:000d9c10       _$E209                     120dac10 f   ElementImpl.obj
 0001:000d6e30       _$E210                     120d7e30 f   DOMString.obj
 0001:000d6e50       _$E213                     120d7e50 f   DOMString.obj
 0001:000d9580       ?reinitDomConverter@xercesc_2_2@@YAXXZ 120da580 f   DOMString.obj
 0001:000d95a0       ?reinitDomMutex@xercesc_2_2@@YAXXZ 120da5a0 f   DOMString.obj
 0001:000d1800       _$E212                     120d2800 f   DOM_DOMImplementation.obj
 0001:000d1910       ?reinitImplementation@xercesc_2_2@@YAXXZ 120d2910 f   DOM_DOMImplementation.obj
 0001:000d1930       _$E215                     120d2930 f   DOM_DOMImplementation.obj
 0001:000cdc90       _$E224                     120cec90 f   DocumentImpl.obj
 0001:000cd710       _$E19                      120ce710 f   DocumentFragmentImpl.obj
 0001:000cd140       _$E21                      120ce140 f   DeepNodeListImpl.obj
 0001:000ccea0       _$E207                     120cdea0 f   CommentImpl.obj
 0001:000cc490       _$E207                     120cd490 f   CDATASectionImpl.obj
 0001:000c7760       _$E204                     120c8760 f   DOMWriterImpl.obj
 0001:000bf980       ?reinitEmptyNodeList@xercesc_2_2@@YAXXZ 120c0980 f   DOMNodeImpl.obj
 0001:000bf9a0       _$E205                     120c09a0 f   DOMNodeImpl.obj
 0001:000be050       ?reinitDOMImplSrcVector@xercesc_2_2@@YAXXZ 120bf050 f   DOMImplementationRegistry.obj
 0001:000be070       _$E192                     120bf070 f   DOMImplementationRegistry.obj
 0001:000be080       ?reinitDOMImplSrcVectorMutex@xercesc_2_2@@YAXXZ 120bf080 f   DOMImplementationRegistry.obj
 0001:000be0b0       _$E194                     120bf0b0 f   DOMImplementationRegistry.obj
 0001:000bd4e0       ?reinitMsgLoader4DOM@xercesc_2_2@@YAXXZ 120be4e0 f   DOMImplementationImpl.obj
 0001:000bd500       _$E217                     120be500 f   DOMImplementationImpl.obj
 0001:000bd660       ?reinitImplementation@xercesc_2_2@@YAXXZ 120be660 f   DOMImplementationImpl.obj
 0001:000bd680       _$E219                     120be680 f   DOMImplementationImpl.obj
 0001:000afb70       ?reinitErrMsgLoader@xercesc_2_2@@YAXXZ 120b0b70 f   XSDErrorReporter.obj
 0001:000afb90       ?reinitValidMsgLoader@xercesc_2_2@@YAXXZ 120b0b90 f   XSDErrorReporter.obj
 0001:000afbb0       _$E194                     120b0bb0 f   XSDErrorReporter.obj
 0001:000afbc0       _$E196                     120b0bc0 f   XSDErrorReporter.obj
 0001:0008e550       _$E396                     1208f550 f   GeneralAttributeCheck.obj
 0001:000801e0       ?makeRepNode@xercesc_2_2@@YAPAVContentSpecNode@1@GQAV21@@Z 120811e0 f   DTDScanner.obj
 0001:00073c90       _$E403                     12074c90 f   DatatypeValidatorFactory.obj
 0001:00065fc0       ?formatNode@xercesc_2_2@@YAXQBVContentSpecNode@1@W4NodeTypes@21@AAVXMLBuffer@1@@Z 12066fc0 f   ContentSpecNode.obj
 0001:000556f0       _$E216                     120566f0 f   XMLScanner.obj
 0001:00055710       _$E219                     12056710 f   XMLScanner.obj
 0001:00056d90       ?gScannerMsgLoader@xercesc_2_2@@YAAAVXMLMsgLoader@1@XZ 12057d90 f   XMLScanner.obj
 0001:0002f660       _$E210                     12030660 f   XMLValidator.obj
 0001:0002f680       _$E213                     12030680 f   XMLValidator.obj
 0001:0002f7a0       ?getMsgLoader@xercesc_2_2@@YAAAVXMLMsgLoader@1@XZ 120307a0 f   XMLValidator.obj
 0001:00022300       _$E194                     12023300 f   XMLException.obj
 0001:00022320       _$E197                     12023320 f   XMLException.obj
 0001:000226b0       ?gGetMsgLoader@xercesc_2_2@@YAAAVXMLMsgLoader@1@XZ 120236b0 f   XMLException.obj
 0001:0001a500       ?reinitMappings@xercesc_2_2@@YAXXZ 1201b500 f   TransService.obj
 0001:0001a5d0       ?reinitMappingsRecognizer@xercesc_2_2@@YAXXZ 1201b5d0 f   TransService.obj
 0001:0001a5f0       _$E206                     1201b5f0 f   TransService.obj
 0001:0001a600       _$E205                     1201b600 f   TransService.obj
 0001:000176a0       _$E193                     120186a0 f   EncodingValidator.obj
 0001:0000a5a0       _$E199                     1200b5a0 f   RangeTokenMap.obj
 0001:000e8daa       ?ArrayUnwindFilter@@YAHPAU_EXCEPTION_POINTERS@@@Z 120e9daa f   MSVCRT:ehvecdtr.obj

 57104 bytes saved through ICF

