 xerces-c_2_2_0

 Timestamp is 3e438366 (Fri Feb 07 04:59:02 2003)

 Preferred load address is 12000000

 Start         Length     Name                   Class
 0001:00000000 000e9060H .text                   CODE
 0001:000e9060 0000f4d2H .text$x                 CODE
 0002:00000000 0000015cH .idata$5                DATA
 0002:00000160 00031a44H .rdata                  DATA
 0002:00031ba8 00000044H .rdata$r                DATA
 0002:00031bf0 000155b8H .xdata$x                DATA
 0002:000471a8 00000050H .idata$2                DATA
 0002:000471f8 00000014H .idata$3                DATA
 0002:0004720c 0000015cH .idata$4                DATA
 0002:00047368 0000052aH .idata$6                DATA
 0002:000478a0 0006cdf5H .edata                  DATA
 0003:00000000 00000004H .CRT$XCA                DATA
 0003:00000004 00000050H .CRT$XCU                DATA
 0003:00000054 00000004H .CRT$XCZ                DATA
 0003:00000058 00000004H .CRT$XIA                DATA
 0003:0000005c 00000004H .CRT$XIZ                DATA
 0003:00000060 00023b90H .data                   DATA
 0003:00023bf0 00000b0cH .bss                    DATA
 0004:00000000 00000a00H .rsrc$01                DATA
 0004:00000a00 000148c0H .rsrc$02                DATA

  Address         Publics by Value              Rva+Base     Lib:Object

 0001:00000000       ??1XMLErrorReporter@xercesc_2_2@@UAE@XZ 12001000 f i Win32PlatformUtils.obj
 0001:00000010       ??0XMLErrorReporter@xercesc_2_2@@IAE@XZ 12001010 f i Win32PlatformUtils.obj
 0001:00000020       ??_EXMLErrorReporter@xercesc_2_2@@UAEPAXI@Z 12001020 f i Win32PlatformUtils.obj
 0001:00000080       ?curPos@BinMemInputStream@xercesc_2_2@@UBEIXZ 12001080 f i Win32PlatformUtils.obj
 0001:00000080       ?getPort@XMLUri@xercesc_2_2@@QBEHXZ 12001080 f i Win32PlatformUtils.obj
 0001:00000080       ?getType@DatatypeValidator@xercesc_2_2@@QBE?AW4ValidatorType@12@XZ 12001080 f i Win32PlatformUtils.obj
 0001:00000080       ?getTranscoder@XMLFormatter@xercesc_2_2@@QBEPBVXMLTranscoder@2@XZ 12001080 f i Win32PlatformUtils.obj
 0001:00000080       ?getFilter@DOMBuilderImpl@xercesc_2_2@@UAEPAVDOMBuilderFilter@2@XZ 12001080 f i Win32PlatformUtils.obj
 0001:00000080       ?getBaseURI@XMLNotationDecl@xercesc_2_2@@QBEPBGXZ 12001080 f i Win32PlatformUtils.obj
 0001:00000080       ?getNoParen@RegxParser@xercesc_2_2@@QBEHXZ 12001080 f i Win32PlatformUtils.obj
 0001:00000080       ?getScanner@XMLValidator@xercesc_2_2@@IAEPAVXMLScanner@2@XZ 12001080 f i Win32PlatformUtils.obj
 0001:00000080       ?getAttName@XMLAttr@xercesc_2_2@@QBEPAVQName@2@XZ 12001080 f i Win32PlatformUtils.obj
 0001:00000080       ?getCategories@RangeTokenMap@xercesc_2_2@@IBEPAVXMLStringPool@2@XZ 12001080 f i Win32PlatformUtils.obj
 0001:00000080       ?getPublicId@XSDLocator@xercesc_2_2@@UBEPBGXZ 12001080 f i Win32PlatformUtils.obj
 0001:00000080       ?getScanner@XMLValidator@xercesc_2_2@@IBEPBVXMLScanner@2@XZ 12001080 f i Win32PlatformUtils.obj
 0001:00000080       ?getScopeDefined@ComplexTypeInfo@xercesc_2_2@@QBEHXZ 12001080 f i Win32PlatformUtils.obj
 0001:00000080       ?getPublicId@XMLEntityDecl@xercesc_2_2@@QBEPBGXZ 12001080 f i Win32PlatformUtils.obj
 0001:00000080       ?getFilter@DOMBuilderImpl@xercesc_2_2@@UBEPBVDOMBuilderFilter@2@XZ 12001080 f i Win32PlatformUtils.obj
 0001:00000080       ?getErrorNode@DOMLocatorImpl@xercesc_2_2@@UBEPAVDOMNode@2@XZ 12001080 f i Win32PlatformUtils.obj
 0001:00000080       ?getBaseGroup@XercesGroupInfo@xercesc_2_2@@QBEPAV12@XZ 12001080 f i Win32PlatformUtils.obj
 0001:00000080       ?getPath@XMLURL@xercesc_2_2@@QBEPBGXZ 12001080 f i Win32PlatformUtils.obj
 0001:00000080       ?getScopeCount@SchemaInfo@xercesc_2_2@@QBEHXZ 12001080 f i Win32PlatformUtils.obj
 0001:00000080       ?getMessage@XMLException@xercesc_2_2@@QBEPBGXZ 12001080 f i Win32PlatformUtils.obj
 0001:00000090       ?getSrcFile@XMLException@xercesc_2_2@@QBEPBDXZ 12001090 f i Win32PlatformUtils.obj
 0001:000000a0       ?getReaderMgr@XMLValidator@xercesc_2_2@@IAEPAVReaderMgr@2@XZ 120010a0 f i Win32PlatformUtils.obj
 0001:000000a0       ?getErrorHandler@DOMBuilderImpl@xercesc_2_2@@UAEPAVDOMErrorHandler@2@XZ 120010a0 f i Win32PlatformUtils.obj
 0001:000000a0       ?getConditionToken@ConditionToken@xercesc_2_2@@QBEPAVToken@2@XZ 120010a0 f i Win32PlatformUtils.obj
 0001:000000a0       ?getSystemId@XSDLocator@xercesc_2_2@@UBEPBGXZ 120010a0 f i Win32PlatformUtils.obj
 0001:000000a0       ?getLocation@DOMErrorImpl@xercesc_2_2@@UBEPAVDOMLocator@2@XZ 120010a0 f i Win32PlatformUtils.obj
 0001:000000a0       ?getId@XMLElementDecl@xercesc_2_2@@QBEIXZ 120010a0 f i Win32PlatformUtils.obj
 0001:000000a0       ?getId@XMLAttDef@xercesc_2_2@@QBEIXZ 120010a0 f i Win32PlatformUtils.obj
 0001:000000a0       ?getString@StringToken@xercesc_2_2@@UBEPBGXZ 120010a0 f i Win32PlatformUtils.obj
 0001:000000a0       ?getNotationName@XMLEntityDecl@xercesc_2_2@@QBEPBGXZ 120010a0 f i Win32PlatformUtils.obj
 0001:000000a0       ?getOffset@DOMLocatorImpl@xercesc_2_2@@UBEJXZ 120010a0 f i Win32PlatformUtils.obj
 0001:000000a0       ?getEntityDeclPool@DTDGrammar@xercesc_2_2@@QBEPBV?$NameIdPool@VDTDEntityDecl@xercesc_2_2@@@2@XZ 120010a0 f i Win32PlatformUtils.obj
 0001:000000a0       ?getSystemId@InputSource@xercesc_2_2@@UBEPBGXZ 120010a0 f i Win32PlatformUtils.obj
 0001:000000a0       ?getOptionsMask@ModifierToken@xercesc_2_2@@QBEHXZ 120010a0 f i Win32PlatformUtils.obj
 0001:000000a0       ?getFinalSet@ComplexTypeInfo@xercesc_2_2@@QBEHXZ 120010a0 f i Win32PlatformUtils.obj
 0001:000000a0       ?getRangeMap@RangeTokenMap@xercesc_2_2@@IBEPAV?$RefHashTableOf@VRangeFactory@xercesc_2_2@@@2@XZ 120010a0 f i Win32PlatformUtils.obj
 0001:000000a0       ?getHost@XMLUri@xercesc_2_2@@QBEPBGXZ 120010a0 f i Win32PlatformUtils.obj
 0001:000000a0       ?getSelector@IdentityConstraint@xercesc_2_2@@QBEPAVIC_Selector@2@XZ 120010a0 f i Win32PlatformUtils.obj
 0001:000000a0       ?getErrorHandler@DOMBuilderImpl@xercesc_2_2@@UBEPBVDOMErrorHandler@2@XZ 120010a0 f i Win32PlatformUtils.obj
 0001:000000a0       ?getOffset@RegxParser@xercesc_2_2@@QBEHXZ 120010a0 f i Win32PlatformUtils.obj
 0001:000000a0       ?getMax@ClosureToken@xercesc_2_2@@UBEHXZ 120010a0 f i Win32PlatformUtils.obj
 0001:000000a0       ?getPassword@XMLURL@xercesc_2_2@@QBEPBGXZ 120010a0 f i Win32PlatformUtils.obj
 0001:000000a0       ?getEntityDeclPool@DTDGrammar@xercesc_2_2@@QAEPAV?$NameIdPool@VDTDEntityDecl@xercesc_2_2@@@2@XZ 120010a0 f i Win32PlatformUtils.obj
 0001:000000a0       ?getCompleteWildCard@XercesAttGroupInfo@xercesc_2_2@@QBEPAVSchemaAttDef@2@XZ 120010a0 f i Win32PlatformUtils.obj
 0001:000000a0       ?getSrcLine@XMLException@xercesc_2_2@@QBEIXZ 120010a0 f i Win32PlatformUtils.obj
 0001:000000a0       ?getSystemId@XMLNotationDecl@xercesc_2_2@@QBEPBGXZ 120010a0 f i Win32PlatformUtils.obj
 0001:000000a0       ?getTargetNSURI@SchemaInfo@xercesc_2_2@@QBEHXZ 120010a0 f i Win32PlatformUtils.obj
 0001:000000a0       ?getReaderMgr@XMLValidator@xercesc_2_2@@IBEPBVReaderMgr@2@XZ 120010a0 f i Win32PlatformUtils.obj
 0001:000000a0       ?getFixed@DatatypeValidator@xercesc_2_2@@IBEHXZ 120010a0 f i Win32PlatformUtils.obj
 0001:000000b0       ?getErrorType@XMLException@xercesc_2_2@@QBE?AW4ErrTypes@XMLErrorReporter@2@XZ 120010b0 f i Win32PlatformUtils.obj
 0001:000000f0       ??0XMLPlatformUtilsException@xercesc_2_2@@QAE@QBDIW4Codes@XMLExcepts@1@@Z 120010f0 f i Win32PlatformUtils.obj
 0001:00000150       ??0XMLPlatformUtilsException@xercesc_2_2@@QAE@ABV01@@Z 12001150 f i Win32PlatformUtils.obj
 0001:00000170       ??0XMLPlatformUtilsException@xercesc_2_2@@QAE@QBDIW4Codes@XMLExcepts@1@QBG222@Z 12001170 f i Win32PlatformUtils.obj
 0001:000001e0       ??0XMLPlatformUtilsException@xercesc_2_2@@QAE@QBDIW4Codes@XMLExcepts@1@0000@Z 120011e0 f i Win32PlatformUtils.obj
 0001:00000250       ??1XMLPlatformUtilsException@xercesc_2_2@@UAE@XZ 12001250 f i Win32PlatformUtils.obj
 0001:00000260       ?duplicate@XMLPlatformUtilsException@xercesc_2_2@@UBEPAVXMLException@2@XZ 12001260 f i Win32PlatformUtils.obj
 0001:000002c0       ?getType@XMLPlatformUtilsException@xercesc_2_2@@UBEPBGXZ 120012c0 f i Win32PlatformUtils.obj
 0001:000002d0       ??_EXMLPlatformUtilsException@xercesc_2_2@@UAEPAXI@Z 120012d0 f i Win32PlatformUtils.obj
 0001:00000330       ??1XMLDeleter@xercesc_2_2@@UAE@XZ 12001330 f i Win32PlatformUtils.obj
 0001:00000340       ??_EXMLDeleter@xercesc_2_2@@UAEPAXI@Z 12001340 f i Win32PlatformUtils.obj
 0001:000003a0       ??0XMLDeleter@xercesc_2_2@@IAE@XZ 120013a0 f i Win32PlatformUtils.obj
 0001:000003b0       ??0RuntimeException@xercesc_2_2@@QAE@QBDIW4Codes@XMLExcepts@1@@Z 120013b0 f i Win32PlatformUtils.obj
 0001:00000410       ??0RuntimeException@xercesc_2_2@@QAE@ABV01@@Z 12001410 f i Win32PlatformUtils.obj
 0001:00000430       ??0RuntimeException@xercesc_2_2@@QAE@QBDIW4Codes@XMLExcepts@1@QBG222@Z 12001430 f i Win32PlatformUtils.obj
 0001:000004a0       ??0RuntimeException@xercesc_2_2@@QAE@QBDIW4Codes@XMLExcepts@1@0000@Z 120014a0 f i Win32PlatformUtils.obj
 0001:00000510       ??1RuntimeException@xercesc_2_2@@UAE@XZ 12001510 f i Win32PlatformUtils.obj
 0001:00000520       ?duplicate@RuntimeException@xercesc_2_2@@UBEPAVXMLException@2@XZ 12001520 f i Win32PlatformUtils.obj
 0001:00000580       ?getType@RuntimeException@xercesc_2_2@@UBEPBGXZ 12001580 f i Win32PlatformUtils.obj
 0001:00000590       ??_ERuntimeException@xercesc_2_2@@UAEPAXI@Z 12001590 f i Win32PlatformUtils.obj
 0001:000005f0       ??0ArrayIndexOutOfBoundsException@xercesc_2_2@@QAE@QBDIW4Codes@XMLExcepts@1@@Z 120015f0 f i Win32PlatformUtils.obj
 0001:00000650       ??0ArrayIndexOutOfBoundsException@xercesc_2_2@@QAE@ABV01@@Z 12001650 f i Win32PlatformUtils.obj
 0001:00000670       ??0ArrayIndexOutOfBoundsException@xercesc_2_2@@QAE@QBDIW4Codes@XMLExcepts@1@QBG222@Z 12001670 f i Win32PlatformUtils.obj
 0001:000006e0       ??0ArrayIndexOutOfBoundsException@xercesc_2_2@@QAE@QBDIW4Codes@XMLExcepts@1@0000@Z 120016e0 f i Win32PlatformUtils.obj
 0001:00000750       ??1ArrayIndexOutOfBoundsException@xercesc_2_2@@UAE@XZ 12001750 f i Win32PlatformUtils.obj
 0001:00000760       ?duplicate@ArrayIndexOutOfBoundsException@xercesc_2_2@@UBEPAVXMLException@2@XZ 12001760 f i Win32PlatformUtils.obj
 0001:000007c0       ?getType@ArrayIndexOutOfBoundsException@xercesc_2_2@@UBEPBGXZ 120017c0 f i Win32PlatformUtils.obj
 0001:000007d0       ??_EArrayIndexOutOfBoundsException@xercesc_2_2@@UAEPAXI@Z 120017d0 f i Win32PlatformUtils.obj
 0001:00000830       ??4Base64@xercesc_2_2@@QAEAAV01@ABV01@@Z 12001830 f i Win32PlatformUtils.obj
 0001:00000830       ??4XercesElementWildcard@xercesc_2_2@@QAEAAV01@ABV01@@Z 12001830 f i Win32PlatformUtils.obj
 0001:00000830       ??4XMLPlatformUtils@xercesc_2_2@@QAEAAV01@ABV01@@Z 12001830 f i Win32PlatformUtils.obj
 0001:00000830       ??4XUtil@xercesc_2_2@@QAEAAV01@ABV01@@Z 12001830 f i Win32PlatformUtils.obj
 0001:00000830       ??4XMLChar1_0@xercesc_2_2@@QAEAAV01@ABV01@@Z 12001830 f i Win32PlatformUtils.obj
 0001:00000830       ??4XMLScannerResolver@xercesc_2_2@@QAEAAV01@ABV01@@Z 12001830 f i Win32PlatformUtils.obj
 0001:00000830       ??4HexBin@xercesc_2_2@@QAEAAV01@ABV01@@Z 12001830 f i Win32PlatformUtils.obj
 0001:00000830       ??4XMLUniCharacter@xercesc_2_2@@QAEAAV01@ABV01@@Z 12001830 f i Win32PlatformUtils.obj
 0001:00000830       ??4XPathSymbols@xercesc_2_2@@QAEAAV01@ABV01@@Z 12001830 f i Win32PlatformUtils.obj
 0001:00000830       ??4XMLString@xercesc_2_2@@QAEAAV01@ABV01@@Z 12001830 f i Win32PlatformUtils.obj
 0001:00000830       ??4XMLReaderFactory@xercesc_2_2@@QAEAAV01@ABV01@@Z 12001830 f i Win32PlatformUtils.obj
 0001:00000830       ??4XMLUni@xercesc_2_2@@QAEAAV01@ABV01@@Z 12001830 f i Win32PlatformUtils.obj
 0001:00000830       ??4SchemaSymbols@xercesc_2_2@@QAEAAV01@ABV01@@Z 12001830 f i Win32PlatformUtils.obj
 0001:00000830       ??4XMLChar1_1@xercesc_2_2@@QAEAAV01@ABV01@@Z 12001830 f i Win32PlatformUtils.obj
 0001:00000830       ??4PSVIDefs@xercesc_2_2@@QAEAAV01@ABV01@@Z 12001830 f i Win32PlatformUtils.obj
 0001:00000830       ??4RegxUtil@xercesc_2_2@@QAEAAV01@ABV01@@Z 12001830 f i Win32PlatformUtils.obj
 0001:00000830       ??4DOMImplementationRegistry@xercesc_2_2@@QAEAAV01@ABV01@@Z 12001830 f i Win32PlatformUtils.obj
 0001:00000840       ?moveChars@XMLString@xercesc_2_2@@SAXQAGQBGI@Z 12001840 f i Win32PlatformUtils.obj
 0001:00000870       ?stringLen@XMLString@xercesc_2_2@@SAIQBG@Z 12001870 f i Win32PlatformUtils.obj
 0001:000008a0       ?startsWith@XMLString@xercesc_2_2@@SA_NQBG0@Z 120018a0 f i Win32PlatformUtils.obj
 0001:000008e0       ?startsWithI@XMLString@xercesc_2_2@@SA_NQBG0@Z 120018e0 f i Win32PlatformUtils.obj
 0001:00000920       ?endsWith@XMLString@xercesc_2_2@@SA_NQBG0@Z 12001920 f i Win32PlatformUtils.obj
 0001:000009a0       ?replicate@XMLString@xercesc_2_2@@SAPAGQBG@Z 120019a0 f i Win32PlatformUtils.obj
 0001:00000a00       ?validateRegion@XMLString@xercesc_2_2@@CA_NQBGH0HI@Z 12001a00 f i Win32PlatformUtils.obj
 0001:00000a80       ?equals@XMLString@xercesc_2_2@@SA_NQBG0@Z 12001a80 f i Win32PlatformUtils.obj
 0001:00000ad0       ?equals@XMLString@xercesc_2_2@@SA_NQBD0@Z 12001ad0 f i Win32PlatformUtils.obj
 0001:00000b20       ?getScale@XMLBigDecimal@xercesc_2_2@@QBEIXZ 12001b20 f i Win32PlatformUtils.obj
 0001:00000b20       ?getIdentityConstraint@IC_Field@xercesc_2_2@@QBEPAVIdentityConstraint@2@XZ 12001b20 f i Win32PlatformUtils.obj
 0001:00000b20       ?getEnumeration@XMLAttDef@xercesc_2_2@@QBEPBGXZ 12001b20 f i Win32PlatformUtils.obj
 0001:00000b20       ?getPublicId@InputSource@xercesc_2_2@@UBEPBGXZ 12001b20 f i Win32PlatformUtils.obj
 0001:00000b20       ?getLocationPaths@XercesXPath@xercesc_2_2@@QBEPAV?$RefVectorOf@VXercesLocationPath@xercesc_2_2@@@2@XZ 12001b20 f i Win32PlatformUtils.obj
 0001:00000b20       ?getNoParen@ParenToken@xercesc_2_2@@UBEHXZ 12001b20 f i Win32PlatformUtils.obj
 0001:00000b20       ?getPublicId@XMLNotationDecl@xercesc_2_2@@QBEPBGXZ 12001b20 f i Win32PlatformUtils.obj
 0001:00000b20       ?getContentSpec@XercesGroupInfo@xercesc_2_2@@QBEPAVContentSpecNode@2@XZ 12001b20 f i Win32PlatformUtils.obj
 0001:00000b20       ?getColumnNumber@XSDLocator@xercesc_2_2@@UBEJXZ 12001b20 f i Win32PlatformUtils.obj
 0001:00000b20       ?getMessage@DOMErrorImpl@xercesc_2_2@@UBEPBGXZ 12001b20 f i Win32PlatformUtils.obj
 0001:00000b20       ?getUserInfo@XMLUri@xercesc_2_2@@QBEPBGXZ 12001b20 f i Win32PlatformUtils.obj
 0001:00000b20       ?getMin@ClosureToken@xercesc_2_2@@UBEHXZ 12001b20 f i Win32PlatformUtils.obj
 0001:00000b20       ?getEntityResolver@DOMBuilderImpl@xercesc_2_2@@UAEPAVDOMEntityResolver@2@XZ 12001b20 f i Win32PlatformUtils.obj
 0001:00000b20       ?getFacetsDefined@DatatypeValidator@xercesc_2_2@@IBEHXZ 12001b20 f i Win32PlatformUtils.obj
 0001:00000b20       ?getEntityResolver@DOMBuilderImpl@xercesc_2_2@@UBEPBVDOMEntityResolver@2@XZ 12001b20 f i Win32PlatformUtils.obj
 0001:00000b20       ?getChar@CharToken@xercesc_2_2@@UBEHXZ 12001b20 f i Win32PlatformUtils.obj
 0001:00000b20       ?getReferenceNo@StringToken@xercesc_2_2@@UBEHXZ 12001b20 f i Win32PlatformUtils.obj
 0001:00000b20       ?getOptions@ModifierToken@xercesc_2_2@@QBEHXZ 12001b20 f i Win32PlatformUtils.obj
 0001:00000b20       ?getFinalDefault@SchemaInfo@xercesc_2_2@@QBEHXZ 12001b20 f i Win32PlatformUtils.obj
 0001:00000b20       ?getLen@MemBufFormatTarget@xercesc_2_2@@QBEIXZ 12001b20 f i Win32PlatformUtils.obj
 0001:00000b20       ?curPos@BinHTTPURLInputStream@xercesc_2_2@@UBEIXZ 12001b20 f i Win32PlatformUtils.obj
 0001:00000b20       ?getTokenRegistry@RangeTokenMap@xercesc_2_2@@IBEPAV?$RefHashTableOf@VRangeTokenElemMap@xercesc_2_2@@@2@XZ 12001b20 f i Win32PlatformUtils.obj
 0001:00000b20       ?getName@XMLEntityDecl@xercesc_2_2@@QBEPBGXZ 12001b20 f i Win32PlatformUtils.obj
 0001:00000b20       ?getHost@XMLURL@xercesc_2_2@@QBEPBGXZ 12001b20 f i Win32PlatformUtils.obj
 0001:00000b20       ?getValue@XMLAttr@xercesc_2_2@@QBEPBGXZ 12001b20 f i Win32PlatformUtils.obj
 0001:00000b20       ?getBlockSet@ComplexTypeInfo@xercesc_2_2@@QBEHXZ 12001b20 f i Win32PlatformUtils.obj
 0001:00000b20       ?getIdentityConstraint@ValueStore@xercesc_2_2@@QBEPAVIdentityConstraint@2@XZ 12001b20 f i Win32PlatformUtils.obj
 0001:00000b20       ?getKey@XMLEntityDecl@xercesc_2_2@@QBEPBGXZ 12001b20 f i Win32PlatformUtils.obj
 0001:00000b20       ?getLocalPart@QName@xercesc_2_2@@QBEPBGXZ 12001b20 f i Win32PlatformUtils.obj
 0001:00000b20       ?getReferenceNo@ConditionToken@xercesc_2_2@@UBEHXZ 12001b20 f i Win32PlatformUtils.obj
 0001:00000b20       ?getElementName@IdentityConstraint@xercesc_2_2@@QBEPAGXZ 12001b20 f i Win32PlatformUtils.obj
 0001:00000b20       ?getColumnNumber@DOMLocatorImpl@xercesc_2_2@@UBEJXZ 12001b20 f i Win32PlatformUtils.obj
 0001:00000b20       ?getLocalPart@QName@xercesc_2_2@@QAEPAGXZ 12001b20 f i Win32PlatformUtils.obj
 0001:00000b20       ?getNextOp@Op@xercesc_2_2@@QBEPBV12@XZ 12001b20 f i Win32PlatformUtils.obj
 0001:00000b20       ?getCreateReason@XMLElementDecl@xercesc_2_2@@QBE?AW4CreateReasons@12@XZ 12001b20 f i Win32PlatformUtils.obj
 0001:00000b20       ?getRawData@XMLBigInteger@xercesc_2_2@@QBEPAGXZ 12001b20 f i Win32PlatformUtils.obj
 0001:00000b20       ?getEncodingName@XMLTranscoder@xercesc_2_2@@QBEPBGXZ 12001b20 f i Win32PlatformUtils.obj
 0001:00000b30       ??0HashBase@xercesc_2_2@@QAE@XZ 12001b30 f i Win32PlatformUtils.obj
 0001:00000b40       ??0HashBase@xercesc_2_2@@QAE@ABV01@@Z 12001b40 f i Win32PlatformUtils.obj
 0001:00000b50       ??4DOMWriterFilter@xercesc_2_2@@IAEAAV01@ABV01@@Z 12001b50 f i Win32PlatformUtils.obj
 0001:00000b50       ??4HashCMStateSet@xercesc_2_2@@QAEAAV01@ABV01@@Z 12001b50 f i Win32PlatformUtils.obj
 0001:00000b50       ??4DOMTypeInfo@xercesc_2_2@@IAEAAV01@ABV01@@Z 12001b50 f i Win32PlatformUtils.obj
 0001:00000b50       ??4DOMElement@xercesc_2_2@@IAEAAV01@ABV01@@Z 12001b50 f i Win32PlatformUtils.obj
 0001:00000b50       ??4DOMErrorHandler@xercesc_2_2@@IAEAAV01@ABV01@@Z 12001b50 f i Win32PlatformUtils.obj
 0001:00000b50       ??4HashPtr@xercesc_2_2@@QAEAAV01@ABV01@@Z 12001b50 f i Win32PlatformUtils.obj
 0001:00000b50       ??4DOMError@xercesc_2_2@@IAEAAV01@ABV01@@Z 12001b50 f i Win32PlatformUtils.obj
 0001:00000b50       ??4DOMNodeList@xercesc_2_2@@IAEAAV01@ABV01@@Z 12001b50 f i Win32PlatformUtils.obj
 0001:00000b50       ??4DOMEntityReference@xercesc_2_2@@IAEAAV01@ABV01@@Z 12001b50 f i Win32PlatformUtils.obj
 0001:00000b50       ??4DOMImplementation@xercesc_2_2@@IAEAAV01@ABV01@@Z 12001b50 f i Win32PlatformUtils.obj
 0001:00000b50       ??4DOMInputSource@xercesc_2_2@@IAEAAV01@ABV01@@Z 12001b50 f i Win32PlatformUtils.obj
 0001:00000b50       ??4DOMAttr@xercesc_2_2@@IAEAAV01@ABV01@@Z 12001b50 f i Win32PlatformUtils.obj
 0001:00000b50       ??4HashXMLCh@xercesc_2_2@@QAEAAV01@ABV01@@Z 12001b50 f i Win32PlatformUtils.obj
 0001:00000b50       ??4HashBase@xercesc_2_2@@QAEAAV01@ABV01@@Z 12001b50 f i Win32PlatformUtils.obj
 0001:00000b50       ??4DOMImplementationLS@xercesc_2_2@@IAEAAV01@ABV01@@Z 12001b50 f i Win32PlatformUtils.obj
 0001:00000b50       ??4DOMNodeFilter@xercesc_2_2@@IAEAAV01@ABV01@@Z 12001b50 f i Win32PlatformUtils.obj
 0001:00000b50       ??4DOMBuilder@xercesc_2_2@@IAEAAV01@ABV01@@Z 12001b50 f i Win32PlatformUtils.obj
 0001:00000b50       ??4DOMUserDataHandler@xercesc_2_2@@IAEAAV01@ABV01@@Z 12001b50 f i Win32PlatformUtils.obj
 0001:00000b50       ??4DOMLocator@xercesc_2_2@@IAEAAV01@ABV01@@Z 12001b50 f i Win32PlatformUtils.obj
 0001:00000b50       ??4XMLNumber@xercesc_2_2@@QAEAAV01@ABV01@@Z 12001b50 f i Win32PlatformUtils.obj
 0001:00000b50       ??4DOMText@xercesc_2_2@@IAEAAV01@ABV01@@Z 12001b50 f i Win32PlatformUtils.obj
 0001:00000b50       ??4DOMImplementationSource@xercesc_2_2@@IAEAAV01@ABV01@@Z 12001b50 f i Win32PlatformUtils.obj
 0001:00000b50       ??4DOMNamedNodeMap@xercesc_2_2@@IAEAAV01@ABV01@@Z 12001b50 f i Win32PlatformUtils.obj
 0001:00000b50       ??4DOMProcessingInstruction@xercesc_2_2@@IAEAAV01@ABV01@@Z 12001b50 f i Win32PlatformUtils.obj
 0001:00000b50       ??4DOMDocument@xercesc_2_2@@IAEAAV01@ABV01@@Z 12001b50 f i Win32PlatformUtils.obj
 0001:00000b50       ??4DOMNotation@xercesc_2_2@@IAEAAV01@ABV01@@Z 12001b50 f i Win32PlatformUtils.obj
 0001:00000b50       ??4DOMDocumentTraversal@xercesc_2_2@@IAEAAV01@ABV01@@Z 12001b50 f i Win32PlatformUtils.obj
 0001:00000b50       ??4DOMDocumentFragment@xercesc_2_2@@IAEAAV01@ABV01@@Z 12001b50 f i Win32PlatformUtils.obj
 0001:00000b50       ??4DOMTreeWalker@xercesc_2_2@@IAEAAV01@ABV01@@Z 12001b50 f i Win32PlatformUtils.obj
 0001:00000b50       ??4DOMDocumentRange@xercesc_2_2@@IAEAAV01@ABV01@@Z 12001b50 f i Win32PlatformUtils.obj
 0001:00000b50       ??4DOMDocumentType@xercesc_2_2@@IAEAAV01@ABV01@@Z 12001b50 f i Win32PlatformUtils.obj
 0001:00000b50       ??4DOMNode@xercesc_2_2@@IAEAAV01@ABV01@@Z 12001b50 f i Win32PlatformUtils.obj
 0001:00000b50       ??4DOMWriter@xercesc_2_2@@IAEAAV01@ABV01@@Z 12001b50 f i Win32PlatformUtils.obj
 0001:00000b50       ??4DOMComment@xercesc_2_2@@IAEAAV01@ABV01@@Z 12001b50 f i Win32PlatformUtils.obj
 0001:00000b50       ??4DOMEntity@xercesc_2_2@@IAEAAV01@ABV01@@Z 12001b50 f i Win32PlatformUtils.obj
 0001:00000b50       ??4XMLAttDefList@xercesc_2_2@@IAEAAV01@ABV01@@Z 12001b50 f i Win32PlatformUtils.obj
 0001:00000b50       ??4Grammar@xercesc_2_2@@QAEAAV01@ABV01@@Z 12001b50 f i Win32PlatformUtils.obj
 0001:00000b50       ??4DOMRange@xercesc_2_2@@IAEAAV01@ABV01@@Z 12001b50 f i Win32PlatformUtils.obj
 0001:00000b50       ??4DOMCharacterData@xercesc_2_2@@IAEAAV01@ABV01@@Z 12001b50 f i Win32PlatformUtils.obj
 0001:00000b50       ??4DOMCDATASection@xercesc_2_2@@IAEAAV01@ABV01@@Z 12001b50 f i Win32PlatformUtils.obj
 0001:00000b50       ??4DOMNodeIterator@xercesc_2_2@@IAEAAV01@ABV01@@Z 12001b50 f i Win32PlatformUtils.obj
 0001:00000b50       ??4DOMEntityResolver@xercesc_2_2@@IAEAAV01@ABV01@@Z 12001b50 f i Win32PlatformUtils.obj
 0001:00000b60       ??0IllegalArgumentException@xercesc_2_2@@QAE@QBDIW4Codes@XMLExcepts@1@@Z 12001b60 f i Win32PlatformUtils.obj
 0001:00000bc0       ??0IllegalArgumentException@xercesc_2_2@@QAE@ABV01@@Z 12001bc0 f i Win32PlatformUtils.obj
 0001:00000be0       ??0IllegalArgumentException@xercesc_2_2@@QAE@QBDIW4Codes@XMLExcepts@1@QBG222@Z 12001be0 f i Win32PlatformUtils.obj
 0001:00000c50       ??0IllegalArgumentException@xercesc_2_2@@QAE@QBDIW4Codes@XMLExcepts@1@0000@Z 12001c50 f i Win32PlatformUtils.obj
 0001:00000cc0       ??1IllegalArgumentException@xercesc_2_2@@UAE@XZ 12001cc0 f i Win32PlatformUtils.obj
 0001:00000cd0       ?duplicate@IllegalArgumentException@xercesc_2_2@@UBEPAVXMLException@2@XZ 12001cd0 f i Win32PlatformUtils.obj
 0001:00000d30       ?getType@IllegalArgumentException@xercesc_2_2@@UBEPBGXZ 12001d30 f i Win32PlatformUtils.obj
 0001:00000d40       ??_EIllegalArgumentException@xercesc_2_2@@UAEPAXI@Z 12001d40 f i Win32PlatformUtils.obj
 0001:00000da0       ??0NoSuchElementException@xercesc_2_2@@QAE@QBDIW4Codes@XMLExcepts@1@@Z 12001da0 f i Win32PlatformUtils.obj
 0001:00000e00       ??0NoSuchElementException@xercesc_2_2@@QAE@ABV01@@Z 12001e00 f i Win32PlatformUtils.obj
 0001:00000e20       ??0NoSuchElementException@xercesc_2_2@@QAE@QBDIW4Codes@XMLExcepts@1@QBG222@Z 12001e20 f i Win32PlatformUtils.obj
 0001:00000e90       ??0NoSuchElementException@xercesc_2_2@@QAE@QBDIW4Codes@XMLExcepts@1@0000@Z 12001e90 f i Win32PlatformUtils.obj
 0001:00000f00       ??1NoSuchElementException@xercesc_2_2@@UAE@XZ 12001f00 f i Win32PlatformUtils.obj
 0001:00000f10       ?duplicate@NoSuchElementException@xercesc_2_2@@UBEPAVXMLException@2@XZ 12001f10 f i Win32PlatformUtils.obj
 0001:00000f70       ?getType@NoSuchElementException@xercesc_2_2@@UBEPBGXZ 12001f70 f i Win32PlatformUtils.obj
 0001:00000f80       ??_ENoSuchElementException@xercesc_2_2@@UAEPAXI@Z 12001f80 f i Win32PlatformUtils.obj
 0001:00000fe0       ??0HashXMLCh@xercesc_2_2@@QAE@ABV01@@Z 12001fe0 f i Win32PlatformUtils.obj
 0001:00000ff0       ??_EHashXMLCh@xercesc_2_2@@UAEPAXI@Z 12001ff0 f i Win32PlatformUtils.obj
 0001:00001050       ??0NullPointerException@xercesc_2_2@@QAE@QBDIW4Codes@XMLExcepts@1@@Z 12002050 f i Win32PlatformUtils.obj
 0001:000010b0       ??0NullPointerException@xercesc_2_2@@QAE@ABV01@@Z 120020b0 f i Win32PlatformUtils.obj
 0001:000010d0       ??0NullPointerException@xercesc_2_2@@QAE@QBDIW4Codes@XMLExcepts@1@QBG222@Z 120020d0 f i Win32PlatformUtils.obj
 0001:00001140       ??0NullPointerException@xercesc_2_2@@QAE@QBDIW4Codes@XMLExcepts@1@0000@Z 12002140 f i Win32PlatformUtils.obj
 0001:000011b0       ??1NullPointerException@xercesc_2_2@@UAE@XZ 120021b0 f i Win32PlatformUtils.obj
 0001:000011c0       ?duplicate@NullPointerException@xercesc_2_2@@UBEPAVXMLException@2@XZ 120021c0 f i Win32PlatformUtils.obj
 0001:00001220       ?getType@NullPointerException@xercesc_2_2@@UBEPBGXZ 12002220 f i Win32PlatformUtils.obj
 0001:00001230       ??_ENullPointerException@xercesc_2_2@@UAEPAXI@Z 12002230 f i Win32PlatformUtils.obj
 0001:00001290       ??1XMLMsgLoader@xercesc_2_2@@UAE@XZ 12002290 f i Win32PlatformUtils.obj
 0001:000012a0       ??_EXMLMsgLoader@xercesc_2_2@@UAEPAXI@Z 120022a0 f i Win32PlatformUtils.obj
 0001:00001300       ??0XMLMsgLoader@xercesc_2_2@@IAE@XZ 12002300 f i Win32PlatformUtils.obj
 0001:00001310       ??9XMLURL@xercesc_2_2@@QBE_NABV01@@Z 12002310 f i Win32PlatformUtils.obj
 0001:00001330       ?getURLText@XMLURL@xercesc_2_2@@QBEPBGXZ 12002330 f i Win32PlatformUtils.obj
 0001:00001350       ??0MalformedURLException@xercesc_2_2@@QAE@QBDIW4Codes@XMLExcepts@1@@Z 12002350 f i Win32PlatformUtils.obj
 0001:000013b0       ??0MalformedURLException@xercesc_2_2@@QAE@ABV01@@Z 120023b0 f i Win32PlatformUtils.obj
 0001:000013d0       ??0MalformedURLException@xercesc_2_2@@QAE@QBDIW4Codes@XMLExcepts@1@QBG222@Z 120023d0 f i Win32PlatformUtils.obj
 0001:00001440       ??0MalformedURLException@xercesc_2_2@@QAE@QBDIW4Codes@XMLExcepts@1@0000@Z 12002440 f i Win32PlatformUtils.obj
 0001:000014b0       ??1MalformedURLException@xercesc_2_2@@UAE@XZ 120024b0 f i Win32PlatformUtils.obj
 0001:000014c0       ?duplicate@MalformedURLException@xercesc_2_2@@UBEPAVXMLException@2@XZ 120024c0 f i Win32PlatformUtils.obj
 0001:00001520       ?getType@MalformedURLException@xercesc_2_2@@UBEPBGXZ 12002520 f i Win32PlatformUtils.obj
 0001:00001530       ??_EMalformedURLException@xercesc_2_2@@UAEPAXI@Z 12002530 f i Win32PlatformUtils.obj
 0001:00001590       ??1XMLNetAccessor@xercesc_2_2@@UAE@XZ 12002590 f i Win32PlatformUtils.obj
 0001:000015a0       ??0XMLNetAccessor@xercesc_2_2@@IAE@XZ 120025a0 f i Win32PlatformUtils.obj
 0001:000015b0       ??_EXMLNetAccessor@xercesc_2_2@@UAEPAXI@Z 120025b0 f i Win32PlatformUtils.obj
 0001:00001610       ??0NetAccessorException@xercesc_2_2@@QAE@QBDIW4Codes@XMLExcepts@1@@Z 12002610 f i Win32PlatformUtils.obj
 0001:00001670       ??0NetAccessorException@xercesc_2_2@@QAE@ABV01@@Z 12002670 f i Win32PlatformUtils.obj
 0001:00001690       ??0NetAccessorException@xercesc_2_2@@QAE@QBDIW4Codes@XMLExcepts@1@QBG222@Z 12002690 f i Win32PlatformUtils.obj
 0001:00001700       ??0NetAccessorException@xercesc_2_2@@QAE@QBDIW4Codes@XMLExcepts@1@0000@Z 12002700 f i Win32PlatformUtils.obj
 0001:00001770       ??1NetAccessorException@xercesc_2_2@@UAE@XZ 12002770 f i Win32PlatformUtils.obj
 0001:00001780       ?duplicate@NetAccessorException@xercesc_2_2@@UBEPAVXMLException@2@XZ 12002780 f i Win32PlatformUtils.obj
 0001:000017e0       ?getType@NetAccessorException@xercesc_2_2@@UBEPBGXZ 120027e0 f i Win32PlatformUtils.obj
 0001:000017f0       ??_ENetAccessorException@xercesc_2_2@@UAEPAXI@Z 120027f0 f i Win32PlatformUtils.obj
 0001:00001850       ?getId@WinSockNetAccessor@xercesc_2_2@@UBEPBGXZ 12002850 f i Win32PlatformUtils.obj
 0001:00001860       ?panic@XMLPlatformUtils@xercesc_2_2@@SAXW4PanicReasons@12@@Z 12002860 f   Win32PlatformUtils.obj
 0001:000018e0       ?curFilePos@XMLPlatformUtils@xercesc_2_2@@SAIPAX@Z 120028e0 f   Win32PlatformUtils.obj
 0001:00001930       ?closeFile@XMLPlatformUtils@xercesc_2_2@@SAXPAX@Z 12002930 f   Win32PlatformUtils.obj
 0001:00001970       ?fileSize@XMLPlatformUtils@xercesc_2_2@@SAIPAX@Z 12002970 f   Win32PlatformUtils.obj
 0001:00001a30       ?openFile@XMLPlatformUtils@xercesc_2_2@@SAPAXQBD@Z 12002a30 f   Win32PlatformUtils.obj
 0001:00001a60       ?openFile@XMLPlatformUtils@xercesc_2_2@@SAPAXQBG@Z 12002a60 f   Win32PlatformUtils.obj
 0001:00001bf0       ?openFileToWrite@XMLPlatformUtils@xercesc_2_2@@SAPAXQBD@Z 12002bf0 f   Win32PlatformUtils.obj
 0001:00001c20       ?openFileToWrite@XMLPlatformUtils@xercesc_2_2@@SAPAXQBG@Z 12002c20 f   Win32PlatformUtils.obj
 0001:00001d40       ?openStdInHandle@XMLPlatformUtils@xercesc_2_2@@SAPAXXZ 12002d40 f   Win32PlatformUtils.obj
 0001:00001e00       ?readFileBuffer@XMLPlatformUtils@xercesc_2_2@@SAIPAXIQAE@Z 12002e00 f   Win32PlatformUtils.obj
 0001:00001e70       ?writeBufferToFile@XMLPlatformUtils@xercesc_2_2@@SAXQAXJQBE@Z 12002e70 f   Win32PlatformUtils.obj
 0001:00001f00       ?resetFile@XMLPlatformUtils@xercesc_2_2@@SAXPAX@Z 12002f00 f   Win32PlatformUtils.obj
 0001:00001f50       ?getFullPath@XMLPlatformUtils@xercesc_2_2@@SAPAGQBG@Z 12002f50 f   Win32PlatformUtils.obj
 0001:000020f0       ?isRelative@XMLPlatformUtils@xercesc_2_2@@SA_NQBG@Z 120030f0 f   Win32PlatformUtils.obj
 0001:00002150       ?weavePaths@XMLPlatformUtils@xercesc_2_2@@SAPAGQBG0@Z 12003150 f   Win32PlatformUtils.obj
 0001:00002390       ?getCurrentMillis@XMLPlatformUtils@xercesc_2_2@@SAKXZ 12003390 f   Win32PlatformUtils.obj
 0001:000023a0       ?closeMutex@XMLPlatformUtils@xercesc_2_2@@SAXQAX@Z 120033a0 f   Win32PlatformUtils.obj
 0001:000023c0       ?lockMutex@XMLPlatformUtils@xercesc_2_2@@SAXQAX@Z 120033c0 f   Win32PlatformUtils.obj
 0001:000023d0       ?makeMutex@XMLPlatformUtils@xercesc_2_2@@SAPAXXZ 120033d0 f   Win32PlatformUtils.obj
 0001:000023f0       ?unlockMutex@XMLPlatformUtils@xercesc_2_2@@SAXQAX@Z 120033f0 f   Win32PlatformUtils.obj
 0001:00002400       ?compareAndSwap@XMLPlatformUtils@xercesc_2_2@@SAPAXPAPAXQBX1@Z 12003400 f   Win32PlatformUtils.obj
 0001:00002420       ?atomicIncrement@XMLPlatformUtils@xercesc_2_2@@SAHAAH@Z 12003420 f   Win32PlatformUtils.obj
 0001:00002430       ?atomicDecrement@XMLPlatformUtils@xercesc_2_2@@SAHAAH@Z 12003430 f   Win32PlatformUtils.obj
 0001:00002440       ?makeNetAccessor@XMLPlatformUtils@xercesc_2_2@@CAPAVXMLNetAccessor@2@XZ 12003440 f   Win32PlatformUtils.obj
 0001:000024a0       ?loadAMsgSet@XMLPlatformUtils@xercesc_2_2@@CAPAVXMLMsgLoader@2@QBG@Z 120034a0 f   Win32PlatformUtils.obj
 0001:00002500       ?makeTransService@XMLPlatformUtils@xercesc_2_2@@CAPAVXMLTransService@2@XZ 12003500 f   Win32PlatformUtils.obj
 0001:00002560       ?platformInit@XMLPlatformUtils@xercesc_2_2@@CAXXZ 12003560 f   Win32PlatformUtils.obj
 0001:00002590       _DllMain@12                12003590 f   Win32MsgLoader.obj
 0001:000025b0       ??0Win32MsgLoader@xercesc_2_2@@QAE@QBG@Z 120035b0 f   Win32MsgLoader.obj
 0001:000027d0       ??_EWin32MsgLoader@xercesc_2_2@@UAEPAXI@Z 120037d0 f i Win32MsgLoader.obj
 0001:00002830       ??1Win32MsgLoader@xercesc_2_2@@UAE@XZ 12003830 f   Win32MsgLoader.obj
 0001:00002880       ?loadMsg@Win32MsgLoader@xercesc_2_2@@UAE_NIQAGI@Z 12003880 f   Win32MsgLoader.obj
 0001:00002930       ?loadMsg@Win32MsgLoader@xercesc_2_2@@UAE_NIQAGIQBG111@Z 12003930 f   Win32MsgLoader.obj
 0001:00002980       ?loadMsg@Win32MsgLoader@xercesc_2_2@@UAE_NIQAGIQBD111@Z 12003980 f   Win32MsgLoader.obj
 0001:00002a50       ??0TranscodingException@xercesc_2_2@@QAE@QBDIW4Codes@XMLExcepts@1@@Z 12003a50 f i Win32TransService.obj
 0001:00002ab0       ??0TranscodingException@xercesc_2_2@@QAE@ABV01@@Z 12003ab0 f i Win32TransService.obj
 0001:00002ad0       ??0TranscodingException@xercesc_2_2@@QAE@QBDIW4Codes@XMLExcepts@1@QBG222@Z 12003ad0 f i Win32TransService.obj
 0001:00002b40       ??0TranscodingException@xercesc_2_2@@QAE@QBDIW4Codes@XMLExcepts@1@0000@Z 12003b40 f i Win32TransService.obj
 0001:00002bb0       ??1TranscodingException@xercesc_2_2@@UAE@XZ 12003bb0 f i Win32TransService.obj
 0001:00002bc0       ?duplicate@TranscodingException@xercesc_2_2@@UBEPAVXMLException@2@XZ 12003bc0 f i Win32TransService.obj
 0001:00002c20       ?getType@TranscodingException@xercesc_2_2@@UBEPBGXZ 12003c20 f i Win32TransService.obj
 0001:00002c30       ??_ETranscodingException@xercesc_2_2@@UAEPAXI@Z 12003c30 f i Win32TransService.obj
 0001:00002c90       ??0Win32TransService@xercesc_2_2@@QAE@XZ 12003c90 f   Win32TransService.obj
 0001:000032f0       ??_EWin32TransService@xercesc_2_2@@UAEPAXI@Z 120042f0 f i Win32TransService.obj
 0001:00003350       ??1Win32TransService@xercesc_2_2@@UAE@XZ 12004350 f   Win32TransService.obj
 0001:00003430       ?compareIString@Win32TransService@xercesc_2_2@@UAEHQBG0@Z 12004430 f   Win32TransService.obj
 0001:00003450       ?compareNIString@Win32TransService@xercesc_2_2@@UAEHQBG0I@Z 12004450 f   Win32TransService.obj
 0001:00003470       ?getId@Win32TransService@xercesc_2_2@@UBEPBGXZ 12004470 f   Win32TransService.obj
 0001:00003480       ?isSpace@Win32TransService@xercesc_2_2@@UBE_NG@Z 12004480 f   Win32TransService.obj
 0001:000034a0       ?makeNewLCPTranscoder@Win32TransService@xercesc_2_2@@UAEPAVXMLLCPTranscoder@2@XZ 120044a0 f   Win32TransService.obj
 0001:000034f0       ?isDocumentImpl@DocumentImpl@xercesc_2_2@@UAE_NXZ 120044f0 f   Win32TransService.obj
 0001:000034f0       ?isTextImpl@TextImpl@xercesc_2_2@@UAE_NXZ 120044f0 f   Win32TransService.obj
 0001:000034f0       ?isDocumentTypeImpl@DocumentTypeImpl@xercesc_2_2@@UAE_NXZ 120044f0 f   Win32TransService.obj
 0001:000034f0       ?supportsSrcOfs@Win32TransService@xercesc_2_2@@UBE_NXZ 120044f0 f   Win32TransService.obj
 0001:000034f0       ?isElementImpl@ElementImpl@xercesc_2_2@@UAE_NXZ 120044f0 f   Win32TransService.obj
 0001:000034f0       ?requiresNamespaces@SchemaValidator@xercesc_2_2@@UBE_NXZ 120044f0 f   Win32TransService.obj
 0001:000034f0       ?isEntityReference@EntityReferenceImpl@xercesc_2_2@@UAE_NXZ 120044f0 f   Win32TransService.obj
 0001:000034f0       ?isCDATASectionImpl@CDATASectionImpl@xercesc_2_2@@UAE_NXZ 120044f0 f   Win32TransService.obj
 0001:000034f0       ?isAttrImpl@AttrImpl@xercesc_2_2@@UAE_NXZ 120044f0 f   Win32TransService.obj
 0001:000034f0       ?isDocumentFragmentImpl@DocumentFragmentImpl@xercesc_2_2@@UAE_NXZ 120044f0 f   Win32TransService.obj
 0001:00003500       ?upperCase@Win32TransService@xercesc_2_2@@UBEXQAG@Z 12004500 f   Win32TransService.obj
 0001:00003510       ?lowerCase@Win32TransService@xercesc_2_2@@UBEXQAG@Z 12004510 f   Win32TransService.obj
 0001:00003520       ?isAlias@Win32TransService@xercesc_2_2@@CA_NQAUHKEY__@@QADI@Z 12004520 f   Win32TransService.obj
 0001:00003550       ?makeNewXMLTranscoder@Win32TransService@xercesc_2_2@@MAEPAVXMLTranscoder@2@QBGAAW4Codes@XMLTransService@2@I@Z 12004550 f   Win32TransService.obj
 0001:000036b0       ??0Win32Transcoder@xercesc_2_2@@QAE@QBGIII@Z 120046b0 f   Win32TransService.obj
 0001:000036e0       ??_EWin32Transcoder@xercesc_2_2@@UAEPAXI@Z 120046e0 f i Win32TransService.obj
 0001:00003740       ??1Win32Transcoder@xercesc_2_2@@UAE@XZ 12004740 f   Win32TransService.obj
 0001:00003750       ?transcodeFrom@Win32Transcoder@xercesc_2_2@@UAEIQBEIQAGIAAIQAE@Z 12004750 f   Win32TransService.obj
 0001:00003880       ?transcodeTo@Win32Transcoder@xercesc_2_2@@UAEIQBGIQAEIAAIW4UnRepOpts@XMLTranscoder@2@@Z 12004880 f   Win32TransService.obj
 0001:00003960       ?canTranscodeTo@Win32Transcoder@xercesc_2_2@@UBE_NI@Z 12004960 f   Win32TransService.obj
 0001:000039e0       ??0Win32LCPTranscoder@xercesc_2_2@@QAE@XZ 120049e0 f   Win32TransService.obj
 0001:00003a00       ??_EWin32LCPTranscoder@xercesc_2_2@@UAEPAXI@Z 12004a00 f i Win32TransService.obj
 0001:00003a60       ??1Win32LCPTranscoder@xercesc_2_2@@UAE@XZ 12004a60 f   Win32TransService.obj
 0001:00003a70       ?calcRequiredSize@Win32LCPTranscoder@xercesc_2_2@@UAEIQBD@Z 12004a70 f   Win32TransService.obj
 0001:00003ad0       ?calcRequiredSize@Win32LCPTranscoder@xercesc_2_2@@UAEIQBG@Z 12004ad0 f   Win32TransService.obj
 0001:00003b00       ?transcode@Win32LCPTranscoder@xercesc_2_2@@UAEPADQBG@Z 12004b00 f   Win32TransService.obj
 0001:00003b80       ?transcode@Win32LCPTranscoder@xercesc_2_2@@UAEPAGQBD@Z 12004b80 f   Win32TransService.obj
 0001:00003c00       ?transcode@Win32LCPTranscoder@xercesc_2_2@@UAE_NQBDQAGI@Z 12004c00 f   Win32TransService.obj
 0001:00003c50       ?transcode@Win32LCPTranscoder@xercesc_2_2@@UAE_NQBGQADI@Z 12004c50 f   Win32TransService.obj
 0001:00003cb0       ?Initialize@BinHTTPURLInputStream@xercesc_2_2@@CAXXZ 12004cb0 f   BinHTTPURLInputStream.obj
 0001:00003f30       ?Cleanup@BinHTTPURLInputStream@xercesc_2_2@@SAXXZ 12004f30 f   BinHTTPURLInputStream.obj
 0001:00003fd0       ?gethostbyname@BinHTTPURLInputStream@xercesc_2_2@@CAPAUhostent@@PBD@Z 12004fd0 f i BinHTTPURLInputStream.obj
 0001:00003fe0       ?inet_addr@BinHTTPURLInputStream@xercesc_2_2@@CAKPBD@Z 12004fe0 f i BinHTTPURLInputStream.obj
 0001:00003ff0       ?gethostbyaddr@BinHTTPURLInputStream@xercesc_2_2@@CAPAUhostent@@PBDHH@Z 12004ff0 f i BinHTTPURLInputStream.obj
 0001:00004010       ?htons@BinHTTPURLInputStream@xercesc_2_2@@CAGG@Z 12005010 f i BinHTTPURLInputStream.obj
 0001:00004020       ?socket@BinHTTPURLInputStream@xercesc_2_2@@CAGHHH@Z 12005020 f i BinHTTPURLInputStream.obj
 0001:00004040       ?connect@BinHTTPURLInputStream@xercesc_2_2@@CAHGPBUsockaddr@@H@Z 12005040 f i BinHTTPURLInputStream.obj
 0001:00004060       ?send@BinHTTPURLInputStream@xercesc_2_2@@CAHGPBDHH@Z 12005060 f i BinHTTPURLInputStream.obj
 0001:00004080       ?recv@BinHTTPURLInputStream@xercesc_2_2@@CAHGPADHH@Z 12005080 f i BinHTTPURLInputStream.obj
 0001:000040a0       ?shutdown@BinHTTPURLInputStream@xercesc_2_2@@CAHIH@Z 120050a0 f i BinHTTPURLInputStream.obj
 0001:000040c0       ?closesocket@BinHTTPURLInputStream@xercesc_2_2@@CAHI@Z 120050c0 f i BinHTTPURLInputStream.obj
 0001:000040d0       ??0BinHTTPURLInputStream@xercesc_2_2@@QAE@ABVXMLURL@1@@Z 120050d0 f   BinHTTPURLInputStream.obj
 0001:000049a0       ??_EBinHTTPURLInputStream@xercesc_2_2@@UAEPAXI@Z 120059a0 f i BinHTTPURLInputStream.obj
 0001:00004a00       ??1BinHTTPURLInputStream@xercesc_2_2@@UAE@XZ 12005a00 f   BinHTTPURLInputStream.obj
 0001:00004a60       ?readBytes@BinHTTPURLInputStream@xercesc_2_2@@UAEIQAEI@Z 12005a60 f   BinHTTPURLInputStream.obj
 0001:00004b00       ??0WinSockNetAccessor@xercesc_2_2@@QAE@XZ 12005b00 f   WinSockNetAccessor.obj
 0001:00004b10       ??_EWinSockNetAccessor@xercesc_2_2@@UAEPAXI@Z 12005b10 f i WinSockNetAccessor.obj
 0001:00004b70       ??1WinSockNetAccessor@xercesc_2_2@@UAE@XZ 12005b70 f   WinSockNetAccessor.obj
 0001:00004bc0       ?makeNew@WinSockNetAccessor@xercesc_2_2@@UAEPAVBinInputStream@2@ABVXMLURL@2@@Z 12005bc0 f   WinSockNetAccessor.obj
 0001:00004c70       ?getOpType@Op@xercesc_2_2@@QBEFXZ 12005c70 f i ASCIIRangeFactory.obj
 0001:00004c70       ?getTokenType@Token@xercesc_2_2@@QBEGXZ 12005c70 f i ASCIIRangeFactory.obj
 0001:00004c80       ?getChild@Token@xercesc_2_2@@UBEPAV12@H@Z 12005c80 f i ASCIIRangeFactory.obj
 0001:00004c90       ?getChar@Token@xercesc_2_2@@UBEHXZ 12005c90 f i ASCIIRangeFactory.obj
 0001:00004c90       ?getMin@Token@xercesc_2_2@@UBEHXZ 12005c90 f i ASCIIRangeFactory.obj
 0001:00004c90       ?getMax@Token@xercesc_2_2@@UBEHXZ 12005c90 f i ASCIIRangeFactory.obj
 0001:00004ca0       ?setTokenType@Token@xercesc_2_2@@QAEXG@Z 12005ca0 f i ASCIIRangeFactory.obj
 0001:00004ca0       ?setOpType@Op@xercesc_2_2@@QAEXF@Z 12005ca0 f i ASCIIRangeFactory.obj
 0001:00004cb0       ?isSet@Token@xercesc_2_2@@AAE_NHI@Z 12005cb0 f i ASCIIRangeFactory.obj
 0001:00004cb0       ?isSet@RegularExpression@xercesc_2_2@@AAE_NHH@Z 12005cb0 f i ASCIIRangeFactory.obj
 0001:00004cd0       ?addChild@Token@xercesc_2_2@@UAEXQAV12@QAVTokenFactory@2@@Z 12005cd0 f i ASCIIRangeFactory.obj
 0001:00004d00       ?addRange@Token@xercesc_2_2@@UAEXHH@Z 12005d00 f i ASCIIRangeFactory.obj
 0001:00004d30       ?mergeRanges@Token@xercesc_2_2@@UAEXQBV12@@Z 12005d30 f i ASCIIRangeFactory.obj
 0001:00004d60       ?sortRanges@Token@xercesc_2_2@@UAEXXZ 12005d60 f i ASCIIRangeFactory.obj
 0001:00004d90       ?compactRanges@Token@xercesc_2_2@@UAEXXZ 12005d90 f i ASCIIRangeFactory.obj
 0001:00004dc0       ?subtractRanges@Token@xercesc_2_2@@UAEXQAVRangeToken@2@@Z 12005dc0 f i ASCIIRangeFactory.obj
 0001:00004df0       ?intersectRanges@Token@xercesc_2_2@@UAEXQAVRangeToken@2@@Z 12005df0 f i ASCIIRangeFactory.obj
 0001:00004e20       ??_FXMLStringPool@xercesc_2_2@@QAEXXZ 12005e20 f i ASCIIRangeFactory.obj
 0001:00004e30       ?getRangeToken@RangeTokenElemMap@xercesc_2_2@@QBEPAVRangeToken@2@_N@Z 12005e30 f i ASCIIRangeFactory.obj
 0001:00004e50       ?setValueStoreCache@FieldActivator@xercesc_2_2@@QAEXQAVValueStoreCache@2@@Z 12005e50 f i ASCIIRangeFactory.obj
 0001:00004e50       ?setId@XMLNotationDecl@xercesc_2_2@@QAEXI@Z 12005e50 f i ASCIIRangeFactory.obj
 0001:00004e50       ?setCategoryId@RangeTokenElemMap@xercesc_2_2@@QAEXI@Z 12005e50 f i ASCIIRangeFactory.obj
 0001:00004e50       ?setSign@XMLBigInteger@xercesc_2_2@@AAEXH@Z 12005e50 f i ASCIIRangeFactory.obj
 0001:00004e50       ?setEscapeFlags@XMLFormatter@xercesc_2_2@@QAEXW4EscapeFlags@12@@Z 12005e50 f i ASCIIRangeFactory.obj
 0001:00004e60       ?setRangeToken@RangeTokenElemMap@xercesc_2_2@@QAEXQAVRangeToken@2@_N@Z 12005e60 f i ASCIIRangeFactory.obj
 0001:00004e80       ??0ASCIIRangeFactory@xercesc_2_2@@QAE@XZ 12005e80 f   ASCIIRangeFactory.obj
 0001:00004ea0       ??_EASCIIRangeFactory@xercesc_2_2@@UAEPAXI@Z 12005ea0 f i ASCIIRangeFactory.obj
 0001:00004f00       ??1ASCIIRangeFactory@xercesc_2_2@@UAE@XZ 12005f00 f   ASCIIRangeFactory.obj
 0001:00004f10       ?buildRanges@ASCIIRangeFactory@xercesc_2_2@@MAEXXZ 12005f10 f   ASCIIRangeFactory.obj
 0001:00005060       ?initializeKeywordMap@ASCIIRangeFactory@xercesc_2_2@@UAEXXZ 12006060 f   ASCIIRangeFactory.obj
 0001:000050d0       ??0BlockRangeFactory@xercesc_2_2@@QAE@XZ 120060d0 f   BlockRangeFactory.obj
 0001:000050f0       ??_EBlockRangeFactory@xercesc_2_2@@UAEPAXI@Z 120060f0 f i BlockRangeFactory.obj
 0001:00005150       ??1BlockRangeFactory@xercesc_2_2@@UAE@XZ 12006150 f   BlockRangeFactory.obj
 0001:00005160       ?buildRanges@BlockRangeFactory@xercesc_2_2@@MAEXXZ 12006160 f   BlockRangeFactory.obj
 0001:00005300       ?initializeKeywordMap@BlockRangeFactory@xercesc_2_2@@UAEXXZ 12006300 f   BlockRangeFactory.obj
 0001:00005340       ?cleanUp@BMPattern@xercesc_2_2@@AAEXXZ 12006340 f i BMPattern.obj
 0001:00005370       ??0BMPattern@xercesc_2_2@@QAE@QBG_N@Z 12006370 f   BMPattern.obj
 0001:00005440       ??0BMPattern@xercesc_2_2@@QAE@QBGH_N@Z 12006440 f   BMPattern.obj
 0001:00005510       ??1BMPattern@xercesc_2_2@@QAE@XZ 12006510 f   BMPattern.obj
 0001:00005540       ?matches@BMPattern@xercesc_2_2@@QAEHQBGHH@Z 12006540 f   BMPattern.obj
 0001:000056e0       ?initialize@BMPattern@xercesc_2_2@@AAEXXZ 120066e0 f   BMPattern.obj
 0001:00005870       ?match@CharToken@xercesc_2_2@@QAE_NH@Z 12006870 f i CharToken.obj
 0001:00005890       ??0CharToken@xercesc_2_2@@QAE@GH@Z 12006890 f   CharToken.obj
 0001:000058b0       ??_ECharToken@xercesc_2_2@@UAEPAXI@Z 120068b0 f i CharToken.obj
 0001:00005910       ??1CharToken@xercesc_2_2@@UAE@XZ 12006910 f   CharToken.obj
 0001:00005920       ?getChild@ClosureToken@xercesc_2_2@@UBEPAVToken@2@H@Z 12006920 f i ClosureToken.obj
 0001:00005920       ?getChild@ModifierToken@xercesc_2_2@@UBEPAVToken@2@H@Z 12006920 f i ClosureToken.obj
 0001:00005930       ??0ClosureToken@xercesc_2_2@@QAE@GQAVToken@1@@Z 12006930 f   ClosureToken.obj
 0001:00005960       ??_EClosureToken@xercesc_2_2@@UAEPAXI@Z 12006960 f i ClosureToken.obj
 0001:000059c0       ??1ClosureToken@xercesc_2_2@@UAE@XZ 120069c0 f   ClosureToken.obj
 0001:000059d0       ?size@ConcatToken@xercesc_2_2@@UBEHXZ 120069d0 f i ConcatToken.obj
 0001:000059e0       ?getChild@ConcatToken@xercesc_2_2@@UBEPAVToken@2@H@Z 120069e0 f i ConcatToken.obj
 0001:00005a00       ??0ConcatToken@xercesc_2_2@@QAE@QAVToken@1@0@Z 12006a00 f   ConcatToken.obj
 0001:00005a30       ??_EConcatToken@xercesc_2_2@@UAEPAXI@Z 12006a30 f i ConcatToken.obj
 0001:00005a90       ??1ConcatToken@xercesc_2_2@@UAE@XZ 12006a90 f   ConcatToken.obj
 0001:00005aa0       ?size@ConditionToken@xercesc_2_2@@UBEHXZ 12006aa0 f i ConditionToken.obj
 0001:00005ab0       ?getChild@ConditionToken@xercesc_2_2@@UBEPAVToken@2@H@Z 12006ab0 f i ConditionToken.obj
 0001:00005b00       ??0ConditionToken@xercesc_2_2@@QAE@IQAVToken@1@00@Z 12006b00 f   ConditionToken.obj
 0001:00005b40       ??_EConditionToken@xercesc_2_2@@UAEPAXI@Z 12006b40 f i ConditionToken.obj
 0001:00005ba0       ??1ConditionToken@xercesc_2_2@@UAE@XZ 12006ba0 f   ConditionToken.obj
 0001:00005bb0       ?getNoGroups@Match@xercesc_2_2@@QBEHXZ 12006bb0 f i Match.obj
 0001:00005bf0       ?getStartPos@Match@xercesc_2_2@@QBEHH@Z 12006bf0 f i Match.obj
 0001:00005c60       ?getEndPos@Match@xercesc_2_2@@QBEHH@Z 12006c60 f i Match.obj
 0001:00005cd0       ?setStartPos@Match@xercesc_2_2@@QAEXHH@Z 12006cd0 f i Match.obj
 0001:00005d40       ?setEndPos@Match@xercesc_2_2@@QAEXHH@Z 12006d40 f i Match.obj
 0001:00005db0       ??0Match@xercesc_2_2@@QAE@XZ 12006db0 f   Match.obj
 0001:00005dd0       ??_EMatch@xercesc_2_2@@UAEPAXI@Z 12006dd0 f i Match.obj
 0001:00005e40       ??0Match@xercesc_2_2@@QAE@ABV01@@Z 12006e40 f   Match.obj
 0001:000060c0       ??4Match@xercesc_2_2@@QAEAAV01@ABV01@@Z 120070c0 f   Match.obj
 0001:00006330       ??1Match@xercesc_2_2@@UAE@XZ 12007330 f   Match.obj
 0001:00006360       ?setNoGroups@Match@xercesc_2_2@@QAEXH@Z 12007360 f   Match.obj
 0001:000063f0       ?initialize@Match@xercesc_2_2@@AAEXABV12@@Z 120073f0 f   Match.obj
 0001:00006660       ?cleanUp@Match@xercesc_2_2@@AAEXXZ 12007660 f   Match.obj
 0001:00006690       ??0ModifierToken@xercesc_2_2@@QAE@QAVToken@1@HH@Z 12007690 f   ModifierToken.obj
 0001:000066c0       ??_EModifierToken@xercesc_2_2@@UAEPAXI@Z 120076c0 f i ModifierToken.obj
 0001:00006720       ??1ModifierToken@xercesc_2_2@@UAE@XZ 12007720 f   ModifierToken.obj
 0001:00006730       ??1ChildOp@xercesc_2_2@@UAE@XZ 12007730 f i Op.obj
 0001:00006730       ??1CharOp@xercesc_2_2@@UAE@XZ 12007730 f i Op.obj
 0001:00006730       ??1ConditionOp@xercesc_2_2@@UAE@XZ 12007730 f i Op.obj
 0001:00006730       ??1RangeOp@xercesc_2_2@@UAE@XZ 12007730 f i Op.obj
 0001:00006730       ??1Op@xercesc_2_2@@UAE@XZ  12007730 f i Op.obj
 0001:00006730       ??1ModifierOp@xercesc_2_2@@UAE@XZ 12007730 f i Op.obj
 0001:00006740       ??0Op@xercesc_2_2@@AAE@ABV01@@Z 12007740 f i Op.obj
 0001:00006770       ??4Op@xercesc_2_2@@AAEXABV01@@Z 12007770 f i Op.obj
 0001:000067a0       ??_EOp@xercesc_2_2@@UAEPAXI@Z 120077a0 f i Op.obj
 0001:00006800       ??1UnionOp@xercesc_2_2@@UAE@XZ 12007800 f i Op.obj
 0001:00006850       ??_EUnionOp@xercesc_2_2@@UAEPAXI@Z 12007850 f i Op.obj
 0001:000068b0       ??_EModifierOp@xercesc_2_2@@UAEPAXI@Z 120078b0 f i Op.obj
 0001:00006910       ??_ECharOp@xercesc_2_2@@UAEPAXI@Z 12007910 f i Op.obj
 0001:00006910       ??_EChildOp@xercesc_2_2@@UAEPAXI@Z 12007910 f i Op.obj
 0001:00006910       ??_ERangeOp@xercesc_2_2@@UAEPAXI@Z 12007910 f i Op.obj
 0001:00006970       ??1StringOp@xercesc_2_2@@UAE@XZ 12007970 f i Op.obj
 0001:000069c0       ??_EStringOp@xercesc_2_2@@UAEPAXI@Z 120079c0 f i Op.obj
 0001:00006a20       ??_EConditionOp@xercesc_2_2@@UAEPAXI@Z 12007a20 f i Op.obj
 0001:00006a80       ??0Op@xercesc_2_2@@IAE@F@Z 12007a80 f   Op.obj
 0001:00006aa0       ?getSize@Op@xercesc_2_2@@UBEHXZ 12007aa0 f   Op.obj
 0001:00006ad0       ?getData@Op@xercesc_2_2@@UBEHXZ 12007ad0 f   Op.obj
 0001:00006b00       ?getData2@Op@xercesc_2_2@@UBEHXZ 12007b00 f   Op.obj
 0001:00006b30       ?getRefNo@Op@xercesc_2_2@@UBEHXZ 12007b30 f   Op.obj
 0001:00006b60       ?elementAt@Op@xercesc_2_2@@UBEPBV12@H@Z 12007b60 f   Op.obj
 0001:00006b90       ?getChild@Op@xercesc_2_2@@UBEPBV12@XZ 12007b90 f   Op.obj
 0001:00006bc0       ?getConditionFlow@Op@xercesc_2_2@@UBEPBV12@XZ 12007bc0 f   Op.obj
 0001:00006bf0       ?getYesFlow@Op@xercesc_2_2@@UBEPBV12@XZ 12007bf0 f   Op.obj
 0001:00006c20       ?getNoFlow@Op@xercesc_2_2@@UBEPBV12@XZ 12007c20 f   Op.obj
 0001:00006c50       ?getLiteral@Op@xercesc_2_2@@UBEPBGXZ 12007c50 f   Op.obj
 0001:00006c80       ?getToken@Op@xercesc_2_2@@UBEPBVToken@2@XZ 12007c80 f   Op.obj
 0001:00006cb0       ??0CharOp@xercesc_2_2@@QAE@FH@Z 12007cb0 f   Op.obj
 0001:00006ce0       ??0UnionOp@xercesc_2_2@@QAE@FH@Z 12007ce0 f   Op.obj
 0001:00006da0       ?getSize@UnionOp@xercesc_2_2@@UBEHXZ 12007da0 f   Op.obj
 0001:00006db0       ?elementAt@UnionOp@xercesc_2_2@@UBEPBVOp@2@H@Z 12007db0 f   Op.obj
 0001:00006e00       ?addElement@UnionOp@xercesc_2_2@@QAEXQAVOp@2@@Z 12007e00 f   Op.obj
 0001:00006e90       ??0ChildOp@xercesc_2_2@@QAE@F@Z 12007e90 f   Op.obj
 0001:00006eb0       ?setChild@ChildOp@xercesc_2_2@@QAEXQBVOp@2@@Z 12007eb0 f   Op.obj
 0001:00006ec0       ??0ModifierOp@xercesc_2_2@@QAE@FHH@Z 12007ec0 f   Op.obj
 0001:00006ef0       ?getRoot@DOMTreeWalkerImpl@xercesc_2_2@@UAEPAVDOMNode@2@XZ 12007ef0 f   Op.obj
 0001:00006ef0       ?getConditionFlow@ConditionOp@xercesc_2_2@@UBEPBVOp@2@XZ 12007ef0 f   Op.obj
 0001:00006ef0       ?getFilter@NodeIteratorImpl@xercesc_2_2@@QAEPAVDOM_NodeFilter@2@XZ 12007ef0 f   Op.obj
 0001:00006ef0       ?getPublicId@DOMNotationImpl@xercesc_2_2@@UBEPBGXZ 12007ef0 f   Op.obj
 0001:00006ef0       ?getPublicId@SAXParseException@xercesc_2_2@@QBEPBGXZ 12007ef0 f   Op.obj
 0001:00006ef0       ?getData@ModifierOp@xercesc_2_2@@UBEHXZ 12007ef0 f   Op.obj
 0001:00006ef0       ?getErrorHandler@DOMWriterImpl@xercesc_2_2@@UBEPAVDOMErrorHandler@2@XZ 12007ef0 f   Op.obj
 0001:00006ef0       ?getFilter@DOMNodeIteratorImpl@xercesc_2_2@@UAEPAVDOMNodeFilter@2@XZ 12007ef0 f   Op.obj
 0001:00006f00       ?getChild@CMUnaryOp@xercesc_2_2@@QAEPAVCMNode@2@XZ 12007f00 f   Op.obj
 0001:00006f00       ?getYesFlow@ConditionOp@xercesc_2_2@@UBEPBVOp@2@XZ 12007f00 f   Op.obj
 0001:00006f00       ?getData2@ModifierOp@xercesc_2_2@@UBEHXZ 12007f00 f   Op.obj
 0001:00006f00       ?getLeft@CMBinaryOp@xercesc_2_2@@QAEPAVCMNode@2@XZ 12007f00 f   Op.obj
 0001:00006f00       ?getSystemId@SAXParseException@xercesc_2_2@@QBEPBGXZ 12007f00 f   Op.obj
 0001:00006f00       ?getURI@CMAny@xercesc_2_2@@QBEIXZ 12007f00 f   Op.obj
 0001:00006f00       ?getNextSibling@ChildNode@xercesc_2_2@@UAEPAVNodeImpl@2@XZ 12007f00 f   Op.obj
 0001:00006f00       ?getFilter@DOMWriterImpl@xercesc_2_2@@UBEPAVDOMWriterFilter@2@XZ 12007f00 f   Op.obj
 0001:00006f00       ?getAttributes@ElementDefinitionImpl@xercesc_2_2@@UAEPAVNamedNodeMapImpl@2@XZ 12007f00 f   Op.obj
 0001:00006f00       ?getEndOffset@RangeImpl@xercesc_2_2@@QBEIXZ 12007f00 f   Op.obj
 0001:00006f00       ?getSystemId@DOMNotationImpl@xercesc_2_2@@UBEPBGXZ 12007f00 f   Op.obj
 0001:00006f10       ??0RangeOp@xercesc_2_2@@QAE@FQBVToken@1@@Z 12007f10 f   Op.obj
 0001:00006f40       ??0StringOp@xercesc_2_2@@QAE@FQBG@Z 12007f40 f   Op.obj
 0001:00006fe0       ??0ConditionOp@xercesc_2_2@@QAE@FHQBVOp@1@00@Z 12007fe0 f   Op.obj
 0001:00007020       ?getSign@XMLAbstractDoubleFloat@xercesc_2_2@@UBEHXZ 12008020 f   Op.obj
 0001:00007020       ?getNoFlow@ConditionOp@xercesc_2_2@@UBEPBVOp@2@XZ 12008020 f   Op.obj
 0001:00007020       ?getDocument@ParentNode@xercesc_2_2@@UAEPAVDocumentImpl@2@XZ 12008020 f   Op.obj
 0001:00007020       ?getPosition@CMAny@xercesc_2_2@@QBEIXZ 12008020 f   Op.obj
 0001:00007020       ?getRight@CMBinaryOp@xercesc_2_2@@QAEPAVCMNode@2@XZ 12008020 f   Op.obj
 0001:00007020       ?getDocument@DOMRangeImpl@xercesc_2_2@@QAEPAVDOMDocument@2@XZ 12008020 f   Op.obj
 0001:00007020       ?getOwnerDocument@ParentNode@xercesc_2_2@@UAEPAVDocumentImpl@2@XZ 12008020 f   Op.obj
 0001:00007020       ?getBaseURI@DOMNotationImpl@xercesc_2_2@@UBEPBGXZ 12008020 f   Op.obj
 0001:00007030       ??_E?$RefVectorOf@VOp@xercesc_2_2@@@xercesc_2_2@@UAEPAXI@Z 12008030 f i Op.obj
 0001:00007030       ??_G?$RefVectorOf@VOp@xercesc_2_2@@@xercesc_2_2@@UAEPAXI@Z 12008030 f i Op.obj
 0001:00007050       ??1?$RefVectorOf@VOp@xercesc_2_2@@@xercesc_2_2@@UAE@XZ 12008050 f i Op.obj
 0001:000070d0       ??1?$BaseRefVectorOf@VOp@xercesc_2_2@@@xercesc_2_2@@UAE@XZ 120080d0 f i Op.obj
 0001:000070e0       ?reset@OpFactory@xercesc_2_2@@QAEXXZ 120080e0 f i OpFactory.obj
 0001:00007120       ??0OpFactory@xercesc_2_2@@QAE@XZ 12008120 f   OpFactory.obj
 0001:000071d0       ??1OpFactory@xercesc_2_2@@QAE@XZ 120081d0 f   OpFactory.obj
 0001:000071f0       ?createDotOp@OpFactory@xercesc_2_2@@QAEPAVOp@2@XZ 120081f0 f   OpFactory.obj
 0001:000072d0       ?createCharOp@OpFactory@xercesc_2_2@@QAEPAVCharOp@2@H@Z 120082d0 f   OpFactory.obj
 0001:000073b0       ?createAnchorOp@OpFactory@xercesc_2_2@@QAEPAVCharOp@2@H@Z 120083b0 f   OpFactory.obj
 0001:00007490       ?createCaptureOp@OpFactory@xercesc_2_2@@QAEPAVCharOp@2@HQBVOp@2@@Z 12008490 f   OpFactory.obj
 0001:00007580       ?createUnionOp@OpFactory@xercesc_2_2@@QAEPAVUnionOp@2@H@Z 12008580 f   OpFactory.obj
 0001:00007660       ?createClosureOp@OpFactory@xercesc_2_2@@QAEPAVChildOp@2@H@Z 12008660 f   OpFactory.obj
 0001:00007740       ?createNonGreedyClosureOp@OpFactory@xercesc_2_2@@QAEPAVChildOp@2@XZ 12008740 f   OpFactory.obj
 0001:00007820       ?createQuestionOp@OpFactory@xercesc_2_2@@QAEPAVChildOp@2@_N@Z 12008820 f   OpFactory.obj
 0001:00007910       ?createRangeOp@OpFactory@xercesc_2_2@@QAEPAVRangeOp@2@QBVToken@2@@Z 12008910 f   OpFactory.obj
 0001:000079f0       ?createLookOp@OpFactory@xercesc_2_2@@QAEPAVChildOp@2@FQBVOp@2@0@Z 120089f0 f   OpFactory.obj
 0001:00007af0       ?createBackReferenceOp@OpFactory@xercesc_2_2@@QAEPAVCharOp@2@H@Z 12008af0 f   OpFactory.obj
 0001:00007bd0       ?createStringOp@OpFactory@xercesc_2_2@@QAEPAVStringOp@2@QBG@Z 12008bd0 f   OpFactory.obj
 0001:00007cb0       ?createIndependentOp@OpFactory@xercesc_2_2@@QAEPAVChildOp@2@QBVOp@2@0@Z 12008cb0 f   OpFactory.obj
 0001:00007db0       ?createModifierOp@OpFactory@xercesc_2_2@@QAEPAVModifierOp@2@QBVOp@2@0HH@Z 12008db0 f   OpFactory.obj
 0001:00007e30       ?createConditionOp@OpFactory@xercesc_2_2@@QAEPAVConditionOp@2@QBVOp@2@H000@Z 12008e30 f   OpFactory.obj
 0001:00007eb0       ?getChild@ParenToken@xercesc_2_2@@UBEPAVToken@2@H@Z 12008eb0 f i ParenToken.obj
 0001:00007ec0       ??0ParenToken@xercesc_2_2@@QAE@GQAVToken@1@H@Z 12008ec0 f   ParenToken.obj
 0001:00007ef0       ??_EParenToken@xercesc_2_2@@UAEPAXI@Z 12008ef0 f i ParenToken.obj
 0001:00007f50       ??1ParenToken@xercesc_2_2@@UAE@XZ 12008f50 f   ParenToken.obj
 0001:00007f60       ?getParseContext@RegxParser@xercesc_2_2@@QBEGXZ 12008f60 f i ParserForXMLSchema.obj
 0001:00007f70       ?getState@RegxParser@xercesc_2_2@@QBEGXZ 12008f70 f i ParserForXMLSchema.obj
 0001:00007f80       ?setParseContext@RegxParser@xercesc_2_2@@QAEXG@Z 12008f80 f i ParserForXMLSchema.obj
 0001:00007f90       ?isSet@RegxParser@xercesc_2_2@@AAE_NH@Z 12008f90 f i ParserForXMLSchema.obj
 0001:00007fb0       ?hexChar@RegxParser@xercesc_2_2@@AAEHH@Z 12008fb0 f i ParserForXMLSchema.obj
 0001:00007ff0       ?size@UnionToken@xercesc_2_2@@UBEHXZ 12008ff0 f i ParserForXMLSchema.obj
 0001:00008000       ?getMatcherAt@XPathMatcherStack@xercesc_2_2@@QBEPAVXPathMatcher@2@I@Z 12009000 f i ParserForXMLSchema.obj
 0001:00008000       ?getChild@UnionToken@xercesc_2_2@@UBEPAVToken@2@H@Z 12009000 f i ParserForXMLSchema.obj
 0001:00008050       ??0ParseException@xercesc_2_2@@QAE@QBDIW4Codes@XMLExcepts@1@@Z 12009050 f i ParserForXMLSchema.obj
 0001:000080b0       ??0ParseException@xercesc_2_2@@QAE@ABV01@@Z 120090b0 f i ParserForXMLSchema.obj
 0001:000080d0       ??0ParseException@xercesc_2_2@@QAE@QBDIW4Codes@XMLExcepts@1@QBG222@Z 120090d0 f i ParserForXMLSchema.obj
 0001:00008140       ??0ParseException@xercesc_2_2@@QAE@QBDIW4Codes@XMLExcepts@1@0000@Z 12009140 f i ParserForXMLSchema.obj
 0001:000081b0       ??1ParseException@xercesc_2_2@@UAE@XZ 120091b0 f i ParserForXMLSchema.obj
 0001:000081c0       ??4IOException@xercesc_2_2@@QAEAAV01@ABV01@@Z 120091c0 f i ParserForXMLSchema.obj
 0001:000081c0       ??4SchemaDateTimeException@xercesc_2_2@@QAEAAV01@ABV01@@Z 120091c0 f i ParserForXMLSchema.obj
 0001:000081c0       ??4RuntimeException@xercesc_2_2@@QAEAAV01@ABV01@@Z 120091c0 f i ParserForXMLSchema.obj
 0001:000081c0       ??4UnsupportedEncodingException@xercesc_2_2@@QAEAAV01@ABV01@@Z 120091c0 f i ParserForXMLSchema.obj
 0001:000081c0       ??4EmptyStackException@xercesc_2_2@@QAEAAV01@ABV01@@Z 120091c0 f i ParserForXMLSchema.obj
 0001:000081c0       ??4InvalidCastException@xercesc_2_2@@QAEAAV01@ABV01@@Z 120091c0 f i ParserForXMLSchema.obj
 0001:000081c0       ??4XMLPlatformUtilsException@xercesc_2_2@@QAEAAV01@ABV01@@Z 120091c0 f i ParserForXMLSchema.obj
 0001:000081c0       ??4InvalidDatatypeFacetException@xercesc_2_2@@QAEAAV01@ABV01@@Z 120091c0 f i ParserForXMLSchema.obj
 0001:000081c0       ??4IllegalArgumentException@xercesc_2_2@@QAEAAV01@ABV01@@Z 120091c0 f i ParserForXMLSchema.obj
 0001:000081c0       ??4UnexpectedEOFException@xercesc_2_2@@QAEAAV01@ABV01@@Z 120091c0 f i ParserForXMLSchema.obj
 0001:000081c0       ??4XPathException@xercesc_2_2@@QAEAAV01@ABV01@@Z 120091c0 f i ParserForXMLSchema.obj
 0001:000081c0       ??4InvalidDatatypeValueException@xercesc_2_2@@QAEAAV01@ABV01@@Z 120091c0 f i ParserForXMLSchema.obj
 0001:000081c0       ??4NullPointerException@xercesc_2_2@@QAEAAV01@ABV01@@Z 120091c0 f i ParserForXMLSchema.obj
 0001:000081c0       ??4TranscodingException@xercesc_2_2@@QAEAAV01@ABV01@@Z 120091c0 f i ParserForXMLSchema.obj
 0001:000081c0       ??4ParseException@xercesc_2_2@@QAEAAV01@ABV01@@Z 120091c0 f i ParserForXMLSchema.obj
 0001:000081c0       ??4NoSuchElementException@xercesc_2_2@@QAEAAV01@ABV01@@Z 120091c0 f i ParserForXMLSchema.obj
 0001:000081c0       ??4NumberFormatException@xercesc_2_2@@QAEAAV01@ABV01@@Z 120091c0 f i ParserForXMLSchema.obj
 0001:000081c0       ??4ArrayIndexOutOfBoundsException@xercesc_2_2@@QAEAAV01@ABV01@@Z 120091c0 f i ParserForXMLSchema.obj
 0001:000081c0       ??4NetAccessorException@xercesc_2_2@@QAEAAV01@ABV01@@Z 120091c0 f i ParserForXMLSchema.obj
 0001:000081c0       ??4UTFDataFormatException@xercesc_2_2@@QAEAAV01@ABV01@@Z 120091c0 f i ParserForXMLSchema.obj
 0001:000081c0       ??4MalformedURLException@xercesc_2_2@@QAEAAV01@ABV01@@Z 120091c0 f i ParserForXMLSchema.obj
 0001:000081e0       ?duplicate@ParseException@xercesc_2_2@@UBEPAVXMLException@2@XZ 120091e0 f i ParserForXMLSchema.obj
 0001:00008240       ?getType@ParseException@xercesc_2_2@@UBEPBGXZ 12009240 f i ParserForXMLSchema.obj
 0001:00008250       ??_EParseException@xercesc_2_2@@UAEPAXI@Z 12009250 f i ParserForXMLSchema.obj
 0001:000082b0       ??0ParserForXMLSchema@xercesc_2_2@@QAE@XZ 120092b0 f   ParserForXMLSchema.obj
 0001:000082d0       ??_EParserForXMLSchema@xercesc_2_2@@UAEPAXI@Z 120092d0 f i ParserForXMLSchema.obj
 0001:00008330       ??1ParserForXMLSchema@xercesc_2_2@@UAE@XZ 12009330 f   ParserForXMLSchema.obj
 0001:00008340       ?processCaret@ParserForXMLSchema@xercesc_2_2@@MAEPAVToken@2@XZ 12009340 f   ParserForXMLSchema.obj
 0001:00008360       ?processDollar@ParserForXMLSchema@xercesc_2_2@@MAEPAVToken@2@XZ 12009360 f   ParserForXMLSchema.obj
 0001:00008380       ?processPlus@ParserForXMLSchema@xercesc_2_2@@MAEPAVToken@2@QAV32@@Z 12009380 f   ParserForXMLSchema.obj
 0001:000083b0       ?processStar@ParserForXMLSchema@xercesc_2_2@@MAEPAVToken@2@QAV32@@Z 120093b0 f   ParserForXMLSchema.obj
 0001:000083d0       ?processQuestion@ParserForXMLSchema@xercesc_2_2@@MAEPAVToken@2@QAV32@@Z 120093d0 f   ParserForXMLSchema.obj
 0001:00008410       ?processParen@ParserForXMLSchema@xercesc_2_2@@MAEPAVToken@2@XZ 12009410 f   ParserForXMLSchema.obj
 0001:00008470       ?parseCharacterClass@ParserForXMLSchema@xercesc_2_2@@MAEPAVRangeToken@2@_N@Z 12009470 f   ParserForXMLSchema.obj
 0001:000088c0       ?processCInCharacterClass@ParserForXMLSchema@xercesc_2_2@@MAEHQAVRangeToken@2@H@Z 120098c0 f   ParserForXMLSchema.obj
 0001:000088e0       ?processLook@ParserForXMLSchema@xercesc_2_2@@MAEPAVToken@2@G@Z 120098e0 f   ParserForXMLSchema.obj
 0001:00008910       ?processBacksolidus_A@ParserForXMLSchema@xercesc_2_2@@MAEPAVToken@2@XZ 12009910 f   ParserForXMLSchema.obj
 0001:00008940       ?processBacksolidus_B@ParserForXMLSchema@xercesc_2_2@@MAEPAVToken@2@XZ 12009940 f   ParserForXMLSchema.obj
 0001:00008970       ?processBacksolidus_b@ParserForXMLSchema@xercesc_2_2@@MAEPAVToken@2@XZ 12009970 f   ParserForXMLSchema.obj
 0001:000089a0       ?processBacksolidus_C@ParserForXMLSchema@xercesc_2_2@@MAEPAVToken@2@XZ 120099a0 f   ParserForXMLSchema.obj
 0001:000089c0       ?processBacksolidus_c@ParserForXMLSchema@xercesc_2_2@@MAEPAVToken@2@XZ 120099c0 f   ParserForXMLSchema.obj
 0001:000089e0       ?processBacksolidus_g@ParserForXMLSchema@xercesc_2_2@@MAEPAVToken@2@XZ 120099e0 f   ParserForXMLSchema.obj
 0001:00008a10       ?processBacksolidus_gt@ParserForXMLSchema@xercesc_2_2@@MAEPAVToken@2@XZ 12009a10 f   ParserForXMLSchema.obj
 0001:00008a40       ?processBacksolidus_I@ParserForXMLSchema@xercesc_2_2@@MAEPAVToken@2@XZ 12009a40 f   ParserForXMLSchema.obj
 0001:00008a60       ?processBacksolidus_i@ParserForXMLSchema@xercesc_2_2@@MAEPAVToken@2@XZ 12009a60 f   ParserForXMLSchema.obj
 0001:00008a80       ?processBacksolidus_lt@ParserForXMLSchema@xercesc_2_2@@MAEPAVToken@2@XZ 12009a80 f   ParserForXMLSchema.obj
 0001:00008ab0       ?processBacksolidus_X@ParserForXMLSchema@xercesc_2_2@@MAEPAVToken@2@XZ 12009ab0 f   ParserForXMLSchema.obj
 0001:00008ae0       ?processBacksolidus_Z@ParserForXMLSchema@xercesc_2_2@@MAEPAVToken@2@XZ 12009ae0 f   ParserForXMLSchema.obj
 0001:00008b10       ?processBacksolidus_z@ParserForXMLSchema@xercesc_2_2@@MAEPAVToken@2@XZ 12009b10 f   ParserForXMLSchema.obj
 0001:00008b40       ?processBackReference@ParserForXMLSchema@xercesc_2_2@@MAEPAVToken@2@XZ 12009b40 f   ParserForXMLSchema.obj
 0001:00008b70       ?processCondition@ParserForXMLSchema@xercesc_2_2@@MAEPAVToken@2@XZ 12009b70 f   ParserForXMLSchema.obj
 0001:00008ba0       ?processIndependent@ParserForXMLSchema@xercesc_2_2@@MAEPAVToken@2@XZ 12009ba0 f   ParserForXMLSchema.obj
 0001:00008bd0       ?processModifiers@ParserForXMLSchema@xercesc_2_2@@MAEPAVToken@2@XZ 12009bd0 f   ParserForXMLSchema.obj
 0001:00008c00       ?processParen2@ParserForXMLSchema@xercesc_2_2@@MAEPAVToken@2@XZ 12009c00 f   ParserForXMLSchema.obj
 0001:00008c30       ?parseSetOperations@ParserForXMLSchema@xercesc_2_2@@MAEPAVRangeToken@2@XZ 12009c30 f   ParserForXMLSchema.obj
 0001:00008c60       ?getTokenForShorthand@ParserForXMLSchema@xercesc_2_2@@MAEPAVToken@2@H@Z 12009c60 f   ParserForXMLSchema.obj
 0001:00008da0       ?checkQuestion@ParserForXMLSchema@xercesc_2_2@@MAE_NH@Z 12009da0 f   ParserForXMLSchema.obj
 0001:00008db0       ?decodeEscaped@ParserForXMLSchema@xercesc_2_2@@MAEHXZ 12009db0 f   ParserForXMLSchema.obj
 0001:00008ed0       ??0RangeFactory@xercesc_2_2@@IAE@XZ 12009ed0 f   RangeFactory.obj
 0001:00008ee0       ??_ERangeFactory@xercesc_2_2@@UAEPAXI@Z 12009ee0 f i RangeFactory.obj
 0001:00008f40       ??1RangeFactory@xercesc_2_2@@UAE@XZ 12009f40 f   RangeFactory.obj
 0001:00008f50       ??0RangeToken@xercesc_2_2@@QAE@G@Z 12009f50 f   RangeToken.obj
 0001:00008f90       ??_ERangeToken@xercesc_2_2@@UAEPAXI@Z 12009f90 f i RangeToken.obj
 0001:00008ff0       ??1RangeToken@xercesc_2_2@@UAE@XZ 12009ff0 f   RangeToken.obj
 0001:00009050       ?getCaseInsensitiveToken@RangeToken@xercesc_2_2@@QAEPAV12@QAVTokenFactory@2@@Z 1200a050 f   RangeToken.obj
 0001:00009090       ?setRangeValues@RangeToken@xercesc_2_2@@QAEXQAHI@Z 1200a090 f   RangeToken.obj
 0001:000090e0       ?addRange@RangeToken@xercesc_2_2@@UAEXHH@Z 1200a0e0 f   RangeToken.obj
 0001:00009210       ?sortRanges@RangeToken@xercesc_2_2@@UAEXXZ 1200a210 f   RangeToken.obj
 0001:000092c0       ?compactRanges@RangeToken@xercesc_2_2@@UAEXXZ 1200a2c0 f   RangeToken.obj
 0001:000093a0       ?mergeRanges@RangeToken@xercesc_2_2@@UAEXQBVToken@2@@Z 1200a3a0 f   RangeToken.obj
 0001:00009580       ?subtractRanges@RangeToken@xercesc_2_2@@UAEXQAV12@@Z 1200a580 f   RangeToken.obj
 0001:00009720       ?intersectRanges@RangeToken@xercesc_2_2@@UAEXQAV12@@Z 1200a720 f   RangeToken.obj
 0001:00009880       ?complementRanges@RangeToken@xercesc_2_2@@SAPAVToken@2@QAV12@QAVTokenFactory@2@@Z 1200a880 f   RangeToken.obj
 0001:00009950       ?match@RangeToken@xercesc_2_2@@QAE_NH@Z 1200a950 f   RangeToken.obj
 0001:00009a50       ?expand@RangeToken@xercesc_2_2@@AAEXI@Z 1200aa50 f   RangeToken.obj
 0001:00009ae0       ?createMap@RangeToken@xercesc_2_2@@AAEXXZ 1200aae0 f   RangeToken.obj
 0001:00009b80       ??0RangeTokenElemMap@xercesc_2_2@@QAE@I@Z 1200ab80 f   RangeTokenMap.obj
 0001:00009ba0       ??0RangeTokenMap@xercesc_2_2@@IAE@XZ 1200aba0 f   RangeTokenMap.obj
 0001:00009bd0       ??_ERangeTokenMap@xercesc_2_2@@UAEPAXI@Z 1200abd0 f i RangeTokenMap.obj
 0001:00009c30       ??1RangeTokenMap@xercesc_2_2@@UAE@XZ 1200ac30 f   RangeTokenMap.obj
 0001:00009db0       ?getRange@RangeTokenMap@xercesc_2_2@@IAEPAVRangeToken@2@QBG_N@Z 1200adb0 f   RangeTokenMap.obj
 0001:00009f30       ?addCategory@RangeTokenMap@xercesc_2_2@@QAEXQBG@Z 1200af30 f   RangeTokenMap.obj
 0001:00009f50       ?addRangeMap@RangeTokenMap@xercesc_2_2@@QAEXQBGQAVRangeFactory@2@@Z 1200af50 f   RangeTokenMap.obj
 0001:00009f70       ?addKeywordMap@RangeTokenMap@xercesc_2_2@@QAEXQBG0@Z 1200af70 f   RangeTokenMap.obj
 0001:0000a190       ?setRangeToken@RangeTokenMap@xercesc_2_2@@QAEXQBGQAVRangeToken@2@_N@Z 1200b190 f   RangeTokenMap.obj
 0001:0000a2d0       ?initializeRegistry@RangeTokenMap@xercesc_2_2@@AAEXXZ 1200b2d0 f   RangeTokenMap.obj
 0001:0000a480       ?instance@RangeTokenMap@xercesc_2_2@@SAPAV12@XZ 1200b480 f   RangeTokenMap.obj
 0001:0000a5b0       ?reinitInstance@RangeTokenMap@xercesc_2_2@@SAXXZ 1200b5b0 f   RangeTokenMap.obj
 0001:0000a5d0       ?put@?$RefHashTableOf@VRangeFactory@xercesc_2_2@@@xercesc_2_2@@QAEXPAXQAVRangeFactory@2@@Z 1200b5d0 f i RangeTokenMap.obj
 0001:0000a6d0       ??4Context@RegularExpression@xercesc_2_2@@QAEAAV012@ABV012@@Z 1200b6d0 f i RegularExpression.obj
 0001:0000a6f0       ?cleanUp@RegularExpression@xercesc_2_2@@AAEXXZ 1200b6f0 f i RegularExpression.obj
 0001:0000a780       ?compileLook@RegularExpression@xercesc_2_2@@AAEPAVOp@2@QBVToken@2@QBV32@_NG@Z 1200b780 f i RegularExpression.obj
 0001:0000a870       ?compileSingle@RegularExpression@xercesc_2_2@@AAEPAVOp@2@QBVToken@2@QAV32@G@Z 1200b870 f i RegularExpression.obj
 0001:0000a950       ?compileUnion@RegularExpression@xercesc_2_2@@AAEPAVOp@2@QBVToken@2@QAV32@_N@Z 1200b950 f i RegularExpression.obj
 0001:0000a9b0       ?compileCondition@RegularExpression@xercesc_2_2@@AAEPAVOp@2@QBVToken@2@QAV32@_N@Z 1200b9b0 f i RegularExpression.obj
 0001:0000aa50       ?compileParenthesis@RegularExpression@xercesc_2_2@@AAEPAVOp@2@QBVToken@2@QAV32@_N@Z 1200ba50 f i RegularExpression.obj
 0001:0000ab20       ?compileConcat@RegularExpression@xercesc_2_2@@AAEPAVOp@2@QBVToken@2@QAV32@_N@Z 1200bb20 f i RegularExpression.obj
 0001:0000aba0       ?compileClosure@RegularExpression@xercesc_2_2@@AAEPAVOp@2@QBVToken@2@QAV32@_NG@Z 1200bba0 f i RegularExpression.obj
 0001:0000acd0       ?matchUnion@RegularExpression@xercesc_2_2@@AAEHQAVContext@12@QBVOp@2@HF@Z 1200bcd0 f i RegularExpression.obj
 0001:0000ad30       ?matchModifier@RegularExpression@xercesc_2_2@@AAEHQAVContext@12@QBVOp@2@HF@Z 1200bd30 f i RegularExpression.obj
 0001:0000ad80       ?getWordType@RegularExpression@xercesc_2_2@@AAEGQBGHHH@Z 1200bd80 f i RegularExpression.obj
 0001:0000adb0       ?getPreviousWordType@RegularExpression@xercesc_2_2@@AAEGQBGHHH@Z 1200bdb0 f i RegularExpression.obj
 0001:0000ae20       ?matchIgnoreCase@RegularExpression@xercesc_2_2@@AAE_NHH@Z 1200be20 f i RegularExpression.obj
 0001:0000ae40       ?isEOLChar@RegxUtil@xercesc_2_2@@SA_NG@Z 1200be40 f i RegularExpression.obj
 0001:0000ae70       ?composeFromSurrogate@RegxUtil@xercesc_2_2@@SAHGG@Z 1200be70 f i RegularExpression.obj
 0001:0000ae90       ?isLowSurrogate@RegxUtil@xercesc_2_2@@SA_NG@Z 1200be90 f i RegularExpression.obj
 0001:0000aeb0       ?isHighSurrogate@RegxUtil@xercesc_2_2@@SA_NG@Z 1200beb0 f i RegularExpression.obj
 0001:0000aed0       ?isWordChar@RegxUtil@xercesc_2_2@@SA_NG@Z 1200bed0 f i RegularExpression.obj
 0001:0000af10       ??0XMLBuffer@xercesc_2_2@@QAE@H@Z 1200bf10 f i RegularExpression.obj
 0001:0000af50       ??1XMLBuffer@xercesc_2_2@@QAE@XZ 1200bf50 f i RegularExpression.obj
 0001:0000af60       ?append@XMLBuffer@xercesc_2_2@@QAEXG@Z 1200bf60 f i RegularExpression.obj
 0001:0000af90       ?getRawBuffer@XMLBuffer@xercesc_2_2@@QAEPAGXZ 1200bf90 f i RegularExpression.obj
 0001:0000af90       ?getRawBuffer@XMLBuffer@xercesc_2_2@@QBEPBGXZ 1200bf90 f i RegularExpression.obj
 0001:0000afa0       ?reset@XMLBuffer@xercesc_2_2@@QAEXXZ 1200bfa0 f i RegularExpression.obj
 0001:0000afb0       ?hasDefaults@DOMAttrMapImpl@xercesc_2_2@@UAE_NXZ 1200bfb0 f i RegularExpression.obj
 0001:0000afb0       ?getInUse@XMLBuffer@xercesc_2_2@@QBE_NXZ 1200bfb0 f i RegularExpression.obj
 0001:0000afb0       ?getDoValidation@XMLScanner@xercesc_2_2@@QBE_NXZ 1200bfb0 f i RegularExpression.obj
 0001:0000afc0       ?isEmpty@XMLBuffer@xercesc_2_2@@QBE_NXZ 1200bfc0 f i RegularExpression.obj
 0001:0000afd0       ?hasDefaults@DOMAttrMapImpl@xercesc_2_2@@UAEX_N@Z 1200bfd0 f i RegularExpression.obj
 0001:0000afd0       ?setInUse@XMLBuffer@xercesc_2_2@@QAEX_N@Z 1200bfd0 f i RegularExpression.obj
 0001:0000afe0       ??4KVStringPair@xercesc_2_2@@QAEAAV01@ABV01@@Z 1200bfe0 f i RegularExpression.obj
 0001:0000afe0       ??4XMLBuffer@xercesc_2_2@@QAEAAV01@ABV01@@Z 1200bfe0 f i RegularExpression.obj
 0001:0000b010       ??_FXMLBuffer@xercesc_2_2@@QAEXXZ 1200c010 f i RegularExpression.obj
 0001:0000b050       ??0Context@RegularExpression@xercesc_2_2@@QAE@XZ 1200c050 f   RegularExpression.obj
 0001:0000b070       ??1Context@RegularExpression@xercesc_2_2@@QAE@XZ 1200c070 f   RegularExpression.obj
 0001:0000b0a0       ?reset@Context@RegularExpression@xercesc_2_2@@QAEXQBGHHH@Z 1200c0a0 f   RegularExpression.obj
 0001:0000b180       ?nextCh@Context@RegularExpression@xercesc_2_2@@QAE_NAAH0F@Z 1200c180 f   RegularExpression.obj
 0001:0000b260       ??0RegularExpression@xercesc_2_2@@QAE@QBD@Z 1200c260 f   RegularExpression.obj
 0001:0000b390       ??0RegularExpression@xercesc_2_2@@QAE@QBD0@Z 1200c390 f   RegularExpression.obj
 0001:0000b4e0       ??0RegularExpression@xercesc_2_2@@QAE@QBG@Z 1200c4e0 f   RegularExpression.obj
 0001:0000b5f0       ??0RegularExpression@xercesc_2_2@@QAE@QBG0@Z 1200c5f0 f   RegularExpression.obj
 0001:0000b710       ??1RegularExpression@xercesc_2_2@@QAE@XZ 1200c710 f   RegularExpression.obj
 0001:0000b7e0       ?setPattern@RegularExpression@xercesc_2_2@@AAEXQBG0@Z 1200c7e0 f   RegularExpression.obj
 0001:0000b9d0       ?matches@RegularExpression@xercesc_2_2@@QAE_NQBD@Z 1200c9d0 f   RegularExpression.obj
 0001:0000ba60       ?matches@RegularExpression@xercesc_2_2@@QAE_NQBDHH@Z 1200ca60 f   RegularExpression.obj
 0001:0000bae0       ?matches@RegularExpression@xercesc_2_2@@QAE_NQBDQAVMatch@2@@Z 1200cae0 f   RegularExpression.obj
 0001:0000bb80       ?matches@RegularExpression@xercesc_2_2@@QAE_NQBDHHQAVMatch@2@@Z 1200cb80 f   RegularExpression.obj
 0001:0000bc00       ?matches@RegularExpression@xercesc_2_2@@QAE_NQBG@Z 1200cc00 f   RegularExpression.obj
 0001:0000bc50       ?matches@RegularExpression@xercesc_2_2@@QAE_NQBGHH@Z 1200cc50 f   RegularExpression.obj
 0001:0000bc70       ?matches@RegularExpression@xercesc_2_2@@QAE_NQBGQAVMatch@2@@Z 1200cc70 f   RegularExpression.obj
 0001:0000bcc0       ?matches@RegularExpression@xercesc_2_2@@QAE_NQBGHHQAVMatch@2@@Z 1200ccc0 f   RegularExpression.obj
 0001:0000c4a0       ?tokenize@RegularExpression@xercesc_2_2@@QAEPAV?$RefArrayVectorOf@G@2@QBD@Z 1200d4a0 f   RegularExpression.obj
 0001:0000c530       ?tokenize@RegularExpression@xercesc_2_2@@QAEPAV?$RefArrayVectorOf@G@2@QBDHH@Z 1200d530 f   RegularExpression.obj
 0001:0000c5a0       ?tokenize@RegularExpression@xercesc_2_2@@QAEPAV?$RefArrayVectorOf@G@2@QBG@Z 1200d5a0 f   RegularExpression.obj
 0001:0000c5f0       ?tokenize@RegularExpression@xercesc_2_2@@QAEPAV?$RefArrayVectorOf@G@2@QBGHH@Z 1200d5f0 f   RegularExpression.obj
 0001:0000c610       ?tokenize@RegularExpression@xercesc_2_2@@AAEPAV?$RefArrayVectorOf@G@2@QBGHHPAV?$RefVectorOf@VMatch@xercesc_2_2@@@2@@Z 1200d610 f   RegularExpression.obj
 0001:0000cd40       ?replace@RegularExpression@xercesc_2_2@@QAEPAGQBD0@Z 1200dd40 f   RegularExpression.obj
 0001:0000cdf0       ?replace@RegularExpression@xercesc_2_2@@QAEPAGQBD0HH@Z 1200ddf0 f   RegularExpression.obj
 0001:0000ce90       ?replace@RegularExpression@xercesc_2_2@@QAEPAGQBG0@Z 1200de90 f   RegularExpression.obj
 0001:0000cee0       ?replace@RegularExpression@xercesc_2_2@@QAEPAGQBG0HH@Z 1200dee0 f   RegularExpression.obj
 0001:0000d210       ?getOptionValue@RegularExpression@xercesc_2_2@@SAHG@Z 1200e210 f   RegularExpression.obj
 0001:0000d2f0       ?match@RegularExpression@xercesc_2_2@@AAEHQAVContext@12@QBVOp@2@HF@Z 1200e2f0 f   RegularExpression.obj
 0001:0000d9d0       ?matchChar@RegularExpression@xercesc_2_2@@AAE_NQAVContext@12@HAAHF_N@Z 1200e9d0 f   RegularExpression.obj
 0001:0000da80       ?matchDot@RegularExpression@xercesc_2_2@@AAE_NQAVContext@12@AAHF@Z 1200ea80 f   RegularExpression.obj
 0001:0000db30       ?matchRange@RegularExpression@xercesc_2_2@@AAE_NQAVContext@12@QBVOp@2@AAHF_N@Z 1200eb30 f   RegularExpression.obj
 0001:0000dbc0       ?matchAnchor@RegularExpression@xercesc_2_2@@AAE_NQAVContext@12@HH@Z 1200ebc0 f   RegularExpression.obj
 0001:0000e0e0       ?matchBackReference@RegularExpression@xercesc_2_2@@AAE_NQAVContext@12@HAAHF_N@Z 1200f0e0 f   RegularExpression.obj
 0001:0000e330       ?matchString@RegularExpression@xercesc_2_2@@AAE_NQAVContext@12@QBGAAHF_N@Z 1200f330 f   RegularExpression.obj
 0001:0000e3d0       ?matchCapture@RegularExpression@xercesc_2_2@@AAEHQAVContext@12@QBVOp@2@HF@Z 1200f3d0 f   RegularExpression.obj
 0001:0000e6a0       ?matchCondition@RegularExpression@xercesc_2_2@@AAE_NQAVContext@12@QBVOp@2@HF@Z 1200f6a0 f   RegularExpression.obj
 0001:0000e7d0       ?parseOptions@RegularExpression@xercesc_2_2@@AAEHQBG@Z 1200f7d0 f   RegularExpression.obj
 0001:0000e940       ?compile@RegularExpression@xercesc_2_2@@AAEXQBVToken@2@@Z 1200f940 f   RegularExpression.obj
 0001:0000e970       ?compile@RegularExpression@xercesc_2_2@@AAEPAVOp@2@QBVToken@2@QAV32@_N@Z 1200f970 f   RegularExpression.obj
 0001:0000ed30       ?subInExp@RegularExpression@xercesc_2_2@@AAEPBGQBG0PBVMatch@2@@Z 1200fd30 f   RegularExpression.obj
 0001:0000f100       ?prepare@RegularExpression@xercesc_2_2@@AAEXXZ 12010100 f   RegularExpression.obj
 0001:0000f410       ?getCharType@RegularExpression@xercesc_2_2@@AAEGG@Z 12010410 f   RegularExpression.obj
 0001:0000f560       ??1?$Janitor@VContext@RegularExpression@xercesc_2_2@@@xercesc_2_2@@QAE@XZ 12010560 f i RegularExpression.obj
 0001:0000f5b0       ??_G?$RefArrayVectorOf@G@xercesc_2_2@@UAEPAXI@Z 120105b0 f i RegularExpression.obj
 0001:0000f5b0       ??_E?$RefArrayVectorOf@G@xercesc_2_2@@UAEPAXI@Z 120105b0 f i RegularExpression.obj
 0001:0000f5d0       ??1?$RefArrayVectorOf@G@xercesc_2_2@@UAE@XZ 120105d0 f i RegularExpression.obj
 0001:0000f650       ??1?$BaseRefVectorOf@G@xercesc_2_2@@UAE@XZ 12010650 f i RegularExpression.obj
 0001:0000f660       ??_E?$RefVectorOf@VMatch@xercesc_2_2@@@xercesc_2_2@@UAEPAXI@Z 12010660 f i RegularExpression.obj
 0001:0000f660       ??_G?$RefVectorOf@VMatch@xercesc_2_2@@@xercesc_2_2@@UAEPAXI@Z 12010660 f i RegularExpression.obj
 0001:0000f680       ??1?$RefVectorOf@VMatch@xercesc_2_2@@@xercesc_2_2@@UAE@XZ 12010680 f i RegularExpression.obj
 0001:0000f700       ??1?$BaseRefVectorOf@VMatch@xercesc_2_2@@@xercesc_2_2@@UAE@XZ 12010700 f i RegularExpression.obj
 0001:0000f710       ?reset@?$ArrayJanitor@G@xercesc_2_2@@QAEXPAG@Z 12010710 f i RegularExpression.obj
 0001:0000f730       ??0?$BaseRefVectorOf@VMatch@xercesc_2_2@@@xercesc_2_2@@QAE@I_N@Z 12010730 f i RegularExpression.obj
 0001:0000f790       ??0RegxParser@xercesc_2_2@@QAE@XZ 12010790 f   RegxParser.obj
 0001:0000f7d0       ??_ERegxParser@xercesc_2_2@@UAEPAXI@Z 120107d0 f i RegxParser.obj
 0001:0000f830       ??1RegxParser@xercesc_2_2@@UAE@XZ 12010830 f   RegxParser.obj
 0001:0000f8a0       ?parse@RegxParser@xercesc_2_2@@QAEPAVToken@2@QBGH@Z 120108a0 f   RegxParser.obj
 0001:0000fb50       ?processNext@RegxParser@xercesc_2_2@@IAEXXZ 12010b50 f   RegxParser.obj
 0001:00010110       ?parseRegx@RegxParser@xercesc_2_2@@IAEPAVToken@2@XZ 12011110 f   RegxParser.obj
 0001:00010180       ?parseTerm@RegxParser@xercesc_2_2@@AAEPAVToken@2@XZ 12011180 f   RegxParser.obj
 0001:00010210       ?processCaret@RegxParser@xercesc_2_2@@MAEPAVToken@2@XZ 12011210 f   RegxParser.obj
 0001:00010230       ?processDollar@RegxParser@xercesc_2_2@@MAEPAVToken@2@XZ 12011230 f   RegxParser.obj
 0001:00010250       ?processLook@RegxParser@xercesc_2_2@@MAEPAVToken@2@G@Z 12011250 f   RegxParser.obj
 0001:00010300       ?processBacksolidus_A@RegxParser@xercesc_2_2@@MAEPAVToken@2@XZ 12011300 f   RegxParser.obj
 0001:00010320       ?processBacksolidus_Z@RegxParser@xercesc_2_2@@MAEPAVToken@2@XZ 12011320 f   RegxParser.obj
 0001:00010340       ?processBacksolidus_z@RegxParser@xercesc_2_2@@MAEPAVToken@2@XZ 12011340 f   RegxParser.obj
 0001:00010360       ?processBacksolidus_b@RegxParser@xercesc_2_2@@MAEPAVToken@2@XZ 12011360 f   RegxParser.obj
 0001:00010380       ?processBacksolidus_B@RegxParser@xercesc_2_2@@MAEPAVToken@2@XZ 12011380 f   RegxParser.obj
 0001:000103a0       ?processBacksolidus_lt@RegxParser@xercesc_2_2@@MAEPAVToken@2@XZ 120113a0 f   RegxParser.obj
 0001:000103c0       ?processBacksolidus_gt@RegxParser@xercesc_2_2@@MAEPAVToken@2@XZ 120113c0 f   RegxParser.obj
 0001:000103e0       ?processStar@RegxParser@xercesc_2_2@@MAEPAVToken@2@QAV32@@Z 120113e0 f   RegxParser.obj
 0001:00010420       ?processPlus@RegxParser@xercesc_2_2@@MAEPAVToken@2@QAV32@@Z 12011420 f   RegxParser.obj
 0001:00010460       ?processQuestion@RegxParser@xercesc_2_2@@MAEPAVToken@2@QAV32@@Z 12011460 f   RegxParser.obj
 0001:000104e0       ?processParen@RegxParser@xercesc_2_2@@MAEPAVToken@2@XZ 120114e0 f   RegxParser.obj
 0001:000105a0       ?processParen2@RegxParser@xercesc_2_2@@MAEPAVToken@2@XZ 120115a0 f   RegxParser.obj
 0001:00010650       ?processCondition@RegxParser@xercesc_2_2@@MAEPAVToken@2@XZ 12011650 f   RegxParser.obj
 0001:000109e0       ?processModifiers@RegxParser@xercesc_2_2@@MAEPAVToken@2@XZ 120119e0 f   RegxParser.obj
 0001:00010c30       ?processIndependent@RegxParser@xercesc_2_2@@MAEPAVToken@2@XZ 12011c30 f   RegxParser.obj
 0001:00010ce0       ?processBacksolidus_c@RegxParser@xercesc_2_2@@MAEPAVToken@2@XZ 12011ce0 f   RegxParser.obj
 0001:00010d50       ?processBacksolidus_i@RegxParser@xercesc_2_2@@MAEPAVToken@2@XZ 12011d50 f   RegxParser.obj
 0001:00010d70       ?processBacksolidus_g@RegxParser@xercesc_2_2@@MAEPAVToken@2@XZ 12011d70 f   RegxParser.obj
 0001:00010d90       ?processBacksolidus_X@RegxParser@xercesc_2_2@@MAEPAVToken@2@XZ 12011d90 f   RegxParser.obj
 0001:00010db0       ?processBackReference@RegxParser@xercesc_2_2@@MAEPAVToken@2@XZ 12011db0 f   RegxParser.obj
 0001:00010f10       ?parseFactor@RegxParser@xercesc_2_2@@AAEPAVToken@2@XZ 12011f10 f   RegxParser.obj
 0001:00011370       ?parseAtom@RegxParser@xercesc_2_2@@AAEPAVToken@2@XZ 12012370 f   RegxParser.obj
 0001:00011730       ?processBacksolidus_pP@RegxParser@xercesc_2_2@@IAEPAVRangeToken@2@H@Z 12012730 f   RegxParser.obj
 0001:00011a00       ?processCInCharacterClass@RegxParser@xercesc_2_2@@MAEHQAVRangeToken@2@H@Z 12012a00 f   RegxParser.obj
 0001:00011a10       ?parseCharacterClass@RegxParser@xercesc_2_2@@MAEPAVRangeToken@2@_N@Z 12012a10 f   RegxParser.obj
 0001:00011f30       ?parseSetOperations@RegxParser@xercesc_2_2@@MAEPAVRangeToken@2@XZ 12012f30 f   RegxParser.obj
 0001:00012030       ?getTokenForShorthand@RegxParser@xercesc_2_2@@MAEPAVToken@2@H@Z 12013030 f   RegxParser.obj
 0001:00012160       ?decodeEscaped@RegxParser@xercesc_2_2@@MAEHXZ 12013160 f   RegxParser.obj
 0001:000125e0       ?checkQuestion@RegxParser@xercesc_2_2@@MAE_NH@Z 120135e0 f   RegxParser.obj
 0001:00012600       ??_E?$RefVectorOf@VReferencePosition@RegxParser@xercesc_2_2@@@xercesc_2_2@@UAEPAXI@Z 12013600 f i RegxParser.obj
 0001:00012600       ??_G?$RefVectorOf@VReferencePosition@RegxParser@xercesc_2_2@@@xercesc_2_2@@UAEPAXI@Z 12013600 f i RegxParser.obj
 0001:00012620       ??1?$RefVectorOf@VReferencePosition@RegxParser@xercesc_2_2@@@xercesc_2_2@@UAE@XZ 12013620 f i RegxParser.obj
 0001:000126a0       ??1?$BaseRefVectorOf@VReferencePosition@RegxParser@xercesc_2_2@@@xercesc_2_2@@UAE@XZ 120136a0 f i RegxParser.obj
 0001:000126b0       ??0?$BaseRefVectorOf@VReferencePosition@RegxParser@xercesc_2_2@@@xercesc_2_2@@QAE@I_N@Z 120136b0 f i RegxParser.obj
 0001:00012710       ?decomposeToSurrogates@RegxUtil@xercesc_2_2@@SAPAGH@Z 12013710 f   RegxUtil.obj
 0001:00012750       ?stripExtendedComment@RegxUtil@xercesc_2_2@@SAPAGQBG@Z 12013750 f   RegxUtil.obj
 0001:00012990       ??0StringToken@xercesc_2_2@@QAE@GQBGH@Z 12013990 f   StringToken.obj
 0001:00012a40       ??_EStringToken@xercesc_2_2@@UAEPAXI@Z 12013a40 f i StringToken.obj
 0001:00012aa0       ??1StringToken@xercesc_2_2@@UAE@XZ 12013aa0 f   StringToken.obj
 0001:00012b00       ??0Token@xercesc_2_2@@QAE@G@Z 12013b00 f   Token.obj
 0001:00012b20       ??_EToken@xercesc_2_2@@UAEPAXI@Z 12013b20 f i Token.obj
 0001:00012b80       ??1Token@xercesc_2_2@@UAE@XZ 12013b80 f   Token.obj
 0001:00012b90       ?getMinLength@Token@xercesc_2_2@@QBEHXZ 12013b90 f   Token.obj
 0001:00012d00       ?getMaxLength@Token@xercesc_2_2@@QBEHXZ 12013d00 f   Token.obj
 0001:00012ea0       ?analyzeFirstCharacter@Token@xercesc_2_2@@QAEHQAVRangeToken@2@HQAVTokenFactory@2@@Z 12013ea0 f   Token.obj
 0001:00013150       ?findFixedString@Token@xercesc_2_2@@QAEPAV12@HAAH@Z 12014150 f   Token.obj
 0001:000132e0       ?isShorterThan@Token@xercesc_2_2@@AAE_NQAV12@@Z 120142e0 f   Token.obj
 0001:00013380       ??0TokenFactory@xercesc_2_2@@QAE@XZ 12014380 f   TokenFactory.obj
 0001:00013450       ??1TokenFactory@xercesc_2_2@@QAE@XZ 12014450 f   TokenFactory.obj
 0001:000134b0       ?createToken@TokenFactory@xercesc_2_2@@QAEPAVToken@2@G@Z 120144b0 f   TokenFactory.obj
 0001:000135b0       ?createLook@TokenFactory@xercesc_2_2@@QAEPAVParenToken@2@GQAVToken@2@@Z 120145b0 f   TokenFactory.obj
 0001:000136a0       ?createParenthesis@TokenFactory@xercesc_2_2@@QAEPAVParenToken@2@QAVToken@2@H@Z 120146a0 f   TokenFactory.obj
 0001:00013790       ?createClosure@TokenFactory@xercesc_2_2@@QAEPAVClosureToken@2@QAVToken@2@_N@Z 12014790 f   TokenFactory.obj
 0001:000138b0       ?createConcat@TokenFactory@xercesc_2_2@@QAEPAVConcatToken@2@QAVToken@2@0@Z 120148b0 f   TokenFactory.obj
 0001:000139a0       ?createUnion@TokenFactory@xercesc_2_2@@QAEPAVUnionToken@2@_N@Z 120149a0 f   TokenFactory.obj
 0001:00013ab0       ?createRange@TokenFactory@xercesc_2_2@@QAEPAVRangeToken@2@_N@Z 12014ab0 f   TokenFactory.obj
 0001:00013bc0       ?createChar@TokenFactory@xercesc_2_2@@QAEPAVCharToken@2@I_N@Z 12014bc0 f   TokenFactory.obj
 0001:00013ce0       ?createBackReference@TokenFactory@xercesc_2_2@@QAEPAVStringToken@2@H@Z 12014ce0 f   TokenFactory.obj
 0001:00013dc0       ?createString@TokenFactory@xercesc_2_2@@QAEPAVStringToken@2@QBG@Z 12014dc0 f   TokenFactory.obj
 0001:00013ea0       ?createModifierGroup@TokenFactory@xercesc_2_2@@QAEPAVModifierToken@2@QAVToken@2@HH@Z 12014ea0 f   TokenFactory.obj
 0001:00013f90       ?createCondition@TokenFactory@xercesc_2_2@@QAEPAVConditionToken@2@HQAVToken@2@00@Z 12014f90 f   TokenFactory.obj
 0001:00014080       ?getRange@TokenFactory@xercesc_2_2@@QAEPAVRangeToken@2@QBG_N@Z 12015080 f   TokenFactory.obj
 0001:000140b0       ?getLineBegin@TokenFactory@xercesc_2_2@@QAEPAVToken@2@XZ 120150b0 f   TokenFactory.obj
 0001:000140d0       ?getLineBegin2@TokenFactory@xercesc_2_2@@QAEPAVToken@2@XZ 120150d0 f   TokenFactory.obj
 0001:000140f0       ?getLineEnd@TokenFactory@xercesc_2_2@@QAEPAVToken@2@XZ 120150f0 f   TokenFactory.obj
 0001:00014110       ?getStringBegin@TokenFactory@xercesc_2_2@@QAEPAVToken@2@XZ 12015110 f   TokenFactory.obj
 0001:00014130       ?getStringEnd@TokenFactory@xercesc_2_2@@QAEPAVToken@2@XZ 12015130 f   TokenFactory.obj
 0001:00014150       ?getStringEnd2@TokenFactory@xercesc_2_2@@QAEPAVToken@2@XZ 12015150 f   TokenFactory.obj
 0001:00014170       ?getWordEdge@TokenFactory@xercesc_2_2@@QAEPAVToken@2@XZ 12015170 f   TokenFactory.obj
 0001:00014190       ?getNotWordEdge@TokenFactory@xercesc_2_2@@QAEPAVToken@2@XZ 12015190 f   TokenFactory.obj
 0001:000141b0       ?getWordBegin@TokenFactory@xercesc_2_2@@QAEPAVToken@2@XZ 120151b0 f   TokenFactory.obj
 0001:000141d0       ?getWordEnd@TokenFactory@xercesc_2_2@@QAEPAVToken@2@XZ 120151d0 f   TokenFactory.obj
 0001:000141f0       ?getDot@TokenFactory@xercesc_2_2@@QAEPAVToken@2@XZ 120151f0 f   TokenFactory.obj
 0001:00014210       ?getCombiningCharacterSequence@TokenFactory@xercesc_2_2@@QAEPAVToken@2@XZ 12015210 f   TokenFactory.obj
 0001:00014280       ?getGraphemePattern@TokenFactory@xercesc_2_2@@QAEPAVToken@2@XZ 12015280 f   TokenFactory.obj
 0001:000144e0       ?initializeRegistry@TokenFactory@xercesc_2_2@@AAEXXZ 120154e0 f   TokenFactory.obj
 0001:000146c0       ??_G?$RefVectorOf@VToken@xercesc_2_2@@@xercesc_2_2@@UAEPAXI@Z 120156c0 f i TokenFactory.obj
 0001:000146c0       ??_E?$RefVectorOf@VToken@xercesc_2_2@@@xercesc_2_2@@UAEPAXI@Z 120156c0 f i TokenFactory.obj
 0001:000146e0       ??1?$RefVectorOf@VToken@xercesc_2_2@@@xercesc_2_2@@UAE@XZ 120156e0 f i TokenFactory.obj
 0001:00014760       ??1?$BaseRefVectorOf@VToken@xercesc_2_2@@@xercesc_2_2@@UAE@XZ 12015760 f i TokenFactory.obj
 0001:00014770       ??0UnicodeRangeFactory@xercesc_2_2@@QAE@XZ 12015770 f   UnicodeRangeFactory.obj
 0001:00014790       ??_EUnicodeRangeFactory@xercesc_2_2@@UAEPAXI@Z 12015790 f i UnicodeRangeFactory.obj
 0001:000147f0       ??1UnicodeRangeFactory@xercesc_2_2@@UAE@XZ 120157f0 f   UnicodeRangeFactory.obj
 0001:00014800       ?buildRanges@UnicodeRangeFactory@xercesc_2_2@@MAEXXZ 12015800 f   UnicodeRangeFactory.obj
 0001:00014a30       ?initializeKeywordMap@UnicodeRangeFactory@xercesc_2_2@@UAEXXZ 12015a30 f   UnicodeRangeFactory.obj
 0001:00014ad0       ?getUniCategory@UnicodeRangeFactory@xercesc_2_2@@AAEGG@Z 12015ad0 f   UnicodeRangeFactory.obj
 0001:00014b60       ??0UnionToken@xercesc_2_2@@QAE@G@Z 12015b60 f   UnionToken.obj
 0001:00014b80       ??_EUnionToken@xercesc_2_2@@UAEPAXI@Z 12015b80 f i UnionToken.obj
 0001:00014be0       ??1UnionToken@xercesc_2_2@@UAE@XZ 12015be0 f   UnionToken.obj
 0001:00014c40       ?addChild@UnionToken@xercesc_2_2@@UAEXQAVToken@2@QAVTokenFactory@2@@Z 12015c40 f   UnionToken.obj
 0001:00015000       ??0?$BaseRefVectorOf@VToken@xercesc_2_2@@@xercesc_2_2@@QAE@I_N@Z 12016000 f i UnionToken.obj
 0001:00015060       ??0XMLRangeFactory@xercesc_2_2@@QAE@XZ 12016060 f   XMLRangeFactory.obj
 0001:00015080       ??_EXMLRangeFactory@xercesc_2_2@@UAEPAXI@Z 12016080 f i XMLRangeFactory.obj
 0001:000150e0       ??1XMLRangeFactory@xercesc_2_2@@UAE@XZ 120160e0 f   XMLRangeFactory.obj
 0001:000150f0       ?buildRanges@XMLRangeFactory@xercesc_2_2@@MAEXXZ 120160f0 f   XMLRangeFactory.obj
 0001:000157e0       ?initializeKeywordMap@XMLRangeFactory@xercesc_2_2@@UAEXXZ 120167e0 f   XMLRangeFactory.obj
 0001:00015850       ?getType@XMLUniCharacter@xercesc_2_2@@SAGG@Z 12016850 f   XMLUniCharacter.obj
 0001:00015870       ?isPad@Base64@xercesc_2_2@@CA_NABE@Z 12016870 f i Base64.obj
 0001:00015890       ?set1stOctet@Base64@xercesc_2_2@@CAEABE0@Z 12016890 f i Base64.obj
 0001:000158b0       ?set2ndOctet@Base64@xercesc_2_2@@CAEABE0@Z 120168b0 f i Base64.obj
 0001:000158d0       ?set3rdOctet@Base64@xercesc_2_2@@CAEABE0@Z 120168d0 f i Base64.obj
 0001:000158f0       ?split1stOctet@Base64@xercesc_2_2@@CAXABEAAE1@Z 120168f0 f i Base64.obj
 0001:00015910       ?split2ndOctet@Base64@xercesc_2_2@@CAXABEAAE1@Z 12016910 f i Base64.obj
 0001:00015940       ?split3rdOctet@Base64@xercesc_2_2@@CAXABEAAE1@Z 12016940 f i Base64.obj
 0001:00015960       ?isXMLLetter@XMLChar1_0@xercesc_2_2@@SA_NGG@Z 12016960 f i Base64.obj
 0001:00015980       ?isFirstNameChar@XMLChar1_0@xercesc_2_2@@SA_NGG@Z 12016980 f i Base64.obj
 0001:000159b0       ?isNameChar@XMLChar1_0@xercesc_2_2@@SA_NGG@Z 120169b0 f i Base64.obj
 0001:000159e0       ?isPlainContentChar@XMLChar1_0@xercesc_2_2@@SA_NGG@Z 120169e0 f i Base64.obj
 0001:00015a30       ?isSpecialStartTagChar@XMLChar1_0@xercesc_2_2@@SA_NGG@Z 12016a30 f i Base64.obj
 0001:00015a60       ?isXMLChar@XMLChar1_0@xercesc_2_2@@SA_NGG@Z 12016a60 f i Base64.obj
 0001:00015ab0       ?isWhitespace@XMLChar1_0@xercesc_2_2@@SA_NGG@Z 12016ab0 f i Base64.obj
 0001:00015ae0       ?isControlChar@XMLChar1_0@xercesc_2_2@@SA_NGG@Z 12016ae0 f i Base64.obj
 0001:00015b10       ?isNELRecognized@XMLChar1_0@xercesc_2_2@@SA_NXZ 12016b10 f i Base64.obj
 0001:00015b20       ?isXMLLetter@XMLChar1_1@xercesc_2_2@@SA_NGG@Z 12016b20 f i Base64.obj
 0001:00015b40       ?isFirstNameChar@XMLChar1_1@xercesc_2_2@@SA_NGG@Z 12016b40 f i Base64.obj
 0001:00015b90       ?isNameChar@XMLChar1_1@xercesc_2_2@@SA_NGG@Z 12016b90 f i Base64.obj
 0001:00015be0       ?isPlainContentChar@XMLChar1_1@xercesc_2_2@@SA_NGG@Z 12016be0 f i Base64.obj
 0001:00015c30       ?isSpecialStartTagChar@XMLChar1_1@xercesc_2_2@@SA_NGG@Z 12016c30 f i Base64.obj
 0001:00015c60       ?isXMLChar@XMLChar1_1@xercesc_2_2@@SA_NGG@Z 12016c60 f i Base64.obj
 0001:00015cb0       ?isWhitespace@XMLChar1_1@xercesc_2_2@@SA_NGG@Z 12016cb0 f i Base64.obj
 0001:00015ce0       ?isControlChar@XMLChar1_1@xercesc_2_2@@SA_NGG@Z 12016ce0 f i Base64.obj
 0001:00015d10       ??4XMLReader@xercesc_2_2@@QAEAAV01@ABV01@@Z 12016d10 f i Base64.obj
 0001:00015d30       ?isNameChar@XMLReader@xercesc_2_2@@QAE_NG@Z 12016d30 f i Base64.obj
 0001:00015d50       ?isPlainContentChar@XMLReader@xercesc_2_2@@QAE_NG@Z 12016d50 f i Base64.obj
 0001:00015d70       ?isFirstNameChar@XMLReader@xercesc_2_2@@QAE_NG@Z 12016d70 f i Base64.obj
 0001:00015d90       ?isSpecialStartTagChar@XMLReader@xercesc_2_2@@QAE_NG@Z 12016d90 f i Base64.obj
 0001:00015db0       ?isXMLChar@XMLReader@xercesc_2_2@@QAE_NG@Z 12016db0 f i Base64.obj
 0001:00015dd0       ?isXMLLetter@XMLReader@xercesc_2_2@@QAE_NG@Z 12016dd0 f i Base64.obj
 0001:00015df0       ?isWhitespace@XMLReader@xercesc_2_2@@QAE_NG@Z 12016df0 f i Base64.obj
 0001:00015e10       ?isControlChar@XMLReader@xercesc_2_2@@QAE_NG@Z 12016e10 f i Base64.obj
 0001:00015e30       ?charsLeftInBuffer@XMLReader@xercesc_2_2@@QBEKXZ 12016e30 f i Base64.obj
 0001:00015e40       ?getColumnNumber@XMLReader@xercesc_2_2@@QBEJXZ 12016e40 f i Base64.obj
 0001:00015e50       ?getEncodingStr@XMLReader@xercesc_2_2@@QBEPBGXZ 12016e50 f i Base64.obj
 0001:00015e60       ?getLineNumber@XMLReader@xercesc_2_2@@QBEJXZ 12016e60 f i Base64.obj
 0001:00015e70       ?getNoMoreFlag@XMLReader@xercesc_2_2@@QBE_NXZ 12016e70 f i Base64.obj
 0001:00015e80       ?getPublicId@XMLReader@xercesc_2_2@@QBEPBGXZ 12016e80 f i Base64.obj
 0001:00015e90       ?getReaderNum@XMLReader@xercesc_2_2@@QBEIXZ 12016e90 f i Base64.obj
 0001:00015ea0       ?getRefFrom@XMLReader@xercesc_2_2@@QBE?AW4RefFrom@12@XZ 12016ea0 f i Base64.obj
 0001:00015eb0       ?getSource@XMLReader@xercesc_2_2@@QBE?AW4Sources@12@XZ 12016eb0 f i Base64.obj
 0001:00015ec0       ?getSystemId@XMLReader@xercesc_2_2@@QBEPBGXZ 12016ec0 f i Base64.obj
 0001:00015ed0       ?getThrowAtEnd@XMLReader@xercesc_2_2@@QBE_NXZ 12016ed0 f i Base64.obj
 0001:00015ee0       ?getType@XMLReader@xercesc_2_2@@QBE?AW4Types@12@XZ 12016ee0 f i Base64.obj
 0001:00015ef0       ?setReaderNum@XMLReader@xercesc_2_2@@QAEXI@Z 12016ef0 f i Base64.obj
 0001:00015f00       ?setThrowAtEnd@XMLReader@xercesc_2_2@@QAEX_N@Z 12016f00 f i Base64.obj
 0001:00015f10       ?setXMLVersion@XMLReader@xercesc_2_2@@QAEXW4XMLVersion@12@@Z 12016f10 f i Base64.obj
 0001:00015f50       ?movePlainContentChars@XMLReader@xercesc_2_2@@QAEXAAVXMLBuffer@2@@Z 12016f50 f i Base64.obj
 0001:00015fb0       ?getNextCharIfNot@XMLReader@xercesc_2_2@@QAE_NGAAG@Z 12016fb0 f i Base64.obj
 0001:000160d0       ?getNextChar@XMLReader@xercesc_2_2@@QAE_NAAG@Z 120170d0 f i Base64.obj
 0001:000161c0       ?peekNextChar@XMLReader@xercesc_2_2@@QAE_NAAG@Z 120171c0 f i Base64.obj
 0001:00016230       ?encode@Base64@xercesc_2_2@@SAPAEQBEIPAI@Z 12017230 f   Base64.obj
 0001:00016490       ?getDataLength@Base64@xercesc_2_2@@SAHQBG@Z 12017490 f   Base64.obj
 0001:000164d0       ?decode@Base64@xercesc_2_2@@SAPAEQBEPAI@Z 120174d0 f   Base64.obj
 0001:00016840       ?decode@Base64@xercesc_2_2@@SAPAGQBGPAI@Z 12017840 f   Base64.obj
 0001:00016980       ?init@Base64@xercesc_2_2@@CAXXZ 12017980 f   Base64.obj
 0001:000169c0       ?isData@Base64@xercesc_2_2@@CA_NABE@Z 120179c0 f   Base64.obj
 0001:000169e0       ?getIsOpen@BinFileInputStream@xercesc_2_2@@QBE_NXZ 120179e0 f i BinFileInputStream.obj
 0001:000169f0       ??0BinFileInputStream@xercesc_2_2@@QAE@QBG@Z 120179f0 f   BinFileInputStream.obj
 0001:00016a50       ??_EBinFileInputStream@xercesc_2_2@@UAEPAXI@Z 12017a50 f i BinFileInputStream.obj
 0001:00016ab0       ??0BinFileInputStream@xercesc_2_2@@QAE@QBD@Z 12017ab0 f   BinFileInputStream.obj
 0001:00016b30       ??0BinFileInputStream@xercesc_2_2@@QAE@QAX@Z 12017b30 f   BinFileInputStream.obj
 0001:00016b50       ??1BinFileInputStream@xercesc_2_2@@UAE@XZ 12017b50 f   BinFileInputStream.obj
 0001:00016bb0       ?getSize@BinFileInputStream@xercesc_2_2@@QBEIXZ 12017bb0 f   BinFileInputStream.obj
 0001:00016bc0       ?reset@BinFileInputStream@xercesc_2_2@@QAEXXZ 12017bc0 f   BinFileInputStream.obj
 0001:00016bd0       ?curPos@BinFileInputStream@xercesc_2_2@@UBEIXZ 12017bd0 f   BinFileInputStream.obj
 0001:00016be0       ?readBytes@BinFileInputStream@xercesc_2_2@@UAEIQAEI@Z 12017be0 f   BinFileInputStream.obj
 0001:00016c00       ??1BinInputStream@xercesc_2_2@@UAE@XZ 12017c00 f   BinInputStream.obj
 0001:00016c10       ??_EBinInputStream@xercesc_2_2@@UAEPAXI@Z 12017c10 f i BinInputStream.obj
 0001:00016c70       ??0BinInputStream@xercesc_2_2@@IAE@XZ 12017c70 f   BinInputStream.obj
 0001:00016c80       ?reset@BinMemInputStream@xercesc_2_2@@QAEXXZ 12017c80 f i BinMemInputStream.obj
 0001:00016c90       ??0BinMemInputStream@xercesc_2_2@@QAE@QBEIW4BufOpts@01@@Z 12017c90 f   BinMemInputStream.obj
 0001:00016d30       ??_EBinMemInputStream@xercesc_2_2@@UAEPAXI@Z 12017d30 f i BinMemInputStream.obj
 0001:00016d90       ??1BinMemInputStream@xercesc_2_2@@UAE@XZ 12017d90 f   BinMemInputStream.obj
 0001:00016e00       ?readBytes@BinMemInputStream@xercesc_2_2@@UAEIQAEI@Z 12017e00 f   BinMemInputStream.obj
 0001:00016e50       ??0BitSet@xercesc_2_2@@QAE@I@Z 12017e50 f   BitSet.obj
 0001:00016e70       ??0BitSet@xercesc_2_2@@QAE@ABV01@@Z 12017e70 f   BitSet.obj
 0001:00016ec0       ??1BitSet@xercesc_2_2@@QAE@XZ 12017ec0 f   BitSet.obj
 0001:00016ec0       ??1NodeVector@xercesc_2_2@@QAE@XZ 12017ec0 f   BitSet.obj
 0001:00016ed0       ?equals@BitSet@xercesc_2_2@@QBE_NABV12@@Z 12017ed0 f   BitSet.obj
 0001:00016f10       ?get@BitSet@xercesc_2_2@@QBE_NI@Z 12017f10 f   BitSet.obj
 0001:00016f40       ?size@BitSet@xercesc_2_2@@QBEIXZ 12017f40 f   BitSet.obj
 0001:00016f50       ?allAreCleared@BitSet@xercesc_2_2@@QBE_NXZ 12017f50 f   BitSet.obj
 0001:00016f70       ?allAreSet@BitSet@xercesc_2_2@@QBE_NXZ 12017f70 f   BitSet.obj
 0001:00016f90       ?clearAll@BitSet@xercesc_2_2@@QAEXXZ 12017f90 f   BitSet.obj
 0001:00016fb0       ?clear@BitSet@xercesc_2_2@@QAEXI@Z 12017fb0 f   BitSet.obj
 0001:00016ff0       ?set@BitSet@xercesc_2_2@@QAEXI@Z 12017ff0 f   BitSet.obj
 0001:00017030       ?andWith@BitSet@xercesc_2_2@@QAEXABV12@@Z 12018030 f   BitSet.obj
 0001:00017080       ?orWith@BitSet@xercesc_2_2@@QAEXABV12@@Z 12018080 f   BitSet.obj
 0001:000170d0       ?xorWith@BitSet@xercesc_2_2@@QAEXABV12@@Z 120180d0 f   BitSet.obj
 0001:00017120       ?hash@BitSet@xercesc_2_2@@QBEII@Z 12018120 f   BitSet.obj
 0001:00017150       ?ensureCapacity@BitSet@xercesc_2_2@@AAEXI@Z 12018150 f   BitSet.obj
 0001:000171d0       ??0EncodingValidator@xercesc_2_2@@AAE@XZ 120181d0 f   EncodingValidator.obj
 0001:000171f0       ??1EncodingValidator@xercesc_2_2@@QAE@XZ 120181f0 f   EncodingValidator.obj
 0001:00017280       ?isValidEncoding@EncodingValidator@xercesc_2_2@@QAE_NQBG@Z 12018280 f   EncodingValidator.obj
 0001:00017300       ?initializeRegistry@EncodingValidator@xercesc_2_2@@AAEXXZ 12018300 f   EncodingValidator.obj
 0001:000174a0       ?instance@EncodingValidator@xercesc_2_2@@SAPAV12@XZ 120184a0 f   EncodingValidator.obj
 0001:000176b0       ?reinitInstance@EncodingValidator@xercesc_2_2@@SAXXZ 120186b0 f   EncodingValidator.obj
 0001:00017760       ?put@?$ValueHashTableOf@_N@xercesc_2_2@@QAEXPAXAB_N@Z 12018760 f i EncodingValidator.obj
 0001:00017850       ?initialize@?$ValueHashTableOf@G@xercesc_2_2@@AAEXI@Z 12018850 f i EncodingValidator.obj
 0001:00017850       ?initialize@?$ValueHashTableOf@_N@xercesc_2_2@@AAEXI@Z 12018850 f i EncodingValidator.obj
 0001:000178c0       ??0HashPtr@xercesc_2_2@@QAE@ABV01@@Z 120188c0 f i HashPtr.obj
 0001:000178d0       ??_EHashPtr@xercesc_2_2@@UAEPAXI@Z 120188d0 f i HashPtr.obj
 0001:00017930       ??0HashPtr@xercesc_2_2@@QAE@XZ 12018930 f   HashPtr.obj
 0001:00017940       ??1HashPtr@xercesc_2_2@@UAE@XZ 12018940 f   HashPtr.obj
 0001:00017950       ?getHashVal@HashPtr@xercesc_2_2@@UAEIQBXI@Z 12018950 f   HashPtr.obj
 0001:00017960       ?equals@HashPtr@xercesc_2_2@@UAE_NQBX0@Z 12018960 f   HashPtr.obj
 0001:00017980       ??0HashXMLCh@xercesc_2_2@@QAE@XZ 12018980 f   HashXMLCh.obj
 0001:00017990       ??1HashXMLCh@xercesc_2_2@@UAE@XZ 12018990 f   HashXMLCh.obj
 0001:000179a0       ?getHashVal@HashXMLCh@xercesc_2_2@@UAEIQBXI@Z 120189a0 f   HashXMLCh.obj
 0001:000179c0       ?equals@HashXMLCh@xercesc_2_2@@UAE_NQBX0@Z 120189c0 f   HashXMLCh.obj
 0001:00017a20       ?swapBytes@BitOps@xercesc_2_2@@SAGG@Z 12018a20 f i HeaderDummy.obj
 0001:00017a40       ?swapBytes@BitOps@xercesc_2_2@@SAII@Z 12018a40 f i HeaderDummy.obj
 0001:00017a70       ??0EmptyStackException@xercesc_2_2@@QAE@QBDIW4Codes@XMLExcepts@1@@Z 12018a70 f i HeaderDummy.obj
 0001:00017ad0       ??0EmptyStackException@xercesc_2_2@@QAE@ABV01@@Z 12018ad0 f i HeaderDummy.obj
 0001:00017af0       ??0EmptyStackException@xercesc_2_2@@QAE@QBDIW4Codes@XMLExcepts@1@QBG222@Z 12018af0 f i HeaderDummy.obj
 0001:00017b60       ??0EmptyStackException@xercesc_2_2@@QAE@QBDIW4Codes@XMLExcepts@1@0000@Z 12018b60 f i HeaderDummy.obj
 0001:00017bd0       ??1EmptyStackException@xercesc_2_2@@UAE@XZ 12018bd0 f i HeaderDummy.obj
 0001:00017be0       ?duplicate@EmptyStackException@xercesc_2_2@@UBEPAVXMLException@2@XZ 12018be0 f i HeaderDummy.obj
 0001:00017c40       ?getType@EmptyStackException@xercesc_2_2@@UBEPBGXZ 12018c40 f i HeaderDummy.obj
 0001:00017c50       ??_EEmptyStackException@xercesc_2_2@@UAEPAXI@Z 12018c50 f i HeaderDummy.obj
 0001:00017cb0       ??0InvalidCastException@xercesc_2_2@@QAE@QBDIW4Codes@XMLExcepts@1@@Z 12018cb0 f i HeaderDummy.obj
 0001:00017d10       ??0InvalidCastException@xercesc_2_2@@QAE@ABV01@@Z 12018d10 f i HeaderDummy.obj
 0001:00017d30       ??0InvalidCastException@xercesc_2_2@@QAE@QBDIW4Codes@XMLExcepts@1@QBG222@Z 12018d30 f i HeaderDummy.obj
 0001:00017da0       ??0InvalidCastException@xercesc_2_2@@QAE@QBDIW4Codes@XMLExcepts@1@0000@Z 12018da0 f i HeaderDummy.obj
 0001:00017e10       ??1InvalidCastException@xercesc_2_2@@UAE@XZ 12018e10 f i HeaderDummy.obj
 0001:00017e20       ?duplicate@InvalidCastException@xercesc_2_2@@UBEPAVXMLException@2@XZ 12018e20 f i HeaderDummy.obj
 0001:00017e80       ?getType@InvalidCastException@xercesc_2_2@@UBEPBGXZ 12018e80 f i HeaderDummy.obj
 0001:00017e90       ??_EInvalidCastException@xercesc_2_2@@UAEPAXI@Z 12018e90 f i HeaderDummy.obj
 0001:00017ef0       ??0IOException@xercesc_2_2@@QAE@QBDIW4Codes@XMLExcepts@1@@Z 12018ef0 f i HeaderDummy.obj
 0001:00017f50       ??0IOException@xercesc_2_2@@QAE@ABV01@@Z 12018f50 f i HeaderDummy.obj
 0001:00017f70       ??0IOException@xercesc_2_2@@QAE@QBDIW4Codes@XMLExcepts@1@QBG222@Z 12018f70 f i HeaderDummy.obj
 0001:00017fe0       ??0IOException@xercesc_2_2@@QAE@QBDIW4Codes@XMLExcepts@1@0000@Z 12018fe0 f i HeaderDummy.obj
 0001:00018050       ??1IOException@xercesc_2_2@@UAE@XZ 12019050 f i HeaderDummy.obj
 0001:00018060       ?duplicate@IOException@xercesc_2_2@@UBEPAVXMLException@2@XZ 12019060 f i HeaderDummy.obj
 0001:000180c0       ?getType@IOException@xercesc_2_2@@UBEPBGXZ 120190c0 f i HeaderDummy.obj
 0001:000180d0       ??_EIOException@xercesc_2_2@@UAEPAXI@Z 120190d0 f i HeaderDummy.obj
 0001:00018130       ??0UnexpectedEOFException@xercesc_2_2@@QAE@QBDIW4Codes@XMLExcepts@1@@Z 12019130 f i HeaderDummy.obj
 0001:00018190       ??0UnexpectedEOFException@xercesc_2_2@@QAE@ABV01@@Z 12019190 f i HeaderDummy.obj
 0001:000181b0       ??0UnexpectedEOFException@xercesc_2_2@@QAE@QBDIW4Codes@XMLExcepts@1@QBG222@Z 120191b0 f i HeaderDummy.obj
 0001:00018220       ??0UnexpectedEOFException@xercesc_2_2@@QAE@QBDIW4Codes@XMLExcepts@1@0000@Z 12019220 f i HeaderDummy.obj
 0001:00018290       ??1UnexpectedEOFException@xercesc_2_2@@UAE@XZ 12019290 f i HeaderDummy.obj
 0001:000182a0       ?duplicate@UnexpectedEOFException@xercesc_2_2@@UBEPAVXMLException@2@XZ 120192a0 f i HeaderDummy.obj
 0001:00018300       ?getType@UnexpectedEOFException@xercesc_2_2@@UBEPBGXZ 12019300 f i HeaderDummy.obj
 0001:00018310       ??_EUnexpectedEOFException@xercesc_2_2@@UAEPAXI@Z 12019310 f i HeaderDummy.obj
 0001:00018370       ??0UnsupportedEncodingException@xercesc_2_2@@QAE@QBDIW4Codes@XMLExcepts@1@@Z 12019370 f i HeaderDummy.obj
 0001:000183d0       ??0UnsupportedEncodingException@xercesc_2_2@@QAE@ABV01@@Z 120193d0 f i HeaderDummy.obj
 0001:000183f0       ??0UnsupportedEncodingException@xercesc_2_2@@QAE@QBDIW4Codes@XMLExcepts@1@QBG222@Z 120193f0 f i HeaderDummy.obj
 0001:00018460       ??0UnsupportedEncodingException@xercesc_2_2@@QAE@QBDIW4Codes@XMLExcepts@1@0000@Z 12019460 f i HeaderDummy.obj
 0001:000184d0       ??1UnsupportedEncodingException@xercesc_2_2@@UAE@XZ 120194d0 f i HeaderDummy.obj
 0001:000184e0       ?duplicate@UnsupportedEncodingException@xercesc_2_2@@UBEPAVXMLException@2@XZ 120194e0 f i HeaderDummy.obj
 0001:00018540       ?getType@UnsupportedEncodingException@xercesc_2_2@@UBEPBGXZ 12019540 f i HeaderDummy.obj
 0001:00018550       ??_EUnsupportedEncodingException@xercesc_2_2@@UAEPAXI@Z 12019550 f i HeaderDummy.obj
 0001:000185b0       ??0UTFDataFormatException@xercesc_2_2@@QAE@QBDIW4Codes@XMLExcepts@1@@Z 120195b0 f i HeaderDummy.obj
 0001:00018610       ??0UTFDataFormatException@xercesc_2_2@@QAE@ABV01@@Z 12019610 f i HeaderDummy.obj
 0001:00018630       ??0UTFDataFormatException@xercesc_2_2@@QAE@QBDIW4Codes@XMLExcepts@1@QBG222@Z 12019630 f i HeaderDummy.obj
 0001:000186a0       ??0UTFDataFormatException@xercesc_2_2@@QAE@QBDIW4Codes@XMLExcepts@1@0000@Z 120196a0 f i HeaderDummy.obj
 0001:00018710       ??1UTFDataFormatException@xercesc_2_2@@UAE@XZ 12019710 f i HeaderDummy.obj
 0001:00018720       ?duplicate@UTFDataFormatException@xercesc_2_2@@UBEPAVXMLException@2@XZ 12019720 f i HeaderDummy.obj
 0001:00018780       ?getType@UTFDataFormatException@xercesc_2_2@@UBEPBGXZ 12019780 f i HeaderDummy.obj
 0001:00018790       ??_EUTFDataFormatException@xercesc_2_2@@UAEPAXI@Z 12019790 f i HeaderDummy.obj
 0001:000187f0       ?getDataLength@HexBin@xercesc_2_2@@SAHQBG@Z 120197f0 f   HexBin.obj
 0001:000188d0       ?isArrayByteHex@HexBin@xercesc_2_2@@SA_NQBG@Z 120198d0 f   HexBin.obj
 0001:00018990       ?isHex@HexBin@xercesc_2_2@@CA_NABG@Z 12019990 f   HexBin.obj
 0001:000189b0       ?init@HexBin@xercesc_2_2@@CAXXZ 120199b0 f   HexBin.obj
 0001:00018a10       ??0KVStringPair@xercesc_2_2@@QAE@XZ 12019a10 f   KVStringPair.obj
 0001:00018a20       ??0KVStringPair@xercesc_2_2@@QAE@QBG0@Z 12019a20 f   KVStringPair.obj
 0001:00018b00       ??0KVStringPair@xercesc_2_2@@QAE@ABV01@@Z 12019b00 f   KVStringPair.obj
 0001:00018bf0       ??1KVStringPair@xercesc_2_2@@QAE@XZ 12019bf0 f   KVStringPair.obj
 0001:00018c10       ?setKey@KVStringPair@xercesc_2_2@@QAEXQBG@Z 12019c10 f   KVStringPair.obj
 0001:00018c80       ?setValue@KVStringPair@xercesc_2_2@@QAEXQBG@Z 12019c80 f   KVStringPair.obj
 0001:00018cf0       ?set@KVStringPair@xercesc_2_2@@QAEXQBG0@Z 12019cf0 f   KVStringPair.obj
 0001:00018db0       ??0XMLMutex@xercesc_2_2@@QAE@XZ 12019db0 f   Mutexes.obj
 0001:00018dd0       ??1XMLMutex@xercesc_2_2@@QAE@XZ 12019dd0 f   Mutexes.obj
 0001:00018df0       ?lock@XMLMutex@xercesc_2_2@@QAEXXZ 12019df0 f   Mutexes.obj
 0001:00018e00       ?unlock@XMLMutex@xercesc_2_2@@QAEXXZ 12019e00 f   Mutexes.obj
 0001:00018e10       ??0XMLMutexLock@xercesc_2_2@@QAE@QAVXMLMutex@1@@Z 12019e10 f   Mutexes.obj
 0001:00018e30       ??1XMLMutexLock@xercesc_2_2@@QAE@XZ 12019e30 f   Mutexes.obj
 0001:00018e40       ?Initialize@XMLPlatformUtils@xercesc_2_2@@SAXQBD@Z 12019e40 f   PlatformUtils.obj
 0001:00018f50       ?Terminate@XMLPlatformUtils@xercesc_2_2@@SAXXZ 12019f50 f   PlatformUtils.obj
 0001:00019060       ?loadMsgSet@XMLPlatformUtils@xercesc_2_2@@SAPAVXMLMsgLoader@2@QBG@Z 1201a060 f   PlatformUtils.obj
 0001:00019070       ?recognizeNEL@XMLPlatformUtils@xercesc_2_2@@SAX_N@Z 1201a070 f   PlatformUtils.obj
 0001:000190d0       ?isNELRecognized@XMLPlatformUtils@xercesc_2_2@@SA_NXZ 1201a0d0 f   PlatformUtils.obj
 0001:000190e0       ?strictIANAEncoding@XMLPlatformUtils@xercesc_2_2@@SAX_N@Z 1201a0e0 f   PlatformUtils.obj
 0001:00019100       ?isStrictIANAEncoding@XMLPlatformUtils@xercesc_2_2@@SA_NXZ 1201a100 f   PlatformUtils.obj
 0001:00019120       ??4QName@xercesc_2_2@@QAEAAV01@ABV01@@Z 1201a120 f i QName.obj
 0001:00019140       ??0QName@xercesc_2_2@@QAE@XZ 1201a140 f   QName.obj
 0001:00019160       ??0QName@xercesc_2_2@@QAE@QBG0I@Z 1201a160 f   QName.obj
 0001:000192c0       ??0QName@xercesc_2_2@@QAE@QBGI@Z 1201a2c0 f   QName.obj
 0001:00019350       ??0QName@xercesc_2_2@@QAE@ABV01@@Z 1201a350 f   QName.obj
 0001:00019430       ?getRawName@QName@xercesc_2_2@@QBEPBGXZ 1201a430 f   QName.obj
 0001:00019430       ?getRawName@QName@xercesc_2_2@@QAEPAGXZ 1201a430 f   QName.obj
 0001:000194f0       ?setName@QName@xercesc_2_2@@QAEXQBG0I@Z 1201a4f0 f   QName.obj
 0001:00019600       ?setName@QName@xercesc_2_2@@QAEXQBGI@Z 1201a600 f   QName.obj
 0001:000197c0       ?setPrefix@QName@xercesc_2_2@@QAEXPBG@Z 1201a7c0 f   QName.obj
 0001:00019840       ?setNPrefix@QName@xercesc_2_2@@QAEXPBGI@Z 1201a840 f   QName.obj
 0001:000198b0       ?setValue@XMLAttr@xercesc_2_2@@QAEXQBG@Z 1201a8b0 f   QName.obj
 0001:000198b0       ?setLocalPart@QName@xercesc_2_2@@QAEXPBG@Z 1201a8b0 f   QName.obj
 0001:00019930       ?setNLocalPart@QName@xercesc_2_2@@QAEXPBGI@Z 1201a930 f   QName.obj
 0001:000199a0       ?setValues@QName@xercesc_2_2@@QAEXABV12@@Z 1201a9a0 f   QName.obj
 0001:00019aa0       ??8QName@xercesc_2_2@@QBE_NABV01@@Z 1201aaa0 f   QName.obj
 0001:00019b70       ?cleanUp@QName@xercesc_2_2@@QAEXXZ 1201ab70 f   QName.obj
 0001:00019b70       ??1QName@xercesc_2_2@@QAE@XZ 1201ab70 f   QName.obj
 0001:00019ba0       ??0XMLStringPool@xercesc_2_2@@QAE@I@Z 1201aba0 f   StringPool.obj
 0001:00019cf0       ??1XMLStringPool@xercesc_2_2@@QAE@XZ 1201acf0 f   StringPool.obj
 0001:00019da0       ?addOrFind@XMLStringPool@xercesc_2_2@@QAEIQBG@Z 1201ada0 f   StringPool.obj
 0001:00019e30       ?exists@XMLStringPool@xercesc_2_2@@QBE_NQBG@Z 1201ae30 f   StringPool.obj
 0001:00019eb0       ?exists@XMLStringPool@xercesc_2_2@@QBE_NI@Z 1201aeb0 f   StringPool.obj
 0001:00019ed0       ?flushAll@XMLStringPool@xercesc_2_2@@QAEXXZ 1201aed0 f   StringPool.obj
 0001:00019f50       ?getId@XMLStringPool@xercesc_2_2@@QBEIQBG@Z 1201af50 f   StringPool.obj
 0001:00019fe0       ?getValueForId@XMLStringPool@xercesc_2_2@@QBEPBGI@Z 1201afe0 f   StringPool.obj
 0001:0001a030       ?addNewEntry@XMLStringPool@xercesc_2_2@@AAEIQBG@Z 1201b030 f   StringPool.obj
 0001:0001a260       ??0XMLTransService@xercesc_2_2@@IAE@XZ 1201b260 f   TransService.obj
 0001:0001a610       ??_EXMLTransService@xercesc_2_2@@UAEPAXI@Z 1201b610 f i TransService.obj
 0001:0001a670       ??1XMLTransService@xercesc_2_2@@UAE@XZ 1201b670 f   TransService.obj
 0001:0001a680       ?addEncoding@XMLTransService@xercesc_2_2@@SAXQBGQAVENameMap@2@@Z 1201b680 f   TransService.obj
 0001:0001a6a0       ?makeNewTranscoderFor@XMLTransService@xercesc_2_2@@QAEPAVXMLTranscoder@2@QBDAAW4Codes@12@I@Z 1201b6a0 f   TransService.obj
 0001:0001a710       ?makeNewTranscoderFor@XMLTransService@xercesc_2_2@@QAEPAVXMLTranscoder@2@QBGAAW4Codes@12@I@Z 1201b710 f   TransService.obj
 0001:0001a880       ?makeNewTranscoderFor@XMLTransService@xercesc_2_2@@QAEPAVXMLTranscoder@2@W4Encodings@XMLRecognizer@2@AAW4Codes@12@I@Z 1201b880 f   TransService.obj
 0001:0001a940       ?initTransService@XMLTransService@xercesc_2_2@@AAEXXZ 1201b940 f   TransService.obj
 0001:0001c0a0       ?strictIANAEncoding@XMLTransService@xercesc_2_2@@AAEX_N@Z 1201d0a0 f   TransService.obj
 0001:0001c0b0       ?isStrictIANAEncoding@XMLTransService@xercesc_2_2@@AAE_NXZ 1201d0b0 f   TransService.obj
 0001:0001c0c0       ??1XMLTranscoder@xercesc_2_2@@UAE@XZ 1201d0c0 f   TransService.obj
 0001:0001c0e0       ??_EXMLTranscoder@xercesc_2_2@@UAEPAXI@Z 1201d0e0 f i TransService.obj
 0001:0001c140       ??0XMLTranscoder@xercesc_2_2@@IAE@QBGI@Z 1201d140 f   TransService.obj
 0001:0001c1c0       ??0XMLLCPTranscoder@xercesc_2_2@@IAE@XZ 1201d1c0 f   TransService.obj
 0001:0001c1d0       ??_EXMLLCPTranscoder@xercesc_2_2@@UAEPAXI@Z 1201d1d0 f i TransService.obj
 0001:0001c230       ??1XMLLCPTranscoder@xercesc_2_2@@UAE@XZ 1201d230 f   TransService.obj
 0001:0001c240       ?put@?$RefHashTableOf@VENameMap@xercesc_2_2@@@xercesc_2_2@@QAEXPAXQAVENameMap@2@@Z 1201d240 f i TransService.obj
 0001:0001c350       ?setElementAt@?$BaseRefVectorOf@VENameMap@xercesc_2_2@@@xercesc_2_2@@QAEXQAVENameMap@2@I@Z 1201d350 f i TransService.obj
 0001:0001c3c0       ?makeNew@?$ENameMapFor@VXMLChTranscoder@xercesc_2_2@@@xercesc_2_2@@UBEPAVXMLTranscoder@2@I@Z 1201d3c0 f i TransService.obj
 0001:0001c430       ?makeNew@?$ENameMapFor@VXMLASCIITranscoder@xercesc_2_2@@@xercesc_2_2@@UBEPAVXMLTranscoder@2@I@Z 1201d430 f i TransService.obj
 0001:0001c4a0       ?makeNew@?$ENameMapFor@VXMLUTF8Transcoder@xercesc_2_2@@@xercesc_2_2@@UBEPAVXMLTranscoder@2@I@Z 1201d4a0 f i TransService.obj
 0001:0001c510       ?makeNew@?$ENameMapFor@VXML88591Transcoder@xercesc_2_2@@@xercesc_2_2@@UBEPAVXMLTranscoder@2@I@Z 1201d510 f i TransService.obj
 0001:0001c580       ??0?$EEndianNameMapFor@VXMLUTF16Transcoder@xercesc_2_2@@@xercesc_2_2@@QAE@QBG_N@Z 1201d580 f i TransService.obj
 0001:0001c5f0       ?makeNew@?$EEndianNameMapFor@VXMLUTF16Transcoder@xercesc_2_2@@@xercesc_2_2@@UBEPAVXMLTranscoder@2@I@Z 1201d5f0 f i TransService.obj
 0001:0001c660       ??0?$EEndianNameMapFor@VXMLUCS4Transcoder@xercesc_2_2@@@xercesc_2_2@@QAE@QBG_N@Z 1201d660 f i TransService.obj
 0001:0001c6d0       ?makeNew@?$EEndianNameMapFor@VXMLUCS4Transcoder@xercesc_2_2@@@xercesc_2_2@@UBEPAVXMLTranscoder@2@I@Z 1201d6d0 f i TransService.obj
 0001:0001c740       ??0?$ENameMapFor@VXMLEBCDICTranscoder@xercesc_2_2@@@xercesc_2_2@@QAE@QBG@Z 1201d740 f i TransService.obj
 0001:0001c7b0       ?makeNew@?$ENameMapFor@VXMLEBCDICTranscoder@xercesc_2_2@@@xercesc_2_2@@UBEPAVXMLTranscoder@2@I@Z 1201d7b0 f i TransService.obj
 0001:0001c820       ??0?$ENameMapFor@VXMLIBM1140Transcoder@xercesc_2_2@@@xercesc_2_2@@QAE@QBG@Z 1201d820 f i TransService.obj
 0001:0001c890       ?makeNew@?$ENameMapFor@VXMLIBM1140Transcoder@xercesc_2_2@@@xercesc_2_2@@UBEPAVXMLTranscoder@2@I@Z 1201d890 f i TransService.obj
 0001:0001c900       ??0?$ENameMapFor@VXMLWin1252Transcoder@xercesc_2_2@@@xercesc_2_2@@QAE@QBG@Z 1201d900 f i TransService.obj
 0001:0001c970       ?makeNew@?$ENameMapFor@VXMLWin1252Transcoder@xercesc_2_2@@@xercesc_2_2@@UBEPAVXMLTranscoder@2@I@Z 1201d970 f i TransService.obj
 0001:0001c9e0       ??_GENameMap@xercesc_2_2@@QAEPAXI@Z 1201d9e0 f i TransService.obj
 0001:0001ca10       ??_E?$RefVectorOf@VENameMap@xercesc_2_2@@@xercesc_2_2@@UAEPAXI@Z 1201da10 f i TransService.obj
 0001:0001ca10       ??_G?$RefVectorOf@VENameMap@xercesc_2_2@@@xercesc_2_2@@UAEPAXI@Z 1201da10 f i TransService.obj
 0001:0001ca30       ??1?$RefVectorOf@VENameMap@xercesc_2_2@@@xercesc_2_2@@UAE@XZ 1201da30 f i TransService.obj
 0001:0001cac0       ??1?$BaseRefVectorOf@VENameMap@xercesc_2_2@@@xercesc_2_2@@UAE@XZ 1201dac0 f i TransService.obj
 0001:0001cad0       ??0?$RefHashTableBucketElem@VXMLRefInfo@xercesc_2_2@@@xercesc_2_2@@QAE@PAXQAVXMLRefInfo@1@PAU01@@Z 1201dad0 f i TransService.obj
 0001:0001cad0       ??0?$RefHashTableBucketElem@VSchemaInfo@xercesc_2_2@@@xercesc_2_2@@QAE@PAXQAVSchemaInfo@1@PAU01@@Z 1201dad0 f i TransService.obj
 0001:0001cad0       ??0?$RefHashTableBucketElem@V?$RefHashTableOf@V?$KeyRefPair@XVDOMUserDataHandler@xercesc_2_2@@@xercesc_2_2@@@xercesc_2_2@@@xercesc_2_2@@QAE@PAXQAV?$RefHashTableOf@V?$KeyRefPair@XVDOMUserDataHandler@xercesc_2_2@@@xercesc_2_2@@@1@PAU01@@Z 1201dad0 f i TransService.obj
 0001:0001cad0       ??0?$RefHashTableBucketElem@VENameMap@xercesc_2_2@@@xercesc_2_2@@QAE@PAXQAVENameMap@1@PAU01@@Z 1201dad0 f i TransService.obj
 0001:0001cad0       ??0?$RefHashTableBucketElem@V?$KeyRefPair@XVDOMUserDataHandler@xercesc_2_2@@@xercesc_2_2@@@xercesc_2_2@@QAE@PAXQAV?$KeyRefPair@XVDOMUserDataHandler@xercesc_2_2@@@1@PAU01@@Z 1201dad0 f i TransService.obj
 0001:0001cad0       ??0?$RefHashTableBucketElem@VXercesGroupInfo@xercesc_2_2@@@xercesc_2_2@@QAE@PAXQAVXercesGroupInfo@1@PAU01@@Z 1201dad0 f i TransService.obj
 0001:0001cad0       ??0?$RefHashTableBucketElem@VComplexTypeInfo@xercesc_2_2@@@xercesc_2_2@@QAE@PAXQAVComplexTypeInfo@1@PAU01@@Z 1201dad0 f i TransService.obj
 0001:0001cad0       ??0?$RefHashTableBucketElem@VDatatypeValidator@xercesc_2_2@@@xercesc_2_2@@QAE@PAXQAVDatatypeValidator@1@PAU01@@Z 1201dad0 f i TransService.obj
 0001:0001cad0       ??0?$RefHashTableBucketElem@VKVStringPair@xercesc_2_2@@@xercesc_2_2@@QAE@PAXQAVKVStringPair@1@PAU01@@Z 1201dad0 f i TransService.obj
 0001:0001cad0       ??0?$RefHashTableBucketElem@VValueStore@xercesc_2_2@@@xercesc_2_2@@QAE@PAXQAVValueStore@1@PAU01@@Z 1201dad0 f i TransService.obj
 0001:0001cad0       ??0?$RefHashTableBucketElem@VXercesAttGroupInfo@xercesc_2_2@@@xercesc_2_2@@QAE@PAXQAVXercesAttGroupInfo@1@PAU01@@Z 1201dad0 f i TransService.obj
 0001:0001caf0       ?removeAll@?$RefHashTableOf@VENameMap@xercesc_2_2@@@xercesc_2_2@@QAEXXZ 1201daf0 f i TransService.obj
 0001:0001cb70       ?findBucketElem@?$RefHashTableOf@VXercesAttGroupInfo@xercesc_2_2@@@xercesc_2_2@@AAEPAU?$RefHashTableBucketElem@VXercesAttGroupInfo@xercesc_2_2@@@2@QBXAAI@Z 1201db70 f i TransService.obj
 0001:0001cb70       ?findBucketElem@?$RefHashTableOf@VValueStore@xercesc_2_2@@@xercesc_2_2@@AAEPAU?$RefHashTableBucketElem@VValueStore@xercesc_2_2@@@2@QBXAAI@Z 1201db70 f i TransService.obj
 0001:0001cb70       ?findBucketElem@?$RefHashTableOf@VXercesGroupInfo@xercesc_2_2@@@xercesc_2_2@@AAEPAU?$RefHashTableBucketElem@VXercesGroupInfo@xercesc_2_2@@@2@QBXAAI@Z 1201db70 f i TransService.obj
 0001:0001cb70       ?findBucketElem@?$RefHashTableOf@VComplexTypeInfo@xercesc_2_2@@@xercesc_2_2@@AAEPAU?$RefHashTableBucketElem@VComplexTypeInfo@xercesc_2_2@@@2@QBXAAI@Z 1201db70 f i TransService.obj
 0001:0001cb70       ?findBucketElem@?$RefHashTableOf@VSchemaInfo@xercesc_2_2@@@xercesc_2_2@@AAEPAU?$RefHashTableBucketElem@VSchemaInfo@xercesc_2_2@@@2@QBXAAI@Z 1201db70 f i TransService.obj
 0001:0001cb70       ?findBucketElem@?$RefHashTableOf@VGrammar@xercesc_2_2@@@xercesc_2_2@@AAEPAU?$RefHashTableBucketElem@VGrammar@xercesc_2_2@@@2@QBXAAI@Z 1201db70 f i TransService.obj
 0001:0001cb70       ?findBucketElem@?$RefHashTableOf@VRangeTokenElemMap@xercesc_2_2@@@xercesc_2_2@@AAEPAU?$RefHashTableBucketElem@VRangeTokenElemMap@xercesc_2_2@@@2@QBXAAI@Z 1201db70 f i TransService.obj
 0001:0001cb70       ?findBucketElem@?$RefHashTableOf@VXMLElementDecl@xercesc_2_2@@@xercesc_2_2@@AAEPAU?$RefHashTableBucketElem@VXMLElementDecl@xercesc_2_2@@@2@QBXAAI@Z 1201db70 f i TransService.obj
 0001:0001cb70       ?findBucketElem@?$RefHashTableOf@V?$ValueVectorOf@I@xercesc_2_2@@@xercesc_2_2@@AAEPAU?$RefHashTableBucketElem@V?$ValueVectorOf@I@xercesc_2_2@@@2@QBXAAI@Z 1201db70 f i TransService.obj
 0001:0001cb70       ?findBucketElem@?$RefHashTableOf@VXMLAttDef@xercesc_2_2@@@xercesc_2_2@@AAEPAU?$RefHashTableBucketElem@VXMLAttDef@xercesc_2_2@@@2@QBXAAI@Z 1201db70 f i TransService.obj
 0001:0001cb70       ?findBucketElem@?$RefHashTableOf@VCPMapEntry@xercesc_2_2@@@xercesc_2_2@@AAEPAU?$RefHashTableBucketElem@VCPMapEntry@xercesc_2_2@@@2@QBXAAI@Z 1201db70 f i TransService.obj
 0001:0001cb70       ?findBucketElem@?$RefHashTableOf@V?$KeyRefPair@XVDOMUserDataHandler@xercesc_2_2@@@xercesc_2_2@@@xercesc_2_2@@AAEPAU?$RefHashTableBucketElem@V?$KeyRefPair@XVDOMUserDataHandler@xercesc_2_2@@@xercesc_2_2@@@2@QBXAAI@Z 1201db70 f i TransService.obj
 0001:0001cb70       ?findBucketElem@?$RefHashTableOf@VKVStringPair@xercesc_2_2@@@xercesc_2_2@@AAEPAU?$RefHashTableBucketElem@VKVStringPair@xercesc_2_2@@@2@QBXAAI@Z 1201db70 f i TransService.obj
 0001:0001cb70       ?findBucketElem@?$RefHashTableOf@VDatatypeValidator@xercesc_2_2@@@xercesc_2_2@@AAEPAU?$RefHashTableBucketElem@VDatatypeValidator@xercesc_2_2@@@2@QBXAAI@Z 1201db70 f i TransService.obj
 0001:0001cb70       ?findBucketElem@?$RefHashTableOf@V?$RefHashTableOf@V?$KeyRefPair@XVDOMUserDataHandler@xercesc_2_2@@@xercesc_2_2@@@xercesc_2_2@@@xercesc_2_2@@AAEPAU?$RefHashTableBucketElem@V?$RefHashTableOf@V?$KeyRefPair@XVDOMUserDataHandler@xercesc_2_2@@@xercesc_2_2@@@xercesc_2_2@@@2@QBXAAI@Z 1201db70 f i TransService.obj
 0001:0001cb70       ?findBucketElem@?$RefHashTableOf@V?$ValueVectorOf@PAVSchemaElementDecl@xercesc_2_2@@@xercesc_2_2@@@xercesc_2_2@@AAEPAU?$RefHashTableBucketElem@V?$ValueVectorOf@PAVSchemaElementDecl@xercesc_2_2@@@xercesc_2_2@@@2@QBXAAI@Z 1201db70 f i TransService.obj
 0001:0001cb70       ?findBucketElem@?$RefHashTableOf@VXMLRefInfo@xercesc_2_2@@@xercesc_2_2@@AAEPAU?$RefHashTableBucketElem@VXMLRefInfo@xercesc_2_2@@@2@QBXAAI@Z 1201db70 f i TransService.obj
 0001:0001cb70       ?findBucketElem@?$RefHashTableOf@VENameMap@xercesc_2_2@@@xercesc_2_2@@AAEPAU?$RefHashTableBucketElem@VENameMap@xercesc_2_2@@@2@QBXAAI@Z 1201db70 f i TransService.obj
 0001:0001cbf0       ??1XML256TableTranscoder@xercesc_2_2@@UAE@XZ 1201dbf0 f   XML256TableTranscoder.obj
 0001:0001cc00       ??_EXML256TableTranscoder@xercesc_2_2@@UAEPAXI@Z 1201dc00 f i XML256TableTranscoder.obj
 0001:0001cc60       ?transcodeFrom@XML256TableTranscoder@xercesc_2_2@@UAEIQBEIQAGIAAIQAE@Z 1201dc60 f   XML256TableTranscoder.obj
 0001:0001ccd0       ?transcodeTo@XML256TableTranscoder@xercesc_2_2@@UAEIQBGIQAEIAAIW4UnRepOpts@XMLTranscoder@2@@Z 1201dcd0 f   XML256TableTranscoder.obj
 0001:0001cd90       ?canTranscodeTo@XML256TableTranscoder@xercesc_2_2@@UBE_NI@Z 1201dd90 f   XML256TableTranscoder.obj
 0001:0001cdb0       ??0XML256TableTranscoder@xercesc_2_2@@IAE@QBGI0QBUTransRec@XMLTransService@1@I@Z 1201ddb0 f   XML256TableTranscoder.obj
 0001:0001cdf0       ?xlatOneTo@XML256TableTranscoder@xercesc_2_2@@IBEEG@Z 1201ddf0 f   XML256TableTranscoder.obj
 0001:0001ce50       ??0XML88591Transcoder@xercesc_2_2@@QAE@QBGI@Z 1201de50 f   XML88591Transcoder.obj
 0001:0001ce70       ??_EXML88591Transcoder@xercesc_2_2@@UAEPAXI@Z 1201de70 f i XML88591Transcoder.obj
 0001:0001ced0       ??1XML88591Transcoder@xercesc_2_2@@UAE@XZ 1201ded0 f   XML88591Transcoder.obj
 0001:0001cee0       ?transcodeFrom@XML88591Transcoder@xercesc_2_2@@UAEIQBEIQAGIAAIQAE@Z 1201dee0 f   XML88591Transcoder.obj
 0001:0001cf40       ?transcodeTo@XML88591Transcoder@xercesc_2_2@@UAEIQBGIQAEIAAIW4UnRepOpts@XMLTranscoder@2@@Z 1201df40 f   XML88591Transcoder.obj
 0001:0001cff0       ?canTranscodeTo@XML88591Transcoder@xercesc_2_2@@UBE_NI@Z 1201dff0 f   XML88591Transcoder.obj
 0001:0001d000       ??0XMLNumber@xercesc_2_2@@QAE@ABV01@@Z 1201e000 f i XMLAbstractDoubleFloat.obj
 0001:0001d010       ??_EXMLNumber@xercesc_2_2@@UAEPAXI@Z 1201e010 f i XMLAbstractDoubleFloat.obj
 0001:0001d070       ?isSpecialValue@XMLAbstractDoubleFloat@xercesc_2_2@@ABE_NXZ 1201e070 f i XMLAbstractDoubleFloat.obj
 0001:0001d080       ??0NumberFormatException@xercesc_2_2@@QAE@QBDIW4Codes@XMLExcepts@1@@Z 1201e080 f i XMLAbstractDoubleFloat.obj
 0001:0001d0e0       ??0NumberFormatException@xercesc_2_2@@QAE@ABV01@@Z 1201e0e0 f i XMLAbstractDoubleFloat.obj
 0001:0001d100       ??0NumberFormatException@xercesc_2_2@@QAE@QBDIW4Codes@XMLExcepts@1@QBG222@Z 1201e100 f i XMLAbstractDoubleFloat.obj
 0001:0001d170       ??0NumberFormatException@xercesc_2_2@@QAE@QBDIW4Codes@XMLExcepts@1@0000@Z 1201e170 f i XMLAbstractDoubleFloat.obj
 0001:0001d1e0       ??1NumberFormatException@xercesc_2_2@@UAE@XZ 1201e1e0 f i XMLAbstractDoubleFloat.obj
 0001:0001d1f0       ?duplicate@NumberFormatException@xercesc_2_2@@UBEPAVXMLException@2@XZ 1201e1f0 f i XMLAbstractDoubleFloat.obj
 0001:0001d250       ?getType@NumberFormatException@xercesc_2_2@@UBEPBGXZ 1201e250 f i XMLAbstractDoubleFloat.obj
 0001:0001d260       ??_ENumberFormatException@xercesc_2_2@@UAEPAXI@Z 1201e260 f i XMLAbstractDoubleFloat.obj
 0001:0001d2c0       ??0XMLAbstractDoubleFloat@xercesc_2_2@@IAE@XZ 1201e2c0 f   XMLAbstractDoubleFloat.obj
 0001:0001d2f0       ??_EXMLAbstractDoubleFloat@xercesc_2_2@@UAEPAXI@Z 1201e2f0 f i XMLAbstractDoubleFloat.obj
 0001:0001d350       ??1XMLAbstractDoubleFloat@xercesc_2_2@@UAE@XZ 1201e350 f   XMLAbstractDoubleFloat.obj
 0001:0001d3b0       ?init@XMLAbstractDoubleFloat@xercesc_2_2@@IAEXQBG@Z 1201e3b0 f   XMLAbstractDoubleFloat.obj
 0001:0001d680       ?toString@XMLAbstractDoubleFloat@xercesc_2_2@@UBEPAGXZ 1201e680 f   XMLAbstractDoubleFloat.obj
 0001:0001d6d0       ?getFormattedString@XMLAbstractDoubleFloat@xercesc_2_2@@UBEPBGXZ 1201e6d0 f   XMLAbstractDoubleFloat.obj
 0001:0001d700       ?formatString@XMLAbstractDoubleFloat@xercesc_2_2@@AAEXXZ 1201e700 f   XMLAbstractDoubleFloat.obj
 0001:0001d810       ?compareValues@XMLAbstractDoubleFloat@xercesc_2_2@@KAHQBV12@0@Z 1201e810 f   XMLAbstractDoubleFloat.obj
 0001:0001d9b0       ?compareSpecial@XMLAbstractDoubleFloat@xercesc_2_2@@CAHQBV12@0@Z 1201e9b0 f   XMLAbstractDoubleFloat.obj
 0001:0001da50       ?normalizeZero@XMLAbstractDoubleFloat@xercesc_2_2@@AAEXQAG@Z 1201ea50 f   XMLAbstractDoubleFloat.obj
 0001:0001db80       ??0XMLASCIITranscoder@xercesc_2_2@@QAE@QBGI@Z 1201eb80 f   XMLASCIITranscoder.obj
 0001:0001dba0       ??_EXMLASCIITranscoder@xercesc_2_2@@UAEPAXI@Z 1201eba0 f i XMLASCIITranscoder.obj
 0001:0001dc00       ??1XMLASCIITranscoder@xercesc_2_2@@UAE@XZ 1201ec00 f   XMLASCIITranscoder.obj
 0001:0001dc10       ?transcodeFrom@XMLASCIITranscoder@xercesc_2_2@@UAEIQBEIQAGIAAIQAE@Z 1201ec10 f   XMLASCIITranscoder.obj
 0001:0001dcd0       ?transcodeTo@XMLASCIITranscoder@xercesc_2_2@@UAEIQBGIQAEIAAIW4UnRepOpts@XMLTranscoder@2@@Z 1201ecd0 f   XMLASCIITranscoder.obj
 0001:0001dd80       ?canTranscodeTo@XMLASCIITranscoder@xercesc_2_2@@UBE_NI@Z 1201ed80 f   XMLASCIITranscoder.obj
 0001:0001dd90       ??4XMLBigInteger@xercesc_2_2@@QAEAAV01@ABV01@@Z 1201ed90 f i XMLBigDecimal.obj
 0001:0001ddb0       ?getTotalDigit@XMLBigInteger@xercesc_2_2@@QBEHXZ 1201edb0 f i XMLBigDecimal.obj
 0001:0001dde0       ??8XMLBigInteger@xercesc_2_2@@QBE_NABV01@@Z 1201ede0 f i XMLBigDecimal.obj
 0001:0001de00       ?toString@XMLBigInteger@xercesc_2_2@@QBEPAGXZ 1201ee00 f i XMLBigDecimal.obj
 0001:0001de50       ??4XMLBigDecimal@xercesc_2_2@@QAEAAV01@ABV01@@Z 1201ee50 f i XMLBigDecimal.obj
 0001:0001de50       ??4DOMRangeException@xercesc_2_2@@QAEAAV01@ABV01@@Z 1201ee50 f i XMLBigDecimal.obj
 0001:0001de70       ??1XMLBigDecimal@xercesc_2_2@@UAE@XZ 1201ee70 f i XMLBigDecimal.obj
 0001:0001def0       ??_EXMLBigDecimal@xercesc_2_2@@UAEPAXI@Z 1201eef0 f i XMLBigDecimal.obj
 0001:0001df50       ?getTotalDigit@XMLBigDecimal@xercesc_2_2@@QBEIXZ 1201ef50 f i XMLBigDecimal.obj
 0001:0001df80       ??8XMLBigDecimal@xercesc_2_2@@QBE_NABV01@@Z 1201ef80 f i XMLBigDecimal.obj
 0001:0001dfa0       ??0XMLBigDecimal@xercesc_2_2@@QAE@QBG@Z 1201efa0 f   XMLBigDecimal.obj
 0001:0001e100       ??0XMLBigDecimal@xercesc_2_2@@QAE@ABV01@@Z 1201f100 f   XMLBigDecimal.obj
 0001:0001e1d0       ??0XMLBigDecimal@xercesc_2_2@@QAE@ABV01@H@Z 1201f1d0 f   XMLBigDecimal.obj
 0001:0001e2d0       ?parseBigDecimal@XMLBigDecimal@xercesc_2_2@@SAXQBGQAGAAI@Z 1201f2d0 f   XMLBigDecimal.obj
 0001:0001e490       ?compareValues@XMLBigDecimal@xercesc_2_2@@SAHQBV12@0@Z 1201f490 f   XMLBigDecimal.obj
 0001:0001e720       ?matchScale@XMLBigDecimal@xercesc_2_2@@SAXQAV12@0@Z 1201f720 f   XMLBigDecimal.obj
 0001:0001e7a0       ?reScale@XMLBigDecimal@xercesc_2_2@@AAEXI@Z 1201f7a0 f   XMLBigDecimal.obj
 0001:0001e7e0       ?toString@XMLBigDecimal@xercesc_2_2@@UBEPAGXZ 1201f7e0 f   XMLBigDecimal.obj
 0001:0001e830       ?parseBigInteger@XMLBigInteger@xercesc_2_2@@SAXQBGQAGAAH@Z 1201f830 f   XMLBigInteger.obj
 0001:0001e9c0       ??0XMLBigInteger@xercesc_2_2@@QAE@QBG@Z 1201f9c0 f   XMLBigInteger.obj
 0001:0001eba0       ??1XMLBigInteger@xercesc_2_2@@QAE@XZ 1201fba0 f   XMLBigInteger.obj
 0001:0001ebd0       ??0XMLBigInteger@xercesc_2_2@@QAE@ABV01@@Z 1201fbd0 f   XMLBigInteger.obj
 0001:0001ec90       ?compareValues@XMLBigInteger@xercesc_2_2@@SAHQBV12@0@Z 1201fc90 f   XMLBigInteger.obj
 0001:0001edb0       ?multiply@XMLBigInteger@xercesc_2_2@@QAEXI@Z 1201fdb0 f   XMLBigInteger.obj
 0001:0001ee60       ?divide@XMLBigInteger@xercesc_2_2@@QAEXI@Z 1201fe60 f   XMLBigInteger.obj
 0001:0001eef0       ?intValue@XMLBigInteger@xercesc_2_2@@QBEHXZ 1201fef0 f   XMLBigInteger.obj
 0001:0001ef10       ?isAllSpaces@XMLChar1_0@xercesc_2_2@@SA_NQBGI@Z 1201ff10 f   XMLChar.obj
 0001:0001ef40       ?containsWhiteSpace@XMLChar1_0@xercesc_2_2@@SA_NQBGI@Z 1201ff40 f   XMLChar.obj
 0001:0001ef70       ?isValidNCName@XMLChar1_0@xercesc_2_2@@SA_NQBGI@Z 1201ff70 f   XMLChar.obj
 0001:0001efd0       ?isValidName@XMLChar1_0@xercesc_2_2@@SA_NQBGI@Z 1201ffd0 f   XMLChar.obj
 0001:0001f010       ?isValidQName@XMLChar1_0@xercesc_2_2@@SA_NQBGI@Z 12020010 f   XMLChar.obj
 0001:0001f0f0       ?isPublicIdChar@XMLChar1_0@xercesc_2_2@@SA_NGG@Z 120200f0 f   XMLChar.obj
 0001:0001f160       ?enableNELWS@XMLChar1_0@xercesc_2_2@@SAXXZ 12020160 f   XMLChar.obj
 0001:0001f180       ?isAllSpaces@XMLChar1_1@xercesc_2_2@@SA_NQBGI@Z 12020180 f   XMLChar.obj
 0001:0001f1b0       ?containsWhiteSpace@XMLChar1_1@xercesc_2_2@@SA_NQBGI@Z 120201b0 f   XMLChar.obj
 0001:0001f1e0       ?isValidNCName@XMLChar1_1@xercesc_2_2@@SA_NQBGI@Z 120201e0 f   XMLChar.obj
 0001:0001f290       ?isValidName@XMLChar1_1@xercesc_2_2@@SA_NQBGI@Z 12020290 f   XMLChar.obj
 0001:0001f330       ?isValidQName@XMLChar1_1@xercesc_2_2@@SA_NQBGI@Z 12020330 f   XMLChar.obj
 0001:0001f390       ?isPublicIdChar@XMLChar1_1@xercesc_2_2@@SA_NGG@Z 12020390 f   XMLChar.obj
 0001:0001f400       ??0XMLChTranscoder@xercesc_2_2@@QAE@QBGI@Z 12020400 f   XMLChTranscoder.obj
 0001:0001f420       ??_EXMLChTranscoder@xercesc_2_2@@UAEPAXI@Z 12020420 f i XMLChTranscoder.obj
 0001:0001f480       ??1XMLChTranscoder@xercesc_2_2@@UAE@XZ 12020480 f   XMLChTranscoder.obj
 0001:0001f490       ?transcodeFrom@XMLChTranscoder@xercesc_2_2@@UAEIQBEIQAGIAAIQAE@Z 12020490 f   XMLChTranscoder.obj
 0001:0001f4f0       ?transcodeTo@XMLChTranscoder@xercesc_2_2@@UAEIQBGIQAEIAAIW4UnRepOpts@XMLTranscoder@2@@Z 120204f0 f   XMLChTranscoder.obj
 0001:0001f530       ??0SchemaDateTimeException@xercesc_2_2@@QAE@QBDIW4Codes@XMLExcepts@1@@Z 12020530 f i XMLDateTime.obj
 0001:0001f590       ??0SchemaDateTimeException@xercesc_2_2@@QAE@ABV01@@Z 12020590 f i XMLDateTime.obj
 0001:0001f5b0       ??0SchemaDateTimeException@xercesc_2_2@@QAE@QBDIW4Codes@XMLExcepts@1@QBG222@Z 120205b0 f i XMLDateTime.obj
 0001:0001f620       ??0SchemaDateTimeException@xercesc_2_2@@QAE@QBDIW4Codes@XMLExcepts@1@0000@Z 12020620 f i XMLDateTime.obj
 0001:0001f690       ??1SchemaDateTimeException@xercesc_2_2@@UAE@XZ 12020690 f i XMLDateTime.obj
 0001:0001f6a0       ?duplicate@SchemaDateTimeException@xercesc_2_2@@UBEPAVXMLException@2@XZ 120206a0 f i XMLDateTime.obj
 0001:0001f700       ?getType@SchemaDateTimeException@xercesc_2_2@@UBEPBGXZ 12020700 f i XMLDateTime.obj
 0001:0001f710       ??_ESchemaDateTimeException@xercesc_2_2@@UAEPAXI@Z 12020710 f i XMLDateTime.obj
 0001:0001f770       ?setBuffer@XMLDateTime@xercesc_2_2@@QAEXQBG@Z 12020770 f i XMLDateTime.obj
 0001:0001f830       ?reset@XMLDateTime@xercesc_2_2@@AAEXXZ 12020830 f i XMLDateTime.obj
 0001:0001f870       ?copy@XMLDateTime@xercesc_2_2@@AAEXABV12@@Z 12020870 f i XMLDateTime.obj
 0001:0001f920       ?assertBuffer@XMLDateTime@xercesc_2_2@@ABEXXZ 12020920 f i XMLDateTime.obj
 0001:0001f960       ?initParser@XMLDateTime@xercesc_2_2@@AAEXXZ 12020960 f i XMLDateTime.obj
 0001:0001f9b0       ?isNormalized@XMLDateTime@xercesc_2_2@@ABE_NXZ 120209b0 f i XMLDateTime.obj
 0001:0001f9c0       ?getRetVal@XMLDateTime@xercesc_2_2@@CAHHH@Z 120209c0 f i XMLDateTime.obj
 0001:0001f9f0       ?compare@XMLDateTime@xercesc_2_2@@SAHQBV12@0_N@Z 120209f0 f   XMLDateTime.obj
 0001:0001fd40       ?addDuration@XMLDateTime@xercesc_2_2@@CAXPAV12@QBV12@H@Z 12020d40 f   XMLDateTime.obj
 0001:0001ffa0       ?compareResult@XMLDateTime@xercesc_2_2@@CAHFF_N@Z 12020fa0 f   XMLDateTime.obj
 0001:0001fff0       ?compare@XMLDateTime@xercesc_2_2@@SAHQBV12@0@Z 12020ff0 f   XMLDateTime.obj
 0001:000200a0       ?compareResult@XMLDateTime@xercesc_2_2@@CAHQBV12@0_NH@Z 120210a0 f   XMLDateTime.obj
 0001:00020210       ?compareOrder@XMLDateTime@xercesc_2_2@@SAHQBV12@0@Z 12021210 f   XMLDateTime.obj
 0001:00020440       ??1XMLDateTime@xercesc_2_2@@UAE@XZ 12021440 f   XMLDateTime.obj
 0001:000204a0       ??_EXMLDateTime@xercesc_2_2@@UAEPAXI@Z 120214a0 f i XMLDateTime.obj
 0001:00020500       ??0XMLDateTime@xercesc_2_2@@QAE@XZ 12021500 f   XMLDateTime.obj
 0001:00020580       ??0XMLDateTime@xercesc_2_2@@QAE@QBG@Z 12021580 f   XMLDateTime.obj
 0001:00020670       ??0XMLDateTime@xercesc_2_2@@QAE@ABV01@@Z 12021670 f   XMLDateTime.obj
 0001:00020760       ??4XMLDateTime@xercesc_2_2@@QAEAAV01@ABV01@@Z 12021760 f   XMLDateTime.obj
 0001:00020820       ?toString@XMLDateTime@xercesc_2_2@@UBEPAGXZ 12021820 f   XMLDateTime.obj
 0001:000208b0       ?getRawData@XMLDateTime@xercesc_2_2@@UBEPAGXZ 120218b0 f   XMLDateTime.obj
 0001:000208f0       ?getFormattedString@XMLDateTime@xercesc_2_2@@UBEPBGXZ 120218f0 f   XMLDateTime.obj
 0001:00020900       ?parseDateTime@XMLDateTime@xercesc_2_2@@QAEXXZ 12021900 f   XMLDateTime.obj
 0001:000209b0       ?parseDate@XMLDateTime@xercesc_2_2@@QAEXXZ 120219b0 f   XMLDateTime.obj
 0001:00020a90       ?parseTime@XMLDateTime@xercesc_2_2@@QAEXXZ 12021a90 f   XMLDateTime.obj
 0001:00020b00       ?parseDay@XMLDateTime@xercesc_2_2@@QAEXXZ 12021b00 f   XMLDateTime.obj
 0001:00020c40       ?parseMonth@XMLDateTime@xercesc_2_2@@QAEXXZ 12021c40 f   XMLDateTime.obj
 0001:00020da0       ?parseYear@XMLDateTime@xercesc_2_2@@QAEXXZ 12021da0 f   XMLDateTime.obj
 0001:00020e80       ?parseMonthDay@XMLDateTime@xercesc_2_2@@QAEXXZ 12021e80 f   XMLDateTime.obj
 0001:00020fd0       ?parseYearMonth@XMLDateTime@xercesc_2_2@@QAEXXZ 12021fd0 f   XMLDateTime.obj
 0001:000210b0       ?parseDuration@XMLDateTime@xercesc_2_2@@QAEXXZ 120220b0 f   XMLDateTime.obj
 0001:000214e0       ?getDate@XMLDateTime@xercesc_2_2@@AAEXXZ 120224e0 f   XMLDateTime.obj
 0001:00021590       ?getTime@XMLDateTime@xercesc_2_2@@AAEXXZ 12022590 f   XMLDateTime.obj
 0001:00021720       ?getYearMonth@XMLDateTime@xercesc_2_2@@AAEXXZ 12022720 f   XMLDateTime.obj
 0001:00021830       ?parseTimeZone@XMLDateTime@xercesc_2_2@@AAEXXZ 12022830 f   XMLDateTime.obj
 0001:000218b0       ?getTimeZone@XMLDateTime@xercesc_2_2@@AAEXH@Z 120228b0 f   XMLDateTime.obj
 0001:00021970       ?normalize@XMLDateTime@xercesc_2_2@@AAEXXZ 12022970 f   XMLDateTime.obj
 0001:00021b50       ?validateDateTime@XMLDateTime@xercesc_2_2@@ABEXXZ 12022b50 f   XMLDateTime.obj
 0001:00021e00       ?indexOf@XMLDateTime@xercesc_2_2@@ABEHHHG@Z 12022e00 f   XMLDateTime.obj
 0001:00021e30       ?findUTCSign@XMLDateTime@xercesc_2_2@@AAEHH@Z 12022e30 f   XMLDateTime.obj
 0001:00021e80       ?parseInt@XMLDateTime@xercesc_2_2@@ABEHHH@Z 12022e80 f   XMLDateTime.obj
 0001:00021f10       ?parseIntYear@XMLDateTime@xercesc_2_2@@ABEHH@Z 12022f10 f   XMLDateTime.obj
 0001:00021fc0       ??0XMLDouble@xercesc_2_2@@QAE@QBG@Z 12022fc0 f   XMLDouble.obj
 0001:00022010       ??_EXMLDouble@xercesc_2_2@@UAEPAXI@Z 12023010 f i XMLDouble.obj
 0001:00022070       ??1XMLDouble@xercesc_2_2@@UAE@XZ 12023070 f   XMLDouble.obj
 0001:00022080       ?checkBoundary@XMLDouble@xercesc_2_2@@MAEXQBG@Z 12023080 f   XMLDouble.obj
 0001:000221f0       ?xlatThisOne@XMLEBCDICTranscoder@xercesc_2_2@@SAGE@Z 120231f0 f   XMLEBCDICTranscoder.obj
 0001:00022210       ??0XMLEBCDICTranscoder@xercesc_2_2@@QAE@QBGI@Z 12023210 f   XMLEBCDICTranscoder.obj
 0001:00022240       ??_EXMLEBCDICTranscoder@xercesc_2_2@@UAEPAXI@Z 12023240 f i XMLEBCDICTranscoder.obj
 0001:000222a0       ??1XMLEBCDICTranscoder@xercesc_2_2@@UAE@XZ 120232a0 f   XMLEBCDICTranscoder.obj
 0001:000222b0       ?registerCleanup@XMLRegisterCleanup@xercesc_2_2@@QAEXP6AXXZ@Z 120232b0 f i XMLException.obj
 0001:00022340       ??1XMLException@xercesc_2_2@@UAE@XZ 12023340 f   XMLException.obj
 0001:00022360       ??_EXMLException@xercesc_2_2@@UAEPAXI@Z 12023360 f i XMLException.obj
 0001:000223d0       ?setPosition@XMLException@xercesc_2_2@@QAEXQBDI@Z 120233d0 f   XMLException.obj
 0001:00022400       ??0XMLException@xercesc_2_2@@QAE@XZ 12023400 f   XMLException.obj
 0001:00022420       ??0XMLException@xercesc_2_2@@QAE@QBDI@Z 12023420 f   XMLException.obj
 0001:00022460       ??0XMLException@xercesc_2_2@@QAE@ABV01@@Z 12023460 f   XMLException.obj
 0001:000224f0       ??4XMLException@xercesc_2_2@@QAEXABV01@@Z 120234f0 f   XMLException.obj
 0001:000225a0       ?loadExceptText@XMLException@xercesc_2_2@@IAEXW4Codes@XMLExcepts@2@@Z 120235a0 f   XMLException.obj
 0001:00022840       ?loadExceptText@XMLException@xercesc_2_2@@IAEXW4Codes@XMLExcepts@2@QBG111@Z 12023840 f   XMLException.obj
 0001:00022970       ?loadExceptText@XMLException@xercesc_2_2@@IAEXW4Codes@XMLExcepts@2@QBD111@Z 12023970 f   XMLException.obj
 0001:00022aa0       ?reinitMsgMutex@XMLException@xercesc_2_2@@SAXXZ 12023aa0 f   XMLException.obj
 0001:00022ad0       ?reinitMsgLoader@XMLException@xercesc_2_2@@SAXXZ 12023ad0 f   XMLException.obj
 0001:00022af0       ?compareValues@XMLDouble@xercesc_2_2@@SAHQBV12@0@Z 12023af0 f i XMLFloat.obj
 0001:00022af0       ?compareValues@XMLFloat@xercesc_2_2@@SAHQBV12@0@Z 12023af0 f i XMLFloat.obj
 0001:00022b10       ??0XMLFloat@xercesc_2_2@@QAE@QBG@Z 12023b10 f   XMLFloat.obj
 0001:00022b60       ??_EXMLFloat@xercesc_2_2@@UAEPAXI@Z 12023b60 f i XMLFloat.obj
 0001:00022bc0       ??1XMLFloat@xercesc_2_2@@UAE@XZ 12023bc0 f   XMLFloat.obj
 0001:00022bd0       ?checkBoundary@XMLFloat@xercesc_2_2@@MAEXQBG@Z 12023bd0 f   XMLFloat.obj
 0001:00022dd0       ?xlatThisOne@XMLIBM1140Transcoder@xercesc_2_2@@SAGE@Z 12023dd0 f   XMLIBM1140Transcoder.obj
 0001:00022df0       ??0XMLIBM1140Transcoder@xercesc_2_2@@QAE@QBGI@Z 12023df0 f   XMLIBM1140Transcoder.obj
 0001:00022e20       ??_EXMLIBM1140Transcoder@xercesc_2_2@@UAEPAXI@Z 12023e20 f i XMLIBM1140Transcoder.obj
 0001:00022e80       ??1XMLIBM1140Transcoder@xercesc_2_2@@UAE@XZ 12023e80 f   XMLIBM1140Transcoder.obj
 0001:00022e90       ?setLocale@XMLMsgLoader@xercesc_2_2@@SAXQBD@Z 12023e90 f   XMLMsgLoader.obj
 0001:00022ee0       ?getLocale@XMLMsgLoader@xercesc_2_2@@SAPBDXZ 12023ee0 f   XMLMsgLoader.obj
 0001:00022ef0       ?getLanguageName@XMLMsgLoader@xercesc_2_2@@UBEPBGXZ 12023ef0 f   XMLMsgLoader.obj
 0001:00022f00       ??0XMLNumber@xercesc_2_2@@IAE@XZ 12023f00 f   XMLNumber.obj
 0001:00022f10       ??1XMLNumber@xercesc_2_2@@UAE@XZ 12023f10 f   XMLNumber.obj
 0001:00022f20       ?binToText@XMLString@xercesc_2_2@@SAXKQADII@Z 12023f20 f   XMLString.obj
 0001:00023060       ?binToText@XMLString@xercesc_2_2@@SAXIQADII@Z 12024060 f   XMLString.obj
 0001:00023080       ?binToText@XMLString@xercesc_2_2@@SAXJQADII@Z 12024080 f   XMLString.obj
 0001:00023080       ?binToText@XMLString@xercesc_2_2@@SAXHQADII@Z 12024080 f   XMLString.obj
 0001:000230c0       ?catString@XMLString@xercesc_2_2@@SAXQADQBD@Z 120240c0 f   XMLString.obj
 0001:000230f0       ?compareIString@XMLString@xercesc_2_2@@SAHQBD0@Z 120240f0 f   XMLString.obj
 0001:00023110       ?compareNString@XMLString@xercesc_2_2@@SAHQBD0I@Z 12024110 f   XMLString.obj
 0001:00023130       ?compareNIString@XMLString@xercesc_2_2@@SAHQBD0I@Z 12024130 f   XMLString.obj
 0001:00023150       ?compareString@XMLString@xercesc_2_2@@SAHQBD0@Z 12024150 f   XMLString.obj
 0001:00023190       ?copyString@XMLString@xercesc_2_2@@SAXQADQBD@Z 12024190 f   XMLString.obj
 0001:000231c0       ?cut@XMLString@xercesc_2_2@@SAXQAGI@Z 120241c0 f   XMLString.obj
 0001:000231f0       ?hash@XMLString@xercesc_2_2@@SAIQBDI@Z 120241f0 f   XMLString.obj
 0001:00023260       ?indexOf@XMLString@xercesc_2_2@@SAHQBDD@Z 12024260 f   XMLString.obj
 0001:00023290       ?indexOf@XMLString@xercesc_2_2@@SAHQBDDI@Z 12024290 f   XMLString.obj
 0001:000232f0       ?lastIndexOf@XMLString@xercesc_2_2@@SAHQBDD@Z 120242f0 f   XMLString.obj
 0001:00023320       ?lastIndexOf@XMLString@xercesc_2_2@@SAHQBDDI@Z 12024320 f   XMLString.obj
 0001:00023380       ?replaceTokens@XMLString@xercesc_2_2@@SAIQAGIQBG111@Z 12024380 f   XMLString.obj
 0001:000234e0       ?replicate@XMLString@xercesc_2_2@@SAPADQBD@Z 120244e0 f   XMLString.obj
 0001:00023520       ?startsWith@XMLString@xercesc_2_2@@SA_NQBD0@Z 12024520 f   XMLString.obj
 0001:00023550       ?startsWithI@XMLString@xercesc_2_2@@SA_NQBD0@Z 12024550 f   XMLString.obj
 0001:00023580       ?stringLen@XMLString@xercesc_2_2@@SAIQBD@Z 12024580 f   XMLString.obj
 0001:000235a0       ?transcode@XMLString@xercesc_2_2@@SAPADQBG@Z 120245a0 f   XMLString.obj
 0001:000235c0       ?transcode@XMLString@xercesc_2_2@@SA_NQBGQADI@Z 120245c0 f   XMLString.obj
 0001:000235e0       ?transcode@XMLString@xercesc_2_2@@SAPAGQBD@Z 120245e0 f   XMLString.obj
 0001:00023600       ?transcode@XMLString@xercesc_2_2@@SA_NQBDQAGI@Z 12024600 f   XMLString.obj
 0001:00023620       ?trim@XMLString@xercesc_2_2@@SAXQAD@Z 12024620 f   XMLString.obj
 0001:000236a0       ?subString@XMLString@xercesc_2_2@@SAXQADQBDHH@Z 120246a0 f   XMLString.obj
 0001:00023750       ?isValidNCName@XMLString@xercesc_2_2@@SA_NQBG@Z 12024750 f   XMLString.obj
 0001:00023790       ?isValidName@XMLString@xercesc_2_2@@SA_NQBG@Z 12024790 f   XMLString.obj
 0001:000237d0       ?isValidEncName@XMLString@xercesc_2_2@@SA_NQBG@Z 120247d0 f   XMLString.obj
 0001:00023870       ?isValidQName@XMLString@xercesc_2_2@@SA_NQBG@Z 12024870 f   XMLString.obj
 0001:000238b0       ?isAlpha@XMLString@xercesc_2_2@@SA_NG@Z 120248b0 f   XMLString.obj
 0001:000238e0       ?isDigit@XMLString@xercesc_2_2@@SA_NG@Z 120248e0 f   XMLString.obj
 0001:00023900       ?isAlphaNum@XMLString@xercesc_2_2@@SA_NG@Z 12024900 f   XMLString.obj
 0001:00023940       ?isHex@XMLString@xercesc_2_2@@SA_NG@Z 12024940 f   XMLString.obj
 0001:00023980       ?isAllWhiteSpace@XMLString@xercesc_2_2@@SA_NQBG@Z 12024980 f   XMLString.obj
 0001:000239c0       ?binToText@XMLString@xercesc_2_2@@SAXKQAGII@Z 120249c0 f   XMLString.obj
 0001:00023b30       ?binToText@XMLString@xercesc_2_2@@SAXIQAGII@Z 12024b30 f   XMLString.obj
 0001:00023b50       ?binToText@XMLString@xercesc_2_2@@SAXHQAGII@Z 12024b50 f   XMLString.obj
 0001:00023b50       ?binToText@XMLString@xercesc_2_2@@SAXJQAGII@Z 12024b50 f   XMLString.obj
 0001:00023b90       ?catString@XMLString@xercesc_2_2@@SAXQAGQBG@Z 12024b90 f   XMLString.obj
 0001:00023bf0       ?compareIString@XMLString@xercesc_2_2@@SAHQBG0@Z 12024bf0 f   XMLString.obj
 0001:00023c10       ?compareNString@XMLString@xercesc_2_2@@SAHQBG0I@Z 12024c10 f   XMLString.obj
 0001:00023c50       ?compareNIString@XMLString@xercesc_2_2@@SAHQBG0I@Z 12024c50 f   XMLString.obj
 0001:00023c70       ?compareString@XMLString@xercesc_2_2@@SAHQBG0@Z 12024c70 f   XMLString.obj
 0001:00023cf0       ?regionMatches@XMLString@xercesc_2_2@@SA_NQBGH0HI@Z 12024cf0 f   XMLString.obj
 0001:00023db0       ?regionIMatches@XMLString@xercesc_2_2@@SA_NQBGH0HI@Z 12024db0 f   XMLString.obj
 0001:00023e50       ?copyString@XMLString@xercesc_2_2@@SAXQAGQBG@Z 12024e50 f   XMLString.obj
 0001:00023e90       ?copyNString@XMLString@xercesc_2_2@@SA_NQAGQBGI@Z 12024e90 f   XMLString.obj
 0001:00023ed0       ?hash@XMLString@xercesc_2_2@@SAIQBGI@Z 12024ed0 f   XMLString.obj
 0001:00023f50       ?findAny@XMLString@xercesc_2_2@@SAPAGQAGQBG@Z 12024f50 f   XMLString.obj
 0001:00023f50       ?findAny@XMLString@xercesc_2_2@@SAPBGQBG0@Z 12024f50 f   XMLString.obj
 0001:00023fa0       ?patternMatch@XMLString@xercesc_2_2@@SAHQBG0@Z 12024fa0 f   XMLString.obj
 0001:00024020       ?hashN@XMLString@xercesc_2_2@@SAIQBGII@Z 12025020 f   XMLString.obj
 0001:00024090       ?indexOf@XMLString@xercesc_2_2@@SAHQBGG@Z 12025090 f   XMLString.obj
 0001:000240d0       ?indexOf@XMLString@xercesc_2_2@@SAHQBGGI@Z 120250d0 f   XMLString.obj
 0001:00024150       ?lastIndexOf@XMLString@xercesc_2_2@@SAHQBGG@Z 12025150 f   XMLString.obj
 0001:000241a0       ?lastIndexOf@XMLString@xercesc_2_2@@SAHQBGGI@Z 120251a0 f   XMLString.obj
 0001:00024220       ?makeUName@XMLString@xercesc_2_2@@SAPAGQBG0@Z 12025220 f   XMLString.obj
 0001:00024410       ?textToBin@XMLString@xercesc_2_2@@SA_NQBGAAI@Z 12025410 f   XMLString.obj
 0001:000245f0       ?parseInt@XMLString@xercesc_2_2@@SAHQBG@Z 120255f0 f   XMLString.obj
 0001:00024820       ?trim@XMLString@xercesc_2_2@@SAXQAG@Z 12025820 f   XMLString.obj
 0001:000248f0       ?upperCase@XMLString@xercesc_2_2@@SAXQAG@Z 120258f0 f   XMLString.obj
 0001:00024910       ?lowerCase@XMLString@xercesc_2_2@@SAXQAG@Z 12025910 f   XMLString.obj
 0001:00024930       ?subString@XMLString@xercesc_2_2@@SAXQAGQBGHH@Z 12025930 f   XMLString.obj
 0001:00024a00       ?tokenizeString@XMLString@xercesc_2_2@@SAPAV?$BaseRefVectorOf@G@2@QBG@Z 12025a00 f   XMLString.obj
 0001:00024c50       ?isInList@XMLString@xercesc_2_2@@SA_NQBG0@Z 12025c50 f   XMLString.obj
 0001:00024d00       ?isWSReplaced@XMLString@xercesc_2_2@@SA_NQBG@Z 12025d00 f   XMLString.obj
 0001:00024d40       ?replaceWS@XMLString@xercesc_2_2@@SAXQAG@Z 12025d40 f   XMLString.obj
 0001:00024df0       ?isWSCollapsed@XMLString@xercesc_2_2@@SA_NQBG@Z 12025df0 f   XMLString.obj
 0001:00024e80       ?collapseWS@XMLString@xercesc_2_2@@SAXQAG@Z 12025e80 f   XMLString.obj
 0001:00025010       ?removeWS@XMLString@xercesc_2_2@@SAXQAG@Z 12026010 f   XMLString.obj
 0001:000250d0       ?fixURI@XMLString@xercesc_2_2@@SAXQBGQAG@Z 120260d0 f   XMLString.obj
 0001:00025270       ?release@XMLString@xercesc_2_2@@SAXPAPAG@Z 12026270 f   XMLString.obj
 0001:00025270       ?release@XMLString@xercesc_2_2@@SAXPAPAE@Z 12026270 f   XMLString.obj
 0001:00025270       ?release@XMLString@xercesc_2_2@@SAXPAPAD@Z 12026270 f   XMLString.obj
 0001:00025290       ?initString@XMLString@xercesc_2_2@@CAXQAVXMLLCPTranscoder@2@@Z 12026290 f   XMLString.obj
 0001:000252a0       ?termString@XMLString@xercesc_2_2@@CAXXZ 120262a0 f   XMLString.obj
 0001:000252c0       ??4XMLStringTokenizer@xercesc_2_2@@QAEAAV01@ABV01@@Z 120262c0 f i XMLStringTokenizer.obj
 0001:000252e0       ?cleanUp@XMLStringTokenizer@xercesc_2_2@@AAEXXZ 120262e0 f i XMLStringTokenizer.obj
 0001:00025310       ?isDelimeter@XMLStringTokenizer@xercesc_2_2@@AAE_NG@Z 12026310 f i XMLStringTokenizer.obj
 0001:00025330       ?countTokens@XMLStringTokenizer@xercesc_2_2@@QAEHXZ 12026330 f i XMLStringTokenizer.obj
 0001:00025380       ??0XMLStringTokenizer@xercesc_2_2@@QAE@QBG@Z 12026380 f   XMLStringTokenizer.obj
 0001:00025530       ??0XMLStringTokenizer@xercesc_2_2@@QAE@QBG0@Z 12026530 f   XMLStringTokenizer.obj
 0001:000256d0       ??1XMLStringTokenizer@xercesc_2_2@@QAE@XZ 120266d0 f   XMLStringTokenizer.obj
 0001:00025700       ?nextToken@XMLStringTokenizer@xercesc_2_2@@QAEPAGXZ 12026700 f   XMLStringTokenizer.obj
 0001:00025810       ?hasMoreTokens@XMLStringTokenizer@xercesc_2_2@@QAE_NXZ 12026810 f   XMLStringTokenizer.obj
 0001:00025870       ??0XMLUCS4Transcoder@xercesc_2_2@@QAE@QBGI_N@Z 12026870 f   XMLUCSTranscoder.obj
 0001:000258a0       ??_EXMLUCS4Transcoder@xercesc_2_2@@UAEPAXI@Z 120268a0 f i XMLUCSTranscoder.obj
 0001:00025900       ??1XMLUCS4Transcoder@xercesc_2_2@@UAE@XZ 12026900 f   XMLUCSTranscoder.obj
 0001:00025910       ?transcodeFrom@XMLUCS4Transcoder@xercesc_2_2@@UAEIQBEIQAGIAAIQAE@Z 12026910 f   XMLUCSTranscoder.obj
 0001:00025a00       ?transcodeTo@XMLUCS4Transcoder@xercesc_2_2@@UAEIQBGIQAEIAAIW4UnRepOpts@XMLTranscoder@2@@Z 12026a00 f   XMLUCSTranscoder.obj
 0001:00025b40       ?getUriText@XMLUri@xercesc_2_2@@QBEPBGXZ 12026b40 f i XMLUri.obj
 0001:00025b60       ?isReservedCharacter@XMLUri@xercesc_2_2@@CA_NG@Z 12026b60 f i XMLUri.obj
 0001:00025b80       ?isUnreservedCharacter@XMLUri@xercesc_2_2@@CA_NG@Z 12026b80 f i XMLUri.obj
 0001:00025bb0       ??0XMLUri@xercesc_2_2@@QAE@QBG@Z 12026bb0 f   XMLUri.obj
 0001:00025c30       ??_EXMLUri@xercesc_2_2@@UAEPAXI@Z 12026c30 f i XMLUri.obj
 0001:00025c90       ??0XMLUri@xercesc_2_2@@QAE@QBV01@QBG@Z 12026c90 f   XMLUri.obj
 0001:00025d20       ??0XMLUri@xercesc_2_2@@QAE@ABV01@@Z 12026d20 f   XMLUri.obj
 0001:00025f40       ??4XMLUri@xercesc_2_2@@QAEAAV01@ABV01@@Z 12026f40 f   XMLUri.obj
 0001:00026150       ??1XMLUri@xercesc_2_2@@UAE@XZ 12027150 f   XMLUri.obj
 0001:00026160       ?cleanUp@XMLUri@xercesc_2_2@@AAEXXZ 12027160 f   XMLUri.obj
 0001:000261e0       ?initialize@XMLUri@xercesc_2_2@@AAEXABV12@@Z 120271e0 f   XMLUri.obj
 0001:000263b0       ?initialize@XMLUri@xercesc_2_2@@AAEXQBV12@QBG@Z 120273b0 f   XMLUri.obj
 0001:00026e30       ?initializeAuthority@XMLUri@xercesc_2_2@@AAEXQBG@Z 12027e30 f   XMLUri.obj
 0001:00027000       ?initializeScheme@XMLUri@xercesc_2_2@@AAEXQBG@Z 12028000 f   XMLUri.obj
 0001:00027200       ?initializePath@XMLUri@xercesc_2_2@@AAEXQBG@Z 12028200 f   XMLUri.obj
 0001:00027720       ?setScheme@XMLUri@xercesc_2_2@@QAEXQBG@Z 12028720 f   XMLUri.obj
 0001:00027850       ?setUserInfo@XMLUri@xercesc_2_2@@QAEXQBG@Z 12028850 f   XMLUri.obj
 0001:00027960       ?setHost@XMLUri@xercesc_2_2@@QAEXQBG@Z 12028960 f   XMLUri.obj
 0001:00027a60       ?setPort@XMLUri@xercesc_2_2@@QAEXH@Z 12028a60 f   XMLUri.obj
 0001:00027b20       ?setPath@XMLUri@xercesc_2_2@@QAEXQBG@Z 12028b20 f   XMLUri.obj
 0001:00027b70       ?setFragment@XMLUri@xercesc_2_2@@QAEXQBG@Z 12028b70 f   XMLUri.obj
 0001:00027d30       ?setQueryString@XMLUri@xercesc_2_2@@QAEXQBG@Z 12028d30 f   XMLUri.obj
 0001:00027ef0       ?isConformantSchemeName@XMLUri@xercesc_2_2@@CA_NQBG@Z 12028ef0 f   XMLUri.obj
 0001:00027f60       ?isConformantUserInfo@XMLUri@xercesc_2_2@@CAXQBG@Z 12028f60 f   XMLUri.obj
 0001:00028090       ?isURIString@XMLUri@xercesc_2_2@@SA_NQBG@Z 12029090 f   XMLUri.obj
 0001:00028120       ?isWellFormedAddress@XMLUri@xercesc_2_2@@CA_NQBG@Z 12029120 f   XMLUri.obj
 0001:000283c0       ?isGenericURI@XMLUri@xercesc_2_2@@AAE_NXZ 120293c0 f   XMLUri.obj
 0001:000283d0       ?buildFullText@XMLUri@xercesc_2_2@@AAEXXZ 120293d0 f   XMLUri.obj
 0001:00028730       ?lookupByName@XMLURL@xercesc_2_2@@SA?AW4Protocols@12@QBG@Z 12029730 f   XMLURL.obj
 0001:00028780       ??0XMLURL@xercesc_2_2@@QAE@XZ 12029780 f   XMLURL.obj
 0001:000287b0       ??_EXMLURL@xercesc_2_2@@UAEPAXI@Z 120297b0 f i XMLURL.obj
 0001:00028810       ??0XMLURL@xercesc_2_2@@QAE@QBG0@Z 12029810 f   XMLURL.obj
 0001:00028930       ??0XMLURL@xercesc_2_2@@QAE@QBGQBD@Z 12029930 f   XMLURL.obj
 0001:00028a70       ??0XMLURL@xercesc_2_2@@QAE@ABV01@QBG@Z 12029a70 f   XMLURL.obj
 0001:00028b20       ??0XMLURL@xercesc_2_2@@QAE@ABV01@QBD@Z 12029b20 f   XMLURL.obj
 0001:00028bf0       ??0XMLURL@xercesc_2_2@@QAE@QBG@Z 12029bf0 f   XMLURL.obj
 0001:00028c80       ??0XMLURL@xercesc_2_2@@QAE@QBD@Z 12029c80 f   XMLURL.obj
 0001:00028d30       ??0XMLURL@xercesc_2_2@@QAE@ABV01@@Z 12029d30 f   XMLURL.obj
 0001:00028f00       ??1XMLURL@xercesc_2_2@@UAE@XZ 12029f00 f   XMLURL.obj
 0001:00028f10       ??4XMLURL@xercesc_2_2@@QAEAAV01@ABV01@@Z 12029f10 f   XMLURL.obj
 0001:000290e0       ??8XMLURL@xercesc_2_2@@QBE_NABV01@@Z 1202a0e0 f   XMLURL.obj
 0001:00029160       ?getPortNum@XMLURL@xercesc_2_2@@QBEIXZ 1202a160 f   XMLURL.obj
 0001:00029180       ?getProtocolName@XMLURL@xercesc_2_2@@QBEPBGXZ 1202a180 f   XMLURL.obj
 0001:000291c0       ?setURL@XMLURL@xercesc_2_2@@QAEXQBG@Z 1202a1c0 f   XMLURL.obj
 0001:000291e0       ?setURL@XMLURL@xercesc_2_2@@QAEXQBG0@Z 1202a1e0 f   XMLURL.obj
 0001:000292d0       ?setURL@XMLURL@xercesc_2_2@@QAEXABV12@QBG@Z 1202a2d0 f   XMLURL.obj
 0001:00029310       ?isRelative@XMLURL@xercesc_2_2@@QBE_NXZ 1202a310 f   XMLURL.obj
 0001:00029330       ?hasInvalidChar@XMLURL@xercesc_2_2@@QBE_NXZ 1202a330 f   XMLURL.obj
 0001:00029340       ?makeNewStream@XMLURL@xercesc_2_2@@QBEPAVBinInputStream@2@XZ 1202a340 f   XMLURL.obj
 0001:00029690       ?makeRelativeTo@XMLURL@xercesc_2_2@@QAEXQBG@Z 1202a690 f   XMLURL.obj
 0001:00029710       ?makeRelativeTo@XMLURL@xercesc_2_2@@QAEXABV12@@Z 1202a710 f   XMLURL.obj
 0001:00029740       ?buildFullText@XMLURL@xercesc_2_2@@AAEXXZ 1202a740 f   XMLURL.obj
 0001:00029af0       ?cleanup@XMLURL@xercesc_2_2@@AAEXXZ 1202aaf0 f   XMLURL.obj
 0001:00029b60       ?conglomerateWithBase@XMLURL@xercesc_2_2@@AAE_NABV12@_N@Z 1202ab60 f   XMLURL.obj
 0001:00029ef0       ?parse@XMLURL@xercesc_2_2@@AAEXQBG@Z 1202aef0 f   XMLURL.obj
 0001:0002a6a0       ??0XMLUTF16Transcoder@xercesc_2_2@@QAE@QBGI_N@Z 1202b6a0 f   XMLUTF16Transcoder.obj
 0001:0002a6d0       ??_EXMLUTF16Transcoder@xercesc_2_2@@UAEPAXI@Z 1202b6d0 f i XMLUTF16Transcoder.obj
 0001:0002a730       ??1XMLUTF16Transcoder@xercesc_2_2@@UAE@XZ 1202b730 f   XMLUTF16Transcoder.obj
 0001:0002a740       ?transcodeFrom@XMLUTF16Transcoder@xercesc_2_2@@UAEIQBEIQAGIAAIQAE@Z 1202b740 f   XMLUTF16Transcoder.obj
 0001:0002a7c0       ?transcodeTo@XMLUTF16Transcoder@xercesc_2_2@@UAEIQBGIQAEIAAIW4UnRepOpts@XMLTranscoder@2@@Z 1202b7c0 f   XMLUTF16Transcoder.obj
 0001:0002a840       ?canTranscodeTo@XMLChTranscoder@xercesc_2_2@@UBE_NI@Z 1202b840 f   XMLUTF16Transcoder.obj
 0001:0002a840       ?canTranscodeTo@XMLUCS4Transcoder@xercesc_2_2@@UBE_NI@Z 1202b840 f   XMLUTF16Transcoder.obj
 0001:0002a840       ?canTranscodeTo@XMLUTF16Transcoder@xercesc_2_2@@UBE_NI@Z 1202b840 f   XMLUTF16Transcoder.obj
 0001:0002a850       ??0XMLUTF8Transcoder@xercesc_2_2@@QAE@QBGI@Z 1202b850 f   XMLUTF8Transcoder.obj
 0001:0002a870       ??_EXMLUTF8Transcoder@xercesc_2_2@@UAEPAXI@Z 1202b870 f i XMLUTF8Transcoder.obj
 0001:0002a8d0       ??1XMLUTF8Transcoder@xercesc_2_2@@UAE@XZ 1202b8d0 f   XMLUTF8Transcoder.obj
 0001:0002a8e0       ?transcodeFrom@XMLUTF8Transcoder@xercesc_2_2@@UAEIQBEIQAGIAAIQAE@Z 1202b8e0 f   XMLUTF8Transcoder.obj
 0001:0002aac0       ?transcodeTo@XMLUTF8Transcoder@xercesc_2_2@@UAEIQBGIQAEIAAIW4UnRepOpts@XMLTranscoder@2@@Z 1202bac0 f   XMLUTF8Transcoder.obj
 0001:0002acb0       ?canTranscodeTo@XMLUTF8Transcoder@xercesc_2_2@@UBE_NI@Z 1202bcb0 f   XMLUTF8Transcoder.obj
 0001:0002acd0       ??0XMLWin1252Transcoder@xercesc_2_2@@QAE@QBGI@Z 1202bcd0 f   XMLWin1252Transcoder.obj
 0001:0002ad00       ??_EXMLWin1252Transcoder@xercesc_2_2@@UAEPAXI@Z 1202bd00 f i XMLWin1252Transcoder.obj
 0001:0002ad60       ??1XMLWin1252Transcoder@xercesc_2_2@@UAE@XZ 1202bd60 f   XMLWin1252Transcoder.obj
 0001:0002ad70       ??1XMLFormatTarget@xercesc_2_2@@UAE@XZ 1202bd70 f i LocalFileFormatTarget.obj
 0001:0002ad80       ??0XMLFormatTarget@xercesc_2_2@@IAE@XZ 1202bd80 f i LocalFileFormatTarget.obj
 0001:0002ad90       ??0XMLFormatTarget@xercesc_2_2@@IAE@ABV01@@Z 1202bd90 f i LocalFileFormatTarget.obj
 0001:0002ada0       ??_EXMLFormatTarget@xercesc_2_2@@UAEPAXI@Z 1202bda0 f i LocalFileFormatTarget.obj
 0001:0002ae00       ??0XMLInteger@xercesc_2_2@@QAE@H@Z 1202be00 f i LocalFileFormatTarget.obj
 0001:0002ae00       ??6XMLFormatter@xercesc_2_2@@QAEAAV01@W4EscapeFlags@01@@Z 1202be00 f i LocalFileFormatTarget.obj
 0001:0002ae10       ??6XMLFormatter@xercesc_2_2@@QAEAAV01@W4UnRepFlags@01@@Z 1202be10 f i LocalFileFormatTarget.obj
 0001:0002ae20       ??0LocalFileFormatTarget@xercesc_2_2@@QAE@QBG@Z 1202be20 f   LocalFileFormatTarget.obj
 0001:0002aee0       ??_ELocalFileFormatTarget@xercesc_2_2@@UAEPAXI@Z 1202bee0 f i LocalFileFormatTarget.obj
 0001:0002af40       ??0LocalFileFormatTarget@xercesc_2_2@@QAE@QBD@Z 1202bf40 f   LocalFileFormatTarget.obj
 0001:0002b000       ??1LocalFileFormatTarget@xercesc_2_2@@UAE@XZ 1202c000 f   LocalFileFormatTarget.obj
 0001:0002b0a0       ?writeChars@LocalFileFormatTarget@xercesc_2_2@@UAEXQBEIQAVXMLFormatter@2@@Z 1202c0a0 f   LocalFileFormatTarget.obj
 0001:0002b170       ?flushBuffer@LocalFileFormatTarget@xercesc_2_2@@AAEXXZ 1202c170 f   LocalFileFormatTarget.obj
 0001:0002b170       ?flush@LocalFileFormatTarget@xercesc_2_2@@UAEXXZ 1202c170 f   LocalFileFormatTarget.obj
 0001:0002b1c0       ?insureCapacity@LocalFileFormatTarget@xercesc_2_2@@AAEXI@Z 1202c1c0 f   LocalFileFormatTarget.obj
 0001:0002b260       ??0LocalFileInputSource@xercesc_2_2@@QAE@QBG0@Z 1202c260 f   LocalFileInputSource.obj
 0001:0002b2f0       ??_ELocalFileInputSource@xercesc_2_2@@UAEPAXI@Z 1202c2f0 f i LocalFileInputSource.obj
 0001:0002b350       ??0LocalFileInputSource@xercesc_2_2@@QAE@QBG@Z 1202c350 f   LocalFileInputSource.obj
 0001:0002b3d0       ??1LocalFileInputSource@xercesc_2_2@@UAE@XZ 1202c3d0 f   LocalFileInputSource.obj
 0001:0002b3e0       ?makeStream@LocalFileInputSource@xercesc_2_2@@UBEPAVBinInputStream@2@XZ 1202c3e0 f   LocalFileInputSource.obj
 0001:0002b460       ??_FMemBufFormatTarget@xercesc_2_2@@QAEXXZ 1202c460 f i MemBufFormatTarget.obj
 0001:0002b470       ??0MemBufFormatTarget@xercesc_2_2@@QAE@H@Z 1202c470 f   MemBufFormatTarget.obj
 0001:0002b4e0       ??_EMemBufFormatTarget@xercesc_2_2@@UAEPAXI@Z 1202c4e0 f i MemBufFormatTarget.obj
 0001:0002b540       ??1MemBufFormatTarget@xercesc_2_2@@UAE@XZ 1202c540 f   MemBufFormatTarget.obj
 0001:0002b590       ?writeChars@MemBufFormatTarget@xercesc_2_2@@UAEXQBEIQAVXMLFormatter@2@@Z 1202c590 f   MemBufFormatTarget.obj
 0001:0002b620       ?getRawBuffer@MemBufFormatTarget@xercesc_2_2@@QBEPBEXZ 1202c620 f   MemBufFormatTarget.obj
 0001:0002b650       ?reset@MemBufFormatTarget@xercesc_2_2@@QAEXXZ 1202c650 f   MemBufFormatTarget.obj
 0001:0002b680       ?insureCapacity@MemBufFormatTarget@xercesc_2_2@@AAEXI@Z 1202c680 f   MemBufFormatTarget.obj
 0001:0002b6e0       ??0MemBufInputSource@xercesc_2_2@@QAE@QBEIQBG_N@Z 1202c6e0 f   MemBufInputSource.obj
 0001:0002b720       ??_EMemBufInputSource@xercesc_2_2@@UAEPAXI@Z 1202c720 f i MemBufInputSource.obj
 0001:0002b780       ??0MemBufInputSource@xercesc_2_2@@QAE@QBEIQBD_N@Z 1202c780 f   MemBufInputSource.obj
 0001:0002b7c0       ??1MemBufInputSource@xercesc_2_2@@UAE@XZ 1202c7c0 f   MemBufInputSource.obj
 0001:0002b820       ?makeStream@MemBufInputSource@xercesc_2_2@@UBEPAVBinInputStream@2@XZ 1202c820 f   MemBufInputSource.obj
 0001:0002b890       ??0StdInInputSource@xercesc_2_2@@QAE@XZ 1202c890 f i StdInInputSource.obj
 0001:0002b8b0       ??_EStdInInputSource@xercesc_2_2@@UAEPAXI@Z 1202c8b0 f i StdInInputSource.obj
 0001:0002b910       ??1StdInInputSource@xercesc_2_2@@UAE@XZ 1202c910 f i StdInInputSource.obj
 0001:0002b920       ?makeStream@StdInInputSource@xercesc_2_2@@UBEPAVBinInputStream@2@XZ 1202c920 f   StdInInputSource.obj
 0001:0002b9a0       ??0StdOutFormatTarget@xercesc_2_2@@QAE@XZ 1202c9a0 f   StdOutFormatTarget.obj
 0001:0002b9b0       ??_EStdOutFormatTarget@xercesc_2_2@@UAEPAXI@Z 1202c9b0 f i StdOutFormatTarget.obj
 0001:0002ba10       ??1StdOutFormatTarget@xercesc_2_2@@UAE@XZ 1202ca10 f   StdOutFormatTarget.obj
 0001:0002ba20       ?flush@StdOutFormatTarget@xercesc_2_2@@UAEXXZ 1202ca20 f   StdOutFormatTarget.obj
 0001:0002ba30       ?writeChars@StdOutFormatTarget@xercesc_2_2@@UAEXQBEIQAVXMLFormatter@2@@Z 1202ca30 f   StdOutFormatTarget.obj
 0001:0002ba60       ?urlSrc@URLInputSource@xercesc_2_2@@QBEABVXMLURL@2@XZ 1202ca60 f i URLInputSource.obj
 0001:0002ba70       ??0URLInputSource@xercesc_2_2@@QAE@ABVXMLURL@1@@Z 1202ca70 f   URLInputSource.obj
 0001:0002baf0       ??_EURLInputSource@xercesc_2_2@@UAEPAXI@Z 1202caf0 f i URLInputSource.obj
 0001:0002bb50       ??0URLInputSource@xercesc_2_2@@QAE@QBG0@Z 1202cb50 f   URLInputSource.obj
 0001:0002bbd0       ??0URLInputSource@xercesc_2_2@@QAE@QBG00@Z 1202cbd0 f   URLInputSource.obj
 0001:0002bc50       ??0URLInputSource@xercesc_2_2@@QAE@QBGQBD@Z 1202cc50 f   URLInputSource.obj
 0001:0002bcd0       ??0URLInputSource@xercesc_2_2@@QAE@QBGQBD1@Z 1202ccd0 f   URLInputSource.obj
 0001:0002bd50       ??1URLInputSource@xercesc_2_2@@UAE@XZ 1202cd50 f   URLInputSource.obj
 0001:0002bdb0       ?makeStream@URLInputSource@xercesc_2_2@@UBEPAVBinInputStream@2@XZ 1202cdb0 f   URLInputSource.obj
 0001:0002bdc0       ??0DOMInputSource@xercesc_2_2@@IAE@XZ 1202cdc0 f i Wrapper4DOMInputSource.obj
 0001:0002bdd0       ??0DOMInputSource@xercesc_2_2@@IAE@ABV01@@Z 1202cdd0 f i Wrapper4DOMInputSource.obj
 0001:0002bde0       ??1DOMInputSource@xercesc_2_2@@UAE@XZ 1202cde0 f i Wrapper4DOMInputSource.obj
 0001:0002bdf0       ??_EDOMInputSource@xercesc_2_2@@UAEPAXI@Z 1202cdf0 f i Wrapper4DOMInputSource.obj
 0001:0002be50       ??0Wrapper4DOMInputSource@xercesc_2_2@@QAE@QAVDOMInputSource@1@_N@Z 1202ce50 f   Wrapper4DOMInputSource.obj
 0001:0002bef0       ??_EWrapper4DOMInputSource@xercesc_2_2@@UAEPAXI@Z 1202cef0 f i Wrapper4DOMInputSource.obj
 0001:0002bf50       ??1Wrapper4DOMInputSource@xercesc_2_2@@UAE@XZ 1202cf50 f   Wrapper4DOMInputSource.obj
 0001:0002bfb0       ?getIssueFatalErrorIfNotFound@Wrapper4DOMInputSource@xercesc_2_2@@UBE?B_NXZ 1202cfb0 f   Wrapper4DOMInputSource.obj
 0001:0002bfc0       ?getEncoding@Wrapper4DOMInputSource@xercesc_2_2@@UBEPBGXZ 1202cfc0 f   Wrapper4DOMInputSource.obj
 0001:0002bfd0       ?getSystemId@Wrapper4DOMInputSource@xercesc_2_2@@UBEPBGXZ 1202cfd0 f   Wrapper4DOMInputSource.obj
 0001:0002bfe0       ?getPublicId@Wrapper4DOMInputSource@xercesc_2_2@@UBEPBGXZ 1202cfe0 f   Wrapper4DOMInputSource.obj
 0001:0002bff0       ?setIssueFatalErrorIfNotFound@Wrapper4DOMInputSource@xercesc_2_2@@UAEX_N@Z 1202cff0 f   Wrapper4DOMInputSource.obj
 0001:0002c000       ?setEncoding@Wrapper4DOMInputSource@xercesc_2_2@@UAEXQBG@Z 1202d000 f   Wrapper4DOMInputSource.obj
 0001:0002c010       ?setPublicId@Wrapper4DOMInputSource@xercesc_2_2@@UAEXQBG@Z 1202d010 f   Wrapper4DOMInputSource.obj
 0001:0002c020       ?setSystemId@Wrapper4DOMInputSource@xercesc_2_2@@UAEXQBG@Z 1202d020 f   Wrapper4DOMInputSource.obj
 0001:0002c030       ?makeStream@Wrapper4DOMInputSource@xercesc_2_2@@UBEPAVBinInputStream@2@XZ 1202d030 f   Wrapper4DOMInputSource.obj
 0001:0002c040       ??0Wrapper4InputSource@xercesc_2_2@@QAE@QAVInputSource@1@_N@Z 1202d040 f   Wrapper4InputSource.obj
 0001:0002c0d0       ??_EWrapper4InputSource@xercesc_2_2@@UAEPAXI@Z 1202d0d0 f i Wrapper4InputSource.obj
 0001:0002c130       ??1Wrapper4InputSource@xercesc_2_2@@UAE@XZ 1202d130 f   Wrapper4InputSource.obj
 0001:0002c190       ?getIssueFatalErrorIfNotFound@Wrapper4InputSource@xercesc_2_2@@UBE?B_NXZ 1202d190 f   Wrapper4InputSource.obj
 0001:0002c1a0       ?getEncoding@Wrapper4InputSource@xercesc_2_2@@UBEPBGXZ 1202d1a0 f   Wrapper4InputSource.obj
 0001:0002c1b0       ?getSystemId@Wrapper4InputSource@xercesc_2_2@@UBEPBGXZ 1202d1b0 f   Wrapper4InputSource.obj
 0001:0002c1c0       ?getPublicId@Wrapper4InputSource@xercesc_2_2@@UBEPBGXZ 1202d1c0 f   Wrapper4InputSource.obj
 0001:0002c1d0       ?setIssueFatalErrorIfNotFound@Wrapper4InputSource@xercesc_2_2@@UAEX_N@Z 1202d1d0 f   Wrapper4InputSource.obj
 0001:0002c1e0       ?setEncoding@Wrapper4InputSource@xercesc_2_2@@UAEXQBG@Z 1202d1e0 f   Wrapper4InputSource.obj
 0001:0002c1f0       ?setPublicId@Wrapper4InputSource@xercesc_2_2@@UAEXQBG@Z 1202d1f0 f   Wrapper4InputSource.obj
 0001:0002c200       ?setSystemId@Wrapper4InputSource@xercesc_2_2@@UAEXQBG@Z 1202d200 f   Wrapper4InputSource.obj
 0001:0002c210       ?makeStream@Wrapper4InputSource@xercesc_2_2@@UBEPAVBinInputStream@2@XZ 1202d210 f   Wrapper4InputSource.obj
 0001:0002c220       ?release@DOMWriterImpl@xercesc_2_2@@UAEXXZ 1202d220 f   Wrapper4InputSource.obj
 0001:0002c220       ?unreferenced@DeepNodeListImpl@xercesc_2_2@@EAEXXZ 1202d220 f   Wrapper4InputSource.obj
 0001:0002c220       ?release@Wrapper4InputSource@xercesc_2_2@@UAEXXZ 1202d220 f   Wrapper4InputSource.obj
 0001:0002c230       ??_FXMLAttDef@xercesc_2_2@@QAEXXZ 1202d230 f i XMLAttDef.obj
 0001:0002c260       ?isExternal@XMLAttDef@xercesc_2_2@@QBE_NXZ 1202d260 f i XMLAttDef.obj
 0001:0002c270       ?setEnumeration@XMLAttDef@xercesc_2_2@@QAEXQBG@Z 1202d270 f i XMLAttDef.obj
 0001:0002c2f0       ?setValue@XMLAttDef@xercesc_2_2@@QAEXQBG@Z 1202d2f0 f i XMLAttDef.obj
 0001:0002c360       ?getAttTypeString@XMLAttDef@xercesc_2_2@@SAPBGW4AttTypes@12@@Z 1202d360 f   XMLAttDef.obj
 0001:0002c3a0       ?getDefAttTypeString@XMLAttDef@xercesc_2_2@@SAPBGW4DefAttTypes@12@@Z 1202d3a0 f   XMLAttDef.obj
 0001:0002c3e0       ??1XMLAttDef@xercesc_2_2@@UAE@XZ 1202d3e0 f   XMLAttDef.obj
 0001:0002c400       ??_EXMLAttDef@xercesc_2_2@@UAEPAXI@Z 1202d400 f i XMLAttDef.obj
 0001:0002c470       ??0XMLAttDef@xercesc_2_2@@IAE@W4AttTypes@01@W4DefAttTypes@01@@Z 1202d470 f   XMLAttDef.obj
 0001:0002c4b0       ??0XMLAttDef@xercesc_2_2@@IAE@QBGW4AttTypes@01@W4DefAttTypes@01@0@Z 1202d4b0 f   XMLAttDef.obj
 0001:0002c5f0       ?cleanUp@XMLAttDef@xercesc_2_2@@AAEXXZ 1202d5f0 f   XMLAttDef.obj
 0001:0002c610       ??1XMLAttr@xercesc_2_2@@QAE@XZ 1202d610 f i XMLAttr.obj
 0001:0002c640       ?getName@XMLAttr@xercesc_2_2@@QBEPBGXZ 1202d640 f i XMLAttr.obj
 0001:0002c650       ?getPrefix@XMLAttr@xercesc_2_2@@QBEPBGXZ 1202d650 f i XMLAttr.obj
 0001:0002c660       ?getDeclared@XMLRefInfo@xercesc_2_2@@QBE_NXZ 1202d660 f i XMLAttr.obj
 0001:0002c660       ?getSpecified@XMLAttr@xercesc_2_2@@QBE_NXZ 1202d660 f i XMLAttr.obj
 0001:0002c660       ?getAbstract@ComplexTypeInfo@xercesc_2_2@@QBE_NXZ 1202d660 f i XMLAttr.obj
 0001:0002c660       ?getCheckElementConsistency@XercesGroupInfo@xercesc_2_2@@QBE_NXZ 1202d660 f i XMLAttr.obj
 0001:0002c660       ?containsTypeWithId@XercesAttGroupInfo@xercesc_2_2@@QBE_NXZ 1202d660 f i XMLAttr.obj
 0001:0002c660       ?getMayMatch@IC_Field@xercesc_2_2@@QBE_NXZ 1202d660 f i XMLAttr.obj
 0001:0002c670       ?getURIId@XMLAttr@xercesc_2_2@@QBEIXZ 1202d670 f i XMLAttr.obj
 0001:0002c680       ?set@XMLAttr@xercesc_2_2@@QAEXIQBG00W4AttTypes@XMLAttDef@2@@Z 1202d680 f i XMLAttr.obj
 0001:0002c730       ?set@XMLAttr@xercesc_2_2@@QAEXIQBG0W4AttTypes@XMLAttDef@2@@Z 1202d730 f i XMLAttr.obj
 0001:0002c7e0       ?setDeclared@XMLRefInfo@xercesc_2_2@@QAEX_N@Z 1202d7e0 f i XMLAttr.obj
 0001:0002c7e0       ?setMayMatch@IC_Field@xercesc_2_2@@QAEX_N@Z 1202d7e0 f i XMLAttr.obj
 0001:0002c7e0       ?setSpecified@XMLAttr@xercesc_2_2@@QAEX_N@Z 1202d7e0 f i XMLAttr.obj
 0001:0002c7e0       ?setAbstract@ComplexTypeInfo@xercesc_2_2@@QAEX_N@Z 1202d7e0 f i XMLAttr.obj
 0001:0002c7e0       ?setTypeWithId@XercesAttGroupInfo@xercesc_2_2@@QAEX_N@Z 1202d7e0 f i XMLAttr.obj
 0001:0002c7e0       ?setCheckElementConsistency@XercesGroupInfo@xercesc_2_2@@QAEX_N@Z 1202d7e0 f i XMLAttr.obj
 0001:0002c7f0       ??0XMLAttr@xercesc_2_2@@QAE@XZ 1202d7f0 f   XMLAttr.obj
 0001:0002c870       ??0XMLAttr@xercesc_2_2@@QAE@IQBG00W4AttTypes@XMLAttDef@1@_N@Z 1202d870 f   XMLAttr.obj
 0001:0002c990       ??0XMLAttr@xercesc_2_2@@QAE@IQBG0W4AttTypes@XMLAttDef@1@_N@Z 1202d990 f   XMLAttr.obj
 0001:0002cab0       ?getQName@XMLAttr@xercesc_2_2@@QBEPBGXZ 1202dab0 f   XMLAttr.obj
 0001:0002cac0       ?setName@XMLAttr@xercesc_2_2@@QAEXIQBG0@Z 1202dac0 f   XMLAttr.obj
 0001:0002cae0       ?setURIId@XMLAttr@xercesc_2_2@@QAEXI@Z 1202dae0 f   XMLAttr.obj
 0001:0002caf0       ?cleanUp@XMLAttr@xercesc_2_2@@AAEXXZ 1202daf0 f   XMLAttr.obj
 0001:0002cb20       ?append@XMLBuffer@xercesc_2_2@@QAEXQBGI@Z 1202db20 f   XMLBuffer.obj
 0001:0002cbe0       ?set@XMLBuffer@xercesc_2_2@@QAEXQBGI@Z 1202dbe0 f   XMLBuffer.obj
 0001:0002cc90       ?expand@XMLBuffer@xercesc_2_2@@AAEXXZ 1202dc90 f   XMLBuffer.obj
 0001:0002cd10       ?insureCapacity@XMLBuffer@xercesc_2_2@@AAEXI@Z 1202dd10 f   XMLBuffer.obj
 0001:0002cd70       ??0XMLBufferMgr@xercesc_2_2@@QAE@XZ 1202dd70 f   XMLBufferMgr.obj
 0001:0002cdb0       ??1XMLBufferMgr@xercesc_2_2@@QAE@XZ 1202ddb0 f   XMLBufferMgr.obj
 0001:0002cdf0       ?bidOnBuffer@XMLBufferMgr@xercesc_2_2@@QAEAAVXMLBuffer@2@XZ 1202ddf0 f   XMLBufferMgr.obj
 0001:0002cf10       ?releaseBuffer@XMLBufferMgr@xercesc_2_2@@QAEXAAVXMLBuffer@2@@Z 1202df10 f   XMLBufferMgr.obj
 0001:0002cf60       ??1XMLContentModel@xercesc_2_2@@UAE@XZ 1202df60 f i XMLContentModel.obj
 0001:0002cf70       ??0XMLContentModel@xercesc_2_2@@IAE@XZ 1202df70 f i XMLContentModel.obj
 0001:0002cf80       ??_EXMLContentModel@xercesc_2_2@@UAEPAXI@Z 1202df80 f i XMLContentModel.obj
 0001:0002cfe0       ??1XMLAttDefList@xercesc_2_2@@UAE@XZ 1202dfe0 f i XMLElementDecl.obj
 0001:0002cff0       ??_EXMLAttDefList@xercesc_2_2@@UAEPAXI@Z 1202dff0 f i XMLElementDecl.obj
 0001:0002d050       ??0XMLAttDefList@xercesc_2_2@@IAE@XZ 1202e050 f i XMLElementDecl.obj
 0001:0002d060       ??0XMLAttDefList@xercesc_2_2@@IAE@ABV01@@Z 1202e060 f i XMLElementDecl.obj
 0001:0002d070       ?getBaseName@XMLElementDecl@xercesc_2_2@@QBEPBGXZ 1202e070 f i XMLElementDecl.obj
 0001:0002d070       ?getBaseName@XMLElementDecl@xercesc_2_2@@QAEPAGXZ 1202e070 f i XMLElementDecl.obj
 0001:0002d080       ?getURI@XMLElementDecl@xercesc_2_2@@QBEIXZ 1202e080 f i XMLElementDecl.obj
 0001:0002d090       ?getKey@DTDElementDecl@xercesc_2_2@@QBEPBGXZ 1202e090 f i XMLElementDecl.obj
 0001:0002d090       ?getFullName@XMLElementDecl@xercesc_2_2@@QBEPBGXZ 1202e090 f i XMLElementDecl.obj
 0001:0002d0a0       ?isDeclared@XMLElementDecl@xercesc_2_2@@QBE_NXZ 1202e0a0 f i XMLElementDecl.obj
 0001:0002d0b0       ??1XMLElementDecl@xercesc_2_2@@UAE@XZ 1202e0b0 f   XMLElementDecl.obj
 0001:0002d0d0       ??_EXMLElementDecl@xercesc_2_2@@UAEPAXI@Z 1202e0d0 f i XMLElementDecl.obj
 0001:0002d140       ?setElementName@XMLElementDecl@xercesc_2_2@@QAEXQBG0H@Z 1202e140 f   XMLElementDecl.obj
 0001:0002d1d0       ?setElementName@XMLElementDecl@xercesc_2_2@@QAEXQBGH@Z 1202e1d0 f   XMLElementDecl.obj
 0001:0002d260       ?setElementName@XMLElementDecl@xercesc_2_2@@QAEXQBVQName@2@@Z 1202e260 f   XMLElementDecl.obj
 0001:0002d2e0       ??0XMLElementDecl@xercesc_2_2@@IAE@XZ 1202e2e0 f   XMLElementDecl.obj
 0001:0002d300       ?isExternal@XMLEntityDecl@xercesc_2_2@@QBE_NXZ 1202e300 f i XMLEntityDecl.obj
 0001:0002d320       ?isUnparsed@XMLEntityDecl@xercesc_2_2@@QBE_NXZ 1202e320 f i XMLEntityDecl.obj
 0001:0002d330       ?setSystemId@XMLEntityDecl@xercesc_2_2@@QAEXQBG@Z 1202e330 f i XMLEntityDecl.obj
 0001:0002d3a0       ?setBaseURI@XMLEntityDecl@xercesc_2_2@@QAEXQBG@Z 1202e3a0 f i XMLEntityDecl.obj
 0001:0002d410       ?setValue@XMLEntityDecl@xercesc_2_2@@QAEXQBG@Z 1202e410 f i XMLEntityDecl.obj
 0001:0002d4b0       ??0XMLEntityDecl@xercesc_2_2@@QAE@XZ 1202e4b0 f   XMLEntityDecl.obj
 0001:0002d4d0       ??_EXMLEntityDecl@xercesc_2_2@@UAEPAXI@Z 1202e4d0 f i XMLEntityDecl.obj
 0001:0002d560       ??0XMLEntityDecl@xercesc_2_2@@QAE@QBG@Z 1202e560 f   XMLEntityDecl.obj
 0001:0002d5f0       ??0XMLEntityDecl@xercesc_2_2@@QAE@QBG0@Z 1202e5f0 f   XMLEntityDecl.obj
 0001:0002d770       ??0XMLEntityDecl@xercesc_2_2@@QAE@QBGG@Z 1202e770 f   XMLEntityDecl.obj
 0001:0002d890       ??1XMLEntityDecl@xercesc_2_2@@UAE@XZ 1202e890 f   XMLEntityDecl.obj
 0001:0002d8e0       ?setName@XMLEntityDecl@xercesc_2_2@@QAEXQBG@Z 1202e8e0 f   XMLEntityDecl.obj
 0001:0002d960       ?cleanUp@XMLEntityDecl@xercesc_2_2@@AAEXXZ 1202e960 f   XMLEntityDecl.obj
 0001:0002d9a0       ??0XMLFormatter@xercesc_2_2@@QAE@QBDQAVXMLFormatTarget@1@W4EscapeFlags@01@W4UnRepFlags@01@@Z 1202e9a0 f   XMLFormatter.obj
 0001:0002da70       ??0XMLFormatter@xercesc_2_2@@QAE@QBGQAVXMLFormatTarget@1@W4EscapeFlags@01@W4UnRepFlags@01@@Z 1202ea70 f   XMLFormatter.obj
 0001:0002db70       ??1XMLFormatter@xercesc_2_2@@QAE@XZ 1202eb70 f   XMLFormatter.obj
 0001:0002dbd0       ?formatBuf@XMLFormatter@xercesc_2_2@@QAEXQBGIW4EscapeFlags@12@W4UnRepFlags@12@@Z 1202ebd0 f   XMLFormatter.obj
 0001:0002de20       ??6XMLFormatter@xercesc_2_2@@QAEAAV01@QBG@Z 1202ee20 f   XMLFormatter.obj
 0001:0002de70       ??6XMLFormatter@xercesc_2_2@@QAEAAV01@G@Z 1202ee70 f   XMLFormatter.obj
 0001:0002deb0       ?writeBOM@XMLFormatter@xercesc_2_2@@QAEXQBEI@Z 1202eeb0 f   XMLFormatter.obj
 0001:0002ded0       ?getAposRef@XMLFormatter@xercesc_2_2@@AAEPBEAAI@Z 1202eed0 f   XMLFormatter.obj
 0001:0002dfa0       ?getAmpRef@XMLFormatter@xercesc_2_2@@AAEPBEAAI@Z 1202efa0 f   XMLFormatter.obj
 0001:0002e070       ?getGTRef@XMLFormatter@xercesc_2_2@@AAEPBEAAI@Z 1202f070 f   XMLFormatter.obj
 0001:0002e140       ?getLTRef@XMLFormatter@xercesc_2_2@@AAEPBEAAI@Z 1202f140 f   XMLFormatter.obj
 0001:0002e210       ?getQuoteRef@XMLFormatter@xercesc_2_2@@AAEPBEAAI@Z 1202f210 f   XMLFormatter.obj
 0001:0002e2e0       ?specialFormat@XMLFormatter@xercesc_2_2@@AAEXQBGIW4EscapeFlags@12@@Z 1202f2e0 f   XMLFormatter.obj
 0001:0002e3f0       ?setPublicId@XMLNotationDecl@xercesc_2_2@@QAEXQBG@Z 1202f3f0 f i XMLNotationDecl.obj
 0001:0002e460       ?setSystemId@XMLNotationDecl@xercesc_2_2@@QAEXQBG@Z 1202f460 f i XMLNotationDecl.obj
 0001:0002e460       ?setNotationName@XMLEntityDecl@xercesc_2_2@@QAEXQBG@Z 1202f460 f i XMLNotationDecl.obj
 0001:0002e460       ?setString@StringToken@xercesc_2_2@@QAEXQBG@Z 1202f460 f i XMLNotationDecl.obj
 0001:0002e4d0       ?setBaseURI@XMLNotationDecl@xercesc_2_2@@QAEXQBG@Z 1202f4d0 f i XMLNotationDecl.obj
 0001:0002e4d0       ?setPublicId@XMLEntityDecl@xercesc_2_2@@QAEXQBG@Z 1202f4d0 f i XMLNotationDecl.obj
 0001:0002e540       ??0XMLNotationDecl@xercesc_2_2@@QAE@XZ 1202f540 f   XMLNotationDecl.obj
 0001:0002e560       ??0XMLNotationDecl@xercesc_2_2@@QAE@QBG000@Z 1202f560 f   XMLNotationDecl.obj
 0001:0002e730       ?setName@XMLNotationDecl@xercesc_2_2@@QAEXQBG@Z 1202f730 f   XMLNotationDecl.obj
 0001:0002e7b0       ??1XMLNotationDecl@xercesc_2_2@@QAE@XZ 1202f7b0 f   XMLNotationDecl.obj
 0001:0002e7b0       ?cleanUp@XMLNotationDecl@xercesc_2_2@@AAEXXZ 1202f7b0 f   XMLNotationDecl.obj
 0001:0002e7e0       ?basicEncodingProbe@XMLRecognizer@xercesc_2_2@@SA?AW4Encodings@12@QBEI@Z 1202f7e0 f   XMLRecognizer.obj
 0001:0002e950       ?encodingForName@XMLRecognizer@xercesc_2_2@@SA?AW4Encodings@12@QBG@Z 1202f950 f   XMLRecognizer.obj
 0001:0002ead0       ?nameForEncoding@XMLRecognizer@xercesc_2_2@@SAPBGW4Encodings@12@@Z 1202fad0 f   XMLRecognizer.obj
 0001:0002eb10       ??0XMLRefInfo@xercesc_2_2@@QAE@QBG_N1@Z 1202fb10 f i XMLValidator.obj
 0001:0002eb80       ??1XMLRefInfo@xercesc_2_2@@QAE@XZ 1202fb80 f i XMLValidator.obj
 0001:0002eb90       ??1XMLValidator@xercesc_2_2@@UAE@XZ 1202fb90 f i XMLValidator.obj
 0001:0002eba0       ??_FXMLValidator@xercesc_2_2@@QAEXXZ 1202fba0 f i XMLValidator.obj
 0001:0002ebc0       ??_EXMLValidator@xercesc_2_2@@UAEPAXI@Z 1202fbc0 f i XMLValidator.obj
 0001:0002ec20       ?setScannerInfo@XMLValidator@xercesc_2_2@@QAEXQAVXMLScanner@2@QAVReaderMgr@2@QAVXMLBufferMgr@2@@Z 1202fc20 f i XMLValidator.obj
 0001:0002ec40       ??0Locator@xercesc_2_2@@QAE@XZ 1202fc40 f i XMLValidator.obj
 0001:0002ec50       ??_ELocator@xercesc_2_2@@UAEPAXI@Z 1202fc50 f i XMLValidator.obj
 0001:0002ecb0       ?getCurrentReaderNum@ReaderMgr@xercesc_2_2@@QBEIXZ 1202fcb0 f i XMLValidator.obj
 0001:0002ecc0       ?getName@ReaderMgr@xercesc_2_2@@QAE_NAAVXMLBuffer@2@@Z 1202fcc0 f i XMLValidator.obj
 0001:0002ece0       ?getNameToken@ReaderMgr@xercesc_2_2@@QAE_NAAVXMLBuffer@2@@Z 1202fce0 f i XMLValidator.obj
 0001:0002ed00       ?getNextCharIfNot@ReaderMgr@xercesc_2_2@@QAE_NGAAG@Z 1202fd00 f i XMLValidator.obj
 0001:0002ee20       ?movePlainContentChars@ReaderMgr@xercesc_2_2@@QAEXAAVXMLBuffer@2@@Z 1202fe20 f i XMLValidator.obj
 0001:0002ee80       ?getThrowEOE@ReaderMgr@xercesc_2_2@@QBE_NXZ 1202fe80 f i XMLValidator.obj
 0001:0002ee90       ?getSrcOffset@ReaderMgr@xercesc_2_2@@QBEIXZ 1202fe90 f i XMLValidator.obj
 0001:0002eea0       ?lookingAtChar@ReaderMgr@xercesc_2_2@@QAE_NG@Z 1202fea0 f i XMLValidator.obj
 0001:0002eec0       ?lookingAtSpace@ReaderMgr@xercesc_2_2@@QAE_NXZ 1202fec0 f i XMLValidator.obj
 0001:0002eef0       ?setCopyBufToStream@MemBufInputSource@xercesc_2_2@@QAEX_N@Z 1202fef0 f i XMLValidator.obj
 0001:0002eef0       ?setThrowEOE@ReaderMgr@xercesc_2_2@@QAEX_N@Z 1202fef0 f i XMLValidator.obj
 0001:0002ef00       ?skippedString@ReaderMgr@xercesc_2_2@@QAE_NQBG@Z 1202ff00 f i XMLValidator.obj
 0001:0002ef10       ?skipToChar@ReaderMgr@xercesc_2_2@@QAEXG@Z 1202ff10 f i XMLValidator.obj
 0001:0002ef10       ?skipPastChar@ReaderMgr@xercesc_2_2@@QAEXG@Z 1202ff10 f i XMLValidator.obj
 0001:0002ef30       ?peekString@ReaderMgr@xercesc_2_2@@QAE_NQBG@Z 1202ff30 f i XMLValidator.obj
 0001:0002ef40       ?setId@XMLElementDecl@xercesc_2_2@@QAEXI@Z 1202ff40 f i XMLValidator.obj
 0001:0002ef40       ?setOffset@DOMLocatorImpl@xercesc_2_2@@UAEXJ@Z 1202ff40 f i XMLValidator.obj
 0001:0002ef40       ?setUnRepFlags@XMLFormatter@xercesc_2_2@@QAEXW4UnRepFlags@12@@Z 1202ff40 f i XMLValidator.obj
 0001:0002ef40       ?setMax@ClosureToken@xercesc_2_2@@UAEXH@Z 1202ff40 f i XMLValidator.obj
 0001:0002ef40       ?setId@XMLAttDef@xercesc_2_2@@QAEXI@Z 1202ff40 f i XMLValidator.obj
 0001:0002ef40       ?setEntityHandler@ReaderMgr@xercesc_2_2@@QAEXQAVXMLEntityHandler@2@@Z 1202ff40 f i XMLValidator.obj
 0001:0002ef40       ?setFinalSet@ComplexTypeInfo@xercesc_2_2@@QAEXH@Z 1202ff40 f i XMLValidator.obj
 0001:0002ef50       ?setXMLVersion@ReaderMgr@xercesc_2_2@@QAEXW4XMLVersion@XMLReader@2@@Z 1202ff50 f i XMLValidator.obj
 0001:0002efa0       ??0ThrowEOEJanitor@xercesc_2_2@@QAE@PAVReaderMgr@1@_N@Z 1202ffa0 f i XMLValidator.obj
 0001:0002efc0       ??1ThrowEOEJanitor@xercesc_2_2@@QAE@XZ 1202ffc0 f i XMLValidator.obj
 0001:0002efd0       ??0XMLPScanToken@xercesc_2_2@@QAE@ABV01@@Z 1202ffd0 f i XMLValidator.obj
 0001:0002efd0       ??4DOMNodeImpl@xercesc_2_2@@QAEAAV01@ABV01@@Z 1202ffd0 f i XMLValidator.obj
 0001:0002efd0       ??4ThrowEOEJanitor@xercesc_2_2@@QAEAAV01@ABV01@@Z 1202ffd0 f i XMLValidator.obj
 0001:0002efd0       ??4XMLBufferMgr@xercesc_2_2@@QAEAAV01@ABV01@@Z 1202ffd0 f i XMLValidator.obj
 0001:0002efd0       ??0EndOfEntityException@xercesc_2_2@@QAE@ABV01@@Z 1202ffd0 f i XMLValidator.obj
 0001:0002efd0       ??4EndOfEntityException@xercesc_2_2@@QAEAAV01@ABV01@@Z 1202ffd0 f i XMLValidator.obj
 0001:0002efd0       ??4DOMChildNode@xercesc_2_2@@QAEAAV01@ABV01@@Z 1202ffd0 f i XMLValidator.obj
 0001:0002efd0       ??4BitSet@xercesc_2_2@@QAEAAV01@ABV01@@Z 1202ffd0 f i XMLValidator.obj
 0001:0002efd0       ??4DOMCharacterDataImpl@xercesc_2_2@@QAEAAV01@ABV01@@Z 1202ffd0 f i XMLValidator.obj
 0001:0002efd0       ??4SubstitutionGroupComparator@xercesc_2_2@@QAEAAV01@ABV01@@Z 1202ffd0 f i XMLValidator.obj
 0001:0002eff0       ??0DTDEntityDecl@xercesc_2_2@@QAE@XZ 1202fff0 f i XMLValidator.obj
 0001:0002f010       ??_EDTDEntityDecl@xercesc_2_2@@UAEPAXI@Z 12030010 f i XMLValidator.obj
 0001:0002f070       ??0DTDEntityDecl@xercesc_2_2@@QAE@QBG_N@Z 12030070 f i XMLValidator.obj
 0001:0002f0a0       ??0DTDEntityDecl@xercesc_2_2@@QAE@QBG0_N@Z 120300a0 f i XMLValidator.obj
 0001:0002f0d0       ??0DTDEntityDecl@xercesc_2_2@@QAE@QBGG_N1@Z 120300d0 f i XMLValidator.obj
 0001:0002f110       ??1DTDEntityDecl@xercesc_2_2@@UAE@XZ 12030110 f i XMLValidator.obj
 0001:0002f120       ?getDeclaredInIntSubset@DTDEntityDecl@xercesc_2_2@@UBE_NXZ 12030120 f i XMLValidator.obj
 0001:0002f130       ?getIsParameter@DTDEntityDecl@xercesc_2_2@@UBE_NXZ 12030130 f i XMLValidator.obj
 0001:0002f140       ?getIsSpecialChar@DTDEntityDecl@xercesc_2_2@@UBE_NXZ 12030140 f i XMLValidator.obj
 0001:0002f150       ?setStandardUriConformant@ReaderMgr@xercesc_2_2@@QAEX_N@Z 12030150 f i XMLValidator.obj
 0001:0002f150       ?setDeclaredInIntSubset@DTDEntityDecl@xercesc_2_2@@QAEX_N@Z 12030150 f i XMLValidator.obj
 0001:0002f160       ?setIsParameter@DTDEntityDecl@xercesc_2_2@@QAEX_N@Z 12030160 f i XMLValidator.obj
 0001:0002f170       ?setIsSpecialChar@DTDEntityDecl@xercesc_2_2@@QAEX_N@Z 12030170 f i XMLValidator.obj
 0001:0002f180       ?getLineNo@XSDElementNSImpl@xercesc_2_2@@QBEJXZ 12030180 f i XMLValidator.obj
 0001:0002f180       ?getMemberTypeValidator@UnionDatatypeValidator@xercesc_2_2@@QBEPBVDatatypeValidator@2@XZ 12030180 f i XMLValidator.obj
 0001:0002f180       ?getDocHandler@XMLScanner@xercesc_2_2@@QAEPAVXMLDocumentHandler@2@XZ 12030180 f i XMLValidator.obj
 0001:0002f180       ?getGrammarResolver@AbstractDOMParser@xercesc_2_2@@IBEPAVGrammarResolver@2@XZ 12030180 f i XMLValidator.obj
 0001:0002f180       ?getErrorHandler@SAXParser@xercesc_2_2@@QBEPBVErrorHandler@2@XZ 12030180 f i XMLValidator.obj
 0001:0002f180       ?getMaxExclusive@AbstractNumericFacetValidator@xercesc_2_2@@QBEQAVXMLNumber@2@XZ 12030180 f i XMLValidator.obj
 0001:0002f180       ?getValidationAttempted@SchemaAttDef@xercesc_2_2@@QBE?AW4Validation@PSVIDefs@2@XZ 12030180 f i XMLValidator.obj
 0001:0002f180       ?getDocHandler@XMLScanner@xercesc_2_2@@QBEPBVXMLDocumentHandler@2@XZ 12030180 f i XMLValidator.obj
 0001:0002f180       ?getErrorHandler@SAXParser@xercesc_2_2@@QAEPAVErrorHandler@2@XZ 12030180 f i XMLValidator.obj
 0001:0002f190       ?getDoNamespaces@XMLScanner@xercesc_2_2@@QBE_NXZ 12030190 f i XMLValidator.obj
 0001:0002f1a0       ?getMinExclusive@AbstractNumericFacetValidator@xercesc_2_2@@QBEQAVXMLNumber@2@XZ 120301a0 f i XMLValidator.obj
 0001:0002f1a0       ?getContent@ListDatatypeValidator@xercesc_2_2@@ABEQBGXZ 120301a0 f i XMLValidator.obj
 0001:0002f1a0       ?getEntityHandler@XMLScanner@xercesc_2_2@@QAEPAVXMLEntityHandler@2@XZ 120301a0 f i XMLValidator.obj
 0001:0002f1a0       ?getScanner@SAXParser@xercesc_2_2@@IBEABVXMLScanner@2@XZ 120301a0 f i XMLValidator.obj
 0001:0002f1a0       ?getSubstitutionGroupElem@SchemaElementDecl@xercesc_2_2@@QBEPAV12@XZ 120301a0 f i XMLValidator.obj
 0001:0002f1a0       ?getEntityHandler@XMLScanner@xercesc_2_2@@QBEPBVXMLEntityHandler@2@XZ 120301a0 f i XMLValidator.obj
 0001:0002f1b0       ?getErrorReporter@XMLScanner@xercesc_2_2@@QAEPAVXMLErrorReporter@2@XZ 120301b0 f i XMLValidator.obj
 0001:0002f1b0       ?getValidity@SchemaElementDecl@xercesc_2_2@@QBE?AW4Validity@PSVIDefs@2@XZ 120301b0 f i XMLValidator.obj
 0001:0002f1b0       ?getEnumeration@AbstractNumericFacetValidator@xercesc_2_2@@QBEPAV?$RefVectorOf@VXMLNumber@xercesc_2_2@@@2@XZ 120301b0 f i XMLValidator.obj
 0001:0002f1b0       ?getErrorReporter@XMLScanner@xercesc_2_2@@QBEPBVXMLErrorReporter@2@XZ 120301b0 f i XMLValidator.obj
 0001:0002f1c0       ?getErrorHandler@XMLScanner@xercesc_2_2@@QAEPAVErrorHandler@2@XZ 120301c0 f i XMLValidator.obj
 0001:0002f1c0       ?getEntityResolver@XercesDOMParser@xercesc_2_2@@QBEPBVEntityResolver@2@XZ 120301c0 f i XMLValidator.obj
 0001:0002f1c0       ?getErrorHandler@XMLScanner@xercesc_2_2@@QBEPBVErrorHandler@2@XZ 120301c0 f i XMLValidator.obj
 0001:0002f1c0       ?getEntityResolver@XercesDOMParser@xercesc_2_2@@QAEPAVEntityResolver@2@XZ 120301c0 f i XMLValidator.obj
 0001:0002f1d0       ?getExitOnFirstFatal@XMLScanner@xercesc_2_2@@QBE_NXZ 120301d0 f i XMLValidator.obj
 0001:0002f1e0       ?getUsed@XMLRefInfo@xercesc_2_2@@QBE_NXZ 120301e0 f i XMLValidator.obj
 0001:0002f1e0       ?getValidationConstraintFatal@XMLScanner@xercesc_2_2@@QBE_NXZ 120301e0 f i XMLValidator.obj
 0001:0002f1f0       ?getInException@XMLScanner@xercesc_2_2@@QBE_NXZ 120301f0 f i XMLValidator.obj
 0001:0002f200       ?getReaderMgr@XMLScanner@xercesc_2_2@@QBEPBVReaderMgr@2@XZ 12030200 f i XMLValidator.obj
 0001:0002f200       ?getLocator@XMLScanner@xercesc_2_2@@QBEPBVLocator@2@XZ 12030200 f i XMLValidator.obj
 0001:0002f210       ?getSrcOffset@XMLScanner@xercesc_2_2@@QBEIXZ 12030210 f i XMLValidator.obj
 0001:0002f220       ?getStandalone@XMLScanner@xercesc_2_2@@QBE_NXZ 12030220 f i XMLValidator.obj
 0001:0002f230       ?getValidationScheme@XMLScanner@xercesc_2_2@@QBE?AW4ValSchemes@12@XZ 12030230 f i XMLValidator.obj
 0001:0002f240       ?getValidator@XMLScanner@xercesc_2_2@@QAEPAVXMLValidator@2@XZ 12030240 f i XMLValidator.obj
 0001:0002f240       ?getValidator@XMLScanner@xercesc_2_2@@QBEPBVXMLValidator@2@XZ 12030240 f i XMLValidator.obj
 0001:0002f250       ?getDoSchema@XMLScanner@xercesc_2_2@@QBE_NXZ 12030250 f i XMLValidator.obj
 0001:0002f260       ?getValidationSchemaFullChecking@XMLScanner@xercesc_2_2@@QBE_NXZ 12030260 f i XMLValidator.obj
 0001:0002f270       ?isValidatorFromUser@XMLScanner@xercesc_2_2@@QAE_NXZ 12030270 f i XMLValidator.obj
 0001:0002f280       ?getURIStringPool@XMLScanner@xercesc_2_2@@QAEPAVXMLStringPool@2@XZ 12030280 f i XMLValidator.obj
 0001:0002f280       ?getURIStringPool@XMLScanner@xercesc_2_2@@QBEPBVXMLStringPool@2@XZ 12030280 f i XMLValidator.obj
 0001:0002f290       ?getHasNoDTD@XMLScanner@xercesc_2_2@@QBE_NXZ 12030290 f i XMLValidator.obj
 0001:0002f2a0       ?getExternalSchemaLocation@XMLScanner@xercesc_2_2@@QBEPAGXZ 120302a0 f i XMLValidator.obj
 0001:0002f2b0       ?getExternalNoNamespaceSchemaLocation@XMLScanner@xercesc_2_2@@QBEPAGXZ 120302b0 f i XMLValidator.obj
 0001:0002f2c0       ?getIncludeIgnorableWhitespace@DOMParser@xercesc_2_2@@QBE_NXZ 120302c0 f i XMLValidator.obj
 0001:0002f2c0       ?getLoadExternalDTD@XMLScanner@xercesc_2_2@@QBE_NXZ 120302c0 f i XMLValidator.obj
 0001:0002f2d0       ?getNormalizeData@XMLScanner@xercesc_2_2@@QBE_NXZ 120302d0 f i XMLValidator.obj
 0001:0002f2d0       ?getParseInProgress@AbstractDOMParser@xercesc_2_2@@IBE_NXZ 120302d0 f i XMLValidator.obj
 0001:0002f2e0       ?isExternal@XMLElementDecl@xercesc_2_2@@QBE_NXZ 120302e0 f i XMLValidator.obj
 0001:0002f2e0       ?getIssueFatalErrorIfNotFound@InputSource@xercesc_2_2@@UBE?B_NXZ 120302e0 f i XMLValidator.obj
 0001:0002f2e0       ?getCreateEntityReferenceNodes@AbstractDOMParser@xercesc_2_2@@QBE_NXZ 120302e0 f i XMLValidator.obj
 0001:0002f2e0       ?getProvided@XMLAttDef@xercesc_2_2@@QBE_NXZ 120302e0 f i XMLValidator.obj
 0001:0002f2e0       ?getToCreateXMLDeclTypeNode@DOMParser@xercesc_2_2@@QBE_NXZ 120302e0 f i XMLValidator.obj
 0001:0002f2e0       ?isCachingGrammarFromParse@XMLScanner@xercesc_2_2@@QBE_NXZ 120302e0 f i XMLValidator.obj
 0001:0002f2f0       ?getCreateEntityReferenceNodes@DOMParser@xercesc_2_2@@QBE_NXZ 120302f0 f i XMLValidator.obj
 0001:0002f2f0       ?isUsingCachedGrammarInParse@XMLScanner@xercesc_2_2@@QBE_NXZ 120302f0 f i XMLValidator.obj
 0001:0002f2f0       ?getIncludeIgnorableWhitespace@AbstractDOMParser@xercesc_2_2@@QBE_NXZ 120302f0 f i XMLValidator.obj
 0001:0002f300       ?getCalculateSrcOfs@XMLScanner@xercesc_2_2@@QBE_NXZ 12030300 f i XMLValidator.obj
 0001:0002f310       ?getRootGrammar@XMLScanner@xercesc_2_2@@QBEPAVGrammar@2@XZ 12030310 f i XMLValidator.obj
 0001:0002f320       ?setValidationAttempted@SchemaAttDef@xercesc_2_2@@QAEXW4Validation@PSVIDefs@2@@Z 12030320 f i XMLValidator.obj
 0001:0002f320       ?setDocHandler@XMLScanner@xercesc_2_2@@QAEXQAVXMLDocumentHandler@2@@Z 12030320 f i XMLValidator.obj
 0001:0002f330       ?setDocTypeHandler@XMLScanner@xercesc_2_2@@QAEXQAVDocTypeHandler@2@@Z 12030330 f i XMLValidator.obj
 0001:0002f340       ?setEntityHandler@XMLScanner@xercesc_2_2@@QAEXQAVXMLEntityHandler@2@@Z 12030340 f i XMLValidator.obj
 0001:0002f350       ?setGrammarResolver@XMLScanner@xercesc_2_2@@QAEXQAVGrammarResolver@2@@Z 12030350 f i XMLValidator.obj
 0001:0002f360       ?setExitOnFirstFatal@XMLScanner@xercesc_2_2@@QAEX_N@Z 12030360 f i XMLValidator.obj
 0001:0002f370       ?setUsed@XMLRefInfo@xercesc_2_2@@QAEX_N@Z 12030370 f i XMLValidator.obj
 0001:0002f370       ?setValidationConstraintFatal@XMLScanner@xercesc_2_2@@QAEX_N@Z 12030370 f i XMLValidator.obj
 0001:0002f380       ?setValidationScheme@XMLScanner@xercesc_2_2@@QAEXW4ValSchemes@12@@Z 12030380 f i XMLValidator.obj
 0001:0002f3a0       ?setDoSchema@XMLScanner@xercesc_2_2@@QAEX_N@Z 120303a0 f i XMLValidator.obj
 0001:0002f3b0       ?setDoNamespaces@XMLScanner@xercesc_2_2@@QAEX_N@Z 120303b0 f i XMLValidator.obj
 0001:0002f3c0       ?setValidationSchemaFullChecking@XMLScanner@xercesc_2_2@@QAEX_N@Z 120303c0 f i XMLValidator.obj
 0001:0002f3d0       ?setHasNoDTD@XMLScanner@xercesc_2_2@@QAEX_N@Z 120303d0 f i XMLValidator.obj
 0001:0002f3e0       ?setRootElemName@XMLScanner@xercesc_2_2@@QAEXPAG@Z 120303e0 f i XMLValidator.obj
 0001:0002f460       ?setExternalSchemaLocation@XMLScanner@xercesc_2_2@@QAEXQBG@Z 12030460 f i XMLValidator.obj
 0001:0002f4e0       ?setExternalNoNamespaceSchemaLocation@XMLScanner@xercesc_2_2@@QAEXQBG@Z 120304e0 f i XMLValidator.obj
 0001:0002f560       ?setExternalSchemaLocation@XMLScanner@xercesc_2_2@@QAEXQBD@Z 12030560 f i XMLValidator.obj
 0001:0002f590       ?setExternalNoNamespaceSchemaLocation@XMLScanner@xercesc_2_2@@QAEXQBD@Z 12030590 f i XMLValidator.obj
 0001:0002f5c0       ?setLoadExternalDTD@XMLScanner@xercesc_2_2@@QAEX_N@Z 120305c0 f i XMLValidator.obj
 0001:0002f5c0       ?setIncludeIgnorableWhitespace@DOMParser@xercesc_2_2@@QAEX_N@Z 120305c0 f i XMLValidator.obj
 0001:0002f5d0       ?setNormalizeData@XMLScanner@xercesc_2_2@@QAEX_N@Z 120305d0 f i XMLValidator.obj
 0001:0002f5d0       ?setParseInProgress@AbstractDOMParser@xercesc_2_2@@IAEX_N@Z 120305d0 f i XMLValidator.obj
 0001:0002f5e0       ?setProvided@XMLAttDef@xercesc_2_2@@QAEX_N@Z 120305e0 f i XMLValidator.obj
 0001:0002f5e0       ?setExternalElemDeclaration@XMLElementDecl@xercesc_2_2@@QAEX_N@Z 120305e0 f i XMLValidator.obj
 0001:0002f5e0       ?cacheGrammarFromParse@XMLScanner@xercesc_2_2@@QAEX_N@Z 120305e0 f i XMLValidator.obj
 0001:0002f5e0       ?setCreateEntityReferenceNodes@AbstractDOMParser@xercesc_2_2@@QAEX_N@Z 120305e0 f i XMLValidator.obj
 0001:0002f5e0       ?setToCreateXMLDeclTypeNode@DOMParser@xercesc_2_2@@QAEX_N@Z 120305e0 f i XMLValidator.obj
 0001:0002f5e0       ?setIssueFatalErrorIfNotFound@InputSource@xercesc_2_2@@UAEX_N@Z 120305e0 f i XMLValidator.obj
 0001:0002f5f0       ?setIncludeIgnorableWhitespace@AbstractDOMParser@xercesc_2_2@@QAEX_N@Z 120305f0 f i XMLValidator.obj
 0001:0002f5f0       ?useCachedGrammarInParse@XMLScanner@xercesc_2_2@@QAEX_N@Z 120305f0 f i XMLValidator.obj
 0001:0002f5f0       ?setCreateEntityReferenceNodes@DOMParser@xercesc_2_2@@QAEX_N@Z 120305f0 f i XMLValidator.obj
 0001:0002f600       ?setCalculateSrcOfs@XMLScanner@xercesc_2_2@@QAEX_N@Z 12030600 f i XMLValidator.obj
 0001:0002f610       ?setStandardUriConformant@XMLScanner@xercesc_2_2@@QAEX_N@Z 12030610 f i XMLValidator.obj
 0001:0002f620       ?incrementErrorCount@XMLScanner@xercesc_2_2@@QAEXXZ 12030620 f i XMLValidator.obj
 0001:0002f630       ?setDoValidation@XMLScanner@xercesc_2_2@@QAEX_N@Z 12030630 f i XMLValidator.obj
 0001:0002f6a0       ?emitError@XMLValidator@xercesc_2_2@@QAEXW4Codes@XMLValid@2@@Z 120306a0 f   XMLValidator.obj
 0001:0002f930       ?emitError@XMLValidator@xercesc_2_2@@QAEXW4Codes@XMLValid@2@QBG111@Z 12030930 f   XMLValidator.obj
 0001:0002fa50       ?emitError@XMLValidator@xercesc_2_2@@QAEXW4Codes@XMLValid@2@QBD111@Z 12030a50 f   XMLValidator.obj
 0001:0002fb70       ??0XMLValidator@xercesc_2_2@@IAE@QAVXMLErrorReporter@1@@Z 12030b70 f   XMLValidator.obj
 0001:0002fb90       ?reinitMsgMutex@XMLValidator@xercesc_2_2@@SAXXZ 12030b90 f   XMLValidator.obj
 0001:0002fbc0       ?reinitMsgLoader@XMLValidator@xercesc_2_2@@SAXXZ 12030bc0 f   XMLValidator.obj
 0001:0002fbe0       ?isEmpty@ElemStack@xercesc_2_2@@QBE_NXZ 12030be0 f i DGXMLScanner.obj
 0001:0002fbf0       ?getValidationFlag@ElemStack@xercesc_2_2@@QAE_NXZ 12030bf0 f i DGXMLScanner.obj
 0001:0002fc00       ?setValidationFlag@ElemStack@xercesc_2_2@@QAEX_N@Z 12030c00 f i DGXMLScanner.obj
 0001:0002fc20       ?getCurrentScope@ElemStack@xercesc_2_2@@QAEHXZ 12030c20 f i DGXMLScanner.obj
 0001:0002fc30       ?setCurrentScope@ElemStack@xercesc_2_2@@QAEXH@Z 12030c30 f i DGXMLScanner.obj
 0001:0002fc50       ?getCurrentGrammar@ElemStack@xercesc_2_2@@QAEPAVGrammar@2@XZ 12030c50 f i DGXMLScanner.obj
 0001:0002fc60       ?setCurrentGrammar@ElemStack@xercesc_2_2@@QAEXPAVGrammar@2@@Z 12030c60 f i DGXMLScanner.obj
 0001:0002fc80       ?getCurrentURI@ElemStack@xercesc_2_2@@QAEIXZ 12030c80 f i DGXMLScanner.obj
 0001:0002fc90       ?setCurrentURI@ElemStack@xercesc_2_2@@QAEXI@Z 12030c90 f i DGXMLScanner.obj
 0001:0002fcb0       ?isEmpty@WFElemStack@xercesc_2_2@@QBE_NXZ 12030cb0 f i DGXMLScanner.obj
 0001:0002fcc0       ?getCurrentURI@WFElemStack@xercesc_2_2@@QAEIXZ 12030cc0 f i DGXMLScanner.obj
 0001:0002fcd0       ?setCurrentURI@WFElemStack@xercesc_2_2@@QAEXI@Z 12030cd0 f i DGXMLScanner.obj
 0001:0002fcf0       ??1Grammar@xercesc_2_2@@UAE@XZ 12030cf0 f i DGXMLScanner.obj
 0001:0002fd00       ??0Grammar@xercesc_2_2@@IAE@XZ 12030d00 f i DGXMLScanner.obj
 0001:0002fd10       ??0Grammar@xercesc_2_2@@QAE@ABV01@@Z 12030d10 f i DGXMLScanner.obj
 0001:0002fd20       ??_EGrammar@xercesc_2_2@@UAEPAXI@Z 12030d20 f i DGXMLScanner.obj
 0001:0002fd80       ?getName@DGXMLScanner@xercesc_2_2@@UBEPBGXZ 12030d80 f i DGXMLScanner.obj
 0001:0002fd90       ??1XMLDocumentHandler@xercesc_2_2@@UAE@XZ 12030d90 f i DGXMLScanner.obj
 0001:0002fda0       ??0XMLDocumentHandler@xercesc_2_2@@IAE@XZ 12030da0 f i DGXMLScanner.obj
 0001:0002fdb0       ??_EXMLDocumentHandler@xercesc_2_2@@UAEPAXI@Z 12030db0 f i DGXMLScanner.obj
 0001:0002fe10       ??1XMLEntityHandler@xercesc_2_2@@UAE@XZ 12030e10 f i DGXMLScanner.obj
 0001:0002fe20       ??0XMLEntityHandler@xercesc_2_2@@IAE@XZ 12030e20 f i DGXMLScanner.obj
 0001:0002fe30       ??_EXMLEntityHandler@xercesc_2_2@@UAEPAXI@Z 12030e30 f i DGXMLScanner.obj
 0001:0002fe90       ??0XMLPScanToken@xercesc_2_2@@QAE@XZ 12030e90 f i DGXMLScanner.obj
 0001:0002fea0       ??4XMLPScanToken@xercesc_2_2@@QAEAAV01@ABV01@@Z 12030ea0 f i DGXMLScanner.obj
 0001:0002fec0       ?set@XMLPScanToken@xercesc_2_2@@IAEXII@Z 12030ec0 f i DGXMLScanner.obj
 0001:0002fed0       ?getStringPool@GrammarResolver@xercesc_2_2@@QAEPAVXMLStringPool@2@XZ 12030ed0 f i DGXMLScanner.obj
 0001:0002fee0       ?setAdoptContentSpec@ComplexTypeInfo@xercesc_2_2@@QAEX_N@Z 12030ee0 f i DGXMLScanner.obj
 0001:0002fee0       ?setProcessed@SchemaInfo@xercesc_2_2@@QAEX_N@Z 12030ee0 f i DGXMLScanner.obj
 0001:0002fee0       ?useCachedGrammarInParse@GrammarResolver@xercesc_2_2@@QAEX_N@Z 12030ee0 f i DGXMLScanner.obj
 0001:0002fef0       ?orphanGrammar@GrammarResolver@xercesc_2_2@@QAEPAVGrammar@2@QBG@Z 12030ef0 f i DGXMLScanner.obj
 0001:00030080       ?endDocument@DefaultHandler@xercesc_2_2@@UAEXXZ 12031080 f i DGXMLScanner.obj
 0001:00030080       ??1EndOfEntityException@xercesc_2_2@@QAE@XZ 12031080 f i DGXMLScanner.obj
 0001:00030080       ??1XMLInteger@xercesc_2_2@@QAE@XZ 12031080 f i DGXMLScanner.obj
 0001:00030080       ?reset@DTDAttDef@xercesc_2_2@@UAEXXZ 12031080 f i DGXMLScanner.obj
 0001:00030080       ?resetDocument@HandlerBase@xercesc_2_2@@UAEXXZ 12031080 f i DGXMLScanner.obj
 0001:00030080       ?resetErrors@HandlerBase@xercesc_2_2@@UAEXXZ 12031080 f i DGXMLScanner.obj
 0001:00030080       ?startDocument@HandlerBase@xercesc_2_2@@UAEXXZ 12031080 f i DGXMLScanner.obj
 0001:00030080       ?resetDocType@HandlerBase@xercesc_2_2@@UAEXXZ 12031080 f i DGXMLScanner.obj
 0001:00030080       ?endDocument@HandlerBase@xercesc_2_2@@UAEXXZ 12031080 f i DGXMLScanner.obj
 0001:00030080       ?flush@XMLFormatTarget@xercesc_2_2@@UAEXXZ 12031080 f i DGXMLScanner.obj
 0001:00030080       ?resetEntities@XercesDOMParser@xercesc_2_2@@UAEXXZ 12031080 f i DGXMLScanner.obj
 0001:00030080       ?endCDATA@DefaultHandler@xercesc_2_2@@UAEXXZ 12031080 f i DGXMLScanner.obj
 0001:00030080       ?endDocument@ValueStoreCache@xercesc_2_2@@QAEXXZ 12031080 f i DGXMLScanner.obj
 0001:00030080       ?startDocument@DefaultHandler@xercesc_2_2@@UAEXXZ 12031080 f i DGXMLScanner.obj
 0001:00030080       ??3@YAXPAXPAVDOMDocument@xercesc_2_2@@@Z 12031080 f i DGXMLScanner.obj
 0001:00030080       ??1RegxUtil@xercesc_2_2@@QAE@XZ 12031080 f i DGXMLScanner.obj
 0001:00030080       ?resetErrors@DefaultHandler@xercesc_2_2@@UAEXXZ 12031080 f i DGXMLScanner.obj
 0001:00030080       ??1XUtil@xercesc_2_2@@IAE@XZ 12031080 f i DGXMLScanner.obj
 0001:00030080       ?resetDocument@DefaultHandler@xercesc_2_2@@UAEXXZ 12031080 f i DGXMLScanner.obj
 0001:00030080       ??1XMLPScanToken@xercesc_2_2@@QAE@XZ 12031080 f i DGXMLScanner.obj
 0001:00030080       ?endDTD@DefaultHandler@xercesc_2_2@@UAEXXZ 12031080 f i DGXMLScanner.obj
 0001:00030080       ??1DOMStringHandle@xercesc_2_2@@QAE@XZ 12031080 f i DGXMLScanner.obj
 0001:00030080       ?startCDATA@DefaultHandler@xercesc_2_2@@UAEXXZ 12031080 f i DGXMLScanner.obj
 0001:00030080       ??3@YAXPAXPAVDOMDocument@xercesc_2_2@@W4NodeObjectType@DOMDocumentImpl@1@@Z 12031080 f i DGXMLScanner.obj
 0001:00030080       ??1XMLUniCharacter@xercesc_2_2@@QAE@XZ 12031080 f i DGXMLScanner.obj
 0001:00030080       ?resetDocType@DefaultHandler@xercesc_2_2@@UAEXXZ 12031080 f i DGXMLScanner.obj
 0001:00030080       ?resetEntities@DOMParser@xercesc_2_2@@UAEXXZ 12031080 f i DGXMLScanner.obj
 0001:00030080       ??1SubstitutionGroupComparator@xercesc_2_2@@QAE@XZ 12031080 f i DGXMLScanner.obj
 0001:00030080       ?resetEntities@DOMBuilderImpl@xercesc_2_2@@UAEXXZ 12031080 f i DGXMLScanner.obj
 0001:00030090       ?getBaseDatatypeValidator@ComplexTypeInfo@xercesc_2_2@@QBEPAVDatatypeValidator@2@XZ 12031090 f i DGXMLScanner.obj
 0001:00030090       ?getMiscFlags@SchemaElementDecl@xercesc_2_2@@QBEHXZ 12031090 f i DGXMLScanner.obj
 0001:00030090       ?getErrorHandler@DOMParser@xercesc_2_2@@QAEPAVErrorHandler@2@XZ 12031090 f i DGXMLScanner.obj
 0001:00030090       ?getErrorHandler@DOMParser@xercesc_2_2@@QBEPBVErrorHandler@2@XZ 12031090 f i DGXMLScanner.obj
 0001:00030090       ?getFullName@DTDAttDef@xercesc_2_2@@UBEPBGXZ 12031090 f i DGXMLScanner.obj
 0001:00030090       ?getCurrentNode@AbstractDOMParser@xercesc_2_2@@IAEPAVDOMNode@2@XZ 12031090 f i DGXMLScanner.obj
 0001:00030090       ?getAttName@SchemaAttDef@xercesc_2_2@@QBEPAVQName@2@XZ 12031090 f i DGXMLScanner.obj
 0001:00030090       ?getTypeName@DatatypeValidator@xercesc_2_2@@QBEPBGXZ 12031090 f i DGXMLScanner.obj
 0001:000300a0       ?getDOMTypeInfoName@DTDAttDef@xercesc_2_2@@UBEPBGXZ 120310a0 f i DGXMLScanner.obj
 0001:000300b0       ?getContentModel@DTDElementDecl@xercesc_2_2@@UAEPAVXMLContentModel@2@XZ 120310b0 f i DGXMLScanner.obj
 0001:000300d0       ?setContentModel@DTDElementDecl@xercesc_2_2@@UAEXQAVXMLContentModel@2@@Z 120310d0 f i DGXMLScanner.obj
 0001:00030100       ??0DocTypeHandler@xercesc_2_2@@QAE@XZ 12031100 f i DGXMLScanner.obj
 0001:00030110       ??1DocTypeHandler@xercesc_2_2@@UAE@XZ 12031110 f i DGXMLScanner.obj
 0001:00030120       ??_EDocTypeHandler@xercesc_2_2@@UAEPAXI@Z 12031120 f i DGXMLScanner.obj
 0001:00030180       ??0DTDGrammar@xercesc_2_2@@QAE@ABV01@@Z 12031180 f i DGXMLScanner.obj
 0001:000301c0       ??4DTDGrammar@xercesc_2_2@@QAEAAV01@ABV01@@Z 120311c0 f i DGXMLScanner.obj
 0001:000301f0       ??_EDTDGrammar@xercesc_2_2@@UAEPAXI@Z 120311f0 f i DGXMLScanner.obj
 0001:00030250       ?getElemEnumerator@DTDGrammar@xercesc_2_2@@QBE?AV?$NameIdPoolEnumerator@VDTDElementDecl@xercesc_2_2@@@2@XZ 12031250 f i DGXMLScanner.obj
 0001:00030280       ?getEntityEnumerator@DTDGrammar@xercesc_2_2@@QBE?AV?$NameIdPoolEnumerator@VDTDEntityDecl@xercesc_2_2@@@2@XZ 12031280 f i DGXMLScanner.obj
 0001:000302b0       ?getNotationEnumerator@DTDGrammar@xercesc_2_2@@QBE?AV?$NameIdPoolEnumerator@VXMLNotationDecl@xercesc_2_2@@@2@XZ 120312b0 f i DGXMLScanner.obj
 0001:000302e0       ?getEntityDecl@DTDGrammar@xercesc_2_2@@QBEPBVDTDEntityDecl@2@QBG@Z 120312e0 f i DGXMLScanner.obj
 0001:000302e0       ?getEntityDecl@DTDGrammar@xercesc_2_2@@QAEPAVDTDEntityDecl@2@QBG@Z 120312e0 f i DGXMLScanner.obj
 0001:00030390       ?putEntityDecl@DTDGrammar@xercesc_2_2@@QBEIQAVDTDEntityDecl@2@@Z 12031390 f i DGXMLScanner.obj
 0001:000303a0       ?size@Token@xercesc_2_2@@UBEHXZ 120313a0 f i DGXMLScanner.obj
 0001:000303a0       ?getDOMTypeInfoUri@DTDElementDecl@xercesc_2_2@@UBEPBGXZ 120313a0 f i DGXMLScanner.obj
 0001:000303a0       ?getGrammarType@DTDGrammar@xercesc_2_2@@UBE?AW4GrammarType@Grammar@2@XZ 120313a0 f i DGXMLScanner.obj
 0001:000303a0       ?getDOMTypeInfoName@DTDElementDecl@xercesc_2_2@@UBEPBGXZ 120313a0 f i DGXMLScanner.obj
 0001:000303a0       ?getDOMTypeInfoUri@DTDAttDef@xercesc_2_2@@UBEPBGXZ 120313a0 f i DGXMLScanner.obj
 0001:000303a0       ?getBaseURI@Wrapper4InputSource@xercesc_2_2@@UBEPBGXZ 120313a0 f i DGXMLScanner.obj
 0001:000303a0       ?getReferenceNo@Token@xercesc_2_2@@UBEHXZ 120313a0 f i DGXMLScanner.obj
 0001:000303a0       ?getRelatedException@DOMErrorImpl@xercesc_2_2@@UBEPAXXZ 120313a0 f i DGXMLScanner.obj
 0001:000303a0       ?getContentLeafNameTypeVector@MixedContentModel@xercesc_2_2@@UBEPAVContentLeafNameTypeVector@2@XZ 120313a0 f i DGXMLScanner.obj
 0001:000303a0       ?getNoParen@Token@xercesc_2_2@@UBEHXZ 120313a0 f i DGXMLScanner.obj
 0001:000303a0       ?getString@Token@xercesc_2_2@@UBEPBGXZ 120313a0 f i DGXMLScanner.obj
 0001:000303a0       ?getContentLeafNameTypeVector@AllContentModel@xercesc_2_2@@UBEPAVContentLeafNameTypeVector@2@XZ 120313a0 f i DGXMLScanner.obj
 0001:000303b0       ?getTargetNamespace@DTDGrammar@xercesc_2_2@@UBEPBGXZ 120313b0 f i DGXMLScanner.obj
 0001:000303c0       ?getElemId@DTDGrammar@xercesc_2_2@@UBEIIQBG0I@Z 120313c0 f i DGXMLScanner.obj
 0001:00030490       ?getElemDecl@DTDGrammar@xercesc_2_2@@UBEPBVXMLElementDecl@2@IQBG0I@Z 12031490 f i DGXMLScanner.obj
 0001:00030490       ?getElemDecl@DTDGrammar@xercesc_2_2@@UAEPAVXMLElementDecl@2@IQBG0I@Z 12031490 f i DGXMLScanner.obj
 0001:000305f0       ?getElemDecl@DTDGrammar@xercesc_2_2@@UAEPAVXMLElementDecl@2@I@Z 120315f0 f i DGXMLScanner.obj
 0001:000305f0       ?getElemDecl@DTDGrammar@xercesc_2_2@@UBEPBVXMLElementDecl@2@I@Z 120315f0 f i DGXMLScanner.obj
 0001:00030640       ?putElemDecl@DTDGrammar@xercesc_2_2@@UBEIQAVXMLElementDecl@2@_N@Z 12031640 f i DGXMLScanner.obj
 0001:00030670       ?getNotationDecl@DTDGrammar@xercesc_2_2@@UBEPBVXMLNotationDecl@2@QBG@Z 12031670 f i DGXMLScanner.obj
 0001:00030670       ?getNotationDecl@DTDGrammar@xercesc_2_2@@UAEPAVXMLNotationDecl@2@QBG@Z 12031670 f i DGXMLScanner.obj
 0001:00030720       ?putNotationDecl@DTDGrammar@xercesc_2_2@@UBEIQAVXMLNotationDecl@2@@Z 12031720 f i DGXMLScanner.obj
 0001:00030730       ?getValidated@DTDGrammar@xercesc_2_2@@UBE_NXZ 12031730 f i DGXMLScanner.obj
 0001:00030740       ?setValidated@DTDGrammar@xercesc_2_2@@UAEX_N@Z 12031740 f i DGXMLScanner.obj
 0001:00030750       ??0DTDScanner@xercesc_2_2@@QAE@ABV01@@Z 12031750 f i DGXMLScanner.obj
 0001:000307b0       ??4DTDScanner@xercesc_2_2@@QAEAAV01@ABV01@@Z 120317b0 f i DGXMLScanner.obj
 0001:00030810       ??_EDTDScanner@xercesc_2_2@@UAEPAXI@Z 12031810 f i DGXMLScanner.obj
 0001:00030870       ?setScope@XercesGroupInfo@xercesc_2_2@@QAEXH@Z 12031870 f i DGXMLScanner.obj
 0001:00030870       ?setType@XMLAttr@xercesc_2_2@@QAEXW4AttTypes@XMLAttDef@2@@Z 12031870 f i DGXMLScanner.obj
 0001:00030870       ?setDerivedBy@ComplexTypeInfo@xercesc_2_2@@QAEXH@Z 12031870 f i DGXMLScanner.obj
 0001:00030870       ?setDocTypeHandler@DTDScanner@xercesc_2_2@@QAEXQAVDocTypeHandler@2@@Z 12031870 f i DGXMLScanner.obj
 0001:00030870       ?setMatcherStack@FieldActivator@xercesc_2_2@@QAEXQAVXPathMatcherStack@2@@Z 12031870 f i DGXMLScanner.obj
 0001:00030870       ?setLineNumber@DOMLocatorImpl@xercesc_2_2@@UAEXJ@Z 12031870 f i DGXMLScanner.obj
 0001:00030870       ?setDefaultType@XMLAttDef@xercesc_2_2@@QAEXW4DefAttTypes@12@@Z 12031870 f i DGXMLScanner.obj
 0001:00030870       ?setId@XMLEntityDecl@xercesc_2_2@@QAEXI@Z 12031870 f i DGXMLScanner.obj
 0001:00030870       ?setBlockDefault@SchemaInfo@xercesc_2_2@@QAEXH@Z 12031870 f i DGXMLScanner.obj
 0001:00030880       ?isReadingExternalEntity@DTDScanner@xercesc_2_2@@AAE_NXZ 12031880 f i DGXMLScanner.obj
 0001:000308a0       ??_FDTDValidator@xercesc_2_2@@QAEXXZ 120318a0 f i DGXMLScanner.obj
 0001:000308b0       ?getGrammar@SchemaValidator@xercesc_2_2@@UBEPAVGrammar@2@XZ 120318b0 f i DGXMLScanner.obj
 0001:000308b0       ?getGrammar@DTDValidator@xercesc_2_2@@UBEPAVGrammar@2@XZ 120318b0 f i DGXMLScanner.obj
 0001:000308b0       ?getLocator@XercesGroupInfo@xercesc_2_2@@QBEPAVXSDLocator@2@XZ 120318b0 f i DGXMLScanner.obj
 0001:000308b0       ?getNamespaceScopeLevel@SchemaInfo@xercesc_2_2@@QBEIXZ 120318b0 f i DGXMLScanner.obj
 0001:000308b0       ?getSystemId@XMLEntityDecl@xercesc_2_2@@QBEPBGXZ 120318b0 f i DGXMLScanner.obj
 0001:000308b0       ?getRootElemId@DTDGrammar@xercesc_2_2@@QAEIXZ 120318b0 f i DGXMLScanner.obj
 0001:000308b0       ?getErrorCount@XMLScanner@xercesc_2_2@@QAEHXZ 120318b0 f i DGXMLScanner.obj
 0001:000308b0       ?getTokenFactory@RangeTokenMap@xercesc_2_2@@QBEPAVTokenFactory@2@XZ 120318b0 f i DGXMLScanner.obj
 0001:000308b0       ?getPath@XMLUri@xercesc_2_2@@QBEPBGXZ 120318b0 f i DGXMLScanner.obj
 0001:000308b0       ?getKey@IC_KeyRef@xercesc_2_2@@QBEPAVIdentityConstraint@2@XZ 120318b0 f i DGXMLScanner.obj
 0001:000308b0       ?getBaseValidator@DatatypeValidator@xercesc_2_2@@QBEPAV12@XZ 120318b0 f i DGXMLScanner.obj
 0001:000308b0       ?getElementId@ComplexTypeInfo@xercesc_2_2@@QBEIXZ 120318b0 f i DGXMLScanner.obj
 0001:000308b0       ?getType@XMLAttDef@xercesc_2_2@@QBE?AW4AttTypes@12@XZ 120318b0 f i DGXMLScanner.obj
 0001:000308b0       ?getURI@DOMLocatorImpl@xercesc_2_2@@UBEPBGXZ 120318b0 f i DGXMLScanner.obj
 0001:000308c0       ?setElementId@ComplexTypeInfo@xercesc_2_2@@QAEXI@Z 120318c0 f i DGXMLScanner.obj
 0001:000308c0       ?setGrammar@DTDValidator@xercesc_2_2@@UAEXPAVGrammar@2@@Z 120318c0 f i DGXMLScanner.obj
 0001:000308c0       ?setType@XMLAttDef@xercesc_2_2@@QAEXW4AttTypes@12@@Z 120318c0 f i DGXMLScanner.obj
 0001:000308c0       ?setGrammar@SchemaValidator@xercesc_2_2@@UAEXPAVGrammar@2@@Z 120318c0 f i DGXMLScanner.obj
 0001:000308c0       ?setURI@DOMLocatorImpl@xercesc_2_2@@UAEXQBG@Z 120318c0 f i DGXMLScanner.obj
 0001:000308c0       ?setRootElemId@DTDGrammar@xercesc_2_2@@QAEXI@Z 120318c0 f i DGXMLScanner.obj
 0001:000308c0       ?setModelType@SchemaElementDecl@xercesc_2_2@@QAEXW4ModelTypes@12@@Z 120318c0 f i DGXMLScanner.obj
 0001:000308d0       ?startEntity@DefaultHandler@xercesc_2_2@@UAEXQBG@Z 120318d0 f i DGXMLScanner.obj
 0001:000308d0       ?setDocumentLocator@HandlerBase@xercesc_2_2@@UAEXQBVLocator@2@@Z 120318d0 f i DGXMLScanner.obj
 0001:000308d0       ?error@HandlerBase@xercesc_2_2@@UAEXABVSAXParseException@2@@Z 120318d0 f i DGXMLScanner.obj
 0001:000308d0       ?setContentModel@SchemaElementDecl@xercesc_2_2@@UAEXQAVXMLContentModel@2@@Z 120318d0 f i DGXMLScanner.obj
 0001:000308d0       ?setBaseURI@Wrapper4InputSource@xercesc_2_2@@UAEXQBG@Z 120318d0 f i DGXMLScanner.obj
 0001:000308d0       ?error@DefaultHandler@xercesc_2_2@@UAEXABVSAXParseException@2@@Z 120318d0 f i DGXMLScanner.obj
 0001:000308d0       ?setMin@Token@xercesc_2_2@@UAEXH@Z 120318d0 f i DGXMLScanner.obj
 0001:000308d0       ?skippedEntity@DefaultHandler@xercesc_2_2@@UAEXQBG@Z 120318d0 f i DGXMLScanner.obj
 0001:000308d0       ?endElement@HandlerBase@xercesc_2_2@@UAEXQBG@Z 120318d0 f i DGXMLScanner.obj
 0001:000308d0       ?startInputSource@DOMParser@xercesc_2_2@@UAEXABVInputSource@2@@Z 120318d0 f i DGXMLScanner.obj
 0001:000308d0       ?startInputSource@XercesDOMParser@xercesc_2_2@@UAEXABVInputSource@2@@Z 120318d0 f i DGXMLScanner.obj
 0001:000308d0       ?warning@DefaultHandler@xercesc_2_2@@UAEXABVSAXParseException@2@@Z 120318d0 f i DGXMLScanner.obj
 0001:000308d0       ?endEntity@DefaultHandler@xercesc_2_2@@UAEXQBG@Z 120318d0 f i DGXMLScanner.obj
 0001:000308d0       ?validateElement@DTDValidator@xercesc_2_2@@UAEXPBVXMLElementDecl@2@@Z 120318d0 f i DGXMLScanner.obj
 0001:000308d0       ?endInputSource@DOMBuilderImpl@xercesc_2_2@@UAEXABVInputSource@2@@Z 120318d0 f i DGXMLScanner.obj
 0001:000308d0       ?startInputSource@DOMBuilderImpl@xercesc_2_2@@UAEXABVInputSource@2@@Z 120318d0 f i DGXMLScanner.obj
 0001:000308d0       ?endInputSource@DOMParser@xercesc_2_2@@UAEXABVInputSource@2@@Z 120318d0 f i DGXMLScanner.obj
 0001:000308d0       ?setDocumentLocator@DefaultHandler@xercesc_2_2@@UAEXQBVLocator@2@@Z 120318d0 f i DGXMLScanner.obj
 0001:000308d0       ?endPrefixMapping@DefaultHandler@xercesc_2_2@@UAEXQBG@Z 120318d0 f i DGXMLScanner.obj
 0001:000308d0       ?endInputSource@XercesDOMParser@xercesc_2_2@@UAEXABVInputSource@2@@Z 120318d0 f i DGXMLScanner.obj
 0001:000308d0       ??4XMLFormatTarget@xercesc_2_2@@IAEXABV01@@Z 120318d0 f i DGXMLScanner.obj
 0001:000308d0       ?setContentSpec@SchemaElementDecl@xercesc_2_2@@UAEXPAVContentSpecNode@2@@Z 120318d0 f i DGXMLScanner.obj
 0001:000308d0       ?warning@HandlerBase@xercesc_2_2@@UAEXABVSAXParseException@2@@Z 120318d0 f i DGXMLScanner.obj
 0001:000308d0       ?setMax@Token@xercesc_2_2@@UAEXH@Z 120318d0 f i DGXMLScanner.obj
 0001:000308d0       ?validate@AnySimpleTypeDatatypeValidator@xercesc_2_2@@UAEXQBG@Z 120318d0 f i DGXMLScanner.obj
 0001:000308e0       ?isAtomic@DatatypeValidator@xercesc_2_2@@UBE_NXZ 120318e0 f i DGXMLScanner.obj
 0001:000308e0       ?handlesSchema@SchemaValidator@xercesc_2_2@@UBE_NXZ 120318e0 f i DGXMLScanner.obj
 0001:000308e0       ?handlesDTD@DTDValidator@xercesc_2_2@@UBE_NXZ 120318e0 f i DGXMLScanner.obj
 0001:000308f0       ?handlesDTD@SchemaValidator@xercesc_2_2@@UBE_NXZ 120318f0 f i DGXMLScanner.obj
 0001:000308f0       ?handlesSchema@DTDValidator@xercesc_2_2@@UBE_NXZ 120318f0 f i DGXMLScanner.obj
 0001:000308f0       ?isAtomic@ListDatatypeValidator@xercesc_2_2@@UBE_NXZ 120318f0 f i DGXMLScanner.obj
 0001:000308f0       ?isAtomic@AnySimpleTypeDatatypeValidator@xercesc_2_2@@UBE_NXZ 120318f0 f i DGXMLScanner.obj
 0001:00030900       ??0DGXMLScanner@xercesc_2_2@@QAE@QAVXMLValidator@1@@Z 12031900 f   DGXMLScanner.obj
 0001:00030a70       ??_EDGXMLScanner@xercesc_2_2@@UAEPAXI@Z 12031a70 f i DGXMLScanner.obj
 0001:00030ad0       ??0DGXMLScanner@xercesc_2_2@@QAE@QAVXMLDocumentHandler@1@QAVDocTypeHandler@1@QAVXMLEntityHandler@1@QAVXMLErrorReporter@1@QAVXMLValidator@1@@Z 12031ad0 f   DGXMLScanner.obj
 0001:00030c50       ??1DGXMLScanner@xercesc_2_2@@UAE@XZ 12031c50 f   DGXMLScanner.obj
 0001:00030ce0       ?getEntityDeclPool@DGXMLScanner@xercesc_2_2@@UBEPBV?$NameIdPool@VDTDEntityDecl@xercesc_2_2@@@2@XZ 12031ce0 f   DGXMLScanner.obj
 0001:00030ce0       ?getEntityDeclPool@DGXMLScanner@xercesc_2_2@@UAEPAV?$NameIdPool@VDTDEntityDecl@xercesc_2_2@@@2@XZ 12031ce0 f   DGXMLScanner.obj
 0001:00030cf0       ?scanDocument@DGXMLScanner@xercesc_2_2@@UAEXABVInputSource@2@@Z 12031cf0 f   DGXMLScanner.obj
 0001:00030eb0       ?scanNext@DGXMLScanner@xercesc_2_2@@UAE_NAAVXMLPScanToken@2@@Z 12031eb0 f   DGXMLScanner.obj
 0001:000311e0       ?scanContent@DGXMLScanner@xercesc_2_2@@AAE_N_N@Z 120321e0 f   DGXMLScanner.obj
 0001:00031380       ?scanEndTag@DGXMLScanner@xercesc_2_2@@AAEXAA_N@Z 12032380 f   DGXMLScanner.obj
 0001:00031660       ?scanDocTypeDecl@DGXMLScanner@xercesc_2_2@@EAEXXZ 12032660 f   DGXMLScanner.obj
 0001:00031fa0       ??1XMLBufBid@xercesc_2_2@@QAE@XZ 12032fa0 f i DGXMLScanner.obj
 0001:00031fb0       ?scanStartTag@DGXMLScanner@xercesc_2_2@@AAE_NAA_N@Z 12032fb0 f   DGXMLScanner.obj
 0001:000329a0       ?resolveQName@DGXMLScanner@xercesc_2_2@@UAEIQBGAAVXMLBuffer@2@FAAH@Z 120339a0 f   DGXMLScanner.obj
 0001:00032b20       ?loadGrammar@DGXMLScanner@xercesc_2_2@@UAEPAVGrammar@2@ABVInputSource@2@F_N@Z 12033b20 f   DGXMLScanner.obj
 0001:00032cb0       ?loadDTDGrammar@DGXMLScanner@xercesc_2_2@@AAEPAVGrammar@2@ABVInputSource@2@_N@Z 12033cb0 f   DGXMLScanner.obj
 0001:00033110       ?commonInit@DGXMLScanner@xercesc_2_2@@AAEXXZ 12034110 f   DGXMLScanner.obj
 0001:000331d0       ?cleanUp@DGXMLScanner@xercesc_2_2@@AAEXXZ 120341d0 f   DGXMLScanner.obj
 0001:00033210       ?buildAttList@DGXMLScanner@xercesc_2_2@@AAEIIPAVXMLElementDecl@2@AAV?$RefVectorOf@VXMLAttr@xercesc_2_2@@@2@@Z 12034210 f   DGXMLScanner.obj
 0001:000336f0       ?resolvePrefix@DGXMLScanner@xercesc_2_2@@AAEIQBGW4MapModes@ElemStack@2@@Z 120346f0 f   DGXMLScanner.obj
 0001:000337e0       ?scanReset@DGXMLScanner@xercesc_2_2@@EAEXABVInputSource@2@@Z 120347e0 f   DGXMLScanner.obj
 0001:00033a90       ?sendCharData@DGXMLScanner@xercesc_2_2@@EAEXAAVXMLBuffer@2@@Z 12034a90 f   DGXMLScanner.obj
 0001:00033b90       ?updateNSMap@DGXMLScanner@xercesc_2_2@@AAEXQBG00@Z 12034b90 f   DGXMLScanner.obj
 0001:00033df0       ?scanAttrListforNameSpaces@DGXMLScanner@xercesc_2_2@@AAEXPAV?$RefVectorOf@VXMLAttr@xercesc_2_2@@@2@H@Z 12034df0 f   DGXMLScanner.obj
 0001:00033ff0       ?resolveSystemId@DGXMLScanner@xercesc_2_2@@AAEPAVInputSource@2@QBG@Z 12034ff0 f   DGXMLScanner.obj
 0001:00034230       ?scanAttValue@DGXMLScanner@xercesc_2_2@@AAE_NQBVXMLAttDef@2@AAVXMLBuffer@2@@Z 12035230 f   DGXMLScanner.obj
 0001:00034680       ?scanCDSection@DGXMLScanner@xercesc_2_2@@EAEXXZ 12035680 f   DGXMLScanner.obj
 0001:00034930       ?scanCharData@DGXMLScanner@xercesc_2_2@@EAEXAAVXMLBuffer@2@@Z 12035930 f   DGXMLScanner.obj
 0001:00034c70       ?scanEntityRef@DGXMLScanner@xercesc_2_2@@EAE?AW4EntityExpRes@XMLScanner@2@_NAAG1AA_N@Z 12035c70 f   DGXMLScanner.obj
 0001:00035150       ?orphanKey@?$RefHashTableOf@VGrammar@xercesc_2_2@@@xercesc_2_2@@QAEPAVGrammar@2@QBX@Z 12036150 f i DGXMLScanner.obj
 0001:00035220       ?hasMoreElements@?$NameIdPoolEnumerator@VXMLNotationDecl@xercesc_2_2@@@xercesc_2_2@@UBE_NXZ 12036220 f i DGXMLScanner.obj
 0001:00035220       ?hasMoreElements@?$NameIdPoolEnumerator@VDTDEntityDecl@xercesc_2_2@@@xercesc_2_2@@UBE_NXZ 12036220 f i DGXMLScanner.obj
 0001:00035220       ?hasMoreElements@?$NameIdPoolEnumerator@VDTDElementDecl@xercesc_2_2@@@xercesc_2_2@@UBE_NXZ 12036220 f i DGXMLScanner.obj
 0001:00035240       ?nextElement@?$NameIdPoolEnumerator@VXMLNotationDecl@xercesc_2_2@@@xercesc_2_2@@UAEAAVXMLNotationDecl@2@XZ 12036240 f i DGXMLScanner.obj
 0001:00035240       ?nextElement@?$NameIdPoolEnumerator@VDTDEntityDecl@xercesc_2_2@@@xercesc_2_2@@UAEAAVDTDEntityDecl@2@XZ 12036240 f i DGXMLScanner.obj
 0001:00035240       ?nextElement@?$NameIdPoolEnumerator@VDTDElementDecl@xercesc_2_2@@@xercesc_2_2@@UAEAAVDTDElementDecl@2@XZ 12036240 f i DGXMLScanner.obj
 0001:00035290       ?Reset@?$NameIdPoolEnumerator@VDTDElementDecl@xercesc_2_2@@@xercesc_2_2@@UAEXXZ 12036290 f i DGXMLScanner.obj
 0001:00035290       ?Reset@?$NameIdPoolEnumerator@VDTDEntityDecl@xercesc_2_2@@@xercesc_2_2@@UAEXXZ 12036290 f i DGXMLScanner.obj
 0001:00035290       ?Reset@?$NameIdPoolEnumerator@VXMLNotationDecl@xercesc_2_2@@@xercesc_2_2@@UAEXXZ 12036290 f i DGXMLScanner.obj
 0001:000352a0       ?put@?$NameIdPool@VDTDEntityDecl@xercesc_2_2@@@xercesc_2_2@@QAEIQAVDTDEntityDecl@2@@Z 120362a0 f i DGXMLScanner.obj
 0001:00035460       ?put@?$NameIdPool@VDTDElementDecl@xercesc_2_2@@@xercesc_2_2@@QAEIQAVDTDElementDecl@2@@Z 12036460 f i DGXMLScanner.obj
 0001:00035630       ?put@?$NameIdPool@VXMLNotationDecl@xercesc_2_2@@@xercesc_2_2@@QAEIQAVXMLNotationDecl@2@@Z 12036630 f i DGXMLScanner.obj
 0001:000357f0       ??1?$Janitor@VXMLDateTime@xercesc_2_2@@@xercesc_2_2@@QAE@XZ 120367f0 f i DGXMLScanner.obj
 0001:000357f0       ??1?$Janitor@VInputSource@xercesc_2_2@@@xercesc_2_2@@QAE@XZ 120367f0 f i DGXMLScanner.obj
 0001:000357f0       ??1?$Janitor@VDTDElementDecl@xercesc_2_2@@@xercesc_2_2@@QAE@XZ 120367f0 f i DGXMLScanner.obj
 0001:000357f0       ??1?$Janitor@V?$RefArrayVectorOf@G@xercesc_2_2@@@xercesc_2_2@@QAE@XZ 120367f0 f i DGXMLScanner.obj
 0001:000357f0       ??1?$Janitor@VSchemaAttDef@xercesc_2_2@@@xercesc_2_2@@QAE@XZ 120367f0 f i DGXMLScanner.obj
 0001:000357f0       ??1?$Janitor@VIC_Key@xercesc_2_2@@@xercesc_2_2@@QAE@XZ 120367f0 f i DGXMLScanner.obj
 0001:000357f0       ??1?$Janitor@VDTDEntityDecl@xercesc_2_2@@@xercesc_2_2@@QAE@XZ 120367f0 f i DGXMLScanner.obj
 0001:000357f0       ??1?$Janitor@V?$RefVectorOf@VXercesStep@xercesc_2_2@@@xercesc_2_2@@@xercesc_2_2@@QAE@XZ 120367f0 f i DGXMLScanner.obj
 0001:000357f0       ??1?$Janitor@VXMLFloat@xercesc_2_2@@@xercesc_2_2@@QAE@XZ 120367f0 f i DGXMLScanner.obj
 0001:000357f0       ??1?$Janitor@V?$RefVectorOf@VMatch@xercesc_2_2@@@xercesc_2_2@@@xercesc_2_2@@QAE@XZ 120367f0 f i DGXMLScanner.obj
 0001:000357f0       ??1?$Janitor@VXMLDouble@xercesc_2_2@@@xercesc_2_2@@QAE@XZ 120367f0 f i DGXMLScanner.obj
 0001:000357f0       ??1?$Janitor@V?$RefVectorOf@VDatatypeValidator@xercesc_2_2@@@xercesc_2_2@@@xercesc_2_2@@QAE@XZ 120367f0 f i DGXMLScanner.obj
 0001:000357f0       ??1?$Janitor@V?$BaseRefVectorOf@G@xercesc_2_2@@@xercesc_2_2@@QAE@XZ 120367f0 f i DGXMLScanner.obj
 0001:000357f0       ??1?$Janitor@VXMLBigDecimal@xercesc_2_2@@@xercesc_2_2@@QAE@XZ 120367f0 f i DGXMLScanner.obj
 0001:000357f0       ??1?$Janitor@VRegxParser@xercesc_2_2@@@xercesc_2_2@@QAE@XZ 120367f0 f i DGXMLScanner.obj
 0001:000357f0       ??1?$Janitor@VIC_Unique@xercesc_2_2@@@xercesc_2_2@@QAE@XZ 120367f0 f i DGXMLScanner.obj
 0001:000357f0       ??1?$Janitor@VIC_KeyRef@xercesc_2_2@@@xercesc_2_2@@QAE@XZ 120367f0 f i DGXMLScanner.obj
 0001:00035810       ??_E?$NameIdPoolEnumerator@VDTDElementDecl@xercesc_2_2@@@xercesc_2_2@@UAEPAXI@Z 12036810 f i DGXMLScanner.obj
 0001:00035810       ??_G?$NameIdPoolEnumerator@VDTDElementDecl@xercesc_2_2@@@xercesc_2_2@@UAEPAXI@Z 12036810 f i DGXMLScanner.obj
 0001:00035830       ??1?$NameIdPoolEnumerator@VDTDElementDecl@xercesc_2_2@@@xercesc_2_2@@UAE@XZ 12036830 f i DGXMLScanner.obj
 0001:00035840       ??_E?$XMLEnumerator@VDTDElementDecl@xercesc_2_2@@@xercesc_2_2@@UAEPAXI@Z 12036840 f i DGXMLScanner.obj
 0001:00035840       ??_G?$XMLEnumerator@VDTDElementDecl@xercesc_2_2@@@xercesc_2_2@@UAEPAXI@Z 12036840 f i DGXMLScanner.obj
 0001:00035860       ??_E?$NameIdPoolEnumerator@VDTDEntityDecl@xercesc_2_2@@@xercesc_2_2@@UAEPAXI@Z 12036860 f i DGXMLScanner.obj
 0001:00035860       ??_G?$NameIdPoolEnumerator@VDTDEntityDecl@xercesc_2_2@@@xercesc_2_2@@UAEPAXI@Z 12036860 f i DGXMLScanner.obj
 0001:00035880       ??1?$NameIdPoolEnumerator@VDTDEntityDecl@xercesc_2_2@@@xercesc_2_2@@UAE@XZ 12036880 f i DGXMLScanner.obj
 0001:00035890       ??_E?$XMLEnumerator@VDTDEntityDecl@xercesc_2_2@@@xercesc_2_2@@UAEPAXI@Z 12036890 f i DGXMLScanner.obj
 0001:00035890       ??_G?$XMLEnumerator@VDTDEntityDecl@xercesc_2_2@@@xercesc_2_2@@UAEPAXI@Z 12036890 f i DGXMLScanner.obj
 0001:000358b0       ??_E?$NameIdPoolEnumerator@VXMLNotationDecl@xercesc_2_2@@@xercesc_2_2@@UAEPAXI@Z 120368b0 f i DGXMLScanner.obj
 0001:000358b0       ??_G?$NameIdPoolEnumerator@VXMLNotationDecl@xercesc_2_2@@@xercesc_2_2@@UAEPAXI@Z 120368b0 f i DGXMLScanner.obj
 0001:000358d0       ??1?$NameIdPoolEnumerator@VXMLNotationDecl@xercesc_2_2@@@xercesc_2_2@@UAE@XZ 120368d0 f i DGXMLScanner.obj
 0001:000358e0       ??_E?$XMLEnumerator@VXMLNotationDecl@xercesc_2_2@@@xercesc_2_2@@UAEPAXI@Z 120368e0 f i DGXMLScanner.obj
 0001:000358e0       ??_G?$XMLEnumerator@VXMLNotationDecl@xercesc_2_2@@@xercesc_2_2@@UAEPAXI@Z 120368e0 f i DGXMLScanner.obj
 0001:00035900       ?findBucketElem@?$NameIdPool@VDTDEntityDecl@xercesc_2_2@@@xercesc_2_2@@AAEPAU?$NameIdPoolBucketElem@VDTDEntityDecl@xercesc_2_2@@@2@QBGAAI@Z 12036900 f i DGXMLScanner.obj
 0001:000359b0       ??0ElemStack@xercesc_2_2@@QAE@XZ 120369b0 f   ElemStack.obj
 0001:00035a40       ??1ElemStack@xercesc_2_2@@QAE@XZ 12036a40 f   ElemStack.obj
 0001:00035ae0       ?addLevel@ElemStack@xercesc_2_2@@QAEIXZ 12036ae0 f   ElemStack.obj
 0001:00035c50       ?addLevel@ElemStack@xercesc_2_2@@QAEIQAVXMLElementDecl@2@I@Z 12036c50 f   ElemStack.obj
 0001:00035dc0       ?popTop@ElemStack@xercesc_2_2@@QAEPBUStackElem@12@XZ 12036dc0 f   ElemStack.obj
 0001:00035e00       ?setElement@ElemStack@xercesc_2_2@@QAEXQAVXMLElementDecl@2@I@Z 12036e00 f   ElemStack.obj
 0001:00035e60       ?addChild@ElemStack@xercesc_2_2@@QAEIQAVQName@2@_N@Z 12036e60 f   ElemStack.obj
 0001:00035f70       ?topElement@ElemStack@xercesc_2_2@@QBEPBUStackElem@12@XZ 12036f70 f   ElemStack.obj
 0001:00035fb0       ?addPrefix@ElemStack@xercesc_2_2@@QAEXQBGI@Z 12036fb0 f   ElemStack.obj
 0001:000360e0       ?mapPrefixToURI@ElemStack@xercesc_2_2@@QBEIQBGW4MapModes@12@AA_N@Z 120370e0 f   ElemStack.obj
 0001:000361d0       ?reset@ElemStack@xercesc_2_2@@QAEXIIII@Z 120371d0 f   ElemStack.obj
 0001:00036240       ?expandMap@ElemStack@xercesc_2_2@@AAEXQAUStackElem@12@@Z 12037240 f   ElemStack.obj
 0001:000362d0       ?expandStack@ElemStack@xercesc_2_2@@AAEXXZ 120372d0 f   ElemStack.obj
 0001:00036370       ??0WFElemStack@xercesc_2_2@@QAE@XZ 12037370 f   ElemStack.obj
 0001:00036410       ??1WFElemStack@xercesc_2_2@@QAE@XZ 12037410 f   ElemStack.obj
 0001:000364b0       ?addLevel@WFElemStack@xercesc_2_2@@QAEIXZ 120374b0 f   ElemStack.obj
 0001:000365e0       ?addLevel@WFElemStack@xercesc_2_2@@QAEIQBGII@Z 120375e0 f   ElemStack.obj
 0001:00036780       ?popTop@WFElemStack@xercesc_2_2@@QAEPBUStackElem@12@XZ 12037780 f   ElemStack.obj
 0001:000367c0       ?setElement@WFElemStack@xercesc_2_2@@QAEXQBGII@Z 120377c0 f   ElemStack.obj
 0001:00036880       ?topElement@WFElemStack@xercesc_2_2@@QBEPBUStackElem@12@XZ 12037880 f   ElemStack.obj
 0001:000368c0       ?addPrefix@WFElemStack@xercesc_2_2@@QAEXQBGI@Z 120378c0 f   ElemStack.obj
 0001:00036a00       ?mapPrefixToURI@WFElemStack@xercesc_2_2@@QBEIQBGW4MapModes@12@AA_N@Z 12037a00 f   ElemStack.obj
 0001:00036aa0       ?reset@WFElemStack@xercesc_2_2@@QAEXIIII@Z 12037aa0 f   ElemStack.obj
 0001:00036b10       ?expandMap@WFElemStack@xercesc_2_2@@AAEXXZ 12037b10 f   ElemStack.obj
 0001:00036bc0       ?expandStack@WFElemStack@xercesc_2_2@@AAEXXZ 12037bc0 f   ElemStack.obj
 0001:00036c60       ??0DatatypeValidator@xercesc_2_2@@QAE@ABV01@@Z 12037c60 f i IGXMLScanner.obj
 0001:00036cc0       ??_EDatatypeValidator@xercesc_2_2@@UAEPAXI@Z 12037cc0 f i IGXMLScanner.obj
 0001:00036d20       ?cleanUp@DatatypeValidator@xercesc_2_2@@AAEXXZ 12037d20 f i IGXMLScanner.obj
 0001:00036e00       ?compare@DatatypeValidator@xercesc_2_2@@UAEHQBG0@Z 12037e00 f i IGXMLScanner.obj
 0001:00036e20       ?isSubstitutableBy@DatatypeValidator@xercesc_2_2@@UAE_NQBV12@@Z 12037e20 f i IGXMLScanner.obj
 0001:00036e40       ?setFacetsDefined@DatatypeValidator@xercesc_2_2@@IAEXH@Z 12037e40 f i IGXMLScanner.obj
 0001:00036e50       ?setFixed@DatatypeValidator@xercesc_2_2@@IAEXH@Z 12037e50 f i IGXMLScanner.obj
 0001:00036e60       ?setPattern@DatatypeValidator@xercesc_2_2@@IAEXPBG@Z 12037e60 f i IGXMLScanner.obj
 0001:00036ed0       ?getTypeLocalName@DatatypeValidator@xercesc_2_2@@QBEPBGXZ 12037ed0 f i IGXMLScanner.obj
 0001:00036f50       ?getTypeUri@DatatypeValidator@xercesc_2_2@@QBEPBGXZ 12037f50 f i IGXMLScanner.obj
 0001:00036fa0       ?setTypeName@DatatypeValidator@xercesc_2_2@@QAEXQBG0@Z 12037fa0 f i IGXMLScanner.obj
 0001:00037180       ?setTypeName@DatatypeValidator@xercesc_2_2@@QAEXQBG@Z 12038180 f i IGXMLScanner.obj
 0001:00037320       ?setAnonymous@DatatypeValidator@xercesc_2_2@@QAEXXZ 12038320 f i IGXMLScanner.obj
 0001:00037330       ?getAnonymous@DatatypeValidator@xercesc_2_2@@QBE_NXZ 12038330 f i IGXMLScanner.obj
 0001:00037340       ??0UnionDatatypeValidator@xercesc_2_2@@QAE@ABV01@@Z 12038340 f i IGXMLScanner.obj
 0001:000373c0       ??4UnionDatatypeValidator@xercesc_2_2@@QAEAAV01@ABV01@@Z 120383c0 f i IGXMLScanner.obj
 0001:00037430       ??_EUnionDatatypeValidator@xercesc_2_2@@UAEPAXI@Z 12038430 f i IGXMLScanner.obj
 0001:00037490       ?newInstance@UnionDatatypeValidator@xercesc_2_2@@UAEPAVDatatypeValidator@2@QAV?$RefHashTableOf@VKVStringPair@xercesc_2_2@@@2@QAV?$RefArrayVectorOf@G@2@H@Z 12038490 f i IGXMLScanner.obj
 0001:00037500       ?validate@UnionDatatypeValidator@xercesc_2_2@@UAEXQBG@Z 12038500 f i IGXMLScanner.obj
 0001:00037510       ?cleanUp@UnionDatatypeValidator@xercesc_2_2@@AAEXXZ 12038510 f i IGXMLScanner.obj
 0001:00037540       ?setEnumeration@UnionDatatypeValidator@xercesc_2_2@@AAEXPAV?$RefArrayVectorOf@G@2@_N@Z 12038540 f i IGXMLScanner.obj
 0001:00037580       ?getMemberTypeValidators@UnionDatatypeValidator@xercesc_2_2@@QBEPAV?$RefVectorOf@VDatatypeValidator@xercesc_2_2@@@2@XZ 12038580 f i IGXMLScanner.obj
 0001:000375a0       ?isAtomic@UnionDatatypeValidator@xercesc_2_2@@UBE_NXZ 120385a0 f i IGXMLScanner.obj
 0001:00037620       ?isSubstitutableBy@UnionDatatypeValidator@xercesc_2_2@@UAE_NQBVDatatypeValidator@2@@Z 12038620 f i IGXMLScanner.obj
 0001:000376a0       ?getMemberTypeName@UnionDatatypeValidator@xercesc_2_2@@QBEPBGXZ 120386a0 f i IGXMLScanner.obj
 0001:00037730       ?getMemberTypeUri@UnionDatatypeValidator@xercesc_2_2@@QBEPBGXZ 12038730 f i IGXMLScanner.obj
 0001:00037780       ?getMemberTypeAnonymous@UnionDatatypeValidator@xercesc_2_2@@QBE_NXZ 12038780 f i IGXMLScanner.obj
 0001:00037790       ?reset@UnionDatatypeValidator@xercesc_2_2@@QAEXXZ 12038790 f i IGXMLScanner.obj
 0001:000377a0       ?getTypeName@SchemaAttDef@xercesc_2_2@@QBEPBGXZ 120387a0 f i IGXMLScanner.obj
 0001:000378b0       ?getTypeUri@SchemaAttDef@xercesc_2_2@@QBEPBGXZ 120388b0 f i IGXMLScanner.obj
 0001:00037910       ?getMemberTypeName@SchemaAttDef@xercesc_2_2@@QBEPBGXZ 12038910 f i IGXMLScanner.obj
 0001:000379a0       ?getMemberTypeUri@SchemaAttDef@xercesc_2_2@@QBEPBGXZ 120389a0 f i IGXMLScanner.obj
 0001:000379f0       ?getDOMTypeInfoName@SchemaAttDef@xercesc_2_2@@UBEPBGXZ 120389f0 f i IGXMLScanner.obj
 0001:00037bc0       ?getDOMTypeInfoUri@SchemaAttDef@xercesc_2_2@@UBEPBGXZ 12038bc0 f i IGXMLScanner.obj
 0001:00037ca0       ?getTypeAnonymous@SchemaAttDef@xercesc_2_2@@QBE_NXZ 12038ca0 f i IGXMLScanner.obj
 0001:00037cc0       ?getMemberTypeAnonymous@SchemaAttDef@xercesc_2_2@@QBE_NXZ 12038cc0 f i IGXMLScanner.obj
 0001:00037cd0       ?isTypeDefinitionUnion@SchemaAttDef@xercesc_2_2@@QBE_NXZ 12038cd0 f i IGXMLScanner.obj
 0001:00037d00       ?resetNamespaceList@SchemaAttDef@xercesc_2_2@@QAEXXZ 12038d00 f i IGXMLScanner.obj
 0001:00037d20       ?setNamespaceList@SchemaAttDef@xercesc_2_2@@QAEXQBV?$ValueVectorOf@I@2@@Z 12038d20 f i IGXMLScanner.obj
 0001:00037e70       ?reset@SchemaAttDef@xercesc_2_2@@UAEXXZ 12038e70 f i IGXMLScanner.obj
 0001:00037eb0       ?getProcessed@SchemaInfo@xercesc_2_2@@QBE_NXZ 12038eb0 f i IGXMLScanner.obj
 0001:00037eb0       ?getAdoptContentSpec@ComplexTypeInfo@xercesc_2_2@@QBE_NXZ 12038eb0 f i IGXMLScanner.obj
 0001:00037ec0       ?containsAttWithTypeId@ComplexTypeInfo@xercesc_2_2@@QBE_NXZ 12038ec0 f i IGXMLScanner.obj
 0001:00037ed0       ?getPreprocessed@ComplexTypeInfo@xercesc_2_2@@QBE_NXZ 12038ed0 f i IGXMLScanner.obj
 0001:00037ee0       ?getValidSubstitutionGroups@SchemaGrammar@xercesc_2_2@@QBEPAV?$RefHash2KeysTableOf@V?$ValueVectorOf@PAVSchemaElementDecl@xercesc_2_2@@@xercesc_2_2@@@2@XZ 12038ee0 f i IGXMLScanner.obj
 0001:00037ee0       ?getScanner@DOMParser@xercesc_2_2@@QBEABVXMLScanner@2@XZ 12038ee0 f i IGXMLScanner.obj
 0001:00037ee0       ?getBaseComplexTypeInfo@ComplexTypeInfo@xercesc_2_2@@QBEPAV12@XZ 12038ee0 f i IGXMLScanner.obj
 0001:00037ef0       ?getAttDef@ComplexTypeInfo@xercesc_2_2@@QAEPAVSchemaAttDef@2@QBGH@Z 12038ef0 f i IGXMLScanner.obj
 0001:00037ef0       ?getAttDef@ComplexTypeInfo@xercesc_2_2@@QBEPBVSchemaAttDef@2@QBGH@Z 12038ef0 f i IGXMLScanner.obj
 0001:00037fa0       ?elementAt@ComplexTypeInfo@xercesc_2_2@@QBEPBVSchemaElementDecl@2@I@Z 12038fa0 f i IGXMLScanner.obj
 0001:00037fa0       ?elementAt@ComplexTypeInfo@xercesc_2_2@@QAEPAVSchemaElementDecl@2@I@Z 12038fa0 f i IGXMLScanner.obj
 0001:00037ff0       ?getContentModel@ComplexTypeInfo@xercesc_2_2@@QAEPAVXMLContentModel@2@_N@Z 12038ff0 f i IGXMLScanner.obj
 0001:00038010       ?getLexicalHandler@SAX2XMLReaderImpl@xercesc_2_2@@UBEPAVLexicalHandler@2@XZ 12039010 f i IGXMLScanner.obj
 0001:00038010       ?getLocator@ComplexTypeInfo@xercesc_2_2@@QBEPAVXSDLocator@2@XZ 12039010 f i IGXMLScanner.obj
 0001:00038020       ?getAnonymous@ComplexTypeInfo@xercesc_2_2@@QBE_NXZ 12039020 f i IGXMLScanner.obj
 0001:00038030       ?getTypeLocalName@ComplexTypeInfo@xercesc_2_2@@QBEPBGXZ 12039030 f i IGXMLScanner.obj
 0001:000380b0       ?getTypeUri@ComplexTypeInfo@xercesc_2_2@@QBEPBGXZ 120390b0 f i IGXMLScanner.obj
 0001:00038100       ?setAttWithTypeId@ComplexTypeInfo@xercesc_2_2@@QAEX_N@Z 12039100 f i IGXMLScanner.obj
 0001:00038110       ?setPreprocessed@ComplexTypeInfo@xercesc_2_2@@QAEX_N@Z 12039110 f i IGXMLScanner.obj
 0001:00038120       ?setTypeName@ComplexTypeInfo@xercesc_2_2@@QAEXQBG@Z 12039120 f i IGXMLScanner.obj
 0001:000381a0       ?addElement@ComplexTypeInfo@xercesc_2_2@@QAEXQAVSchemaElementDecl@2@@Z 120391a0 f i IGXMLScanner.obj
 0001:000382e0       ?setAttWildCard@ComplexTypeInfo@xercesc_2_2@@QAEXQAVSchemaAttDef@2@@Z 120392e0 f i IGXMLScanner.obj
 0001:00038310       ?setContentModel@ComplexTypeInfo@xercesc_2_2@@QAEXQAVXMLContentModel@2@@Z 12039310 f i IGXMLScanner.obj
 0001:00038340       ?setAnonymous@ComplexTypeInfo@xercesc_2_2@@QAEXXZ 12039340 f i IGXMLScanner.obj
 0001:00038350       ?hasAttDefs@ComplexTypeInfo@xercesc_2_2@@QBE_NXZ 12039350 f i IGXMLScanner.obj
 0001:00038390       ?contains@ComplexTypeInfo@xercesc_2_2@@QAE_NQBG@Z 12039390 f i IGXMLScanner.obj
 0001:00038590       ??0XPathMatcher@xercesc_2_2@@QAE@ABV01@@Z 12039590 f i IGXMLScanner.obj
 0001:000385d0       ??4XPathMatcher@xercesc_2_2@@QAEAAV01@ABV01@@Z 120395d0 f i IGXMLScanner.obj
 0001:00038610       ??_EXPathMatcher@xercesc_2_2@@UAEPAXI@Z 12039610 f i IGXMLScanner.obj
 0001:00038670       ?cleanUp@XPathMatcher@xercesc_2_2@@AAEXXZ 12039670 f i IGXMLScanner.obj
 0001:000386a0       ??1FieldMatcher@xercesc_2_2@@UAE@XZ 120396a0 f i IGXMLScanner.obj
 0001:000386b0       ??_EFieldMatcher@xercesc_2_2@@UAEPAXI@Z 120396b0 f i IGXMLScanner.obj
 0001:00038710       ?getFieldCount@IdentityConstraint@xercesc_2_2@@QBEHXZ 12039710 f i IGXMLScanner.obj
 0001:00038720       ?addField@IdentityConstraint@xercesc_2_2@@QAEXQAVIC_Field@2@@Z 12039720 f i IGXMLScanner.obj
 0001:00038840       ?getFieldAt@IdentityConstraint@xercesc_2_2@@QAEPAVIC_Field@2@I@Z 12039840 f i IGXMLScanner.obj
 0001:00038840       ?getFieldAt@IdentityConstraint@xercesc_2_2@@QBEPBVIC_Field@2@I@Z 12039840 f i IGXMLScanner.obj
 0001:00038890       ?getContentSpec@SchemaElementDecl@xercesc_2_2@@UAEPAVContentSpecNode@2@XZ 12039890 f i IGXMLScanner.obj
 0001:00038890       ?getContentSpec@SchemaElementDecl@xercesc_2_2@@UBEPBVContentSpecNode@2@XZ 12039890 f i IGXMLScanner.obj
 0001:000388b0       ?getContentModel@SchemaElementDecl@xercesc_2_2@@UAEPAVXMLContentModel@2@XZ 120398b0 f i IGXMLScanner.obj
 0001:000388e0       ?getModelType@SchemaElementDecl@xercesc_2_2@@QBE?AW4ModelTypes@12@XZ 120398e0 f i IGXMLScanner.obj
 0001:00038900       ?getDatatypeValidator@SchemaElementDecl@xercesc_2_2@@QBEPAVDatatypeValidator@2@XZ 12039900 f i IGXMLScanner.obj
 0001:00038910       ?getComplexTypeInfo@SchemaElementDecl@xercesc_2_2@@QBEPAVComplexTypeInfo@2@XZ 12039910 f i IGXMLScanner.obj
 0001:00038920       ?getAttWildCard@SchemaElementDecl@xercesc_2_2@@QBEPBVSchemaAttDef@2@XZ 12039920 f i IGXMLScanner.obj
 0001:00038920       ?getAttWildCard@SchemaElementDecl@xercesc_2_2@@QAEPAVSchemaAttDef@2@XZ 12039920 f i IGXMLScanner.obj
 0001:00038940       ?isGlobalDecl@SchemaElementDecl@xercesc_2_2@@UBE_NXZ 12039940 f i IGXMLScanner.obj
 0001:00038950       ?getTypeName@SchemaElementDecl@xercesc_2_2@@QBEPBGXZ 12039950 f i IGXMLScanner.obj
 0001:00038b80       ?getTypeType@SchemaElementDecl@xercesc_2_2@@QBE?AW4Complexity@PSVIDefs@2@XZ 12039b80 f i IGXMLScanner.obj
 0001:00038bc0       ?getTypeUri@SchemaElementDecl@xercesc_2_2@@QBEPBGXZ 12039bc0 f i IGXMLScanner.obj
 0001:00038c90       ?getMemberTypeName@SchemaElementDecl@xercesc_2_2@@QBEPBGXZ 12039c90 f i IGXMLScanner.obj
 0001:00038dc0       ?getMemberTypeUri@SchemaElementDecl@xercesc_2_2@@QBEPBGXZ 12039dc0 f i IGXMLScanner.obj
 0001:00038e30       ?getMemberTypeAnonymous@SchemaElementDecl@xercesc_2_2@@QBE_NXZ 12039e30 f i IGXMLScanner.obj
 0001:00038e70       ?isTypeDefinitionUnion@SchemaElementDecl@xercesc_2_2@@QBE_NXZ 12039e70 f i IGXMLScanner.obj
 0001:00038ea0       ?getValidationAttempted@SchemaElementDecl@xercesc_2_2@@QBE?AW4Validation@PSVIDefs@2@XZ 12039ea0 f i IGXMLScanner.obj
 0001:00038ee0       ?getTypeAnonymous@SchemaElementDecl@xercesc_2_2@@QBE_NXZ 12039ee0 f i IGXMLScanner.obj
 0001:00038f10       ?getDOMTypeInfoName@SchemaElementDecl@xercesc_2_2@@UBEPBGXZ 12039f10 f i IGXMLScanner.obj
 0001:000390f0       ?getDOMTypeInfoUri@SchemaElementDecl@xercesc_2_2@@UBEPBGXZ 1203a0f0 f i IGXMLScanner.obj
 0001:00039290       ?setCurrentNode@AbstractDOMParser@xercesc_2_2@@IAEXPAVDOMNode@2@@Z 1203a290 f i IGXMLScanner.obj
 0001:00039290       ?setBaseDatatypeValidator@ComplexTypeInfo@xercesc_2_2@@QAEXQAVDatatypeValidator@2@@Z 1203a290 f i IGXMLScanner.obj
 0001:00039290       ?setMiscFlags@SchemaElementDecl@xercesc_2_2@@QAEXH@Z 1203a290 f i IGXMLScanner.obj
 0001:000392a0       ?setDefaultValue@SchemaElementDecl@xercesc_2_2@@QAEXQBG@Z 1203a2a0 f i IGXMLScanner.obj
 0001:00039320       ?setAttWildCard@SchemaElementDecl@xercesc_2_2@@QAEXQAVSchemaAttDef@2@@Z 1203a320 f i IGXMLScanner.obj
 0001:00039350       ?setSubstitutionGroupElem@SchemaElementDecl@xercesc_2_2@@QAEXQAV12@@Z 1203a350 f i IGXMLScanner.obj
 0001:00039350       ?setContent@ListDatatypeValidator@xercesc_2_2@@AAEXQBG@Z 1203a350 f i IGXMLScanner.obj
 0001:00039360       ?setIDRefList@GeneralAttributeCheck@xercesc_2_2@@QAEXQAV?$RefHashTableOf@VXMLRefInfo@xercesc_2_2@@@2@@Z 1203a360 f i IGXMLScanner.obj
 0001:00039360       ?setErrorHandler@XMLScanner@xercesc_2_2@@QAEXQAVErrorHandler@2@@Z 1203a360 f i IGXMLScanner.obj
 0001:00039360       ?setValidationAttempted@SchemaElementDecl@xercesc_2_2@@QAEXW4Validation@PSVIDefs@2@@Z 1203a360 f i IGXMLScanner.obj
 0001:00039370       ?updateValidityFromAttribute@SchemaElementDecl@xercesc_2_2@@QAEXPBVSchemaAttDef@2@@Z 1203a370 f i IGXMLScanner.obj
 0001:000393b0       ?updateValidityFromElement@SchemaElementDecl@xercesc_2_2@@QAEXPBVXMLElementDecl@2@W4GrammarType@Grammar@2@@Z 1203a3b0 f i IGXMLScanner.obj
 0001:00039420       ?reset@SchemaElementDecl@xercesc_2_2@@QAEXXZ 1203a420 f i IGXMLScanner.obj
 0001:00039460       ?addIdentityConstraint@SchemaElementDecl@xercesc_2_2@@QAEXQAVIdentityConstraint@2@@Z 1203a460 f i IGXMLScanner.obj
 0001:00039580       ?getIdentityConstraintCount@SchemaElementDecl@xercesc_2_2@@QBEIXZ 1203a580 f i IGXMLScanner.obj
 0001:00039580       ?elementCount@ComplexTypeInfo@xercesc_2_2@@QBEIXZ 1203a580 f i IGXMLScanner.obj
 0001:00039590       ?getIdentityConstraintAt@SchemaElementDecl@xercesc_2_2@@QBEPAVIdentityConstraint@2@I@Z 1203a590 f i IGXMLScanner.obj
 0001:000395e0       ?getName@IGXMLScanner@xercesc_2_2@@UBEPBGXZ 1203a5e0 f i IGXMLScanner.obj
 0001:000395f0       ??0AbstractStringValidator@xercesc_2_2@@QAE@ABV01@@Z 1203a5f0 f i IGXMLScanner.obj
 0001:00039670       ??_EAbstractStringValidator@xercesc_2_2@@UAEPAXI@Z 1203a670 f i IGXMLScanner.obj
 0001:000396d0       ?getNodeIDMap@DocumentImpl@xercesc_2_2@@QAEPAVNodeIDMap@2@XZ 1203a6d0 f i IGXMLScanner.obj
 0001:000396d0       ?getAttWildCard@ComplexTypeInfo@xercesc_2_2@@QBEPBVSchemaAttDef@2@XZ 1203a6d0 f i IGXMLScanner.obj
 0001:000396d0       ?getMaxLength@AbstractStringValidator@xercesc_2_2@@QBEIXZ 1203a6d0 f i IGXMLScanner.obj
 0001:000396d0       ?getAttWildCard@ComplexTypeInfo@xercesc_2_2@@QAEPAVSchemaAttDef@2@XZ 1203a6d0 f i IGXMLScanner.obj
 0001:000396d0       ?getEnumeration@UnionDatatypeValidator@xercesc_2_2@@ABEPAV?$RefArrayVectorOf@G@2@XZ 1203a6d0 f i IGXMLScanner.obj
 0001:000396d0       ?getRecursingAnonTypes@SchemaInfo@xercesc_2_2@@QBEPAV?$ValueVectorOf@PBVDOMElement@xercesc_2_2@@@2@XZ 1203a6d0 f i IGXMLScanner.obj
 0001:000396d0       ?getNamespaceList@SchemaAttDef@xercesc_2_2@@QBEPAV?$ValueVectorOf@I@2@XZ 1203a6d0 f i IGXMLScanner.obj
 0001:000396e0       ?getEntityResolver@SAXParser@xercesc_2_2@@QBEPBVEntityResolver@2@XZ 1203a6e0 f i IGXMLScanner.obj
 0001:000396e0       ?getEntityResolver@SAXParser@xercesc_2_2@@QAEPAVEntityResolver@2@XZ 1203a6e0 f i IGXMLScanner.obj
 0001:000396e0       ?getMinLength@AbstractStringValidator@xercesc_2_2@@QBEIXZ 1203a6e0 f i IGXMLScanner.obj
 0001:000396e0       ?getRecursingTypeNames@SchemaInfo@xercesc_2_2@@QBEPAV?$ValueVectorOf@PBG@2@XZ 1203a6e0 f i IGXMLScanner.obj
 0001:000396e0       ?getValidity@SchemaAttDef@xercesc_2_2@@QBE?AW4Validity@PSVIDefs@2@XZ 1203a6e0 f i IGXMLScanner.obj
 0001:000396e0       ?getContentHandler@SAX2XMLReaderImpl@xercesc_2_2@@UBEPAVContentHandler@2@XZ 1203a6e0 f i IGXMLScanner.obj
 0001:000396e0       ?getMaxInclusive@AbstractNumericFacetValidator@xercesc_2_2@@QBEQAVXMLNumber@2@XZ 1203a6e0 f i IGXMLScanner.obj
 0001:000396f0       ?getEnumeration@AbstractStringValidator@xercesc_2_2@@QBEPAV?$RefArrayVectorOf@G@2@XZ 1203a6f0 f i IGXMLScanner.obj
 0001:000396f0       ?getMinInclusive@AbstractNumericFacetValidator@xercesc_2_2@@QBEQAVXMLNumber@2@XZ 1203a6f0 f i IGXMLScanner.obj
 0001:000396f0       ?getColumnNo@XSDElementNSImpl@xercesc_2_2@@QBEJXZ 1203a6f0 f i IGXMLScanner.obj
 0001:000396f0       ?getDocTypeHandler@XMLScanner@xercesc_2_2@@QBEPBVDocTypeHandler@2@XZ 1203a6f0 f i IGXMLScanner.obj
 0001:000396f0       ?getDocTypeHandler@XMLScanner@xercesc_2_2@@QAEPAVDocTypeHandler@2@XZ 1203a6f0 f i IGXMLScanner.obj
 0001:00039700       ?setMembertypeValidator@SchemaAttDef@xercesc_2_2@@QAEXPBVDatatypeValidator@2@@Z 1203a700 f i IGXMLScanner.obj
 0001:00039700       ?setLength@AbstractStringValidator@xercesc_2_2@@IAEXI@Z 1203a700 f i IGXMLScanner.obj
 0001:00039710       ?setMaxLength@AbstractStringValidator@xercesc_2_2@@IAEXI@Z 1203a710 f i IGXMLScanner.obj
 0001:00039710       ?setXsiComplexTypeInfo@SchemaElementDecl@xercesc_2_2@@QAEXQAVComplexTypeInfo@2@@Z 1203a710 f i IGXMLScanner.obj
 0001:00039720       ?setXsiSimpleTypeInfo@SchemaElementDecl@xercesc_2_2@@QAEXQBVDatatypeValidator@2@@Z 1203a720 f i IGXMLScanner.obj
 0001:00039720       ?setValidity@SchemaAttDef@xercesc_2_2@@QAEXW4Validity@PSVIDefs@2@@Z 1203a720 f i IGXMLScanner.obj
 0001:00039720       ?setMinLength@AbstractStringValidator@xercesc_2_2@@IAEXI@Z 1203a720 f i IGXMLScanner.obj
 0001:00039730       ?setEnumeration@AbstractStringValidator@xercesc_2_2@@IAEXPAV?$RefArrayVectorOf@G@2@_N@Z 1203a730 f i IGXMLScanner.obj
 0001:00039770       ??0StringDatatypeValidator@xercesc_2_2@@QAE@ABV01@@Z 1203a770 f i IGXMLScanner.obj
 0001:00039800       ??_EStringDatatypeValidator@xercesc_2_2@@UAEPAXI@Z 1203a800 f i IGXMLScanner.obj
 0001:00039860       ?setWhiteSpace@StringDatatypeValidator@xercesc_2_2@@AAEXF@Z 1203a860 f i IGXMLScanner.obj
 0001:00039870       ??0IDDatatypeValidator@xercesc_2_2@@QAE@ABV01@@Z 1203a870 f i IGXMLScanner.obj
 0001:00039910       ??_EIDDatatypeValidator@xercesc_2_2@@UAEPAXI@Z 1203a910 f i IGXMLScanner.obj
 0001:00039970       ?setIDRefList@IDREFDatatypeValidator@xercesc_2_2@@QAEXPAV?$RefHashTableOf@VXMLRefInfo@xercesc_2_2@@@2@@Z 1203a970 f i IGXMLScanner.obj
 0001:00039970       ?setValidity@SchemaElementDecl@xercesc_2_2@@QAEXW4Validity@PSVIDefs@2@@Z 1203a970 f i IGXMLScanner.obj
 0001:00039970       ?setIDRefList@IDDatatypeValidator@xercesc_2_2@@QAEXPAV?$RefHashTableOf@VXMLRefInfo@xercesc_2_2@@@2@@Z 1203a970 f i IGXMLScanner.obj
 0001:00039970       ?setErrorReporter@XMLScanner@xercesc_2_2@@QAEXQAVXMLErrorReporter@2@@Z 1203a970 f i IGXMLScanner.obj
 0001:00039970       ?setEntityDeclPool@ENTITYDatatypeValidator@xercesc_2_2@@QAEXQAV?$NameIdPool@VDTDEntityDecl@xercesc_2_2@@@2@@Z 1203a970 f i IGXMLScanner.obj
 0001:00039980       ??4EncodingValidator@xercesc_2_2@@QAEAAV01@ABV01@@Z 1203a980 f i IGXMLScanner.obj
 0001:00039980       ??4XMLInteger@xercesc_2_2@@QAEAAV01@ABV01@@Z 1203a980 f i IGXMLScanner.obj
 0001:00039980       ??4DatatypeValidatorFactory@xercesc_2_2@@QAEAAV01@ABV01@@Z 1203a980 f i IGXMLScanner.obj
 0001:00039990       ?getDatatypeValidator@DatatypeValidatorFactory@xercesc_2_2@@QBEPAVDatatypeValidator@2@QBG@Z 1203a990 f i IGXMLScanner.obj
 0001:00039b70       ?getSign@XMLBigInteger@xercesc_2_2@@QBEHXZ 1203ab70 f i IGXMLScanner.obj
 0001:00039b70       ?getPrefix@QName@xercesc_2_2@@QBEPBGXZ 1203ab70 f i IGXMLScanner.obj
 0001:00039b70       ?getEntity@EndOfEntityException@xercesc_2_2@@QBEABVXMLEntityDecl@2@XZ 1203ab70 f i IGXMLScanner.obj
 0001:00039b70       ?intValue@XMLInteger@xercesc_2_2@@QBEHXZ 1203ab70 f i IGXMLScanner.obj
 0001:00039b70       ?getUserDefinedRegistry@DatatypeValidatorFactory@xercesc_2_2@@QBEPAV?$RefHashTableOf@VDatatypeValidator@xercesc_2_2@@@2@XZ 1203ab70 f i IGXMLScanner.obj
 0001:00039b70       ?getMatcherCount@XPathMatcherStack@xercesc_2_2@@QBEIXZ 1203ab70 f i IGXMLScanner.obj
 0001:00039b70       ?getXPath@IC_Selector@xercesc_2_2@@QBEPAVXercesXPath@2@XZ 1203ab70 f i IGXMLScanner.obj
 0001:00039b70       ?getPrefix@QName@xercesc_2_2@@QAEPAGXZ 1203ab70 f i IGXMLScanner.obj
 0001:00039b70       ?getCategoryId@RangeTokenElemMap@xercesc_2_2@@QBEIXZ 1203ab70 f i IGXMLScanner.obj
 0001:00039b70       ?getEntity@EndOfEntityException@xercesc_2_2@@QAEAAVXMLEntityDecl@2@XZ 1203ab70 f i IGXMLScanner.obj
 0001:00039b70       ?getId@XMLNotationDecl@xercesc_2_2@@QBEIXZ 1203ab70 f i IGXMLScanner.obj
 0001:00039b80       ?getBuiltInRegistry@DatatypeValidatorFactory@xercesc_2_2@@QBEPAV?$RefHashTableOf@VDatatypeValidator@xercesc_2_2@@@2@XZ 1203ab80 f i IGXMLScanner.obj
 0001:00039b90       ?cleanUp@DatatypeValidatorFactory@xercesc_2_2@@AAEXXZ 1203ab90 f i IGXMLScanner.obj
 0001:00039c20       ??0SchemaGrammar@xercesc_2_2@@QAE@ABV01@@Z 1203ac20 f i IGXMLScanner.obj
 0001:00039c90       ??4SchemaGrammar@xercesc_2_2@@QAEAAV01@ABV01@@Z 1203ac90 f i IGXMLScanner.obj
 0001:00039cf0       ??_ESchemaGrammar@xercesc_2_2@@UAEPAXI@Z 1203acf0 f i IGXMLScanner.obj
 0001:00039d50       ?getElemEnumerator@SchemaGrammar@xercesc_2_2@@QBE?AV?$RefHash3KeysIdPoolEnumerator@VSchemaElementDecl@xercesc_2_2@@@2@XZ 1203ad50 f i IGXMLScanner.obj
 0001:00039df0       ?getValue@XMLAttDef@xercesc_2_2@@QBEPBGXZ 1203adf0 f i IGXMLScanner.obj
 0001:00039df0       ?getCurrentSchemaURL@SchemaInfo@xercesc_2_2@@QBEPAGXZ 1203adf0 f i IGXMLScanner.obj
 0001:00039df0       ?getQueryString@XMLUri@xercesc_2_2@@QBEPBGXZ 1203adf0 f i IGXMLScanner.obj
 0001:00039df0       ?getContentType@ComplexTypeInfo@xercesc_2_2@@QBEHXZ 1203adf0 f i IGXMLScanner.obj
 0001:00039df0       ?getFacets@DatatypeValidator@xercesc_2_2@@QBEPAV?$RefHashTableOf@VKVStringPair@xercesc_2_2@@@2@XZ 1203adf0 f i IGXMLScanner.obj
 0001:00039df0       ?getURI@QName@xercesc_2_2@@QBEIXZ 1203adf0 f i IGXMLScanner.obj
 0001:00039df0       ?getAttributeDeclRegistry@SchemaGrammar@xercesc_2_2@@QBEPAV?$RefHashTableOf@VXMLAttDef@xercesc_2_2@@@2@XZ 1203adf0 f i IGXMLScanner.obj
 0001:00039df0       ?getProtocol@XMLURL@xercesc_2_2@@QBE?AW4Protocols@12@XZ 1203adf0 f i IGXMLScanner.obj
 0001:00039df0       ?getValue@XMLEntityDecl@xercesc_2_2@@QBEPBGXZ 1203adf0 f i IGXMLScanner.obj
 0001:00039df0       ?getEmptyNamespaceId@XMLScanner@xercesc_2_2@@QBEIXZ 1203adf0 f i IGXMLScanner.obj
 0001:00039e00       ?getFragment@XMLUri@xercesc_2_2@@QBEPBGXZ 1203ae00 f i IGXMLScanner.obj
 0001:00039e00       ?getComplexTypeRegistry@SchemaGrammar@xercesc_2_2@@QBEPAV?$RefHashTableOf@VComplexTypeInfo@xercesc_2_2@@@2@XZ 1203ae00 f i IGXMLScanner.obj
 0001:00039e00       ?getIdentityConstraint@XPathMatcher@xercesc_2_2@@QBEPAVIdentityConstraint@2@XZ 1203ae00 f i IGXMLScanner.obj
 0001:00039e00       ?getUnknownNamespaceId@XMLScanner@xercesc_2_2@@QBEIXZ 1203ae00 f i IGXMLScanner.obj
 0001:00039e00       ?getQuery@XMLURL@xercesc_2_2@@QBEPBGXZ 1203ae00 f i IGXMLScanner.obj
 0001:00039e00       ?getTargetNSURIString@SchemaInfo@xercesc_2_2@@QBEQBGXZ 1203ae00 f i IGXMLScanner.obj
 0001:00039e00       ?getString@Context@RegularExpression@xercesc_2_2@@QBEPBGXZ 1203ae00 f i IGXMLScanner.obj
 0001:00039e00       ?getContentSpec@DTDElementDecl@xercesc_2_2@@UAEPAVContentSpecNode@2@XZ 1203ae00 f i IGXMLScanner.obj
 0001:00039e00       ?getEnclosingScope@SchemaElementDecl@xercesc_2_2@@QBEHXZ 1203ae00 f i IGXMLScanner.obj
 0001:00039e00       ?getValueLen@XMLEntityDecl@xercesc_2_2@@QBEIXZ 1203ae00 f i IGXMLScanner.obj
 0001:00039e00       ?getContentSpec@DTDElementDecl@xercesc_2_2@@UBEPBVContentSpecNode@2@XZ 1203ae00 f i IGXMLScanner.obj
 0001:00039e00       ?getPattern@DatatypeValidator@xercesc_2_2@@IBEPBGXZ 1203ae00 f i IGXMLScanner.obj
 0001:00039e00       ?getTypeName@ComplexTypeInfo@xercesc_2_2@@QBEPAGXZ 1203ae00 f i IGXMLScanner.obj
 0001:00039e00       ?getCreateReason@XMLAttDef@xercesc_2_2@@QBE?AW4CreateReasons@12@XZ 1203ae00 f i IGXMLScanner.obj
 0001:00039e10       ?getValueStore@FieldMatcher@xercesc_2_2@@QBEPAVValueStore@2@XZ 1203ae10 f i IGXMLScanner.obj
 0001:00039e10       ?getFinalSet@SchemaElementDecl@xercesc_2_2@@QBEHXZ 1203ae10 f i IGXMLScanner.obj
 0001:00039e10       ?getBaseURI@XMLEntityDecl@xercesc_2_2@@QBEPBGXZ 1203ae10 f i IGXMLScanner.obj
 0001:00039e10       ?getUser@XMLURL@xercesc_2_2@@QBEPBGXZ 1203ae10 f i IGXMLScanner.obj
 0001:00039e10       ?getCharData@RegxParser@xercesc_2_2@@QBEHXZ 1203ae10 f i IGXMLScanner.obj
 0001:00039e10       ?getGroupInfoRegistry@SchemaGrammar@xercesc_2_2@@QBEPAV?$RefHashTableOf@VXercesGroupInfo@xercesc_2_2@@@2@XZ 1203ae10 f i IGXMLScanner.obj
 0001:00039e10       ?getXMLNamespaceId@XMLScanner@xercesc_2_2@@QBEIXZ 1203ae10 f i IGXMLScanner.obj
 0001:00039e10       ?getInitialDepth@SelectorMatcher@xercesc_2_2@@UBEHXZ 1203ae10 f i IGXMLScanner.obj
 0001:00039e10       ?getScanner@AbstractDOMParser@xercesc_2_2@@IBEPAVXMLScanner@2@XZ 1203ae10 f i IGXMLScanner.obj
 0001:00039e10       ?getModelType@DTDElementDecl@xercesc_2_2@@QBE?AW4ModelTypes@12@XZ 1203ae10 f i IGXMLScanner.obj
 0001:00039e10       ?getRoot@SchemaInfo@xercesc_2_2@@QBEPBVDOMElement@2@XZ 1203ae10 f i IGXMLScanner.obj
 0001:00039e10       ?getRegex@DatatypeValidator@xercesc_2_2@@IBEPAVRegularExpression@2@XZ 1203ae10 f i IGXMLScanner.obj
 0001:00039e20       ?getXMLNSNamespaceId@XMLScanner@xercesc_2_2@@QBEIXZ 1203ae20 f i IGXMLScanner.obj
 0001:00039e20       ?getElemId@SchemaAttDef@xercesc_2_2@@QBEIXZ 1203ae20 f i IGXMLScanner.obj
 0001:00039e20       ?getEntityResolver@DOMParser@xercesc_2_2@@QAEPAVEntityResolver@2@XZ 1203ae20 f i IGXMLScanner.obj
 0001:00039e20       ?getNodeIDMap@DOMDocumentImpl@xercesc_2_2@@QAEPAVDOMNodeIDMap@2@XZ 1203ae20 f i IGXMLScanner.obj
 0001:00039e20       ?getBlockSet@SchemaElementDecl@xercesc_2_2@@QBEHXZ 1203ae20 f i IGXMLScanner.obj
 0001:00039e20       ?getElemId@DTDAttDef@xercesc_2_2@@QBEIXZ 1203ae20 f i IGXMLScanner.obj
 0001:00039e20       ?getField@FieldMatcher@xercesc_2_2@@QBEPAVIC_Field@2@XZ 1203ae20 f i IGXMLScanner.obj
 0001:00039e20       ?getEntityResolver@DOMParser@xercesc_2_2@@QBEPBVEntityResolver@2@XZ 1203ae20 f i IGXMLScanner.obj
 0001:00039e20       ?getAttGroupInfoRegistry@SchemaGrammar@xercesc_2_2@@QBEPAV?$RefHashTableOf@VXercesAttGroupInfo@xercesc_2_2@@@2@XZ 1203ae20 f i IGXMLScanner.obj
 0001:00039e30       ?getDatatypeRegistry@SchemaGrammar@xercesc_2_2@@QAEPAVDatatypeValidatorFactory@2@XZ 1203ae30 f i IGXMLScanner.obj
 0001:00039e40       ?getNamespaceScope@SchemaGrammar@xercesc_2_2@@QBEPAVNamespaceScope@2@XZ 1203ae40 f i IGXMLScanner.obj
 0001:00039e40       ?getTokenFactory@RegxParser@xercesc_2_2@@QBEPAVTokenFactory@2@XZ 1203ae40 f i IGXMLScanner.obj
 0001:00039e40       ?getDatatypeValidator@ComplexTypeInfo@xercesc_2_2@@QBEPAVDatatypeValidator@2@XZ 1203ae40 f i IGXMLScanner.obj
 0001:00039e40       ?getDatatypeValidator@SchemaAttDef@xercesc_2_2@@QBEPAVDatatypeValidator@2@XZ 1203ae40 f i IGXMLScanner.obj
 0001:00039e40       ?getDefaultValue@SchemaElementDecl@xercesc_2_2@@QBEPAGXZ 1203ae40 f i IGXMLScanner.obj
 0001:00039e50       ?getDocumentHandler@SAXParser@xercesc_2_2@@QBEPBVDocumentHandler@2@XZ 1203ae50 f i IGXMLScanner.obj
 0001:00039e50       ?getDocumentHandler@SAXParser@xercesc_2_2@@QAEPAVDocumentHandler@2@XZ 1203ae50 f i IGXMLScanner.obj
 0001:00039e50       ?getLength@AbstractStringValidator@xercesc_2_2@@QBEIXZ 1203ae50 f i IGXMLScanner.obj
 0001:00039e50       ?getIDRefList@SchemaGrammar@xercesc_2_2@@QBEPAV?$RefHashTableOf@VXMLRefInfo@xercesc_2_2@@@2@XZ 1203ae50 f i IGXMLScanner.obj
 0001:00039e50       ?getContentSpec@ComplexTypeInfo@xercesc_2_2@@QBEPAVContentSpecNode@2@XZ 1203ae50 f i IGXMLScanner.obj
 0001:00039e60       ?setTargetNamespace@SchemaGrammar@xercesc_2_2@@QAEXQBG@Z 1203ae60 f i IGXMLScanner.obj
 0001:00039ed0       ?setURI@QName@xercesc_2_2@@QAEXI@Z 1203aed0 f i IGXMLScanner.obj
 0001:00039ed0       ?setContentType@ComplexTypeInfo@xercesc_2_2@@QAEXH@Z 1203aed0 f i IGXMLScanner.obj
 0001:00039ed0       ?setDatatypeValidator@SchemaElementDecl@xercesc_2_2@@QAEXPAVDatatypeValidator@2@@Z 1203aed0 f i IGXMLScanner.obj
 0001:00039ed0       ?setAttributeDeclRegistry@SchemaGrammar@xercesc_2_2@@QAEXQAV?$RefHashTableOf@VXMLAttDef@xercesc_2_2@@@2@@Z 1203aed0 f i IGXMLScanner.obj
 0001:00039ed0       ?setGrammarResolver@SchemaValidator@xercesc_2_2@@QAEXPAVGrammarResolver@2@@Z 1203aed0 f i IGXMLScanner.obj
 0001:00039ee0       ?setEnclosingScope@SchemaElementDecl@xercesc_2_2@@QAEXH@Z 1203aee0 f i IGXMLScanner.obj
 0001:00039ee0       ?setCreateReason@XMLAttDef@xercesc_2_2@@QAEXW4CreateReasons@12@@Z 1203aee0 f i IGXMLScanner.obj
 0001:00039ee0       ?setComplexTypeRegistry@SchemaGrammar@xercesc_2_2@@QAEXQAV?$RefHashTableOf@VComplexTypeInfo@xercesc_2_2@@@2@@Z 1203aee0 f i IGXMLScanner.obj
 0001:00039ef0       ?setRegex@DatatypeValidator@xercesc_2_2@@IAEXQAVRegularExpression@2@@Z 1203aef0 f i IGXMLScanner.obj
 0001:00039ef0       ?setFinalSet@SchemaElementDecl@xercesc_2_2@@QAEXH@Z 1203aef0 f i IGXMLScanner.obj
 0001:00039ef0       ?setModelType@DTDElementDecl@xercesc_2_2@@QAEXW4ModelTypes@12@@Z 1203aef0 f i IGXMLScanner.obj
 0001:00039ef0       ?setGroupInfoRegistry@SchemaGrammar@xercesc_2_2@@QAEXQAV?$RefHashTableOf@VXercesGroupInfo@xercesc_2_2@@@2@@Z 1203aef0 f i IGXMLScanner.obj
 0001:00039f00       ?setElemId@SchemaAttDef@xercesc_2_2@@QAEXI@Z 1203af00 f i IGXMLScanner.obj
 0001:00039f00       ?setElemId@DTDAttDef@xercesc_2_2@@QAEXI@Z 1203af00 f i IGXMLScanner.obj
 0001:00039f00       ?setBlockSet@SchemaElementDecl@xercesc_2_2@@QAEXH@Z 1203af00 f i IGXMLScanner.obj
 0001:00039f00       ?setAttGroupInfoRegistry@SchemaGrammar@xercesc_2_2@@QAEXQAV?$RefHashTableOf@VXercesAttGroupInfo@xercesc_2_2@@@2@@Z 1203af00 f i IGXMLScanner.obj
 0001:00039f10       ?setDatatypeValidator@ComplexTypeInfo@xercesc_2_2@@QAEXQAVDatatypeValidator@2@@Z 1203af10 f i IGXMLScanner.obj
 0001:00039f10       ?setDatatypeValidator@SchemaAttDef@xercesc_2_2@@QAEXPAVDatatypeValidator@2@@Z 1203af10 f i IGXMLScanner.obj
 0001:00039f10       ?setTokenFactory@RegxParser@xercesc_2_2@@QAEXQAVTokenFactory@2@@Z 1203af10 f i IGXMLScanner.obj
 0001:00039f10       ?setNamespaceScope@SchemaGrammar@xercesc_2_2@@QAEXQAVNamespaceScope@2@@Z 1203af10 f i IGXMLScanner.obj
 0001:00039f20       ?setDocument@AbstractDOMParser@xercesc_2_2@@IAEXPAVDOMDocument@2@@Z 1203af20 f i IGXMLScanner.obj
 0001:00039f20       ?setValidSubstitutionGroups@SchemaGrammar@xercesc_2_2@@QAEXQAV?$RefHash2KeysTableOf@V?$ValueVectorOf@PAVSchemaElementDecl@xercesc_2_2@@@xercesc_2_2@@@2@@Z 1203af20 f i IGXMLScanner.obj
 0001:00039f20       ?setComplexTypeInfo@SchemaElementDecl@xercesc_2_2@@QAEXQAVComplexTypeInfo@2@@Z 1203af20 f i IGXMLScanner.obj
 0001:00039f20       ?setAnyDatatypeValidator@SchemaAttDef@xercesc_2_2@@QAEXPAVDatatypeValidator@2@@Z 1203af20 f i IGXMLScanner.obj
 0001:00039f20       ?setBaseComplexTypeInfo@ComplexTypeInfo@xercesc_2_2@@QAEXQAV12@@Z 1203af20 f i IGXMLScanner.obj
 0001:00039f30       ?size@ModifierToken@xercesc_2_2@@UBEHXZ 1203af30 f i IGXMLScanner.obj
 0001:00039f30       ?getGrammarType@SchemaGrammar@xercesc_2_2@@UBE?AW4GrammarType@Grammar@2@XZ 1203af30 f i IGXMLScanner.obj
 0001:00039f30       ?size@ClosureToken@xercesc_2_2@@UBEHXZ 1203af30 f i IGXMLScanner.obj
 0001:00039f30       ?getTypeType@SchemaAttDef@xercesc_2_2@@QBE?AW4Complexity@PSVIDefs@2@XZ 1203af30 f i IGXMLScanner.obj
 0001:00039f30       ?size@ParenToken@xercesc_2_2@@UBEHXZ 1203af30 f i IGXMLScanner.obj
 0001:00039f40       ?getElementName@XMLElementDecl@xercesc_2_2@@QAEPAVQName@2@XZ 1203af40 f i IGXMLScanner.obj
 0001:00039f40       ?getBufMgr@XMLValidator@xercesc_2_2@@IAEPAVXMLBufferMgr@2@XZ 1203af40 f i IGXMLScanner.obj
 0001:00039f40       ?getKey@XMLNotationDecl@xercesc_2_2@@QBEPBGXZ 1203af40 f i IGXMLScanner.obj
 0001:00039f40       ?getLineNumber@XSDLocator@xercesc_2_2@@UBEJXZ 1203af40 f i IGXMLScanner.obj
 0001:00039f40       ?getLen@XMLBuffer@xercesc_2_2@@QBEIXZ 1203af40 f i IGXMLScanner.obj
 0001:00039f40       ?getRefName@XMLRefInfo@xercesc_2_2@@QBEPBGXZ 1203af40 f i IGXMLScanner.obj
 0001:00039f40       ?getType@XMLAttr@xercesc_2_2@@QBE?AW4AttTypes@XMLAttDef@2@XZ 1203af40 f i IGXMLScanner.obj
 0001:00039f40       ?getBufMgr@XMLValidator@xercesc_2_2@@IBEPBVXMLBufferMgr@2@XZ 1203af40 f i IGXMLScanner.obj
 0001:00039f40       ?getDocTypeHandler@DTDScanner@xercesc_2_2@@QBEPBVDocTypeHandler@2@XZ 1203af40 f i IGXMLScanner.obj
 0001:00039f40       ?getCode@XMLException@xercesc_2_2@@QBE?AW4Codes@XMLExcepts@2@XZ 1203af40 f i IGXMLScanner.obj
 0001:00039f40       ?getDerivedBy@ComplexTypeInfo@xercesc_2_2@@QBEHXZ 1203af40 f i IGXMLScanner.obj
 0001:00039f40       ?getNodeTest@XercesStep@xercesc_2_2@@QBEPAVXercesNodeTest@2@XZ 1203af40 f i IGXMLScanner.obj
 0001:00039f40       ?getMessage@SAXException@xercesc_2_2@@UBEPBGXZ 1203af40 f i IGXMLScanner.obj
 0001:00039f40       ?getId@XMLEntityDecl@xercesc_2_2@@QBEIXZ 1203af40 f i IGXMLScanner.obj
 0001:00039f40       ?getBlockSize@XMLTranscoder@xercesc_2_2@@QBEIXZ 1203af40 f i IGXMLScanner.obj
 0001:00039f40       ?getIdentityConstraint@IC_Selector@xercesc_2_2@@QBEPAVIdentityConstraint@2@XZ 1203af40 f i IGXMLScanner.obj
 0001:00039f40       ?getFragment@XMLURL@xercesc_2_2@@QBEPBGXZ 1203af40 f i IGXMLScanner.obj
 0001:00039f40       ?getDefaultType@XMLAttDef@xercesc_2_2@@QBE?AW4DefAttTypes@12@XZ 1203af40 f i IGXMLScanner.obj
 0001:00039f40       ?getElementName@XMLElementDecl@xercesc_2_2@@QBEPBVQName@2@XZ 1203af40 f i IGXMLScanner.obj
 0001:00039f40       ?getValue@XMLBigDecimal@xercesc_2_2@@QBEPAVXMLBigInteger@2@XZ 1203af40 f i IGXMLScanner.obj
 0001:00039f40       ?getReaderNum@EndOfEntityException@xercesc_2_2@@QBEIXZ 1203af40 f i IGXMLScanner.obj
 0001:00039f40       ?getScope@XercesGroupInfo@xercesc_2_2@@QBEHXZ 1203af40 f i IGXMLScanner.obj
 0001:00039f40       ?getName@XercesNodeTest@xercesc_2_2@@QBEPAVQName@2@XZ 1203af40 f i IGXMLScanner.obj
 0001:00039f40       ?getLineNumber@DOMLocatorImpl@xercesc_2_2@@UBEJXZ 1203af40 f i IGXMLScanner.obj
 0001:00039f40       ?getXPath@IC_Field@xercesc_2_2@@QBEPAVXercesXPath@2@XZ 1203af40 f i IGXMLScanner.obj
 0001:00039f40       ?getName@XMLNotationDecl@xercesc_2_2@@QBEPBGXZ 1203af40 f i IGXMLScanner.obj
 0001:00039f40       ?getFinalSet@DatatypeValidator@xercesc_2_2@@QBEHXZ 1203af40 f i IGXMLScanner.obj
 0001:00039f40       ?getEncodingName@XMLFormatter@xercesc_2_2@@QBEPBGXZ 1203af40 f i IGXMLScanner.obj
 0001:00039f40       ?getEncoding@InputSource@xercesc_2_2@@UBEPBGXZ 1203af40 f i IGXMLScanner.obj
 0001:00039f40       ?getIdentityConstraintName@IdentityConstraint@xercesc_2_2@@QBEPAGXZ 1203af40 f i IGXMLScanner.obj
 0001:00039f40       ?getDocTypeHandler@DTDScanner@xercesc_2_2@@QAEPAVDocTypeHandler@2@XZ 1203af40 f i IGXMLScanner.obj
 0001:00039f40       ?getTargetNamespace@SchemaGrammar@xercesc_2_2@@UBEPBGXZ 1203af40 f i IGXMLScanner.obj
 0001:00039f40       ?getScheme@XMLUri@xercesc_2_2@@QBEPBGXZ 1203af40 f i IGXMLScanner.obj
 0001:00039f40       ?getBlockDefault@SchemaInfo@xercesc_2_2@@QBEHXZ 1203af40 f i IGXMLScanner.obj
 0001:00039f50       ?getElemId@SchemaGrammar@xercesc_2_2@@UBEIIQBG0I@Z 1203af50 f i IGXMLScanner.obj
 0001:0003a080       ?getElemDecl@SchemaGrammar@xercesc_2_2@@UAEPAVXMLElementDecl@2@IQBG0I@Z 1203b080 f i IGXMLScanner.obj
 0001:0003a080       ?getElemDecl@SchemaGrammar@xercesc_2_2@@UBEPBVXMLElementDecl@2@IQBG0I@Z 1203b080 f i IGXMLScanner.obj
 0001:0003a220       ?getElemDecl@SchemaGrammar@xercesc_2_2@@UAEPAVXMLElementDecl@2@I@Z 1203b220 f i IGXMLScanner.obj
 0001:0003a220       ?getElemDecl@SchemaGrammar@xercesc_2_2@@UBEPBVXMLElementDecl@2@I@Z 1203b220 f i IGXMLScanner.obj
 0001:0003a2a0       ?putElemDecl@SchemaGrammar@xercesc_2_2@@UBEIQAVXMLElementDecl@2@_N@Z 1203b2a0 f i IGXMLScanner.obj
 0001:0003a2e0       ?putGroupElemDecl@SchemaGrammar@xercesc_2_2@@QBEIQAVXMLElementDecl@2@@Z 1203b2e0 f i IGXMLScanner.obj
 0001:0003a310       ?getNotationDecl@SchemaGrammar@xercesc_2_2@@UAEPAVXMLNotationDecl@2@QBG@Z 1203b310 f i IGXMLScanner.obj
 0001:0003a310       ?getNotationDecl@SchemaGrammar@xercesc_2_2@@UBEPBVXMLNotationDecl@2@QBG@Z 1203b310 f i IGXMLScanner.obj
 0001:0003a3c0       ?putNotationDecl@SchemaGrammar@xercesc_2_2@@UBEIQAVXMLNotationDecl@2@@Z 1203b3c0 f i IGXMLScanner.obj
 0001:0003a3d0       ?getValidated@SchemaGrammar@xercesc_2_2@@UBE_NXZ 1203b3d0 f i IGXMLScanner.obj
 0001:0003a3e0       ?setValidated@SchemaGrammar@xercesc_2_2@@UAEX_N@Z 1203b3e0 f i IGXMLScanner.obj
 0001:0003a3f0       ??1XSDErrorReporter@xercesc_2_2@@UAE@XZ 1203b3f0 f i IGXMLScanner.obj
 0001:0003a400       ??_FXSDErrorReporter@xercesc_2_2@@QAEXXZ 1203b400 f i IGXMLScanner.obj
 0001:0003a410       ??_EXSDErrorReporter@xercesc_2_2@@UAEPAXI@Z 1203b410 f i IGXMLScanner.obj
 0001:0003a470       ?getExitOnFirstFatal@XSDErrorReporter@xercesc_2_2@@QBE_NXZ 1203b470 f i IGXMLScanner.obj
 0001:0003a470       ?getStandardUriConformant@XMLScanner@xercesc_2_2@@QBE_NXZ 1203b470 f i IGXMLScanner.obj
 0001:0003a470       ?hasBackReferences@RegxParser@xercesc_2_2@@QBE_NXZ 1203b470 f i IGXMLScanner.obj
 0001:0003a480       ?setExitOnFirstFatal@XSDErrorReporter@xercesc_2_2@@QAEX_N@Z 1203b480 f i IGXMLScanner.obj
 0001:0003a480       ?setAdoptLocation@DOMErrorImpl@xercesc_2_2@@QAEX_N@Z 1203b480 f i IGXMLScanner.obj
 0001:0003a490       ?setContentSpec@XercesGroupInfo@xercesc_2_2@@QAEXQAVContentSpecNode@2@@Z 1203b490 f i IGXMLScanner.obj
 0001:0003a490       ?setColumnNumber@DOMLocatorImpl@xercesc_2_2@@UAEXJ@Z 1203b490 f i IGXMLScanner.obj
 0001:0003a490       ?setMin@ClosureToken@xercesc_2_2@@UAEXH@Z 1203b490 f i IGXMLScanner.obj
 0001:0003a490       ?setMessage@DOMErrorImpl@xercesc_2_2@@UAEXQBG@Z 1203b490 f i IGXMLScanner.obj
 0001:0003a490       ?setErrorReporter@XSDErrorReporter@xercesc_2_2@@QAEXQAVXMLErrorReporter@2@@Z 1203b490 f i IGXMLScanner.obj
 0001:0003a490       ?setFinalDefault@SchemaInfo@xercesc_2_2@@QAEXH@Z 1203b490 f i IGXMLScanner.obj
 0001:0003a490       ?setBlockSet@ComplexTypeInfo@xercesc_2_2@@QAEXH@Z 1203b490 f i IGXMLScanner.obj
 0001:0003a490       ?setCreateReason@XMLElementDecl@xercesc_2_2@@QAEXW4CreateReasons@12@@Z 1203b490 f i IGXMLScanner.obj
 0001:0003a490       ?setErrorReporter@XMLValidator@xercesc_2_2@@QAEXQAVXMLErrorReporter@2@@Z 1203b490 f i IGXMLScanner.obj
 0001:0003a490       ?setNextOp@Op@xercesc_2_2@@QAEXQBV12@@Z 1203b490 f i IGXMLScanner.obj
 0001:0003a4a0       ??_FSchemaValidator@xercesc_2_2@@QAEXXZ 1203b4a0 f i IGXMLScanner.obj
 0001:0003a4b0       ?setXsiType@SchemaValidator@xercesc_2_2@@QAEXQBG0I@Z 1203b4b0 f i IGXMLScanner.obj
 0001:0003a530       ?setExternalAttDeclaration@XMLAttDef@xercesc_2_2@@QAEX_N@Z 1203b530 f i IGXMLScanner.obj
 0001:0003a530       ?setNillable@SchemaValidator@xercesc_2_2@@QAEX_N@Z 1203b530 f i IGXMLScanner.obj
 0001:0003a540       ?setExitOnFirstFatal@SchemaValidator@xercesc_2_2@@QAEX_N@Z 1203b540 f i IGXMLScanner.obj
 0001:0003a550       ?setDatatypeBuffer@SchemaValidator@xercesc_2_2@@QAEXQBG@Z 1203b550 f i IGXMLScanner.obj
 0001:0003a570       ?getCurrentTypeInfo@SchemaValidator@xercesc_2_2@@QBEPAVComplexTypeInfo@2@XZ 1203b570 f i IGXMLScanner.obj
 0001:0003a5e0       ?setErrorReporter@SchemaValidator@xercesc_2_2@@QAEXQAVXMLErrorReporter@2@@Z 1203b5e0 f i IGXMLScanner.obj
 0001:0003a5f0       ?isOccurrenceRangeOK@SchemaValidator@xercesc_2_2@@AAE_NHHHH@Z 1203b5f0 f i IGXMLScanner.obj
 0001:0003a620       ?size@XPathMatcherStack@xercesc_2_2@@QBEIXZ 1203b620 f i IGXMLScanner.obj
 0001:0003a620       ?getSign@XMLBigDecimal@xercesc_2_2@@UBEHXZ 1203b620 f i IGXMLScanner.obj
 0001:0003a630       ?pushContext@XPathMatcherStack@xercesc_2_2@@QAEXXZ 1203b630 f i IGXMLScanner.obj
 0001:0003a6d0       ?popContext@XPathMatcherStack@xercesc_2_2@@QAEXXZ 1203b6d0 f i IGXMLScanner.obj
 0001:0003a790       ?addMatcher@XPathMatcherStack@xercesc_2_2@@QAEXQAVXPathMatcher@2@@Z 1203b790 f i IGXMLScanner.obj
 0001:0003a890       ?setScopeDefined@ComplexTypeInfo@xercesc_2_2@@QAEXH@Z 1203b890 f i IGXMLScanner.obj
 0001:0003a890       ?setBaseGroup@XercesGroupInfo@xercesc_2_2@@QAEXQAV12@@Z 1203b890 f i IGXMLScanner.obj
 0001:0003a890       ?setScopeCount@SchemaInfo@xercesc_2_2@@QAEXH@Z 1203b890 f i IGXMLScanner.obj
 0001:0003a890       ?setErrorNode@DOMLocatorImpl@xercesc_2_2@@UAEXQAVDOMNode@2@@Z 1203b890 f i IGXMLScanner.obj
 0001:0003a890       ?setType@DatatypeValidator@xercesc_2_2@@IAEXW4ValidatorType@12@@Z 1203b890 f i IGXMLScanner.obj
 0001:0003a890       ?setScanner@ValueStoreCache@xercesc_2_2@@QAEXQAVXMLScanner@2@@Z 1203b890 f i IGXMLScanner.obj
 0001:0003a8a0       ?getValueStoreFor@ValueStoreCache@xercesc_2_2@@QAEPAVValueStore@2@QBVIC_Field@2@H@Z 1203b8a0 f i IGXMLScanner.obj
 0001:0003a940       ?getValueStoreFor@ValueStoreCache@xercesc_2_2@@QAEPAVValueStore@2@QBVIdentityConstraint@2@H@Z 1203b940 f i IGXMLScanner.obj
 0001:0003a9e0       ?getGlobalValueStoreFor@ValueStoreCache@xercesc_2_2@@QAEPAVValueStore@2@QBVIdentityConstraint@2@@Z 1203b9e0 f i IGXMLScanner.obj
 0001:0003aa70       ??1SelectorMatcher@xercesc_2_2@@UAE@XZ 1203ba70 f i IGXMLScanner.obj
 0001:0003aa80       ??_ESelectorMatcher@xercesc_2_2@@UAEPAXI@Z 1203ba80 f i IGXMLScanner.obj
 0001:0003aae0       ?getDatatypeValidatorAt@FieldValueMap@xercesc_2_2@@QBEPAVDatatypeValidator@2@I@Z 1203bae0 f i IGXMLScanner.obj
 0001:0003ab30       ?getDatatypeValidatorFor@FieldValueMap@xercesc_2_2@@QBEPAVDatatypeValidator@2@QBVIC_Field@2@@Z 1203bb30 f i IGXMLScanner.obj
 0001:0003ab90       ?anyAttributeAt@XercesAttGroupInfo@xercesc_2_2@@QBEPBVSchemaAttDef@2@I@Z 1203bb90 f i IGXMLScanner.obj
 0001:0003ab90       ?anyAttributeAt@XercesAttGroupInfo@xercesc_2_2@@QAEPAVSchemaAttDef@2@I@Z 1203bb90 f i IGXMLScanner.obj
 0001:0003ab90       ?getValueAt@FieldValueMap@xercesc_2_2@@QBEPAGI@Z 1203bb90 f i IGXMLScanner.obj
 0001:0003abe0       ?getValueFor@FieldValueMap@xercesc_2_2@@QBEPAGQBVIC_Field@2@@Z 1203bbe0 f i IGXMLScanner.obj
 0001:0003ac40       ?keyAt@FieldValueMap@xercesc_2_2@@QBEPAVIC_Field@2@I@Z 1203bc40 f i IGXMLScanner.obj
 0001:0003ac90       ?size@FieldValueMap@xercesc_2_2@@QBEIXZ 1203bc90 f i IGXMLScanner.obj
 0001:0003aca0       ?put@FieldValueMap@xercesc_2_2@@QAEXQAVIC_Field@2@QAVDatatypeValidator@2@QBG@Z 1203bca0 f i IGXMLScanner.obj
 0001:0003af40       ??0IGXMLScanner@xercesc_2_2@@QAE@QAVXMLValidator@1@@Z 1203bf40 f   IGXMLScanner.obj
 0001:0003b040       ??_EIGXMLScanner@xercesc_2_2@@UAEPAXI@Z 1203c040 f i IGXMLScanner.obj
 0001:0003b0a0       ??0IGXMLScanner@xercesc_2_2@@QAE@QAVXMLDocumentHandler@1@QAVDocTypeHandler@1@QAVXMLEntityHandler@1@QAVXMLErrorReporter@1@QAVXMLValidator@1@@Z 1203c0a0 f   IGXMLScanner.obj
 0001:0003b1b0       ??1IGXMLScanner@xercesc_2_2@@UAE@XZ 1203c1b0 f   IGXMLScanner.obj
 0001:0003b230       ?getEntityDeclPool@IGXMLScanner@xercesc_2_2@@UAEPAV?$NameIdPool@VDTDEntityDecl@xercesc_2_2@@@2@XZ 1203c230 f   IGXMLScanner.obj
 0001:0003b230       ?getEntityDeclPool@IGXMLScanner@xercesc_2_2@@UBEPBV?$NameIdPool@VDTDEntityDecl@xercesc_2_2@@@2@XZ 1203c230 f   IGXMLScanner.obj
 0001:0003b240       ?scanDocument@IGXMLScanner@xercesc_2_2@@UAEXABVInputSource@2@@Z 1203c240 f   IGXMLScanner.obj
 0001:0003b400       ?scanNext@IGXMLScanner@xercesc_2_2@@UAE_NAAVXMLPScanToken@2@@Z 1203c400 f   IGXMLScanner.obj
 0001:0003b740       ?commonInit@IGXMLScanner@xercesc_2_2@@AAEXXZ 1203c740 f   IGXMLScanner.obj
 0001:0003b910       ?cleanUp@IGXMLScanner@xercesc_2_2@@AAEXXZ 1203c910 f   IGXMLScanner.obj
 0001:0003b9b0       ?rawAttrScan@IGXMLScanner@xercesc_2_2@@AAEIQBGAAV?$RefVectorOf@VKVStringPair@xercesc_2_2@@@2@AA_N@Z 1203c9b0 f   IGXMLScanner.obj
 0001:0003bed0       ?scanContent@IGXMLScanner@xercesc_2_2@@AAE_N_N@Z 1203ced0 f   IGXMLScanner.obj
 0001:0003c090       ?scanEndTag@IGXMLScanner@xercesc_2_2@@AAEXAA_N@Z 1203d090 f   IGXMLScanner.obj
 0001:0003c8b0       ?scanDocTypeDecl@IGXMLScanner@xercesc_2_2@@EAEXXZ 1203d8b0 f   IGXMLScanner.obj
 0001:0003d200       ?scanStartTag@IGXMLScanner@xercesc_2_2@@AAE_NAA_N@Z 1203e200 f   IGXMLScanner.obj
 0001:0003dc10       ?scanStartTagNS@IGXMLScanner@xercesc_2_2@@AAE_NAA_N@Z 1203ec10 f   IGXMLScanner.obj
 0001:0003f120       ?activateSelectorFor@IGXMLScanner@xercesc_2_2@@AAEXQAVIdentityConstraint@2@H@Z 12040120 f   IGXMLScanner.obj
 0001:0003f120       ?activateSelectorFor@SGXMLScanner@xercesc_2_2@@AAEXQAVIdentityConstraint@2@H@Z 12040120 f   IGXMLScanner.obj
 0001:0003f250       ?loadGrammar@IGXMLScanner@xercesc_2_2@@UAEPAVGrammar@2@ABVInputSource@2@F_N@Z 12040250 f   IGXMLScanner.obj
 0001:0003f410       ?loadDTDGrammar@IGXMLScanner@xercesc_2_2@@AAEPAVGrammar@2@ABVInputSource@2@_N@Z 12040410 f   IGXMLScanner.obj
 0001:0003f900       ??1?$XMLEnumerator@VSchemaAttDef@xercesc_2_2@@@xercesc_2_2@@UAE@XZ 12040900 f i IGXMLScanner.obj
 0001:0003f910       ??1?$XMLEnumerator@VSchemaElementDecl@xercesc_2_2@@@xercesc_2_2@@UAE@XZ 12040910 f i IGXMLScanner.obj
 0001:0003f920       ??_E?$XMLEnumerator@VSchemaAttDef@xercesc_2_2@@@xercesc_2_2@@UAEPAXI@Z 12040920 f i IGXMLScanner.obj
 0001:0003f920       ??_G?$XMLEnumerator@VSchemaAttDef@xercesc_2_2@@@xercesc_2_2@@UAEPAXI@Z 12040920 f i IGXMLScanner.obj
 0001:0003f940       ??_E?$XMLEnumerator@VSchemaElementDecl@xercesc_2_2@@@xercesc_2_2@@UAEPAXI@Z 12040940 f i IGXMLScanner.obj
 0001:0003f940       ??_G?$XMLEnumerator@VSchemaElementDecl@xercesc_2_2@@@xercesc_2_2@@UAEPAXI@Z 12040940 f i IGXMLScanner.obj
 0001:0003f960       ??1?$RefHash2KeysTableOfEnumerator@VSchemaAttDef@xercesc_2_2@@@xercesc_2_2@@UAE@XZ 12040960 f i IGXMLScanner.obj
 0001:0003fa40       ?nextElement@?$RefHash2KeysTableOfEnumerator@VSchemaAttDef@xercesc_2_2@@@xercesc_2_2@@UAEAAVSchemaAttDef@2@XZ 12040a40 f i IGXMLScanner.obj
 0001:0003fac0       ?Reset@?$RefHashTableOfEnumerator@VXercesGroupInfo@xercesc_2_2@@@xercesc_2_2@@UAEXXZ 12040ac0 f i IGXMLScanner.obj
 0001:0003fac0       ?Reset@?$RefHashTableOfEnumerator@VDTDAttDef@xercesc_2_2@@@xercesc_2_2@@UAEXXZ 12040ac0 f i IGXMLScanner.obj
 0001:0003fac0       ?Reset@?$RefHashTableOfEnumerator@VComplexTypeInfo@xercesc_2_2@@@xercesc_2_2@@UAEXXZ 12040ac0 f i IGXMLScanner.obj
 0001:0003fac0       ?Reset@?$RefHashTableOfEnumerator@VKVStringPair@xercesc_2_2@@@xercesc_2_2@@UAEXXZ 12040ac0 f i IGXMLScanner.obj
 0001:0003fac0       ?Reset@?$RefHashTableOfEnumerator@VGrammar@xercesc_2_2@@@xercesc_2_2@@UAEXXZ 12040ac0 f i IGXMLScanner.obj
 0001:0003fac0       ?Reset@?$RefHashTableOfEnumerator@VXMLRefInfo@xercesc_2_2@@@xercesc_2_2@@UAEXXZ 12040ac0 f i IGXMLScanner.obj
 0001:0003fac0       ?Reset@?$RefHash2KeysTableOfEnumerator@VSchemaAttDef@xercesc_2_2@@@xercesc_2_2@@UAEXXZ 12040ac0 f i IGXMLScanner.obj
 0001:0003fac0       ?Reset@?$RefHashTableOfEnumerator@VValueStore@xercesc_2_2@@@xercesc_2_2@@UAEXXZ 12040ac0 f i IGXMLScanner.obj
 0001:0003fac0       ?Reset@?$RefHashTableOfEnumerator@V?$KeyRefPair@XVDOMUserDataHandler@xercesc_2_2@@@xercesc_2_2@@@xercesc_2_2@@UAEXXZ 12040ac0 f i IGXMLScanner.obj
 0001:0003fb00       ?hasMoreElements@?$RefHash3KeysIdPoolEnumerator@VSchemaElementDecl@xercesc_2_2@@@xercesc_2_2@@UBE_NXZ 12040b00 f i IGXMLScanner.obj
 0001:0003fb20       ?nextElement@?$RefHash3KeysIdPoolEnumerator@VSchemaElementDecl@xercesc_2_2@@@xercesc_2_2@@UAEAAVSchemaElementDecl@2@XZ 12040b20 f i IGXMLScanner.obj
 0001:0003fb70       ?put@?$RefHash3KeysIdPool@VSchemaElementDecl@xercesc_2_2@@@xercesc_2_2@@QAEIPAXHHQAVSchemaElementDecl@2@@Z 12040b70 f i IGXMLScanner.obj
 0001:0003fd20       ?setElementAt@?$BaseRefVectorOf@VXPathMatcher@xercesc_2_2@@@xercesc_2_2@@QAEXQAVXPathMatcher@2@I@Z 12040d20 f i IGXMLScanner.obj
 0001:0003fd80       ??_E?$RefVectorOf@VSchemaElementDecl@xercesc_2_2@@@xercesc_2_2@@UAEPAXI@Z 12040d80 f i IGXMLScanner.obj
 0001:0003fd80       ??_G?$RefVectorOf@VSchemaElementDecl@xercesc_2_2@@@xercesc_2_2@@UAEPAXI@Z 12040d80 f i IGXMLScanner.obj
 0001:0003fda0       ??1?$RefVectorOf@VSchemaElementDecl@xercesc_2_2@@@xercesc_2_2@@UAE@XZ 12040da0 f i IGXMLScanner.obj
 0001:0003fe20       ??1?$BaseRefVectorOf@VSchemaElementDecl@xercesc_2_2@@@xercesc_2_2@@UAE@XZ 12040e20 f i IGXMLScanner.obj
 0001:0003fe30       ??_E?$RefHash2KeysTableOfEnumerator@VSchemaAttDef@xercesc_2_2@@@xercesc_2_2@@UAEPAXI@Z 12040e30 f i IGXMLScanner.obj
 0001:0003fe30       ??_G?$RefHash2KeysTableOfEnumerator@VSchemaAttDef@xercesc_2_2@@@xercesc_2_2@@UAEPAXI@Z 12040e30 f i IGXMLScanner.obj
 0001:0003fe50       ??_E?$RefVectorOf@VIC_Field@xercesc_2_2@@@xercesc_2_2@@UAEPAXI@Z 12040e50 f i IGXMLScanner.obj
 0001:0003fe50       ??_G?$RefVectorOf@VIC_Field@xercesc_2_2@@@xercesc_2_2@@UAEPAXI@Z 12040e50 f i IGXMLScanner.obj
 0001:0003fe70       ??1?$RefVectorOf@VIC_Field@xercesc_2_2@@@xercesc_2_2@@UAE@XZ 12040e70 f i IGXMLScanner.obj
 0001:0003ff00       ??1?$BaseRefVectorOf@VIC_Field@xercesc_2_2@@@xercesc_2_2@@UAE@XZ 12040f00 f i IGXMLScanner.obj
 0001:0003ff10       ??_G?$RefVectorOf@VIdentityConstraint@xercesc_2_2@@@xercesc_2_2@@UAEPAXI@Z 12040f10 f i IGXMLScanner.obj
 0001:0003ff10       ??_E?$RefVectorOf@VIdentityConstraint@xercesc_2_2@@@xercesc_2_2@@UAEPAXI@Z 12040f10 f i IGXMLScanner.obj
 0001:0003ff30       ??1?$RefVectorOf@VIdentityConstraint@xercesc_2_2@@@xercesc_2_2@@UAE@XZ 12040f30 f i IGXMLScanner.obj
 0001:0003ffb0       ??1?$BaseRefVectorOf@VIdentityConstraint@xercesc_2_2@@@xercesc_2_2@@UAE@XZ 12040fb0 f i IGXMLScanner.obj
 0001:0003ffc0       ??_G?$RefHash3KeysIdPoolEnumerator@VSchemaElementDecl@xercesc_2_2@@@xercesc_2_2@@UAEPAXI@Z 12040fc0 f i IGXMLScanner.obj
 0001:0003ffc0       ??_E?$RefHash3KeysIdPoolEnumerator@VSchemaElementDecl@xercesc_2_2@@@xercesc_2_2@@UAEPAXI@Z 12040fc0 f i IGXMLScanner.obj
 0001:0003ffe0       ??1?$RefHash3KeysIdPoolEnumerator@VSchemaElementDecl@xercesc_2_2@@@xercesc_2_2@@UAE@XZ 12040fe0 f i IGXMLScanner.obj
 0001:000400d0       ??_E?$RefVectorOf@VKVStringPair@xercesc_2_2@@@xercesc_2_2@@UAEPAXI@Z 120410d0 f i IGXMLScanner.obj
 0001:000400d0       ??_G?$RefVectorOf@VKVStringPair@xercesc_2_2@@@xercesc_2_2@@UAEPAXI@Z 120410d0 f i IGXMLScanner.obj
 0001:000400f0       ??1?$RefVectorOf@VKVStringPair@xercesc_2_2@@@xercesc_2_2@@UAE@XZ 120410f0 f i IGXMLScanner.obj
 0001:00040180       ??1?$BaseRefVectorOf@VKVStringPair@xercesc_2_2@@@xercesc_2_2@@UAE@XZ 12041180 f i IGXMLScanner.obj
 0001:00040190       ??0?$BaseRefVectorOf@G@xercesc_2_2@@QAE@I_N@Z 12041190 f i IGXMLScanner.obj
 0001:000401f0       ?ensureExtraCapacity@?$ValueVectorOf@PAVDatatypeValidator@xercesc_2_2@@@xercesc_2_2@@QAEXI@Z 120411f0 f i IGXMLScanner.obj
 0001:000401f0       ?ensureExtraCapacity@?$ValueVectorOf@H@xercesc_2_2@@QAEXI@Z 120411f0 f i IGXMLScanner.obj
 0001:000401f0       ?ensureExtraCapacity@?$ValueVectorOf@PAVXMLAttr@xercesc_2_2@@@xercesc_2_2@@QAEXI@Z 120411f0 f i IGXMLScanner.obj
 0001:000401f0       ?ensureExtraCapacity@?$ValueVectorOf@PAVQName@xercesc_2_2@@@xercesc_2_2@@QAEXI@Z 120411f0 f i IGXMLScanner.obj
 0001:000401f0       ?ensureExtraCapacity@?$ValueVectorOf@PBVDOMElement@xercesc_2_2@@@xercesc_2_2@@QAEXI@Z 120411f0 f i IGXMLScanner.obj
 0001:000401f0       ?ensureExtraCapacity@?$ValueVectorOf@PAVXercesAttGroupInfo@xercesc_2_2@@@xercesc_2_2@@QAEXI@Z 120411f0 f i IGXMLScanner.obj
 0001:000401f0       ?ensureExtraCapacity@?$ValueVectorOf@PAVIC_Field@xercesc_2_2@@@xercesc_2_2@@QAEXI@Z 120411f0 f i IGXMLScanner.obj
 0001:000401f0       ?ensureExtraCapacity@?$ValueVectorOf@PAG@xercesc_2_2@@QAEXI@Z 120411f0 f i IGXMLScanner.obj
 0001:000401f0       ?ensureExtraCapacity@?$ValueVectorOf@PAVComplexTypeInfo@xercesc_2_2@@@xercesc_2_2@@QAEXI@Z 120411f0 f i IGXMLScanner.obj
 0001:000401f0       ?ensureExtraCapacity@?$ValueVectorOf@PAVDOMElement@xercesc_2_2@@@xercesc_2_2@@QAEXI@Z 120411f0 f i IGXMLScanner.obj
 0001:000401f0       ?ensureExtraCapacity@?$ValueVectorOf@I@xercesc_2_2@@QAEXI@Z 120411f0 f i IGXMLScanner.obj
 0001:000401f0       ?ensureExtraCapacity@?$ValueVectorOf@PAVSchemaElementDecl@xercesc_2_2@@@xercesc_2_2@@QAEXI@Z 120411f0 f i IGXMLScanner.obj
 0001:00040280       ??0DOMNode@xercesc_2_2@@IAE@XZ 12041280 f i IGXMLScanner2.obj
 0001:00040290       ??0DOMNode@xercesc_2_2@@IAE@ABV01@@Z 12041290 f i IGXMLScanner2.obj
 0001:000402a0       ??_EDOMNode@xercesc_2_2@@UAEPAXI@Z 120412a0 f i IGXMLScanner2.obj
 0001:00040300       ??0DOMElement@xercesc_2_2@@IAE@XZ 12041300 f i IGXMLScanner2.obj
 0001:00040310       ??0DOMElement@xercesc_2_2@@IAE@ABV01@@Z 12041310 f i IGXMLScanner2.obj
 0001:00040320       ??0DOMAttr@xercesc_2_2@@IAE@XZ 12041320 f i IGXMLScanner2.obj
 0001:00040330       ??0DOMAttr@xercesc_2_2@@IAE@ABV01@@Z 12041330 f i IGXMLScanner2.obj
 0001:00040340       ??4SchemaInfo@xercesc_2_2@@QAEAAV01@ABV01@@Z 12041340 f i IGXMLScanner2.obj
 0001:00040360       ?getElemAttrDefaultQualified@SchemaInfo@xercesc_2_2@@QBEGXZ 12041360 f i IGXMLScanner2.obj
 0001:00040370       ?getImportingListEnumerator@SchemaInfo@xercesc_2_2@@QBE?AV?$BaseRefVectorEnumerator@VSchemaInfo@xercesc_2_2@@@2@XZ 12041370 f i IGXMLScanner2.obj
 0001:000403a0       ?setElemAttrDefaultQualified@SchemaInfo@xercesc_2_2@@QAEXG@Z 120413a0 f i IGXMLScanner2.obj
 0001:000403b0       ?addImportedNS@SchemaInfo@xercesc_2_2@@QAEXH@Z 120413b0 f i IGXMLScanner2.obj
 0001:000404e0       ?addSchemaInfo@SchemaInfo@xercesc_2_2@@QAEXQAV12@W4ListType@12@@Z 120414e0 f i IGXMLScanner2.obj
 0001:00040740       ?getImportInfo@SchemaInfo@xercesc_2_2@@QBEPAV12@I@Z 12041740 f i IGXMLScanner2.obj
 0001:000407b0       ?containsInfo@SchemaInfo@xercesc_2_2@@QBE_NQBV12@W4ListType@12@@Z 120417b0 f i IGXMLScanner2.obj
 0001:00040820       ?circularImportExist@SchemaInfo@xercesc_2_2@@QAE_NI@Z 12041820 f i IGXMLScanner2.obj
 0001:00040890       ?isFailedRedefine@SchemaInfo@xercesc_2_2@@QAE_NQBVDOMElement@2@@Z 12041890 f i IGXMLScanner2.obj
 0001:000408d0       ?addFailedRedefine@SchemaInfo@xercesc_2_2@@QAEXQBVDOMElement@2@@Z 120418d0 f i IGXMLScanner2.obj
 0001:000409e0       ?isImportingNS@SchemaInfo@xercesc_2_2@@QAE_NH@Z 120419e0 f i IGXMLScanner2.obj
 0001:00040a20       ?addRecursingType@SchemaInfo@xercesc_2_2@@QAEXQBVDOMElement@2@QBG@Z 12041a20 f i IGXMLScanner2.obj
 0001:00040bf0       ?clearTopLevelComponents@SchemaInfo@xercesc_2_2@@AAEXXZ 12041bf0 f i IGXMLScanner2.obj
 0001:00040c30       ?getFacetId@GeneralAttributeCheck@xercesc_2_2@@QAEGQBG@Z 12041c30 f i IGXMLScanner2.obj
 0001:00040cd0       ?getPrefix@TraverseSchema@xercesc_2_2@@AAEPBGQBG@Z 12041cd0 f i IGXMLScanner2.obj
 0001:00040d30       ?getLocalPart@TraverseSchema@xercesc_2_2@@AAEPBGQBG@Z 12041d30 f i IGXMLScanner2.obj
 0001:00040dc0       ?isValidRefDeclaration@TraverseSchema@xercesc_2_2@@AAE_NQBVDOMElement@2@@Z 12041dc0 f i IGXMLScanner2.obj
 0001:00040f90       ?getElementAttValue@TraverseSchema@xercesc_2_2@@AAEPBGQBVDOMElement@2@QBG_N@Z 12041f90 f i IGXMLScanner2.obj
 0001:00041010       ?checkForEmptyTargetNamespace@TraverseSchema@xercesc_2_2@@AAEXQBVDOMElement@2@@Z 12042010 f i IGXMLScanner2.obj
 0001:00041060       ?isBaseFromAnotherSchema@TraverseSchema@xercesc_2_2@@AAE_NQBG@Z 12042060 f i IGXMLScanner2.obj
 0001:00041110       ?isAttrOrAttrGroup@TraverseSchema@xercesc_2_2@@AAE_NQBVDOMElement@2@@Z 12042110 f i IGXMLScanner2.obj
 0001:00041230       ?genAnonTypeName@TraverseSchema@xercesc_2_2@@AAEPBGQBG@Z 12042230 f i IGXMLScanner2.obj
 0001:000412a0       ?popCurrentTypeNameStack@TraverseSchema@xercesc_2_2@@AAEXXZ 120422a0 f i IGXMLScanner2.obj
 0001:00041300       ?copyWildCardData@TraverseSchema@xercesc_2_2@@AAEXQBVSchemaAttDef@2@QAV32@@Z 12042300 f i IGXMLScanner2.obj
 0001:00041330       ?getRedefineNewTypeName@TraverseSchema@xercesc_2_2@@AAEXQBGHAAVXMLBuffer@2@@Z 12042330 f i IGXMLScanner2.obj
 0001:00041370       ?normalizeURI@TraverseSchema@xercesc_2_2@@AAEXQBGAAVXMLBuffer@2@@Z 12042370 f i IGXMLScanner2.obj
 0001:00041400       ??0SubstitutionGroupComparator@xercesc_2_2@@QAE@QAVGrammarResolver@1@QAVXMLStringPool@1@@Z 12042400 f i IGXMLScanner2.obj
 0001:00041400       ??0EndOfEntityException@xercesc_2_2@@QAE@PAVXMLEntityDecl@1@I@Z 12042400 f i IGXMLScanner2.obj
 0001:00041420       ??0DOMDocumentRange@xercesc_2_2@@IAE@XZ 12042420 f i IGXMLScanner2.obj
 0001:00041430       ??0DOMDocumentRange@xercesc_2_2@@IAE@ABV01@@Z 12042430 f i IGXMLScanner2.obj
 0001:00041440       ??1DOMDocumentRange@xercesc_2_2@@UAE@XZ 12042440 f i IGXMLScanner2.obj
 0001:00041450       ??_EDOMDocumentRange@xercesc_2_2@@UAEPAXI@Z 12042450 f i IGXMLScanner2.obj
 0001:000414b0       ??0DOMDocumentTraversal@xercesc_2_2@@IAE@XZ 120424b0 f i IGXMLScanner2.obj
 0001:000414c0       ??0DOMDocumentTraversal@xercesc_2_2@@IAE@ABV01@@Z 120424c0 f i IGXMLScanner2.obj
 0001:000414d0       ??1DOMDocumentTraversal@xercesc_2_2@@UAE@XZ 120424d0 f i IGXMLScanner2.obj
 0001:000414e0       ??_EDOMDocumentTraversal@xercesc_2_2@@UAEPAXI@Z 120424e0 f i IGXMLScanner2.obj
 0001:00041540       ??0DOMDocument@xercesc_2_2@@IAE@XZ 12042540 f i IGXMLScanner2.obj
 0001:00041570       ??0DOMDocument@xercesc_2_2@@IAE@ABV01@@Z 12042570 f i IGXMLScanner2.obj
 0001:000415a0       ??1DOMDocument@xercesc_2_2@@UAE@XZ 120425a0 f i IGXMLScanner2.obj
 0001:000415e0       ??_EDOMDocument@xercesc_2_2@@UAEPAXI@Z 120425e0 f i IGXMLScanner2.obj
 0001:00041640       ??0DOMDocumentType@xercesc_2_2@@IAE@XZ 12042640 f i IGXMLScanner2.obj
 0001:00041650       ??0DOMDocumentType@xercesc_2_2@@IAE@ABV01@@Z 12042650 f i IGXMLScanner2.obj
 0001:00041660       ??_EDOMProcessingInstruction@xercesc_2_2@@UAEPAXI@Z 12042660 f i IGXMLScanner2.obj
 0001:00041660       ??_EDOMEntityReference@xercesc_2_2@@UAEPAXI@Z 12042660 f i IGXMLScanner2.obj
 0001:00041660       ??_EDOMComment@xercesc_2_2@@UAEPAXI@Z 12042660 f i IGXMLScanner2.obj
 0001:00041660       ??_EDOMCharacterData@xercesc_2_2@@UAEPAXI@Z 12042660 f i IGXMLScanner2.obj
 0001:00041660       ??_EDOMDocumentFragment@xercesc_2_2@@UAEPAXI@Z 12042660 f i IGXMLScanner2.obj
 0001:00041660       ??_EDOMAttr@xercesc_2_2@@UAEPAXI@Z 12042660 f i IGXMLScanner2.obj
 0001:00041660       ??_EDOMNotation@xercesc_2_2@@UAEPAXI@Z 12042660 f i IGXMLScanner2.obj
 0001:00041660       ??_EDOMElement@xercesc_2_2@@UAEPAXI@Z 12042660 f i IGXMLScanner2.obj
 0001:00041660       ??_EDOMEntity@xercesc_2_2@@UAEPAXI@Z 12042660 f i IGXMLScanner2.obj
 0001:00041660       ??_EDOMDocumentType@xercesc_2_2@@UAEPAXI@Z 12042660 f i IGXMLScanner2.obj
 0001:00041660       ??_EDOMText@xercesc_2_2@@UAEPAXI@Z 12042660 f i IGXMLScanner2.obj
 0001:00041660       ??_EDOMCDATASection@xercesc_2_2@@UAEPAXI@Z 12042660 f i IGXMLScanner2.obj
 0001:000416c0       ??_FAbstractDOMParser@xercesc_2_2@@QAEXXZ 120426c0 f i IGXMLScanner2.obj
 0001:000416d0       ?getExpandEntityReferences@AbstractDOMParser@xercesc_2_2@@QBE_NXZ 120426d0 f i IGXMLScanner2.obj
 0001:000416e0       ?setExpandEntityReferences@AbstractDOMParser@xercesc_2_2@@QAEX_N@Z 120426e0 f i IGXMLScanner2.obj
 0001:000416f0       ??_FXercesDOMParser@xercesc_2_2@@QAEXXZ 120426f0 f i IGXMLScanner2.obj
 0001:00041700       ??_FXSDDOMParser@xercesc_2_2@@QAEXXZ 12042700 f i IGXMLScanner2.obj
 0001:00041710       ?getSawFatal@XSDDOMParser@xercesc_2_2@@QBE_NXZ 12042710 f i IGXMLScanner2.obj
 0001:00041720       ?buildAttList@IGXMLScanner@xercesc_2_2@@AAEIABV?$RefVectorOf@VKVStringPair@xercesc_2_2@@@2@IPAVXMLElementDecl@2@AAV?$RefVectorOf@VXMLAttr@xercesc_2_2@@@2@@Z 12042720 f   IGXMLScanner2.obj
 0001:000425e0       ?normalizeAttValue@IGXMLScanner@xercesc_2_2@@AAE_NQBVXMLAttDef@2@QBGAAVXMLBuffer@2@@Z 120435e0 f   IGXMLScanner2.obj
 0001:000428b0       ?normalizeAttRawValue@IGXMLScanner@xercesc_2_2@@AAE_NQBG0AAVXMLBuffer@2@@Z 120438b0 f   IGXMLScanner2.obj
 0001:000428b0       ?normalizeAttRawValue@SGXMLScanner@xercesc_2_2@@AAE_NQBG0AAVXMLBuffer@2@@Z 120438b0 f   IGXMLScanner2.obj
 0001:00042980       ?resolvePrefix@IGXMLScanner@xercesc_2_2@@AAEIQBGW4MapModes@ElemStack@2@@Z 12043980 f   IGXMLScanner2.obj
 0001:00042980       ?resolvePrefix@SGXMLScanner@xercesc_2_2@@AAEIQBGW4MapModes@ElemStack@2@@Z 12043980 f   IGXMLScanner2.obj
 0001:00042a70       ?scanReset@IGXMLScanner@xercesc_2_2@@EAEXABVInputSource@2@@Z 12043a70 f   IGXMLScanner2.obj
 0001:00042df0       ?sendCharData@IGXMLScanner@xercesc_2_2@@EAEXAAVXMLBuffer@2@@Z 12043df0 f   IGXMLScanner2.obj
 0001:00043220       ?updateNSMap@IGXMLScanner@xercesc_2_2@@AAEXQBG0@Z 12044220 f   IGXMLScanner2.obj
 0001:00043500       ?scanRawAttrListforNameSpaces@IGXMLScanner@xercesc_2_2@@AAEXPBV?$RefVectorOf@VKVStringPair@xercesc_2_2@@@2@H@Z 12044500 f   IGXMLScanner2.obj
 0001:00043a90       ?parseSchemaLocation@IGXMLScanner@xercesc_2_2@@AAEXQBG@Z 12044a90 f   IGXMLScanner2.obj
 0001:00043b50       ?resolveSchemaGrammar@IGXMLScanner@xercesc_2_2@@AAEXQBG0@Z 12044b50 f   IGXMLScanner2.obj
 0001:00044200       ?resolveSystemId@IGXMLScanner@xercesc_2_2@@AAEPAVInputSource@2@QBG@Z 12045200 f   IGXMLScanner2.obj
 0001:00044440       ?loadXMLSchemaGrammar@IGXMLScanner@xercesc_2_2@@AAEPAVGrammar@2@ABVInputSource@2@_N@Z 12045440 f   IGXMLScanner2.obj
 0001:000446d0       ?basicAttrValueScan@IGXMLScanner@xercesc_2_2@@AAE_NQBGAAVXMLBuffer@2@@Z 120456d0 f   IGXMLScanner2.obj
 0001:00044970       ?scanAttValue@IGXMLScanner@xercesc_2_2@@AAE_NQBVXMLAttDef@2@AAVXMLBuffer@2@@Z 12045970 f   IGXMLScanner2.obj
 0001:00044e30       ?scanCDSection@IGXMLScanner@xercesc_2_2@@EAEXXZ 12045e30 f   IGXMLScanner2.obj
 0001:00045200       ?scanCharData@IGXMLScanner@xercesc_2_2@@EAEXAAVXMLBuffer@2@@Z 12046200 f   IGXMLScanner2.obj
 0001:00045550       ?scanEntityRef@IGXMLScanner@xercesc_2_2@@EAE?AW4EntityExpRes@XMLScanner@2@_NAAG1AA_N@Z 12046550 f   IGXMLScanner2.obj
 0001:00045a30       ?switchGrammar@IGXMLScanner@xercesc_2_2@@AAE_NQBG@Z 12046a30 f   IGXMLScanner2.obj
 0001:00045b30       ?laxElementValidation@IGXMLScanner@xercesc_2_2@@AAE_NPAVQName@2@PAVContentLeafNameTypeVector@2@QBVXMLContentModel@2@I@Z 12046b30 f   IGXMLScanner2.obj
 0001:00045d60       ?anyAttributeValidation@IGXMLScanner@xercesc_2_2@@AAE_NPAVSchemaAttDef@2@IAA_N1@Z 12046d60 f   IGXMLScanner2.obj
 0001:00045e40       ?normalizeURI@IGXMLScanner@xercesc_2_2@@AAEXQBGAAVXMLBuffer@2@@Z 12046e40 f   IGXMLScanner2.obj
 0001:00045e40       ?normalizeURI@SGXMLScanner@xercesc_2_2@@AAEXQBGAAVXMLBuffer@2@@Z 12046e40 f   IGXMLScanner2.obj
 0001:00045ed0       ?hasMoreElements@?$BaseRefVectorEnumerator@VSchemaInfo@xercesc_2_2@@@xercesc_2_2@@UBE_NXZ 12046ed0 f i IGXMLScanner2.obj
 0001:00045ee0       ?nextElement@?$BaseRefVectorEnumerator@VSchemaInfo@xercesc_2_2@@@xercesc_2_2@@UAEAAVSchemaInfo@2@XZ 12046ee0 f i IGXMLScanner2.obj
 0001:00045f30       ?Reset@?$BaseRefVectorEnumerator@VSchemaInfo@xercesc_2_2@@@xercesc_2_2@@UAEXXZ 12046f30 f i IGXMLScanner2.obj
 0001:00045f30       ?Reset@?$RefHash3KeysIdPoolEnumerator@VSchemaElementDecl@xercesc_2_2@@@xercesc_2_2@@UAEXXZ 12046f30 f i IGXMLScanner2.obj
 0001:00045f40       ??_G?$BaseRefVectorEnumerator@VSchemaInfo@xercesc_2_2@@@xercesc_2_2@@UAEPAXI@Z 12046f40 f i IGXMLScanner2.obj
 0001:00045f40       ??_E?$BaseRefVectorEnumerator@VSchemaInfo@xercesc_2_2@@@xercesc_2_2@@UAEPAXI@Z 12046f40 f i IGXMLScanner2.obj
 0001:00045f60       ??1?$BaseRefVectorEnumerator@VSchemaInfo@xercesc_2_2@@@xercesc_2_2@@UAE@XZ 12046f60 f i IGXMLScanner2.obj
 0001:00045fc0       ??1?$XMLEnumerator@VSchemaInfo@xercesc_2_2@@@xercesc_2_2@@UAE@XZ 12046fc0 f i IGXMLScanner2.obj
 0001:00045fd0       ??_E?$XMLEnumerator@VSchemaInfo@xercesc_2_2@@@xercesc_2_2@@UAEPAXI@Z 12046fd0 f i IGXMLScanner2.obj
 0001:00045fd0       ??_G?$XMLEnumerator@VSchemaInfo@xercesc_2_2@@@xercesc_2_2@@UAEPAXI@Z 12046fd0 f i IGXMLScanner2.obj
 0001:00045ff0       ??_G?$RefVectorOf@VSchemaInfo@xercesc_2_2@@@xercesc_2_2@@UAEPAXI@Z 12046ff0 f i IGXMLScanner2.obj
 0001:00045ff0       ??_E?$RefVectorOf@VSchemaInfo@xercesc_2_2@@@xercesc_2_2@@UAEPAXI@Z 12046ff0 f i IGXMLScanner2.obj
 0001:00046010       ??1?$RefVectorOf@VSchemaInfo@xercesc_2_2@@@xercesc_2_2@@UAE@XZ 12047010 f i IGXMLScanner2.obj
 0001:000460a0       ??1?$BaseRefVectorOf@VSchemaInfo@xercesc_2_2@@@xercesc_2_2@@UAE@XZ 120470a0 f i IGXMLScanner2.obj
 0001:000460b0       ??0?$BaseRefVectorOf@VSchemaInfo@xercesc_2_2@@@xercesc_2_2@@QAE@I_N@Z 120470b0 f i IGXMLScanner2.obj
 0001:00046110       ??_EDOMDocument@xercesc_2_2@@W3AEPAXI@Z 12047110 f i IGXMLScanner2.obj
 0001:00046120       ??_EDOMDocument@xercesc_2_2@@W7AEPAXI@Z 12047120 f i IGXMLScanner2.obj
 0001:00046130       ??0ReaderMgr@xercesc_2_2@@QAE@XZ 12047130 f   ReaderMgr.obj
 0001:00046160       ??_EReaderMgr@xercesc_2_2@@UAEPAXI@Z 12047160 f i ReaderMgr.obj
 0001:000461c0       ??1ReaderMgr@xercesc_2_2@@UAE@XZ 120471c0 f   ReaderMgr.obj
 0001:000462e0       ?isEmpty@ReaderMgr@xercesc_2_2@@QBE_NXZ 120472e0 f   ReaderMgr.obj
 0001:000462f0       ?getNextChar@ReaderMgr@xercesc_2_2@@QAEGXZ 120472f0 f   ReaderMgr.obj
 0001:000464c0       ?getSpaces@ReaderMgr@xercesc_2_2@@QAEXAAVXMLBuffer@2@@Z 120474c0 f   ReaderMgr.obj
 0001:00046500       ?getUpToCharOrWS@ReaderMgr@xercesc_2_2@@QAEXAAVXMLBuffer@2@G@Z 12047500 f   ReaderMgr.obj
 0001:00046540       ?peekNextChar@ReaderMgr@xercesc_2_2@@QAEGXZ 12047540 f   ReaderMgr.obj
 0001:00046600       ?skippedChar@ReaderMgr@xercesc_2_2@@QAE_NG@Z 12047600 f   ReaderMgr.obj
 0001:00046640       ?skippedSpace@ReaderMgr@xercesc_2_2@@QAE_NXZ 12047640 f   ReaderMgr.obj
 0001:00046680       ?skipIfQuote@ReaderMgr@xercesc_2_2@@QAE_NAAG@Z 12047680 f   ReaderMgr.obj
 0001:000466c0       ?skipPastSpaces@ReaderMgr@xercesc_2_2@@QAE_NXZ 120476c0 f   ReaderMgr.obj
 0001:00046710       ?skipQuotedString@ReaderMgr@xercesc_2_2@@QAEXG@Z 12047710 f   ReaderMgr.obj
 0001:00046890       ?skipUntilIn@ReaderMgr@xercesc_2_2@@QAEGQBG@Z 12047890 f   ReaderMgr.obj
 0001:00046b10       ?skipUntilInOrWS@ReaderMgr@xercesc_2_2@@QAEGQBG@Z 12047b10 f   ReaderMgr.obj
 0001:00046da0       ?atEOF@ReaderMgr@xercesc_2_2@@QBE_NXZ 12047da0 f   ReaderMgr.obj
 0001:00046dc0       ?cleanStackBackTo@ReaderMgr@xercesc_2_2@@QAEXI@Z 12047dc0 f   ReaderMgr.obj
 0001:00046f70       ?createReader@ReaderMgr@xercesc_2_2@@QAEPAVXMLReader@2@ABVInputSource@2@_NW4RefFrom@32@W4Types@32@W4Sources@32@1@Z 12047f70 f   ReaderMgr.obj
 0001:000470e0       ?createReader@ReaderMgr@xercesc_2_2@@QAEPAVXMLReader@2@QBG0_NW4RefFrom@32@W4Types@32@W4Sources@32@AAPAVInputSource@2@1@Z 120480e0 f   ReaderMgr.obj
 0001:000473b0       ?createReader@ReaderMgr@xercesc_2_2@@QAEPAVXMLReader@2@QBG00_NW4RefFrom@32@W4Types@32@W4Sources@32@AAPAVInputSource@2@1@Z 120483b0 f   ReaderMgr.obj
 0001:00047690       ?createIntEntReader@ReaderMgr@xercesc_2_2@@QAEPAVXMLReader@2@QBGW4RefFrom@32@W4Types@32@0I_N3@Z 12048690 f   ReaderMgr.obj
 0001:000477a0       ?getCurrentEncodingStr@ReaderMgr@xercesc_2_2@@QBEPBGXZ 120487a0 f   ReaderMgr.obj
 0001:000477c0       ?getFirstChild@DOMParentNode@xercesc_2_2@@QBEPAVDOMNode@2@XZ 120487c0 f   ReaderMgr.obj
 0001:000477c0       ?getName@DOMTypeInfoImpl@xercesc_2_2@@UBEPBGXZ 120487c0 f   ReaderMgr.obj
 0001:000477c0       ?getRoot@DOMNodeIteratorImpl@xercesc_2_2@@UAEPAVDOMNode@2@XZ 120487c0 f   ReaderMgr.obj
 0001:000477c0       ?getCurrentEntity@ReaderMgr@xercesc_2_2@@QBEPBVXMLEntityDecl@2@XZ 120487c0 f   ReaderMgr.obj
 0001:000477c0       ?getNextSibling@DOMChildNode@xercesc_2_2@@QBEPAVDOMNode@2@XZ 120487c0 f   ReaderMgr.obj
 0001:000477c0       ?getWhatToShow@DOMTreeWalkerImpl@xercesc_2_2@@UAEKXZ 120487c0 f   ReaderMgr.obj
 0001:000477c0       ?getCurrentEntity@ReaderMgr@xercesc_2_2@@QAEPAVXMLEntityDecl@2@XZ 120487c0 f   ReaderMgr.obj
 0001:000477d0       ?getCurrentReader@ReaderMgr@xercesc_2_2@@QBEPBVXMLReader@2@XZ 120487d0 f   ReaderMgr.obj
 0001:000477d0       ?getWhatToShow@TreeWalkerImpl@xercesc_2_2@@QAEKXZ 120487d0 f   ReaderMgr.obj
 0001:000477d0       ?size@NodeVector@xercesc_2_2@@QAEIXZ 120487d0 f   ReaderMgr.obj
 0001:000477d0       ?getValue@KVStringPair@xercesc_2_2@@QAEPAGXZ 120487d0 f   ReaderMgr.obj
 0001:000477d0       ?getEncoding@DOMWriterImpl@xercesc_2_2@@UBEPBGXZ 120487d0 f   ReaderMgr.obj
 0001:000477d0       ?getColumnNumber@SAXParseException@xercesc_2_2@@QBEJXZ 120487d0 f   ReaderMgr.obj
 0001:000477d0       ?getNamespace@DOMTypeInfoImpl@xercesc_2_2@@UBEPBGXZ 120487d0 f   ReaderMgr.obj
 0001:000477d0       ?getFilter@DOMTreeWalkerImpl@xercesc_2_2@@UAEPAVDOMNodeFilter@2@XZ 120487d0 f   ReaderMgr.obj
 0001:000477d0       ?getLength@VecAttrListImpl@xercesc_2_2@@UBEIXZ 120487d0 f   ReaderMgr.obj
 0001:000477d0       ?getLeafCount@ContentLeafNameTypeVector@xercesc_2_2@@QBE?BIXZ 120487d0 f   ReaderMgr.obj
 0001:000477d0       ?getValue@KVStringPair@xercesc_2_2@@QBEPBGXZ 120487d0 f   ReaderMgr.obj
 0001:000477d0       ?size@DOMNodeVector@xercesc_2_2@@QAEKXZ 120487d0 f   ReaderMgr.obj
 0001:000477d0       ?getCurrentReader@ReaderMgr@xercesc_2_2@@QAEPAVXMLReader@2@XZ 120487d0 f   ReaderMgr.obj
 0001:000477d0       ?getLength@VecAttributesImpl@xercesc_2_2@@UBEIXZ 120487d0 f   ReaderMgr.obj
 0001:000477e0       ?getReaderDepth@ReaderMgr@xercesc_2_2@@QBEIXZ 120487e0 f   ReaderMgr.obj
 0001:00047800       ?getLastExtEntityInfo@ReaderMgr@xercesc_2_2@@QBEXAAULastExtEntityInfo@12@@Z 12048800 f   ReaderMgr.obj
 0001:00047860       ?isScanningPERefOutOfLiteral@ReaderMgr@xercesc_2_2@@QBE_NXZ 12048860 f   ReaderMgr.obj
 0001:00047890       ?pushReader@ReaderMgr@xercesc_2_2@@QAE_NQAVXMLReader@2@QAVXMLEntityDecl@2@@Z 12048890 f   ReaderMgr.obj
 0001:00047ae0       ?reset@ReaderMgr@xercesc_2_2@@QAEXXZ 12048ae0 f   ReaderMgr.obj
 0001:00047b90       ?getPublicId@ReaderMgr@xercesc_2_2@@UBEPBGXZ 12048b90 f   ReaderMgr.obj
 0001:00047bc0       ?getSystemId@ReaderMgr@xercesc_2_2@@UBEPBGXZ 12048bc0 f   ReaderMgr.obj
 0001:00047bf0       ?getColumnNumber@ReaderMgr@xercesc_2_2@@UBEJXZ 12048bf0 f   ReaderMgr.obj
 0001:00047c20       ?getLineNumber@ReaderMgr@xercesc_2_2@@UBEJXZ 12048c20 f   ReaderMgr.obj
 0001:00047c50       ?getLastExtEntity@ReaderMgr@xercesc_2_2@@ABEPBVXMLReader@2@AAPBVXMLEntityDecl@2@@Z 12048c50 f   ReaderMgr.obj
 0001:00047dc0       ?popReader@ReaderMgr@xercesc_2_2@@AAE_NXZ 12048dc0 f   ReaderMgr.obj
 0001:00048040       ??1?$BaseRefVectorOf@VXMLReader@xercesc_2_2@@@xercesc_2_2@@UAE@XZ 12049040 f i ReaderMgr.obj
 0001:00048050       ??1?$BaseRefVectorOf@VXMLEntityDecl@xercesc_2_2@@@xercesc_2_2@@UAE@XZ 12049050 f i ReaderMgr.obj
 0001:00048060       ??_G?$RefVectorOf@VXMLReader@xercesc_2_2@@@xercesc_2_2@@UAEPAXI@Z 12049060 f i ReaderMgr.obj
 0001:00048060       ??_E?$RefVectorOf@VXMLReader@xercesc_2_2@@@xercesc_2_2@@UAEPAXI@Z 12049060 f i ReaderMgr.obj
 0001:00048080       ??1?$RefVectorOf@VXMLReader@xercesc_2_2@@@xercesc_2_2@@UAE@XZ 12049080 f i ReaderMgr.obj
 0001:00048110       ??_E?$RefVectorOf@VXMLEntityDecl@xercesc_2_2@@@xercesc_2_2@@UAEPAXI@Z 12049110 f i ReaderMgr.obj
 0001:00048110       ??_G?$RefVectorOf@VXMLEntityDecl@xercesc_2_2@@@xercesc_2_2@@UAEPAXI@Z 12049110 f i ReaderMgr.obj
 0001:00048130       ??1?$RefVectorOf@VXMLEntityDecl@xercesc_2_2@@@xercesc_2_2@@UAE@XZ 12049130 f i ReaderMgr.obj
 0001:000481b0       ?elementAt@?$BaseRefVectorOf@VXMLEntityDecl@xercesc_2_2@@@xercesc_2_2@@QBEPBVXMLEntityDecl@2@I@Z 120491b0 f i ReaderMgr.obj
 0001:000481f0       ??0?$BaseRefVectorOf@VXMLReader@xercesc_2_2@@@xercesc_2_2@@QAE@I_N@Z 120491f0 f i ReaderMgr.obj
 0001:00048250       ??0?$BaseRefVectorOf@VXMLEntityDecl@xercesc_2_2@@@xercesc_2_2@@QAE@I_N@Z 12049250 f i ReaderMgr.obj
 0001:000482b0       ?getName@SGXMLScanner@xercesc_2_2@@UBEPBGXZ 120492b0 f i SGXMLScanner.obj
 0001:000482c0       ??0SGXMLScanner@xercesc_2_2@@QAE@QAVXMLValidator@1@@Z 120492c0 f   SGXMLScanner.obj
 0001:00048400       ??_ESGXMLScanner@xercesc_2_2@@UAEPAXI@Z 12049400 f i SGXMLScanner.obj
 0001:00048460       ??0SGXMLScanner@xercesc_2_2@@QAE@QAVXMLDocumentHandler@1@QAVDocTypeHandler@1@QAVXMLEntityHandler@1@QAVXMLErrorReporter@1@QAVXMLValidator@1@@Z 12049460 f   SGXMLScanner.obj
 0001:000485b0       ??1SGXMLScanner@xercesc_2_2@@UAE@XZ 120495b0 f   SGXMLScanner.obj
 0001:00048630       ?scanDocument@SGXMLScanner@xercesc_2_2@@UAEXABVInputSource@2@@Z 12049630 f   SGXMLScanner.obj
 0001:000487f0       ?scanNext@SGXMLScanner@xercesc_2_2@@UAE_NAAVXMLPScanToken@2@@Z 120497f0 f   SGXMLScanner.obj
 0001:00048b20       ?rawAttrScan@SGXMLScanner@xercesc_2_2@@AAEIQBGAAV?$RefVectorOf@VKVStringPair@xercesc_2_2@@@2@AA_N@Z 12049b20 f   SGXMLScanner.obj
 0001:00049060       ?scanContent@SGXMLScanner@xercesc_2_2@@AAE_N_N@Z 1204a060 f   SGXMLScanner.obj
 0001:00049200       ?scanEndTag@SGXMLScanner@xercesc_2_2@@AAEXAA_N@Z 1204a200 f   SGXMLScanner.obj
 0001:000498e0       ?scanDocTypeDecl@SGXMLScanner@xercesc_2_2@@EAEXXZ 1204a8e0 f   SGXMLScanner.obj
 0001:00049920       ?scanStartTag@SGXMLScanner@xercesc_2_2@@AAE_NAA_N@Z 1204a920 f   SGXMLScanner.obj
 0001:0004ae10       ?resolveQName@SGXMLScanner@xercesc_2_2@@UAEIQBGAAVXMLBuffer@2@FAAH@Z 1204be10 f   SGXMLScanner.obj
 0001:0004ae10       ?resolveQName@IGXMLScanner@xercesc_2_2@@UAEIQBGAAVXMLBuffer@2@FAAH@Z 1204be10 f   SGXMLScanner.obj
 0001:0004af90       ?loadGrammar@SGXMLScanner@xercesc_2_2@@UAEPAVGrammar@2@ABVInputSource@2@F_N@Z 1204bf90 f   SGXMLScanner.obj
 0001:0004b120       ?commonInit@SGXMLScanner@xercesc_2_2@@AAEXXZ 1204c120 f   SGXMLScanner.obj
 0001:0004b4e0       ?cleanUp@SGXMLScanner@xercesc_2_2@@AAEXXZ 1204c4e0 f   SGXMLScanner.obj
 0001:0004b5e0       ?resizeElemState@IGXMLScanner@xercesc_2_2@@AAEXXZ 1204c5e0 f   SGXMLScanner.obj
 0001:0004b5e0       ?resizeElemState@SGXMLScanner@xercesc_2_2@@AAEXXZ 1204c5e0 f   SGXMLScanner.obj
 0001:0004b660       ?buildAttList@SGXMLScanner@xercesc_2_2@@AAEIABV?$RefVectorOf@VKVStringPair@xercesc_2_2@@@2@IPAVXMLElementDecl@2@AAV?$RefVectorOf@VXMLAttr@xercesc_2_2@@@2@@Z 1204c660 f   SGXMLScanner.obj
 0001:0004c3b0       ?normalizeAttValue@SGXMLScanner@xercesc_2_2@@AAE_NQBVXMLAttDef@2@QBGAAVXMLBuffer@2@@Z 1204d3b0 f   SGXMLScanner.obj
 0001:0004c660       ?resolvePrefix@SGXMLScanner@xercesc_2_2@@AAEIQBGAAVXMLBuffer@2@W4MapModes@ElemStack@2@@Z 1204d660 f   SGXMLScanner.obj
 0001:0004c660       ?resolvePrefix@IGXMLScanner@xercesc_2_2@@AAEIQBGAAVXMLBuffer@2@W4MapModes@ElemStack@2@@Z 1204d660 f   SGXMLScanner.obj
 0001:0004c760       ?scanReset@SGXMLScanner@xercesc_2_2@@EAEXABVInputSource@2@@Z 1204d760 f   SGXMLScanner.obj
 0001:0004c9e0       ?sendCharData@SGXMLScanner@xercesc_2_2@@EAEXAAVXMLBuffer@2@@Z 1204d9e0 f   SGXMLScanner.obj
 0001:0004cdd0       ?updateNSMap@SGXMLScanner@xercesc_2_2@@AAEXQBG0@Z 1204ddd0 f   SGXMLScanner.obj
 0001:0004d0b0       ?scanRawAttrListforNameSpaces@SGXMLScanner@xercesc_2_2@@AAEXPBV?$RefVectorOf@VKVStringPair@xercesc_2_2@@@2@H@Z 1204e0b0 f   SGXMLScanner.obj
 0001:0004d640       ?parseSchemaLocation@SGXMLScanner@xercesc_2_2@@AAEXQBG@Z 1204e640 f   SGXMLScanner.obj
 0001:0004d700       ?resolveSchemaGrammar@SGXMLScanner@xercesc_2_2@@AAEXQBG0@Z 1204e700 f   SGXMLScanner.obj
 0001:0004dcc0       ?resolveSystemId@SGXMLScanner@xercesc_2_2@@AAEPAVInputSource@2@QBG@Z 1204ecc0 f   SGXMLScanner.obj
 0001:0004df00       ?loadXMLSchemaGrammar@SGXMLScanner@xercesc_2_2@@AAEPAVGrammar@2@ABVInputSource@2@_N@Z 1204ef00 f   SGXMLScanner.obj
 0001:0004e110       ?basicAttrValueScan@SGXMLScanner@xercesc_2_2@@AAE_NQBGAAVXMLBuffer@2@@Z 1204f110 f   SGXMLScanner.obj
 0001:0004e3b0       ?scanCDSection@SGXMLScanner@xercesc_2_2@@EAEXXZ 1204f3b0 f   SGXMLScanner.obj
 0001:0004e750       ?scanCharData@SGXMLScanner@xercesc_2_2@@EAEXAAVXMLBuffer@2@@Z 1204f750 f   SGXMLScanner.obj
 0001:0004eaa0       ?scanEntityRef@SGXMLScanner@xercesc_2_2@@EAE?AW4EntityExpRes@XMLScanner@2@_NAAG1AA_N@Z 1204faa0 f   SGXMLScanner.obj
 0001:0004ed80       ?switchGrammar@SGXMLScanner@xercesc_2_2@@AAE_NQBG@Z 1204fd80 f   SGXMLScanner.obj
 0001:0004ee10       ?laxElementValidation@SGXMLScanner@xercesc_2_2@@AAE_NPAVQName@2@PAVContentLeafNameTypeVector@2@QBVXMLContentModel@2@I@Z 1204fe10 f   SGXMLScanner.obj
 0001:0004f040       ?anyAttributeValidation@SGXMLScanner@xercesc_2_2@@AAE_NPAVSchemaAttDef@2@IAA_N1@Z 12050040 f   SGXMLScanner.obj
 0001:0004f130       ?put@?$ValueHashTableOf@G@xercesc_2_2@@QAEXPAXABG@Z 12050130 f i SGXMLScanner.obj
 0001:0004f220       ??0?$ValueHashTableBucketElem@G@xercesc_2_2@@QAE@PAXABGPAU01@@Z 12050220 f i SGXMLScanner.obj
 0001:0004f240       ?elementAt@?$ValueVectorOf@PBG@xercesc_2_2@@QAEAAPBGI@Z 12050240 f i SGXMLScanner.obj
 0001:0004f240       ?elementAt@?$ValueVectorOf@H@xercesc_2_2@@QAEAAHI@Z 12050240 f i SGXMLScanner.obj
 0001:0004f240       ?elementAt@?$ValueVectorOf@PAVComplexTypeInfo@xercesc_2_2@@@xercesc_2_2@@QAEAAPAVComplexTypeInfo@2@I@Z 12050240 f i SGXMLScanner.obj
 0001:0004f240       ?elementAt@?$ValueVectorOf@I@xercesc_2_2@@QAEAAII@Z 12050240 f i SGXMLScanner.obj
 0001:0004f240       ?elementAt@?$ValueVectorOf@PBVDOMElement@xercesc_2_2@@@xercesc_2_2@@QAEAAPBVDOMElement@2@I@Z 12050240 f i SGXMLScanner.obj
 0001:0004f240       ?elementAt@?$ValueVectorOf@PAVContentSpecNode@xercesc_2_2@@@xercesc_2_2@@QAEAAPAVContentSpecNode@2@I@Z 12050240 f i SGXMLScanner.obj
 0001:0004f280       ?findBucketElem@?$ValueHashTableOf@G@xercesc_2_2@@ABEPBU?$ValueHashTableBucketElem@G@2@QBXAAI@Z 12050280 f i SGXMLScanner.obj
 0001:0004f300       ?findBucketElem@?$ValueHashTableOf@G@xercesc_2_2@@AAEPAU?$ValueHashTableBucketElem@G@2@QBXAAI@Z 12050300 f i SGXMLScanner.obj
 0001:0004f380       ??0?$BaseRefVectorOf@VKVStringPair@xercesc_2_2@@@xercesc_2_2@@QAE@I_N@Z 12050380 f i SGXMLScanner.obj
 0001:0004f3e0       ??0Attributes@xercesc_2_2@@QAE@XZ 120503e0 f i VecAttributesImpl.obj
 0001:0004f3f0       ??1Attributes@xercesc_2_2@@UAE@XZ 120503f0 f i VecAttributesImpl.obj
 0001:0004f400       ??_EAttributes@xercesc_2_2@@UAEPAXI@Z 12050400 f i VecAttributesImpl.obj
 0001:0004f460       ??0VecAttributesImpl@xercesc_2_2@@QAE@XZ 12050460 f   VecAttributesImpl.obj
 0001:0004f480       ??_EVecAttributesImpl@xercesc_2_2@@UAEPAXI@Z 12050480 f i VecAttributesImpl.obj
 0001:0004f4e0       ??1VecAttributesImpl@xercesc_2_2@@UAE@XZ 120504e0 f   VecAttributesImpl.obj
 0001:0004f540       ?getURI@VecAttributesImpl@xercesc_2_2@@UBEPBGI@Z 12050540 f   VecAttributesImpl.obj
 0001:0004f5a0       ?getLocalName@VecAttributesImpl@xercesc_2_2@@UBEPBGI@Z 120505a0 f   VecAttributesImpl.obj
 0001:0004f600       ?getIndex@VecAttributesImpl@xercesc_2_2@@UBEHQBG0@Z 12050600 f   VecAttributesImpl.obj
 0001:0004f7b0       ?getIndex@VecAttributesImpl@xercesc_2_2@@UBEHQBG@Z 120507b0 f   VecAttributesImpl.obj
 0001:0004f860       ?getType@VecAttributesImpl@xercesc_2_2@@UBEPBGQBG0@Z 12050860 f   VecAttributesImpl.obj
 0001:0004f890       ?getType@VecAttributesImpl@xercesc_2_2@@UBEPBGQBG@Z 12050890 f   VecAttributesImpl.obj
 0001:0004f8c0       ?getValue@VecAttributesImpl@xercesc_2_2@@UBEPBGQBG0@Z 120508c0 f   VecAttributesImpl.obj
 0001:0004f8f0       ?getValue@VecAttributesImpl@xercesc_2_2@@UBEPBGQBG@Z 120508f0 f   VecAttributesImpl.obj
 0001:0004f920       ?setVector@VecAttributesImpl@xercesc_2_2@@QAEXQBV?$RefVectorOf@VXMLAttr@xercesc_2_2@@@2@IQBVXMLScanner@2@_N@Z 12050920 f   VecAttributesImpl.obj
 0001:0004f960       ??0AttributeList@xercesc_2_2@@QAE@XZ 12050960 f i VecAttrListImpl.obj
 0001:0004f970       ??1AttributeList@xercesc_2_2@@UAE@XZ 12050970 f i VecAttrListImpl.obj
 0001:0004f980       ??_EAttributeList@xercesc_2_2@@UAEPAXI@Z 12050980 f i VecAttrListImpl.obj
 0001:0004f9e0       ??0VecAttrListImpl@xercesc_2_2@@QAE@XZ 120509e0 f   VecAttrListImpl.obj
 0001:0004fa00       ??_EVecAttrListImpl@xercesc_2_2@@UAEPAXI@Z 12050a00 f i VecAttrListImpl.obj
 0001:0004fa60       ??1VecAttrListImpl@xercesc_2_2@@UAE@XZ 12050a60 f   VecAttrListImpl.obj
 0001:0004fac0       ?getQName@VecAttributesImpl@xercesc_2_2@@UBEPBGI@Z 12050ac0 f   VecAttrListImpl.obj
 0001:0004fac0       ?getName@VecAttrListImpl@xercesc_2_2@@UBEPBGI@Z 12050ac0 f   VecAttrListImpl.obj
 0001:0004fb20       ?getType@VecAttributesImpl@xercesc_2_2@@UBEPBGI@Z 12050b20 f   VecAttrListImpl.obj
 0001:0004fb20       ?getType@VecAttrListImpl@xercesc_2_2@@UBEPBGI@Z 12050b20 f   VecAttrListImpl.obj
 0001:0004fb80       ?getValue@VecAttrListImpl@xercesc_2_2@@UBEPBGI@Z 12050b80 f   VecAttrListImpl.obj
 0001:0004fb80       ?getValue@VecAttributesImpl@xercesc_2_2@@UBEPBGI@Z 12050b80 f   VecAttrListImpl.obj
 0001:0004fbe0       ?getType@VecAttrListImpl@xercesc_2_2@@UBEPBGQBG@Z 12050be0 f   VecAttrListImpl.obj
 0001:0004fca0       ?getValue@VecAttrListImpl@xercesc_2_2@@UBEPBGQBG@Z 12050ca0 f   VecAttrListImpl.obj
 0001:0004fd50       ?getValue@VecAttrListImpl@xercesc_2_2@@UBEPBGQBD@Z 12050d50 f   VecAttrListImpl.obj
 0001:0004fe70       ?setVector@VecAttrListImpl@xercesc_2_2@@QAEXQBV?$RefVectorOf@VXMLAttr@xercesc_2_2@@@2@I_N@Z 12050e70 f   VecAttrListImpl.obj
 0001:0004fea0       ?getName@WFXMLScanner@xercesc_2_2@@UBEPBGXZ 12050ea0 f i WFXMLScanner.obj
 0001:0004feb0       ??0WFXMLScanner@xercesc_2_2@@QAE@QAVXMLValidator@1@@Z 12050eb0 f   WFXMLScanner.obj
 0001:00050070       ??_EWFXMLScanner@xercesc_2_2@@UAEPAXI@Z 12051070 f i WFXMLScanner.obj
 0001:000500d0       ??0WFXMLScanner@xercesc_2_2@@QAE@QAVXMLDocumentHandler@1@QAVDocTypeHandler@1@QAVXMLEntityHandler@1@QAVXMLErrorReporter@1@QAVXMLValidator@1@@Z 120510d0 f   WFXMLScanner.obj
 0001:000502a0       ??1WFXMLScanner@xercesc_2_2@@UAE@XZ 120512a0 f   WFXMLScanner.obj
 0001:00050420       ?scanDocument@WFXMLScanner@xercesc_2_2@@UAEXABVInputSource@2@@Z 12051420 f   WFXMLScanner.obj
 0001:000505d0       ?scanNext@WFXMLScanner@xercesc_2_2@@UAE_NAAVXMLPScanToken@2@@Z 120515d0 f   WFXMLScanner.obj
 0001:00050910       ?commonInit@WFXMLScanner@xercesc_2_2@@AAEXXZ 12051910 f   WFXMLScanner.obj
 0001:00050c30       ?cleanUp@WFXMLScanner@xercesc_2_2@@AAEXXZ 12051c30 f   WFXMLScanner.obj
 0001:00050d60       ?resolvePrefix@WFXMLScanner@xercesc_2_2@@AAEIQBGW4MapModes@ElemStack@2@@Z 12051d60 f   WFXMLScanner.obj
 0001:00050e50       ?scanReset@WFXMLScanner@xercesc_2_2@@EAEXABVInputSource@2@@Z 12051e50 f   WFXMLScanner.obj
 0001:00050fb0       ?sendCharData@WFXMLScanner@xercesc_2_2@@EAEXAAVXMLBuffer@2@@Z 12051fb0 f   WFXMLScanner.obj
 0001:00050ff0       ?scanContent@WFXMLScanner@xercesc_2_2@@AAE_N_N@Z 12051ff0 f   WFXMLScanner.obj
 0001:000511b0       ?scanEndTag@WFXMLScanner@xercesc_2_2@@AAEXAA_N@Z 120521b0 f   WFXMLScanner.obj
 0001:00051330       ?scanDocTypeDecl@WFXMLScanner@xercesc_2_2@@EAEXXZ 12052330 f   WFXMLScanner.obj
 0001:00051370       ?scanStartTag@WFXMLScanner@xercesc_2_2@@AAE_NAA_N@Z 12052370 f   WFXMLScanner.obj
 0001:00051cc0       ?scanStartTagNS@WFXMLScanner@xercesc_2_2@@AAE_NAA_N@Z 12052cc0 f   WFXMLScanner.obj
 0001:00052af0       ?resolveQName@WFXMLScanner@xercesc_2_2@@UAEIQBGAAVXMLBuffer@2@FAAH@Z 12053af0 f   WFXMLScanner.obj
 0001:00052c70       ?scanAttValue@WFXMLScanner@xercesc_2_2@@AAE_NQBGAAVXMLBuffer@2@@Z 12053c70 f   WFXMLScanner.obj
 0001:00052f30       ?scanCDSection@WFXMLScanner@xercesc_2_2@@EAEXXZ 12053f30 f   WFXMLScanner.obj
 0001:00053150       ?scanCharData@WFXMLScanner@xercesc_2_2@@EAEXAAVXMLBuffer@2@@Z 12054150 f   WFXMLScanner.obj
 0001:00053430       ?scanEntityRef@WFXMLScanner@xercesc_2_2@@EAE?AW4EntityExpRes@XMLScanner@2@_NAAG1AA_N@Z 12054430 f   WFXMLScanner.obj
 0001:00053710       ?loadGrammar@WFXMLScanner@xercesc_2_2@@UAEPAVGrammar@2@ABVInputSource@2@F_N@Z 12054710 f   WFXMLScanner.obj
 0001:00053720       ??_G?$RefVectorOf@VXMLElementDecl@xercesc_2_2@@@xercesc_2_2@@UAEPAXI@Z 12054720 f i WFXMLScanner.obj
 0001:00053720       ??_E?$RefVectorOf@VXMLElementDecl@xercesc_2_2@@@xercesc_2_2@@UAEPAXI@Z 12054720 f i WFXMLScanner.obj
 0001:00053740       ??1?$RefVectorOf@VXMLElementDecl@xercesc_2_2@@@xercesc_2_2@@UAE@XZ 12054740 f i WFXMLScanner.obj
 0001:000537c0       ??1?$BaseRefVectorOf@VXMLElementDecl@xercesc_2_2@@@xercesc_2_2@@UAE@XZ 120547c0 f i WFXMLScanner.obj
 0001:000537d0       ??0?$BaseRefVectorOf@VXMLElementDecl@xercesc_2_2@@@xercesc_2_2@@QAE@I_N@Z 120547d0 f i WFXMLScanner.obj
 0001:00053830       ?isAllSpaces@XMLReader@xercesc_2_2@@QAE_NQBGI@Z 12054830 f   XMLReader.obj
 0001:00053870       ?containsWhiteSpace@XMLReader@xercesc_2_2@@QAE_NQBGI@Z 12054870 f   XMLReader.obj
 0001:000538b0       ?isPublicIdChar@XMLReader@xercesc_2_2@@QAE_NG@Z 120548b0 f   XMLReader.obj
 0001:000538e0       ??0XMLReader@xercesc_2_2@@QAE@QBG0QAVBinInputStream@1@W4RefFrom@01@W4Types@01@W4Sources@01@_N5W4XMLVersion@01@@Z 120548e0 f   XMLReader.obj
 0001:00053b60       ??0XMLReader@xercesc_2_2@@QAE@QBG0QAVBinInputStream@1@0W4RefFrom@01@W4Types@01@W4Sources@01@_N5W4XMLVersion@01@@Z 12054b60 f   XMLReader.obj
 0001:00053e80       ??0XMLReader@xercesc_2_2@@QAE@QBG0QAVBinInputStream@1@W4Encodings@XMLRecognizer@1@W4RefFrom@01@W4Types@01@W4Sources@01@_N6W4XMLVersion@01@@Z 12054e80 f   XMLReader.obj
 0001:00054180       ??1XMLReader@xercesc_2_2@@QAE@XZ 12055180 f   XMLReader.obj
 0001:000541d0       ?getSrcOffset@XMLReader@xercesc_2_2@@QBEIXZ 120551d0 f   XMLReader.obj
 0001:00054240       ?refreshCharBuffer@XMLReader@xercesc_2_2@@QAE_NXZ 12055240 f   XMLReader.obj
 0001:000544d0       ?getName@XMLReader@xercesc_2_2@@QAE_NAAVXMLBuffer@2@_N@Z 120554d0 f   XMLReader.obj
 0001:000546d0       ?getSpaces@XMLReader@xercesc_2_2@@QAE_NAAVXMLBuffer@2@@Z 120556d0 f   XMLReader.obj
 0001:00054800       ?getUpToCharOrWS@XMLReader@xercesc_2_2@@QAE_NAAVXMLBuffer@2@G@Z 12055800 f   XMLReader.obj
 0001:00054940       ?skipIfQuote@XMLReader@xercesc_2_2@@QAE_NAAG@Z 12055940 f   XMLReader.obj
 0001:000549a0       ?skipSpaces@XMLReader@xercesc_2_2@@QAE_NAA_N@Z 120559a0 f   XMLReader.obj
 0001:00054b20       ?skippedChar@XMLReader@xercesc_2_2@@QAE_NG@Z 12055b20 f   XMLReader.obj
 0001:00054b60       ?skippedSpace@XMLReader@xercesc_2_2@@QAE_NXZ 12055b60 f   XMLReader.obj
 0001:00054c50       ?skippedString@XMLReader@xercesc_2_2@@QAE_NQBG@Z 12055c50 f   XMLReader.obj
 0001:00054cf0       ?peekString@XMLReader@xercesc_2_2@@QAE_NQBG@Z 12055cf0 f   XMLReader.obj
 0001:00054d70       ?setEncoding@XMLReader@xercesc_2_2@@QAE_NQBG@Z 12055d70 f   XMLReader.obj
 0001:00055170       ?checkForSwapped@XMLReader@xercesc_2_2@@AAEXXZ 12056170 f   XMLReader.obj
 0001:00055190       ?doInitDecode@XMLReader@xercesc_2_2@@AAEXXZ 12056190 f   XMLReader.obj
 0001:000555b0       ?refreshRawBuffer@XMLReader@xercesc_2_2@@AAEXXZ 120565b0 f   XMLReader.obj
 0001:00055620       ?xcodeMoreChars@XMLReader@xercesc_2_2@@AAEIQAGQAEI@Z 12056620 f   XMLReader.obj
 0001:00055730       ?reinitMsgLoader@XMLScanner@xercesc_2_2@@SAXXZ 12056730 f   XMLScanner.obj
 0001:00055750       ?reinitScannerMutex@XMLScanner@xercesc_2_2@@SAXXZ 12056750 f   XMLScanner.obj
 0001:00055780       ??0XMLScanner@xercesc_2_2@@QAE@QAVXMLValidator@1@@Z 12056780 f   XMLScanner.obj
 0001:00055ae0       ??_GXMLMutex@xercesc_2_2@@QAEPAXI@Z 12056ae0 f i XMLScanner.obj
 0001:00055b00       ??_EXMLScanner@xercesc_2_2@@UAEPAXI@Z 12056b00 f i XMLScanner.obj
 0001:00055b60       ??0XMLScanner@xercesc_2_2@@QAE@QAVXMLDocumentHandler@1@QAVDocTypeHandler@1@QAVXMLEntityHandler@1@QAVXMLErrorReporter@1@QAVXMLValidator@1@@Z 12056b60 f   XMLScanner.obj
 0001:00055ed0       ??1XMLScanner@xercesc_2_2@@UAE@XZ 12056ed0 f   XMLScanner.obj
 0001:00055ff0       ?setValidator@XMLScanner@xercesc_2_2@@QAEXQAVXMLValidator@2@@Z 12056ff0 f   XMLScanner.obj
 0001:00056040       ?scanDocument@XMLScanner@xercesc_2_2@@QAEXQBG@Z 12057040 f   XMLScanner.obj
 0001:00056320       ?scanDocument@XMLScanner@xercesc_2_2@@QAEXQBD@Z 12057320 f   XMLScanner.obj
 0001:00056380       ?scanFirst@XMLScanner@xercesc_2_2@@QAE_NQBGAAVXMLPScanToken@2@@Z 12057380 f   XMLScanner.obj
 0001:00056670       ?scanFirst@XMLScanner@xercesc_2_2@@QAE_NQBDAAVXMLPScanToken@2@@Z 12057670 f   XMLScanner.obj
 0001:000566e0       ?scanFirst@XMLScanner@xercesc_2_2@@QAE_NABVInputSource@2@AAVXMLPScanToken@2@@Z 120576e0 f   XMLScanner.obj
 0001:00056870       ?scanReset@XMLScanner@xercesc_2_2@@QAEXAAVXMLPScanToken@2@@Z 12057870 f   XMLScanner.obj
 0001:000568d0       ?setParseSettings@XMLScanner@xercesc_2_2@@QAEXQAV12@@Z 120578d0 f   XMLScanner.obj
 0001:00056a30       ?commonInit@XMLScanner@xercesc_2_2@@AAEXXZ 12057a30 f   XMLScanner.obj
 0001:00056c80       ?initValidator@XMLScanner@xercesc_2_2@@IAEXPAVXMLValidator@2@@Z 12057c80 f   XMLScanner.obj
 0001:00056ca0       ?emitError@XMLScanner@xercesc_2_2@@QAEXW4Codes@XMLErrs@2@@Z 12057ca0 f   XMLScanner.obj
 0001:00056f50       ?emitError@XMLScanner@xercesc_2_2@@QAEXW4Codes@XMLErrs@2@QBG111@Z 12057f50 f   XMLScanner.obj
 0001:00057070       ?emitError@XMLScanner@xercesc_2_2@@QAEXW4Codes@XMLErrs@2@QBD111@Z 12058070 f   XMLScanner.obj
 0001:00057190       ?scanMiscellaneous@XMLScanner@xercesc_2_2@@IAEXXZ 12058190 f   XMLScanner.obj
 0001:00057340       ?scanPI@XMLScanner@xercesc_2_2@@IAEXXZ 12058340 f   XMLScanner.obj
 0001:00057690       ?scanProlog@XMLScanner@xercesc_2_2@@IAEXXZ 12058690 f   XMLScanner.obj
 0001:00057890       ?scanXMLDecl@XMLScanner@xercesc_2_2@@IAEXW4DeclTypes@12@@Z 12058890 f   XMLScanner.obj
 0001:00058110       ?getURIText@XMLScanner@xercesc_2_2@@QBEPBGI@Z 12059110 f   XMLScanner.obj
 0001:00058150       ?getURIText@XMLScanner@xercesc_2_2@@QBE_NIAAVXMLBuffer@2@@Z 12059150 f   XMLScanner.obj
 0001:000581a0       ?checkXMLDecl@XMLScanner@xercesc_2_2@@QAE_N_N@Z 120591a0 f   XMLScanner.obj
 0001:00058320       ?loadGrammar@XMLScanner@xercesc_2_2@@QAEPAVGrammar@2@QBGF_N@Z 12059320 f   XMLScanner.obj
 0001:00058630       ?loadGrammar@XMLScanner@xercesc_2_2@@QAEPAVGrammar@2@QBDF_N@Z 12059630 f   XMLScanner.obj
 0001:000586a0       ?setURIStringPool@XMLScanner@xercesc_2_2@@QAEXQAVXMLStringPool@2@@Z 120596a0 f   XMLScanner.obj
 0001:00058700       ?checkIDRefs@XMLScanner@xercesc_2_2@@IAEXXZ 12059700 f   XMLScanner.obj
 0001:000588d0       ?isLegalToken@XMLScanner@xercesc_2_2@@IAE_NABVXMLPScanToken@2@@Z 120598d0 f   XMLScanner.obj
 0001:000588f0       ?senseNextToken@XMLScanner@xercesc_2_2@@IAE?AW4XMLTokens@12@AAI@Z 120598f0 f   XMLScanner.obj
 0001:00058a80       ?getQuotedString@XMLScanner@xercesc_2_2@@AAE_NAAVXMLBuffer@2@@Z 12059a80 f   XMLScanner.obj
 0001:00058af0       ?scanCharRef@XMLScanner@xercesc_2_2@@IAE_NAAG0@Z 12059af0 f   XMLScanner.obj
 0001:00058d30       ?scanComment@XMLScanner@xercesc_2_2@@IAEXXZ 12059d30 f   XMLScanner.obj
 0001:00058f90       ?scanEq@XMLScanner@xercesc_2_2@@IAE_NXZ 12059f90 f   XMLScanner.obj
 0001:00058fc0       ?scanUpToWSOr@XMLScanner@xercesc_2_2@@AAEIAAVXMLBuffer@2@G@Z 12059fc0 f   XMLScanner.obj
 0001:00058fe0       ??1?$XMLEnumerator@VXMLRefInfo@xercesc_2_2@@@xercesc_2_2@@UAE@XZ 12059fe0 f i XMLScanner.obj
 0001:00058ff0       ??_G?$XMLEnumerator@VXMLRefInfo@xercesc_2_2@@@xercesc_2_2@@UAEPAXI@Z 12059ff0 f i XMLScanner.obj
 0001:00058ff0       ??_E?$XMLEnumerator@VXMLRefInfo@xercesc_2_2@@@xercesc_2_2@@UAEPAXI@Z 12059ff0 f i XMLScanner.obj
 0001:00059010       ??0?$RefHashTableOf@VXMLRefInfo@xercesc_2_2@@@xercesc_2_2@@QAE@I@Z 1205a010 f i XMLScanner.obj
 0001:000590f0       ??1?$RefHashTableOfEnumerator@VXMLRefInfo@xercesc_2_2@@@xercesc_2_2@@UAE@XZ 1205a0f0 f i XMLScanner.obj
 0001:000591d0       ?nextElement@?$RefHashTableOfEnumerator@VComplexTypeInfo@xercesc_2_2@@@xercesc_2_2@@UAEAAVComplexTypeInfo@2@XZ 1205a1d0 f i XMLScanner.obj
 0001:000591d0       ?nextElement@?$RefHashTableOfEnumerator@VKVStringPair@xercesc_2_2@@@xercesc_2_2@@UAEAAVKVStringPair@2@XZ 1205a1d0 f i XMLScanner.obj
 0001:000591d0       ?nextElement@?$RefHashTableOfEnumerator@VXercesGroupInfo@xercesc_2_2@@@xercesc_2_2@@UAEAAVXercesGroupInfo@2@XZ 1205a1d0 f i XMLScanner.obj
 0001:000591d0       ?nextElement@?$RefHashTableOfEnumerator@VGrammar@xercesc_2_2@@@xercesc_2_2@@UAEAAVGrammar@2@XZ 1205a1d0 f i XMLScanner.obj
 0001:000591d0       ?nextElement@?$RefHashTableOfEnumerator@VValueStore@xercesc_2_2@@@xercesc_2_2@@UAEAAVValueStore@2@XZ 1205a1d0 f i XMLScanner.obj
 0001:000591d0       ?nextElement@?$RefHashTableOfEnumerator@V?$KeyRefPair@XVDOMUserDataHandler@xercesc_2_2@@@xercesc_2_2@@@xercesc_2_2@@UAEAAV?$KeyRefPair@XVDOMUserDataHandler@xercesc_2_2@@@2@XZ 1205a1d0 f i XMLScanner.obj
 0001:000591d0       ?nextElement@?$RefHashTableOfEnumerator@VXMLRefInfo@xercesc_2_2@@@xercesc_2_2@@UAEAAVXMLRefInfo@2@XZ 1205a1d0 f i XMLScanner.obj
 0001:000591d0       ?nextElement@?$RefHashTableOfEnumerator@VDTDAttDef@xercesc_2_2@@@xercesc_2_2@@UAEAAVDTDAttDef@2@XZ 1205a1d0 f i XMLScanner.obj
 0001:00059250       ??_G?$RefVectorOf@VXMLAttr@xercesc_2_2@@@xercesc_2_2@@UAEPAXI@Z 1205a250 f i XMLScanner.obj
 0001:00059250       ??_E?$RefVectorOf@VXMLAttr@xercesc_2_2@@@xercesc_2_2@@UAEPAXI@Z 1205a250 f i XMLScanner.obj
 0001:00059270       ??1?$RefVectorOf@VXMLAttr@xercesc_2_2@@@xercesc_2_2@@UAE@XZ 1205a270 f i XMLScanner.obj
 0001:00059300       ??1?$BaseRefVectorOf@VXMLAttr@xercesc_2_2@@@xercesc_2_2@@UAE@XZ 1205a300 f i XMLScanner.obj
 0001:00059310       ??_E?$RefHashTableOfEnumerator@VXMLRefInfo@xercesc_2_2@@@xercesc_2_2@@UAEPAXI@Z 1205a310 f i XMLScanner.obj
 0001:00059310       ??_G?$RefHashTableOfEnumerator@VXMLRefInfo@xercesc_2_2@@@xercesc_2_2@@UAEPAXI@Z 1205a310 f i XMLScanner.obj
 0001:00059330       ??0?$BaseRefVectorOf@VXMLAttr@xercesc_2_2@@@xercesc_2_2@@QAE@I_N@Z 1205a330 f i XMLScanner.obj
 0001:00059390       ?removeAll@?$RefHashTableOf@VXMLRefInfo@xercesc_2_2@@@xercesc_2_2@@QAEXXZ 1205a390 f i XMLScanner.obj
 0001:00059400       ??_GXMLRefInfo@xercesc_2_2@@QAEPAXI@Z 1205a400 f i XMLScanner.obj
 0001:00059430       ?getDefaultScanner@XMLScannerResolver@xercesc_2_2@@SAPAVXMLScanner@2@QAVXMLValidator@2@@Z 1205a430 f   XMLScannerResolver.obj
 0001:00059490       ?resolveScanner@XMLScannerResolver@xercesc_2_2@@SAPAVXMLScanner@2@QBGQAVXMLValidator@2@@Z 1205a490 f   XMLScannerResolver.obj
 0001:00059720       ?resolveScanner@XMLScannerResolver@xercesc_2_2@@SAPAVXMLScanner@2@QBGQAVXMLDocumentHandler@2@QAVDocTypeHandler@2@QAVXMLEntityHandler@2@QAVXMLErrorReporter@2@QAVXMLValidator@2@@Z 1205a720 f   XMLScannerResolver.obj
 0001:00059a00       ??0DocumentHandler@xercesc_2_2@@QAE@XZ 1205aa00 f i Dummy.obj
 0001:00059a10       ??1DocumentHandler@xercesc_2_2@@UAE@XZ 1205aa10 f i Dummy.obj
 0001:00059a20       ??_EDocumentHandler@xercesc_2_2@@UAEPAXI@Z 1205aa20 f i Dummy.obj
 0001:00059a80       ??0DTDHandler@xercesc_2_2@@QAE@XZ 1205aa80 f i Dummy.obj
 0001:00059a90       ??1DTDHandler@xercesc_2_2@@UAE@XZ 1205aa90 f i Dummy.obj
 0001:00059aa0       ??_EDTDHandler@xercesc_2_2@@UAEPAXI@Z 1205aaa0 f i Dummy.obj
 0001:00059b00       ??0EntityResolver@xercesc_2_2@@QAE@XZ 1205ab00 f i Dummy.obj
 0001:00059b10       ??1EntityResolver@xercesc_2_2@@UAE@XZ 1205ab10 f i Dummy.obj
 0001:00059b20       ??_EEntityResolver@xercesc_2_2@@UAEPAXI@Z 1205ab20 f i Dummy.obj
 0001:00059b80       ??0ErrorHandler@xercesc_2_2@@QAE@XZ 1205ab80 f i Dummy.obj
 0001:00059b90       ??1ErrorHandler@xercesc_2_2@@UAE@XZ 1205ab90 f i Dummy.obj
 0001:00059ba0       ??_EErrorHandler@xercesc_2_2@@UAEPAXI@Z 1205aba0 f i Dummy.obj
 0001:00059c00       ??0SAXException@xercesc_2_2@@QAE@XZ 1205ac00 f i Dummy.obj
 0001:00059c70       ??0SAXException@xercesc_2_2@@QAE@QBG@Z 1205ac70 f i Dummy.obj
 0001:00059ce0       ??0SAXException@xercesc_2_2@@QAE@QBD@Z 1205ace0 f i Dummy.obj
 0001:00059d00       ??0SAXException@xercesc_2_2@@QAE@ABV01@@Z 1205ad00 f i Dummy.obj
 0001:00059d70       ??_ESAXException@xercesc_2_2@@UAEPAXI@Z 1205ad70 f i Dummy.obj
 0001:00059dd0       ??0SAXNotSupportedException@xercesc_2_2@@QAE@ABV01@@Z 1205add0 f i Dummy.obj
 0001:00059e40       ??4SAXException@xercesc_2_2@@QAEAAV01@ABV01@@Z 1205ae40 f i Dummy.obj
 0001:00059e40       ??4SAXNotRecognizedException@xercesc_2_2@@QAEAAV01@ABV01@@Z 1205ae40 f i Dummy.obj
 0001:00059e40       ??4SAXNotSupportedException@xercesc_2_2@@QAEAAV01@ABV01@@Z 1205ae40 f i Dummy.obj
 0001:00059eb0       ??0SAXNotRecognizedException@xercesc_2_2@@QAE@ABV01@@Z 1205aeb0 f i Dummy.obj
 0001:00059f20       ??1SAXException@xercesc_2_2@@UAE@XZ 1205af20 f i Dummy.obj
 0001:00059f20       ??1SAXNotSupportedException@xercesc_2_2@@UAE@XZ 1205af20 f i Dummy.obj
 0001:00059f20       ??1SAXNotRecognizedException@xercesc_2_2@@UAE@XZ 1205af20 f i Dummy.obj
 0001:00059f40       ??_ESAXNotSupportedException@xercesc_2_2@@UAEPAXI@Z 1205af40 f i Dummy.obj
 0001:00059f40       ??_ESAXNotRecognizedException@xercesc_2_2@@UAEPAXI@Z 1205af40 f i Dummy.obj
 0001:00059fa0       ??0HandlerBase@xercesc_2_2@@QAE@XZ 1205afa0 f i Dummy.obj
 0001:00059fe0       ??1HandlerBase@xercesc_2_2@@UAE@XZ 1205afe0 f i Dummy.obj
 0001:0005a030       ??_EHandlerBase@xercesc_2_2@@UAEPAXI@Z 1205b030 f i Dummy.obj
 0001:0005a090       ??0Parser@xercesc_2_2@@QAE@XZ 1205b090 f i Dummy.obj
 0001:0005a0a0       ??1Parser@xercesc_2_2@@UAE@XZ 1205b0a0 f i Dummy.obj
 0001:0005a0b0       ??_EParser@xercesc_2_2@@UAEPAXI@Z 1205b0b0 f i Dummy.obj
 0001:0005a110       ??_EHandlerBase@xercesc_2_2@@W3AEPAXI@Z 1205b110 f i Dummy.obj
 0001:0005a120       ??_EHandlerBase@xercesc_2_2@@W7AEPAXI@Z 1205b120 f i Dummy.obj
 0001:0005a130       ??_EHandlerBase@xercesc_2_2@@WM@AEPAXI@Z 1205b130 f i Dummy.obj
 0001:0005a140       ??1InputSource@xercesc_2_2@@UAE@XZ 1205b140 f   InputSource.obj
 0001:0005a170       ??_EInputSource@xercesc_2_2@@UAEPAXI@Z 1205b170 f i InputSource.obj
 0001:0005a1f0       ?setEncoding@InputSource@xercesc_2_2@@UAEXQBG@Z 1205b1f0 f   InputSource.obj
 0001:0005a260       ?setEncoding@DOMWriterImpl@xercesc_2_2@@UAEXQBG@Z 1205b260 f   InputSource.obj
 0001:0005a260       ?setPublicId@InputSource@xercesc_2_2@@UAEXQBG@Z 1205b260 f   InputSource.obj
 0001:0005a2d0       ??0InputSource@xercesc_2_2@@IAE@XZ 1205b2d0 f   InputSource.obj
 0001:0005a2f0       ??0InputSource@xercesc_2_2@@IAE@QBG@Z 1205b2f0 f   InputSource.obj
 0001:0005a360       ??0InputSource@xercesc_2_2@@IAE@QBG0@Z 1205b360 f   InputSource.obj
 0001:0005a420       ??0InputSource@xercesc_2_2@@IAE@QBD@Z 1205b420 f   InputSource.obj
 0001:0005a450       ??0InputSource@xercesc_2_2@@IAE@QBD0@Z 1205b450 f   InputSource.obj
 0001:0005a490       ??0SAXNotSupportedException@xercesc_2_2@@QAE@XZ 1205b490 f   SAXException.obj
 0001:0005a500       ??0SAXNotSupportedException@xercesc_2_2@@QAE@QBG@Z 1205b500 f   SAXException.obj
 0001:0005a570       ??0SAXNotSupportedException@xercesc_2_2@@QAE@QBD@Z 1205b570 f   SAXException.obj
 0001:0005a590       ??0SAXNotSupportedException@xercesc_2_2@@QAE@ABVSAXException@1@@Z 1205b590 f   SAXException.obj
 0001:0005a600       ??0SAXNotRecognizedException@xercesc_2_2@@QAE@XZ 1205b600 f   SAXException.obj
 0001:0005a670       ??0SAXNotRecognizedException@xercesc_2_2@@QAE@QBG@Z 1205b670 f   SAXException.obj
 0001:0005a6e0       ??0SAXNotRecognizedException@xercesc_2_2@@QAE@QBD@Z 1205b6e0 f   SAXException.obj
 0001:0005a700       ??0SAXNotRecognizedException@xercesc_2_2@@QAE@ABVSAXException@1@@Z 1205b700 f   SAXException.obj
 0001:0005a770       ??0SAXParseException@xercesc_2_2@@QAE@QBGABVLocator@1@@Z 1205b770 f   SAXParseException.obj
 0001:0005a8d0       ??_ESAXParseException@xercesc_2_2@@UAEPAXI@Z 1205b8d0 f i SAXParseException.obj
 0001:0005a930       ??0SAXParseException@xercesc_2_2@@QAE@QBG00JJ@Z 1205b930 f   SAXParseException.obj
 0001:0005aa80       ??0SAXParseException@xercesc_2_2@@QAE@ABV01@@Z 1205ba80 f   SAXParseException.obj
 0001:0005abd0       ??1SAXParseException@xercesc_2_2@@UAE@XZ 1205bbd0 f   SAXParseException.obj
 0001:0005ac40       ??4SAXParseException@xercesc_2_2@@QAEAAV01@ABV01@@Z 1205bc40 f   SAXParseException.obj
 0001:0005ad70       ??0DOMImplementationLS@xercesc_2_2@@IAE@XZ 1205bd70 f i AbstractDOMParser.obj
 0001:0005ad80       ??0DOMImplementationLS@xercesc_2_2@@IAE@ABV01@@Z 1205bd80 f i AbstractDOMParser.obj
 0001:0005ad90       ??_EDOMImplementationLS@xercesc_2_2@@UAEPAXI@Z 1205bd90 f i AbstractDOMParser.obj
 0001:0005adf0       ??0DOMImplementation@xercesc_2_2@@IAE@XZ 1205bdf0 f i AbstractDOMParser.obj
 0001:0005ae00       ??0DOMImplementation@xercesc_2_2@@IAE@ABV01@@Z 1205be00 f i AbstractDOMParser.obj
 0001:0005ae10       ??1DOMImplementationLS@xercesc_2_2@@UAE@XZ 1205be10 f i AbstractDOMParser.obj
 0001:0005ae10       ??1DOMImplementation@xercesc_2_2@@UAE@XZ 1205be10 f i AbstractDOMParser.obj
 0001:0005ae20       ??_EDOMImplementation@xercesc_2_2@@UAEPAXI@Z 1205be20 f i AbstractDOMParser.obj
 0001:0005ae80       ??0DOMNodeList@xercesc_2_2@@IAE@XZ 1205be80 f i AbstractDOMParser.obj
 0001:0005ae90       ??0DOMNodeList@xercesc_2_2@@IAE@ABV01@@Z 1205be90 f i AbstractDOMParser.obj
 0001:0005aea0       ??1DOMNodeList@xercesc_2_2@@UAE@XZ 1205bea0 f i AbstractDOMParser.obj
 0001:0005aeb0       ??_EDOMNodeList@xercesc_2_2@@UAEPAXI@Z 1205beb0 f i AbstractDOMParser.obj
 0001:0005af10       ??1DOMParentNode@xercesc_2_2@@QAE@XZ 1205bf10 f i AbstractDOMParser.obj
 0001:0005af20       ??0DOMUserDataHandler@xercesc_2_2@@IAE@XZ 1205bf20 f i AbstractDOMParser.obj
 0001:0005af30       ??0DOMUserDataHandler@xercesc_2_2@@IAE@ABV01@@Z 1205bf30 f i AbstractDOMParser.obj
 0001:0005af40       ??1DOMUserDataHandler@xercesc_2_2@@UAE@XZ 1205bf40 f i AbstractDOMParser.obj
 0001:0005af50       ??_EDOMUserDataHandler@xercesc_2_2@@UAEPAXI@Z 1205bf50 f i AbstractDOMParser.obj
 0001:0005afb0       ?isReadOnly@DOMNodeImpl@xercesc_2_2@@QBE_NXZ 1205bfb0 f i AbstractDOMParser.obj
 0001:0005afd0       ?isReadOnly@DOMNodeImpl@xercesc_2_2@@QAEX_N@Z 1205bfd0 f i AbstractDOMParser.obj
 0001:0005b010       ?needsSyncData@DOMNodeImpl@xercesc_2_2@@QBE_NXZ 1205c010 f i AbstractDOMParser.obj
 0001:0005b030       ?needsSyncData@DOMNodeImpl@xercesc_2_2@@QAEX_N@Z 1205c030 f i AbstractDOMParser.obj
 0001:0005b070       ?needsSyncChildren@DOMNodeImpl@xercesc_2_2@@QBE_NXZ 1205c070 f i AbstractDOMParser.obj
 0001:0005b090       ?needsSyncChildren@DOMNodeImpl@xercesc_2_2@@QAEX_N@Z 1205c090 f i AbstractDOMParser.obj
 0001:0005b0d0       ?isOwned@DOMNodeImpl@xercesc_2_2@@QBE_NXZ 1205c0d0 f i AbstractDOMParser.obj
 0001:0005b0f0       ?isOwned@DOMNodeImpl@xercesc_2_2@@QAEX_N@Z 1205c0f0 f i AbstractDOMParser.obj
 0001:0005b130       ?isFirstChild@DOMNodeImpl@xercesc_2_2@@QBE_NXZ 1205c130 f i AbstractDOMParser.obj
 0001:0005b150       ?isFirstChild@DOMNodeImpl@xercesc_2_2@@QAEX_N@Z 1205c150 f i AbstractDOMParser.obj
 0001:0005b190       ?isSpecified@DOMNodeImpl@xercesc_2_2@@QBE_NXZ 1205c190 f i AbstractDOMParser.obj
 0001:0005b1b0       ?isSpecified@DOMNodeImpl@xercesc_2_2@@QAEX_N@Z 1205c1b0 f i AbstractDOMParser.obj
 0001:0005b1f0       ?ignorableWhitespace@DOMNodeImpl@xercesc_2_2@@QBE_NXZ 1205c1f0 f i AbstractDOMParser.obj
 0001:0005b210       ?ignorableWhitespace@DOMNodeImpl@xercesc_2_2@@QAEX_N@Z 1205c210 f i AbstractDOMParser.obj
 0001:0005b250       ?setValue@DOMNodeImpl@xercesc_2_2@@QBE_NXZ 1205c250 f i AbstractDOMParser.obj
 0001:0005b270       ?setValue@DOMNodeImpl@xercesc_2_2@@QAEX_N@Z 1205c270 f i AbstractDOMParser.obj
 0001:0005b2b0       ?isIdAttr@DOMNodeImpl@xercesc_2_2@@QBE_NXZ 1205c2b0 f i AbstractDOMParser.obj
 0001:0005b2d0       ?isIdAttr@DOMNodeImpl@xercesc_2_2@@QAEX_N@Z 1205c2d0 f i AbstractDOMParser.obj
 0001:0005b310       ?hasUserData@DOMNodeImpl@xercesc_2_2@@QBE_NXZ 1205c310 f i AbstractDOMParser.obj
 0001:0005b330       ?hasUserData@DOMNodeImpl@xercesc_2_2@@QAEX_N@Z 1205c330 f i AbstractDOMParser.obj
 0001:0005b370       ?isLeafNode@DOMNodeImpl@xercesc_2_2@@QBE_NXZ 1205c370 f i AbstractDOMParser.obj
 0001:0005b390       ?setIsLeafNode@DOMNodeImpl@xercesc_2_2@@QAEX_N@Z 1205c390 f i AbstractDOMParser.obj
 0001:0005b3d0       ?isChildNode@DOMNodeImpl@xercesc_2_2@@QBE_NXZ 1205c3d0 f i AbstractDOMParser.obj
 0001:0005b3f0       ?setIsChildNode@DOMNodeImpl@xercesc_2_2@@QAEX_N@Z 1205c3f0 f i AbstractDOMParser.obj
 0001:0005b430       ?isToBeReleased@DOMNodeImpl@xercesc_2_2@@QBE_NXZ 1205c430 f i AbstractDOMParser.obj
 0001:0005b450       ?isToBeReleased@DOMNodeImpl@xercesc_2_2@@QAEX_N@Z 1205c450 f i AbstractDOMParser.obj
 0001:0005b490       ?setErrorChecking@DOMDocumentImpl@xercesc_2_2@@QAEX_N@Z 1205c490 f i AbstractDOMParser.obj
 0001:0005b4a0       ?getErrorChecking@DOMDocumentImpl@xercesc_2_2@@QBE_NXZ 1205c4a0 f i AbstractDOMParser.obj
 0001:0005b4b0       ??0DOMDocumentImpl@xercesc_2_2@@QAE@ABV01@@Z 1205c4b0 f i AbstractDOMParser.obj
 0001:0005b5c0       ??_EDOMDocumentImpl@xercesc_2_2@@UAEPAXI@Z 1205c5c0 f i AbstractDOMParser.obj
 0001:0005b620       ??0DOMTypeInfo@xercesc_2_2@@IAE@XZ 1205c620 f i AbstractDOMParser.obj
 0001:0005b630       ??0DOMTypeInfo@xercesc_2_2@@IAE@ABV01@@Z 1205c630 f i AbstractDOMParser.obj
 0001:0005b640       ??1DOMTypeInfo@xercesc_2_2@@UAE@XZ 1205c640 f i AbstractDOMParser.obj
 0001:0005b640       ??1DOMTypeInfoImpl@xercesc_2_2@@UAE@XZ 1205c640 f i AbstractDOMParser.obj
 0001:0005b650       ??_EDOMTypeInfo@xercesc_2_2@@UAEPAXI@Z 1205c650 f i AbstractDOMParser.obj
 0001:0005b6b0       ??_ODOMAttrImpl@xercesc_2_2@@QAEXABV01@@Z 1205c6b0 f i AbstractDOMParser.obj
 0001:0005b6c0       ?removeAttrFromIDNodeMap@DOMAttrImpl@xercesc_2_2@@UAEXXZ 1205c6c0 f i AbstractDOMParser.obj
 0001:0005b6f0       ?addAttrToIDNodeMap@DOMAttrImpl@xercesc_2_2@@UAEXXZ 1205c6f0 f i AbstractDOMParser.obj
 0001:0005b780       ??0DOMCharacterData@xercesc_2_2@@IAE@XZ 1205c780 f i AbstractDOMParser.obj
 0001:0005b790       ??0DOMCharacterData@xercesc_2_2@@IAE@ABV01@@Z 1205c790 f i AbstractDOMParser.obj
 0001:0005b7a0       ??0DOMText@xercesc_2_2@@IAE@XZ 1205c7a0 f i AbstractDOMParser.obj
 0001:0005b7b0       ??0DOMText@xercesc_2_2@@IAE@ABV01@@Z 1205c7b0 f i AbstractDOMParser.obj
 0001:0005b7c0       ??0DOMCDATASection@xercesc_2_2@@IAE@XZ 1205c7c0 f i AbstractDOMParser.obj
 0001:0005b7d0       ??0DOMCDATASection@xercesc_2_2@@IAE@ABV01@@Z 1205c7d0 f i AbstractDOMParser.obj
 0001:0005b7e0       ??0DOMComment@xercesc_2_2@@IAE@XZ 1205c7e0 f i AbstractDOMParser.obj
 0001:0005b7f0       ??0DOMComment@xercesc_2_2@@IAE@ABV01@@Z 1205c7f0 f i AbstractDOMParser.obj
 0001:0005b800       ??4DOMTextImpl@xercesc_2_2@@QAEAAV01@ABV01@@Z 1205c800 f i AbstractDOMParser.obj
 0001:0005b800       ??4DOMNotationImpl@xercesc_2_2@@QAEAAV01@ABV01@@Z 1205c800 f i AbstractDOMParser.obj
 0001:0005b800       ??4DOMCommentImpl@xercesc_2_2@@QAEAAV01@ABV01@@Z 1205c800 f i AbstractDOMParser.obj
 0001:0005b830       ??_ODOMTextImpl@xercesc_2_2@@QAEXABV01@@Z 1205c830 f i AbstractDOMParser.obj
 0001:0005b840       ??0DOMDocumentTypeImpl@xercesc_2_2@@QAE@ABV01@@Z 1205c840 f i AbstractDOMParser.obj
 0001:0005b8f0       ??_EDOMDocumentTypeImpl@xercesc_2_2@@UAEPAXI@Z 1205c8f0 f i AbstractDOMParser.obj
 0001:0005b950       ??0DOMNamedNodeMap@xercesc_2_2@@IAE@XZ 1205c950 f i AbstractDOMParser.obj
 0001:0005b960       ??0DOMNamedNodeMap@xercesc_2_2@@IAE@ABV01@@Z 1205c960 f i AbstractDOMParser.obj
 0001:0005b970       ??1DOMNamedNodeMap@xercesc_2_2@@UAE@XZ 1205c970 f i AbstractDOMParser.obj
 0001:0005b980       ??_EDOMNamedNodeMap@xercesc_2_2@@UAEPAXI@Z 1205c980 f i AbstractDOMParser.obj
 0001:0005b9e0       ??0DOMNamedNodeMapImpl@xercesc_2_2@@QAE@ABV01@@Z 1205c9e0 f i AbstractDOMParser.obj
 0001:0005ba10       ??_EDOMNamedNodeMapImpl@xercesc_2_2@@UAEPAXI@Z 1205ca10 f i AbstractDOMParser.obj
 0001:0005ba70       ??0DOMAttrMapImpl@xercesc_2_2@@QAE@ABV01@@Z 1205ca70 f i AbstractDOMParser.obj
 0001:0005baa0       ??4DOMAttrMapImpl@xercesc_2_2@@QAEAAV01@ABV01@@Z 1205caa0 f i AbstractDOMParser.obj
 0001:0005bac0       ??_EDOMAttrMapImpl@xercesc_2_2@@UAEPAXI@Z 1205cac0 f i AbstractDOMParser.obj
 0001:0005bb20       ??_ODOMElementImpl@xercesc_2_2@@QAEXABV01@@Z 1205cb20 f i AbstractDOMParser.obj
 0001:0005bb30       ??0DOMEntity@xercesc_2_2@@IAE@XZ 1205cb30 f i AbstractDOMParser.obj
 0001:0005bb40       ??0DOMEntity@xercesc_2_2@@IAE@ABV01@@Z 1205cb40 f i AbstractDOMParser.obj
 0001:0005bb50       ??_ODOMEntityImpl@xercesc_2_2@@QAEXABV01@@Z 1205cb50 f i AbstractDOMParser.obj
 0001:0005bb60       ??0DOMEntityReference@xercesc_2_2@@IAE@XZ 1205cb60 f i AbstractDOMParser.obj
 0001:0005bb70       ??0DOMEntityReference@xercesc_2_2@@IAE@ABV01@@Z 1205cb70 f i AbstractDOMParser.obj
 0001:0005bb80       ??_ODOMEntityReferenceImpl@xercesc_2_2@@QAEXABV01@@Z 1205cb80 f i AbstractDOMParser.obj
 0001:0005bb90       ??0DOMNotation@xercesc_2_2@@IAE@XZ 1205cb90 f i AbstractDOMParser.obj
 0001:0005bba0       ??0DOMNotation@xercesc_2_2@@IAE@ABV01@@Z 1205cba0 f i AbstractDOMParser.obj
 0001:0005bbb0       ??_ODOMNotationImpl@xercesc_2_2@@QAEXABV01@@Z 1205cbb0 f i AbstractDOMParser.obj
 0001:0005bbc0       ??0DOMProcessingInstruction@xercesc_2_2@@IAE@XZ 1205cbc0 f i AbstractDOMParser.obj
 0001:0005bbd0       ??0DOMProcessingInstruction@xercesc_2_2@@IAE@ABV01@@Z 1205cbd0 f i AbstractDOMParser.obj
 0001:0005bbe0       ??4DOMProcessingInstructionImpl@xercesc_2_2@@QAEAAV01@ABV01@@Z 1205cbe0 f i AbstractDOMParser.obj
 0001:0005bc20       ??_ODOMProcessingInstructionImpl@xercesc_2_2@@QAEXABV01@@Z 1205cc20 f i AbstractDOMParser.obj
 0001:0005bc30       ??0AbstractDOMParser@xercesc_2_2@@IAE@QAVXMLValidator@1@@Z 1205cc30 f   AbstractDOMParser.obj
 0001:0005bd20       ??_EAbstractDOMParser@xercesc_2_2@@UAEPAXI@Z 1205cd20 f i AbstractDOMParser.obj
 0001:0005bd80       ??1AbstractDOMParser@xercesc_2_2@@UAE@XZ 1205cd80 f   AbstractDOMParser.obj
 0001:0005be20       ?initialize@AbstractDOMParser@xercesc_2_2@@AAEXXZ 1205ce20 f   AbstractDOMParser.obj
 0001:0005bf40       ?cleanUp@AbstractDOMParser@xercesc_2_2@@AAEXXZ 1205cf40 f   AbstractDOMParser.obj
 0001:0005bfd0       ?reset@AbstractDOMParser@xercesc_2_2@@QAEXXZ 1205cfd0 f   AbstractDOMParser.obj
 0001:0005c140       ?resetPool@AbstractDOMParser@xercesc_2_2@@IAEXXZ 1205d140 f   AbstractDOMParser.obj
 0001:0005c1e0       ?isDocumentAdopted@AbstractDOMParser@xercesc_2_2@@IBE_NXZ 1205d1e0 f   AbstractDOMParser.obj
 0001:0005c1f0       ?adoptDocument@AbstractDOMParser@xercesc_2_2@@QAEPAVDOMDocument@2@XZ 1205d1f0 f   AbstractDOMParser.obj
 0001:0005c200       ?getValidator@AbstractDOMParser@xercesc_2_2@@QBEABVXMLValidator@2@XZ 1205d200 f   AbstractDOMParser.obj
 0001:0005c210       ?getDoNamespaces@AbstractDOMParser@xercesc_2_2@@QBE_NXZ 1205d210 f   AbstractDOMParser.obj
 0001:0005c220       ?getExitOnFirstFatalError@AbstractDOMParser@xercesc_2_2@@QBE_NXZ 1205d220 f   AbstractDOMParser.obj
 0001:0005c230       ?getValidationConstraintFatal@AbstractDOMParser@xercesc_2_2@@QBE_NXZ 1205d230 f   AbstractDOMParser.obj
 0001:0005c240       ?getValidationScheme@AbstractDOMParser@xercesc_2_2@@QBE?AW4ValSchemes@12@XZ 1205d240 f   AbstractDOMParser.obj
 0001:0005c260       ?getDoSchema@AbstractDOMParser@xercesc_2_2@@QBE_NXZ 1205d260 f   AbstractDOMParser.obj
 0001:0005c270       ?getValidationSchemaFullChecking@AbstractDOMParser@xercesc_2_2@@QBE_NXZ 1205d270 f   AbstractDOMParser.obj
 0001:0005c280       ?getErrorCount@AbstractDOMParser@xercesc_2_2@@QBEHXZ 1205d280 f   AbstractDOMParser.obj
 0001:0005c290       ?getExternalSchemaLocation@AbstractDOMParser@xercesc_2_2@@QBEPAGXZ 1205d290 f   AbstractDOMParser.obj
 0001:0005c2a0       ?getExternalNoNamespaceSchemaLocation@AbstractDOMParser@xercesc_2_2@@QBEPAGXZ 1205d2a0 f   AbstractDOMParser.obj
 0001:0005c2b0       ?getLoadExternalDTD@AbstractDOMParser@xercesc_2_2@@QBE_NXZ 1205d2b0 f   AbstractDOMParser.obj
 0001:0005c2c0       ?getCalculateSrcOfs@AbstractDOMParser@xercesc_2_2@@QBE_NXZ 1205d2c0 f   AbstractDOMParser.obj
 0001:0005c2d0       ?getStandardUriConformant@AbstractDOMParser@xercesc_2_2@@QBE_NXZ 1205d2d0 f   AbstractDOMParser.obj
 0001:0005c2e0       ?setDoNamespaces@AbstractDOMParser@xercesc_2_2@@QAEX_N@Z 1205d2e0 f   AbstractDOMParser.obj
 0001:0005c2f0       ?setExitOnFirstFatalError@AbstractDOMParser@xercesc_2_2@@QAEX_N@Z 1205d2f0 f   AbstractDOMParser.obj
 0001:0005c300       ?setValidationConstraintFatal@AbstractDOMParser@xercesc_2_2@@QAEX_N@Z 1205d300 f   AbstractDOMParser.obj
 0001:0005c310       ?setValidationScheme@AbstractDOMParser@xercesc_2_2@@QAEXW4ValSchemes@12@@Z 1205d310 f   AbstractDOMParser.obj
 0001:0005c360       ?setDoSchema@AbstractDOMParser@xercesc_2_2@@QAEX_N@Z 1205d360 f   AbstractDOMParser.obj
 0001:0005c370       ?setValidationSchemaFullChecking@AbstractDOMParser@xercesc_2_2@@QAEX_N@Z 1205d370 f   AbstractDOMParser.obj
 0001:0005c380       ?setExternalSchemaLocation@AbstractDOMParser@xercesc_2_2@@QAEXQBG@Z 1205d380 f   AbstractDOMParser.obj
 0001:0005c400       ?setExternalNoNamespaceSchemaLocation@AbstractDOMParser@xercesc_2_2@@QAEXQBG@Z 1205d400 f   AbstractDOMParser.obj
 0001:0005c480       ?setExternalSchemaLocation@AbstractDOMParser@xercesc_2_2@@QAEXQBD@Z 1205d480 f   AbstractDOMParser.obj
 0001:0005c4b0       ?setExternalNoNamespaceSchemaLocation@AbstractDOMParser@xercesc_2_2@@QAEXQBD@Z 1205d4b0 f   AbstractDOMParser.obj
 0001:0005c4e0       ?setLoadExternalDTD@AbstractDOMParser@xercesc_2_2@@QAEX_N@Z 1205d4e0 f   AbstractDOMParser.obj
 0001:0005c4f0       ?setCalculateSrcOfs@AbstractDOMParser@xercesc_2_2@@QAEX_N@Z 1205d4f0 f   AbstractDOMParser.obj
 0001:0005c500       ?setStandardUriConformant@AbstractDOMParser@xercesc_2_2@@QAEX_N@Z 1205d500 f   AbstractDOMParser.obj
 0001:0005c510       ?useScanner@AbstractDOMParser@xercesc_2_2@@QAEXQBG@Z 1205d510 f   AbstractDOMParser.obj
 0001:0005c560       ?parse@AbstractDOMParser@xercesc_2_2@@QAEXABVInputSource@2@@Z 1205d560 f   AbstractDOMParser.obj
 0001:0005c610       ?parse@AbstractDOMParser@xercesc_2_2@@QAEXQBG@Z 1205d610 f   AbstractDOMParser.obj
 0001:0005c6c0       ?parse@AbstractDOMParser@xercesc_2_2@@QAEXQBD@Z 1205d6c0 f   AbstractDOMParser.obj
 0001:0005c770       ?parseFirst@AbstractDOMParser@xercesc_2_2@@QAE_NQBGAAVXMLPScanToken@2@@Z 1205d770 f   AbstractDOMParser.obj
 0001:0005c7c0       ?parseFirst@AbstractDOMParser@xercesc_2_2@@QAE_NQBDAAVXMLPScanToken@2@@Z 1205d7c0 f   AbstractDOMParser.obj
 0001:0005c810       ?parseFirst@AbstractDOMParser@xercesc_2_2@@QAE_NABVInputSource@2@AAVXMLPScanToken@2@@Z 1205d810 f   AbstractDOMParser.obj
 0001:0005c860       ?parseNext@AbstractDOMParser@xercesc_2_2@@QAE_NAAVXMLPScanToken@2@@Z 1205d860 f   AbstractDOMParser.obj
 0001:0005c870       ?parseReset@AbstractDOMParser@xercesc_2_2@@QAEXAAVXMLPScanToken@2@@Z 1205d870 f   AbstractDOMParser.obj
 0001:0005c890       ?docCharacters@AbstractDOMParser@xercesc_2_2@@UAEXQBGI_N@Z 1205d890 f   AbstractDOMParser.obj
 0001:0005c920       ?docComment@AbstractDOMParser@xercesc_2_2@@UAEXQBG@Z 1205d920 f   AbstractDOMParser.obj
 0001:0005c950       ?docPI@AbstractDOMParser@xercesc_2_2@@UAEXQBG0@Z 1205d950 f   AbstractDOMParser.obj
 0001:0005c980       ?endEntityReference@AbstractDOMParser@xercesc_2_2@@UAEXABVXMLEntityDecl@2@@Z 1205d980 f   AbstractDOMParser.obj
 0001:0005cc80       ?endElement@AbstractDOMParser@xercesc_2_2@@UAEXABVXMLElementDecl@2@I_NQBG@Z 1205dc80 f   AbstractDOMParser.obj
 0001:0005cd70       ?ignorableWhitespace@AbstractDOMParser@xercesc_2_2@@UAEXQBGI_N@Z 1205dd70 f   AbstractDOMParser.obj
 0001:0005ce00       ?resetDocument@AbstractDOMParser@xercesc_2_2@@UAEXXZ 1205de00 f   AbstractDOMParser.obj
 0001:0005ce10       ?startDocument@AbstractDOMParser@xercesc_2_2@@UAEXXZ 1205de10 f   AbstractDOMParser.obj
 0001:0005ce80       ?endDocument@AbstractDOMParser@xercesc_2_2@@UAEXXZ 1205de80 f   AbstractDOMParser.obj
 0001:0005ceb0       ?startElement@AbstractDOMParser@xercesc_2_2@@UAEXABVXMLElementDecl@2@IQBGABV?$RefVectorOf@VXMLAttr@xercesc_2_2@@@2@I_N3@Z 1205deb0 f   AbstractDOMParser.obj
 0001:0005d7e0       ?startEntityReference@AbstractDOMParser@xercesc_2_2@@UAEXABVXMLEntityDecl@2@@Z 1205e7e0 f   AbstractDOMParser.obj
 0001:0005d900       ?XMLDecl@AbstractDOMParser@xercesc_2_2@@UAEXQBG000@Z 1205e900 f   AbstractDOMParser.obj
 0001:0005d9a0       ?createElementNSNode@AbstractDOMParser@xercesc_2_2@@MAEPAVDOMElement@2@PBG0@Z 1205e9a0 f   AbstractDOMParser.obj
 0001:0005d9c0       ?getDoValidation@AbstractDOMParser@xercesc_2_2@@QBE_NXZ 1205e9c0 f   AbstractDOMParser.obj
 0001:0005d9d0       ?setDoValidation@AbstractDOMParser@xercesc_2_2@@QAEX_N@Z 1205e9d0 f   AbstractDOMParser.obj
 0001:0005da00       ?attDef@AbstractDOMParser@xercesc_2_2@@UAEXABVDTDElementDecl@2@ABVDTDAttDef@2@_N@Z 1205ea00 f   AbstractDOMParser.obj
 0001:0005de90       ?doctypeComment@AbstractDOMParser@xercesc_2_2@@UAEXQBG@Z 1205ee90 f   AbstractDOMParser.obj
 0001:0005df80       ?doctypeDecl@AbstractDOMParser@xercesc_2_2@@UAEXABVDTDElementDecl@2@QBG1_N2@Z 1205ef80 f   AbstractDOMParser.obj
 0001:0005dfc0       ?doctypePI@AbstractDOMParser@xercesc_2_2@@UAEXQBG0@Z 1205efc0 f   AbstractDOMParser.obj
 0001:0005e0a0       ?doctypeWhitespace@AbstractDOMParser@xercesc_2_2@@UAEXQBGI@Z 1205f0a0 f   AbstractDOMParser.obj
 0001:0005e0d0       ?elementDecl@AbstractDOMParser@xercesc_2_2@@UAEXABVDTDElementDecl@2@_N@Z 1205f0d0 f   AbstractDOMParser.obj
 0001:0005e1e0       ?endAttList@AbstractDOMParser@xercesc_2_2@@UAEXABVDTDElementDecl@2@@Z 1205f1e0 f   AbstractDOMParser.obj
 0001:0005e4d0       ?endIntSubset@AbstractDOMParser@xercesc_2_2@@UAEXXZ 1205f4d0 f   AbstractDOMParser.obj
 0001:0005e500       ?entityDecl@AbstractDOMParser@xercesc_2_2@@UAEXABVDTDEntityDecl@2@_N1@Z 1205f500 f   AbstractDOMParser.obj
 0001:0005e890       ?resetDocType@AbstractDOMParser@xercesc_2_2@@UAEXXZ 1205f890 f   AbstractDOMParser.obj
 0001:0005e8a0       ?notationDecl@AbstractDOMParser@xercesc_2_2@@UAEXABVXMLNotationDecl@2@_N@Z 1205f8a0 f   AbstractDOMParser.obj
 0001:0005eb30       ?startAttList@AbstractDOMParser@xercesc_2_2@@UAEXABVDTDElementDecl@2@@Z 1205fb30 f   AbstractDOMParser.obj
 0001:0005ebe0       ?startIntSubset@AbstractDOMParser@xercesc_2_2@@UAEXXZ 1205fbe0 f   AbstractDOMParser.obj
 0001:0005ebf0       ?TextDecl@AbstractDOMParser@xercesc_2_2@@UAEXQBG0@Z 1205fbf0 f   AbstractDOMParser.obj
 0001:0005ec20       ??_G?$RefVectorOf@VDOMDocumentImpl@xercesc_2_2@@@xercesc_2_2@@UAEPAXI@Z 1205fc20 f i AbstractDOMParser.obj
 0001:0005ec20       ??_E?$RefVectorOf@VDOMDocumentImpl@xercesc_2_2@@@xercesc_2_2@@UAEPAXI@Z 1205fc20 f i AbstractDOMParser.obj
 0001:0005ec40       ??1?$RefVectorOf@VDOMDocumentImpl@xercesc_2_2@@@xercesc_2_2@@UAE@XZ 1205fc40 f i AbstractDOMParser.obj
 0001:0005ecc0       ??1?$BaseRefVectorOf@VDOMDocumentImpl@xercesc_2_2@@@xercesc_2_2@@UAE@XZ 1205fcc0 f i AbstractDOMParser.obj
 0001:0005ecd0       ??_EDOMDocumentImpl@xercesc_2_2@@W3AEPAXI@Z 1205fcd0 f i AbstractDOMParser.obj
 0001:0005ece0       ??_EDOMDocumentImpl@xercesc_2_2@@W7AEPAXI@Z 1205fce0 f i AbstractDOMParser.obj
 0001:0005ecf0       ??_EAbstractDOMParser@xercesc_2_2@@W3AEPAXI@Z 1205fcf0 f i AbstractDOMParser.obj
 0001:0005ed00       ??_EAbstractDOMParser@xercesc_2_2@@W7AEPAXI@Z 1205fd00 f i AbstractDOMParser.obj
 0001:0005ed10       ??_EAbstractDOMParser@xercesc_2_2@@WM@AEPAXI@Z 1205fd10 f i AbstractDOMParser.obj
 0001:0005ed20       ??0DOMBuilder@xercesc_2_2@@IAE@XZ 1205fd20 f i DOMBuilderImpl.obj
 0001:0005ed30       ??0DOMBuilder@xercesc_2_2@@IAE@ABV01@@Z 1205fd30 f i DOMBuilderImpl.obj
 0001:0005ed40       ??1DOMBuilder@xercesc_2_2@@UAE@XZ 1205fd40 f i DOMBuilderImpl.obj
 0001:0005ed50       ??_EDOMBuilder@xercesc_2_2@@UAEPAXI@Z 1205fd50 f i DOMBuilderImpl.obj
 0001:0005edb0       ??_FDOMBuilderImpl@xercesc_2_2@@QAEXXZ 1205fdb0 f i DOMBuilderImpl.obj
 0001:0005edc0       ??0DOMEntityResolver@xercesc_2_2@@IAE@XZ 1205fdc0 f i DOMBuilderImpl.obj
 0001:0005edd0       ??0DOMEntityResolver@xercesc_2_2@@IAE@ABV01@@Z 1205fdd0 f i DOMBuilderImpl.obj
 0001:0005ede0       ??1DOMEntityResolver@xercesc_2_2@@UAE@XZ 1205fde0 f i DOMBuilderImpl.obj
 0001:0005edf0       ??_EDOMEntityResolver@xercesc_2_2@@UAEPAXI@Z 1205fdf0 f i DOMBuilderImpl.obj
 0001:0005ee50       ??0DOMErrorHandler@xercesc_2_2@@IAE@XZ 1205fe50 f i DOMBuilderImpl.obj
 0001:0005ee60       ??0DOMErrorHandler@xercesc_2_2@@IAE@ABV01@@Z 1205fe60 f i DOMBuilderImpl.obj
 0001:0005ee70       ??1DOMErrorHandler@xercesc_2_2@@UAE@XZ 1205fe70 f i DOMBuilderImpl.obj
 0001:0005ee80       ??_EDOMErrorHandler@xercesc_2_2@@UAEPAXI@Z 1205fe80 f i DOMBuilderImpl.obj
 0001:0005eee0       ??0DOMError@xercesc_2_2@@IAE@XZ 1205fee0 f i DOMBuilderImpl.obj
 0001:0005eef0       ??0DOMError@xercesc_2_2@@IAE@ABV01@@Z 1205fef0 f i DOMBuilderImpl.obj
 0001:0005ef00       ??1DOMError@xercesc_2_2@@UAE@XZ 1205ff00 f i DOMBuilderImpl.obj
 0001:0005ef10       ??_EDOMError@xercesc_2_2@@UAEPAXI@Z 1205ff10 f i DOMBuilderImpl.obj
 0001:0005ef70       ?getSeverity@DOMErrorImpl@xercesc_2_2@@UBEFXZ 1205ff70 f i DOMBuilderImpl.obj
 0001:0005ef80       ?setSeverity@DOMErrorImpl@xercesc_2_2@@UAEXF@Z 1205ff80 f i DOMBuilderImpl.obj
 0001:0005ef90       ??0DOMLocator@xercesc_2_2@@IAE@XZ 1205ff90 f i DOMBuilderImpl.obj
 0001:0005efa0       ??0DOMLocator@xercesc_2_2@@IAE@ABV01@@Z 1205ffa0 f i DOMBuilderImpl.obj
 0001:0005efb0       ??1DOMLocator@xercesc_2_2@@UAE@XZ 1205ffb0 f i DOMBuilderImpl.obj
 0001:0005efc0       ??_EDOMLocator@xercesc_2_2@@UAEPAXI@Z 1205ffc0 f i DOMBuilderImpl.obj
 0001:0005f020       ??0DOMBuilderImpl@xercesc_2_2@@QAE@QAVXMLValidator@1@@Z 12060020 f   DOMBuilderImpl.obj
 0001:0005f080       ??_EDOMBuilderImpl@xercesc_2_2@@UAEPAXI@Z 12060080 f i DOMBuilderImpl.obj
 0001:0005f0e0       ??1DOMBuilderImpl@xercesc_2_2@@UAE@XZ 120600e0 f   DOMBuilderImpl.obj
 0001:0005f120       ?setErrorHandler@DOMBuilderImpl@xercesc_2_2@@UAEXQAVDOMErrorHandler@2@@Z 12060120 f   DOMBuilderImpl.obj
 0001:0005f160       ?setEntityResolver@DOMBuilderImpl@xercesc_2_2@@UAEXQAVDOMEntityResolver@2@@Z 12060160 f   DOMBuilderImpl.obj
 0001:0005f190       ?setFeature@DOMBuilderImpl@xercesc_2_2@@UAEXQBG_N@Z 12060190 f   DOMBuilderImpl.obj
 0001:0005f570       ?getFeature@DOMBuilderImpl@xercesc_2_2@@UBE_NQBG@Z 12060570 f   DOMBuilderImpl.obj
 0001:0005f860       ?canSetFeature@DOMBuilderImpl@xercesc_2_2@@UBE_NQBG_N@Z 12060860 f   DOMBuilderImpl.obj
 0001:0005fa70       ?setProperty@DOMBuilderImpl@xercesc_2_2@@UAEXQBGPAX@Z 12060a70 f   DOMBuilderImpl.obj
 0001:0005fb50       ?getProperty@DOMBuilderImpl@xercesc_2_2@@UBEPAXQBG@Z 12060b50 f   DOMBuilderImpl.obj
 0001:0005fbc0       ?release@DOMBuilderImpl@xercesc_2_2@@UAEXXZ 12060bc0 f   DOMBuilderImpl.obj
 0001:0005fbd0       ?resetDocumentPool@DOMBuilderImpl@xercesc_2_2@@UAEXXZ 12060bd0 f   DOMBuilderImpl.obj
 0001:0005fbe0       ?parse@DOMBuilderImpl@xercesc_2_2@@UAEPAVDOMDocument@2@ABVDOMInputSource@2@@Z 12060be0 f   DOMBuilderImpl.obj
 0001:0005fc60       ?parseURI@DOMBuilderImpl@xercesc_2_2@@UAEPAVDOMDocument@2@QBG@Z 12060c60 f   DOMBuilderImpl.obj
 0001:0005fc90       ?parseURI@DOMBuilderImpl@xercesc_2_2@@UAEPAVDOMDocument@2@QBD@Z 12060c90 f   DOMBuilderImpl.obj
 0001:0005fcc0       ?error@DOMBuilderImpl@xercesc_2_2@@UAEXIQBGW4ErrTypes@XMLErrorReporter@2@000JJ@Z 12060cc0 f   DOMBuilderImpl.obj
 0001:0005fdb0       ?resolveEntity@DOMBuilderImpl@xercesc_2_2@@UAEPAVInputSource@2@QBG00@Z 12060db0 f   DOMBuilderImpl.obj
 0001:0005fe40       ?loadGrammar@DOMBuilderImpl@xercesc_2_2@@UAEPAVGrammar@2@QBDF_N@Z 12060e40 f   DOMBuilderImpl.obj
 0001:0005ff10       ?loadGrammar@DOMBuilderImpl@xercesc_2_2@@UAEPAVGrammar@2@QBGF_N@Z 12060f10 f   DOMBuilderImpl.obj
 0001:0005ffe0       ?loadGrammar@DOMBuilderImpl@xercesc_2_2@@UAEPAVGrammar@2@ABVDOMInputSource@2@F_N@Z 12060fe0 f   DOMBuilderImpl.obj
 0001:000600d0       ?resetCachedGrammarPool@DOMBuilderImpl@xercesc_2_2@@UAEXXZ 120610d0 f   DOMBuilderImpl.obj
 0001:000600e0       ?getGrammar@DOMBuilderImpl@xercesc_2_2@@UBEPAVGrammar@2@QBG@Z 120610e0 f   DOMBuilderImpl.obj
 0001:000600f0       ?getRootGrammar@DOMBuilderImpl@xercesc_2_2@@UBEPAVGrammar@2@XZ 120610f0 f   DOMBuilderImpl.obj
 0001:00060100       ?getURIText@DOMBuilderImpl@xercesc_2_2@@UBEPBGI@Z 12061100 f   DOMBuilderImpl.obj
 0001:00060110       ?getSrcOffset@DOMBuilderImpl@xercesc_2_2@@UBEIXZ 12061110 f   DOMBuilderImpl.obj
 0001:00060120       ??_EDOMBuilderImpl@xercesc_2_2@@W3AEPAXI@Z 12061120 f i DOMBuilderImpl.obj
 0001:00060130       ??_EDOMBuilderImpl@xercesc_2_2@@W7AEPAXI@Z 12061130 f i DOMBuilderImpl.obj
 0001:00060140       ??_EDOMBuilderImpl@xercesc_2_2@@WM@AEPAXI@Z 12061140 f i DOMBuilderImpl.obj
 0001:00060150       ??_EDOMBuilderImpl@xercesc_2_2@@WFA@AEPAXI@Z 12061150 f i DOMBuilderImpl.obj
 0001:00060160       ??0ContentHandler@xercesc_2_2@@QAE@XZ 12061160 f i SAX2XMLReaderImpl.obj
 0001:00060170       ??1ContentHandler@xercesc_2_2@@UAE@XZ 12061170 f i SAX2XMLReaderImpl.obj
 0001:00060180       ??_EContentHandler@xercesc_2_2@@UAEPAXI@Z 12061180 f i SAX2XMLReaderImpl.obj
 0001:000601e0       ??0LexicalHandler@xercesc_2_2@@QAE@XZ 120611e0 f i SAX2XMLReaderImpl.obj
 0001:000601f0       ??1LexicalHandler@xercesc_2_2@@UAE@XZ 120611f0 f i SAX2XMLReaderImpl.obj
 0001:00060200       ??_ELexicalHandler@xercesc_2_2@@UAEPAXI@Z 12061200 f i SAX2XMLReaderImpl.obj
 0001:00060260       ??0DeclHandler@xercesc_2_2@@QAE@XZ 12061260 f i SAX2XMLReaderImpl.obj
 0001:00060270       ??1DeclHandler@xercesc_2_2@@UAE@XZ 12061270 f i SAX2XMLReaderImpl.obj
 0001:00060280       ??_EDeclHandler@xercesc_2_2@@UAEPAXI@Z 12061280 f i SAX2XMLReaderImpl.obj
 0001:000602e0       ??_FSAXParser@xercesc_2_2@@QAEXXZ 120612e0 f i SAX2XMLReaderImpl.obj
 0001:000602f0       ??0SAX2XMLReader@xercesc_2_2@@QAE@XZ 120612f0 f i SAX2XMLReaderImpl.obj
 0001:00060300       ??1SAX2XMLReader@xercesc_2_2@@UAE@XZ 12061300 f i SAX2XMLReaderImpl.obj
 0001:00060310       ??_ESAX2XMLReader@xercesc_2_2@@UAEPAXI@Z 12061310 f i SAX2XMLReaderImpl.obj
 0001:00060370       ?getErrorHandler@SAX2XMLReaderImpl@xercesc_2_2@@UBEPAVErrorHandler@2@XZ 12061370 f i SAX2XMLReaderImpl.obj
 0001:00060380       ?getDeclarationHandler@SAX2XMLReaderImpl@xercesc_2_2@@UBEPAVDeclHandler@2@XZ 12061380 f i SAX2XMLReaderImpl.obj
 0001:00060390       ?getExitOnFirstFatalError@SAX2XMLReaderImpl@xercesc_2_2@@UBE_NXZ 12061390 f i SAX2XMLReaderImpl.obj
 0001:000603a0       ?getValidationConstraintFatal@SAX2XMLReaderImpl@xercesc_2_2@@UBE_NXZ 120613a0 f i SAX2XMLReaderImpl.obj
 0001:000603b0       ?getRootGrammar@SAX2XMLReaderImpl@xercesc_2_2@@UAEPAVGrammar@2@XZ 120613b0 f i SAX2XMLReaderImpl.obj
 0001:000603c0       ?getURIText@SAX2XMLReaderImpl@xercesc_2_2@@UBEPBGI@Z 120613c0 f i SAX2XMLReaderImpl.obj
 0001:000603d0       ?getSrcOffset@SAX2XMLReaderImpl@xercesc_2_2@@UBEIXZ 120613d0 f i SAX2XMLReaderImpl.obj
 0001:000603e0       ??0SAX2XMLReaderImpl@xercesc_2_2@@QAE@XZ 120613e0 f   SAX2XMLReaderImpl.obj
 0001:000604e0       ??_ESAX2XMLReaderImpl@xercesc_2_2@@UAEPAXI@Z 120614e0 f i SAX2XMLReaderImpl.obj
 0001:00060540       ??1SAX2XMLReaderImpl@xercesc_2_2@@UAE@XZ 12061540 f   SAX2XMLReaderImpl.obj
 0001:00060610       ?initialize@SAX2XMLReaderImpl@xercesc_2_2@@AAEXXZ 12061610 f   SAX2XMLReaderImpl.obj
 0001:00060800       ?cleanUp@SAX2XMLReaderImpl@xercesc_2_2@@AAEXXZ 12061800 f   SAX2XMLReaderImpl.obj
 0001:00060890       ?installAdvDocHandler@SAX2XMLReaderImpl@xercesc_2_2@@UAEXQAVXMLDocumentHandler@2@@Z 12061890 f   SAX2XMLReaderImpl.obj
 0001:00060970       ?removeAdvDocHandler@SAX2XMLReaderImpl@xercesc_2_2@@UAE_NQAVXMLDocumentHandler@2@@Z 12061970 f   SAX2XMLReaderImpl.obj
 0001:000609f0       ?setValidator@SAX2XMLReaderImpl@xercesc_2_2@@UAEXPAVXMLValidator@2@@Z 120619f0 f   SAX2XMLReaderImpl.obj
 0001:00060a10       ?getValidator@SAX2XMLReaderImpl@xercesc_2_2@@UBEPAVXMLValidator@2@XZ 12061a10 f   SAX2XMLReaderImpl.obj
 0001:00060a20       ?getErrorCount@SAX2XMLReaderImpl@xercesc_2_2@@UBEHXZ 12061a20 f   SAX2XMLReaderImpl.obj
 0001:00060a30       ?setContentHandler@SAX2XMLReaderImpl@xercesc_2_2@@UAEXQAVContentHandler@2@@Z 12061a30 f   SAX2XMLReaderImpl.obj
 0001:00060a70       ?setDTDHandler@SAX2XMLReaderImpl@xercesc_2_2@@UAEXQAVDTDHandler@2@@Z 12061a70 f   SAX2XMLReaderImpl.obj
 0001:00060ab0       ?setErrorHandler@SAX2XMLReaderImpl@xercesc_2_2@@UAEXQAVErrorHandler@2@@Z 12061ab0 f   SAX2XMLReaderImpl.obj
 0001:00060af0       ?setLexicalHandler@SAX2XMLReaderImpl@xercesc_2_2@@UAEXQAVLexicalHandler@2@@Z 12061af0 f   SAX2XMLReaderImpl.obj
 0001:00060b30       ?setDeclarationHandler@SAX2XMLReaderImpl@xercesc_2_2@@UAEXQAVDeclHandler@2@@Z 12061b30 f   SAX2XMLReaderImpl.obj
 0001:00060b70       ?setEntityResolver@SAX2XMLReaderImpl@xercesc_2_2@@UAEXQAVEntityResolver@2@@Z 12061b70 f   SAX2XMLReaderImpl.obj
 0001:00060b90       ?setExitOnFirstFatalError@SAX2XMLReaderImpl@xercesc_2_2@@UAEX_N@Z 12061b90 f   SAX2XMLReaderImpl.obj
 0001:00060ba0       ?setValidationConstraintFatal@SAX2XMLReaderImpl@xercesc_2_2@@UAEX_N@Z 12061ba0 f   SAX2XMLReaderImpl.obj
 0001:00060bb0       ?parse@SAX2XMLReaderImpl@xercesc_2_2@@UAEXABVInputSource@2@@Z 12061bb0 f   SAX2XMLReaderImpl.obj
 0001:00060c60       ?parse@SAX2XMLReaderImpl@xercesc_2_2@@UAEXQBG@Z 12061c60 f   SAX2XMLReaderImpl.obj
 0001:00060d10       ?parse@SAX2XMLReaderImpl@xercesc_2_2@@UAEXQBD@Z 12061d10 f   SAX2XMLReaderImpl.obj
 0001:00060dc0       ?parseFirst@SAX2XMLReaderImpl@xercesc_2_2@@UAE_NQBGAAVXMLPScanToken@2@@Z 12061dc0 f   SAX2XMLReaderImpl.obj
 0001:00060e10       ?parseFirst@SAX2XMLReaderImpl@xercesc_2_2@@UAE_NQBDAAVXMLPScanToken@2@@Z 12061e10 f   SAX2XMLReaderImpl.obj
 0001:00060e60       ?parseFirst@SAX2XMLReaderImpl@xercesc_2_2@@UAE_NABVInputSource@2@AAVXMLPScanToken@2@@Z 12061e60 f   SAX2XMLReaderImpl.obj
 0001:00060eb0       ?parseNext@SAX2XMLReaderImpl@xercesc_2_2@@UAE_NAAVXMLPScanToken@2@@Z 12061eb0 f   SAX2XMLReaderImpl.obj
 0001:00060ec0       ?parseReset@SAX2XMLReaderImpl@xercesc_2_2@@UAEXAAVXMLPScanToken@2@@Z 12061ec0 f   SAX2XMLReaderImpl.obj
 0001:00060ed0       ?docCharacters@SAX2XMLReaderImpl@xercesc_2_2@@UAEXQBGI_N@Z 12061ed0 f   SAX2XMLReaderImpl.obj
 0001:00060f50       ?docComment@SAX2XMLReaderImpl@xercesc_2_2@@UAEXQBG@Z 12061f50 f   SAX2XMLReaderImpl.obj
 0001:00060fb0       ?XMLDecl@SAX2XMLReaderImpl@xercesc_2_2@@UAEXQBG000@Z 12061fb0 f   SAX2XMLReaderImpl.obj
 0001:00060ff0       ?docPI@SAX2XMLReaderImpl@xercesc_2_2@@UAEXQBG0@Z 12061ff0 f   SAX2XMLReaderImpl.obj
 0001:00061040       ?endDocument@SAX2XMLReaderImpl@xercesc_2_2@@UAEXXZ 12062040 f   SAX2XMLReaderImpl.obj
 0001:00061070       ?endEntityReference@SAX2XMLReaderImpl@xercesc_2_2@@UAEXABVXMLEntityDecl@2@@Z 12062070 f   SAX2XMLReaderImpl.obj
 0001:000610b0       ?ignorableWhitespace@SAX2XMLReaderImpl@xercesc_2_2@@UAEXQBGI_N@Z 120620b0 f   SAX2XMLReaderImpl.obj
 0001:00061100       ?resetDocument@SAX2XMLReaderImpl@xercesc_2_2@@UAEXXZ 12062100 f   SAX2XMLReaderImpl.obj
 0001:00061290       ?startDocument@SAX2XMLReaderImpl@xercesc_2_2@@UAEXXZ 12062290 f   SAX2XMLReaderImpl.obj
 0001:000612d0       ?startElement@SAX2XMLReaderImpl@xercesc_2_2@@UAEXABVXMLElementDecl@2@IQBGABV?$RefVectorOf@VXMLAttr@xercesc_2_2@@@2@I_N3@Z 120622d0 f   SAX2XMLReaderImpl.obj
 0001:00061820       ?endElement@SAX2XMLReaderImpl@xercesc_2_2@@UAEXABVXMLElementDecl@2@I_NQBG@Z 12062820 f   SAX2XMLReaderImpl.obj
 0001:00061a60       ?startEntityReference@SAX2XMLReaderImpl@xercesc_2_2@@UAEXABVXMLEntityDecl@2@@Z 12062a60 f   SAX2XMLReaderImpl.obj
 0001:00061aa0       ?attDef@SAX2XMLReaderImpl@xercesc_2_2@@UAEXABVDTDElementDecl@2@ABVDTDAttDef@2@_N@Z 12062aa0 f   SAX2XMLReaderImpl.obj
 0001:00061cf0       ?doctypeComment@SAX2XMLReaderImpl@xercesc_2_2@@UAEXQBG@Z 12062cf0 f   SAX2XMLReaderImpl.obj
 0001:00061d40       ?doctypeDecl@SAX2XMLReaderImpl@xercesc_2_2@@UAEXABVDTDElementDecl@2@QBG1_N2@Z 12062d40 f   SAX2XMLReaderImpl.obj
 0001:00061da0       ?elementDecl@SAX2XMLReaderImpl@xercesc_2_2@@UAEXABVDTDElementDecl@2@_N@Z 12062da0 f   SAX2XMLReaderImpl.obj
 0001:00061de0       ?endIntSubset@SAX2XMLReaderImpl@xercesc_2_2@@UAEXXZ 12062de0 f   SAX2XMLReaderImpl.obj
 0001:00061e00       ?endExtSubset@SAX2XMLReaderImpl@xercesc_2_2@@UAEXXZ 12062e00 f   SAX2XMLReaderImpl.obj
 0001:00061e20       ?entityDecl@SAX2XMLReaderImpl@xercesc_2_2@@UAEXABVDTDEntityDecl@2@_N1@Z 12062e20 f   SAX2XMLReaderImpl.obj
 0001:00061f30       ?resetDocType@SAX2XMLReaderImpl@xercesc_2_2@@UAEXXZ 12062f30 f   SAX2XMLReaderImpl.obj
 0001:00061f50       ?notationDecl@SAX2XMLReaderImpl@xercesc_2_2@@UAEXABVXMLNotationDecl@2@_N@Z 12062f50 f   SAX2XMLReaderImpl.obj
 0001:00061f80       ?startExtSubset@SAX2XMLReaderImpl@xercesc_2_2@@UAEXXZ 12062f80 f   SAX2XMLReaderImpl.obj
 0001:00061fa0       ?resolveEntity@SAX2XMLReaderImpl@xercesc_2_2@@UAEPAVInputSource@2@QBG00@Z 12062fa0 f   SAX2XMLReaderImpl.obj
 0001:00061fc0       ?resetErrors@SAX2XMLReaderImpl@xercesc_2_2@@UAEXXZ 12062fc0 f   SAX2XMLReaderImpl.obj
 0001:00061fd0       ?error@SAX2XMLReaderImpl@xercesc_2_2@@UAEXIQBGW4ErrTypes@XMLErrorReporter@2@000JJ@Z 12062fd0 f   SAX2XMLReaderImpl.obj
 0001:00062090       ?setFeature@SAX2XMLReaderImpl@xercesc_2_2@@UAEXQBG_N@Z 12063090 f   SAX2XMLReaderImpl.obj
 0001:00062320       ?getFeature@SAX2XMLReaderImpl@xercesc_2_2@@UBE_NQBG@Z 12063320 f   SAX2XMLReaderImpl.obj
 0001:000624f0       ?setProperty@SAX2XMLReaderImpl@xercesc_2_2@@UAEXQBGPAX@Z 120634f0 f   SAX2XMLReaderImpl.obj
 0001:000626e0       ?getProperty@SAX2XMLReaderImpl@xercesc_2_2@@UBEPAXQBG@Z 120636e0 f   SAX2XMLReaderImpl.obj
 0001:000627b0       ?setValidationScheme@SAX2XMLReaderImpl@xercesc_2_2@@AAEXW4ValSchemes@SAX2XMLReader@2@@Z 120637b0 f   SAX2XMLReaderImpl.obj
 0001:00062800       ?setDoNamespaces@SAX2XMLReaderImpl@xercesc_2_2@@AAEX_N@Z 12063800 f   SAX2XMLReaderImpl.obj
 0001:00062810       ?getDoNamespaces@SAX2XMLReaderImpl@xercesc_2_2@@ABE_NXZ 12063810 f   SAX2XMLReaderImpl.obj
 0001:00062820       ?setDoSchema@SAX2XMLReaderImpl@xercesc_2_2@@AAEX_N@Z 12063820 f   SAX2XMLReaderImpl.obj
 0001:00062830       ?getDoSchema@SAX2XMLReaderImpl@xercesc_2_2@@ABE_NXZ 12063830 f   SAX2XMLReaderImpl.obj
 0001:00062840       ?loadGrammar@SAX2XMLReaderImpl@xercesc_2_2@@UAEPAVGrammar@2@QBDF_N@Z 12063840 f   SAX2XMLReaderImpl.obj
 0001:000628f0       ?loadGrammar@SAX2XMLReaderImpl@xercesc_2_2@@UAEPAVGrammar@2@QBGF_N@Z 120638f0 f   SAX2XMLReaderImpl.obj
 0001:000629a0       ?loadGrammar@SAX2XMLReaderImpl@xercesc_2_2@@UAEPAVGrammar@2@ABVInputSource@2@F_N@Z 120639a0 f   SAX2XMLReaderImpl.obj
 0001:00062a50       ?resetCachedGrammarPool@SAX2XMLReaderImpl@xercesc_2_2@@UAEXXZ 12063a50 f   SAX2XMLReaderImpl.obj
 0001:00062a60       ?getGrammar@SAX2XMLReaderImpl@xercesc_2_2@@UAEPAVGrammar@2@QBG@Z 12063a60 f   SAX2XMLReaderImpl.obj
 0001:00062a70       ??1?$RefStackOf@VXMLBuffer@xercesc_2_2@@@xercesc_2_2@@QAE@XZ 12063a70 f i SAX2XMLReaderImpl.obj
 0001:00062b00       ??1?$BaseRefVectorOf@VXMLBuffer@xercesc_2_2@@@xercesc_2_2@@UAE@XZ 12063b00 f i SAX2XMLReaderImpl.obj
 0001:00062b10       ??1?$ValueVectorOf@W4NodeTypes@ContentSpecNode@xercesc_2_2@@@xercesc_2_2@@QAE@XZ 12063b10 f i SAX2XMLReaderImpl.obj
 0001:00062b10       ??1?$ValueVectorOf@I@xercesc_2_2@@QAE@XZ 12063b10 f i SAX2XMLReaderImpl.obj
 0001:00062b10       ??1?$ValueVectorOf@PAVQName@xercesc_2_2@@@xercesc_2_2@@QAE@XZ 12063b10 f i SAX2XMLReaderImpl.obj
 0001:00062b10       ??1?$ValueStackOf@I@xercesc_2_2@@QAE@XZ 12063b10 f i SAX2XMLReaderImpl.obj
 0001:00062b10       ??1?$ValueStackOf@PAVDOMNode@xercesc_2_2@@@xercesc_2_2@@QAE@XZ 12063b10 f i SAX2XMLReaderImpl.obj
 0001:00062b10       ??1?$ValueVectorOf@PAVXercesAttGroupInfo@xercesc_2_2@@@xercesc_2_2@@QAE@XZ 12063b10 f i SAX2XMLReaderImpl.obj
 0001:00062b10       ??1?$ValueVectorOf@_N@xercesc_2_2@@QAE@XZ 12063b10 f i SAX2XMLReaderImpl.obj
 0001:00062b10       ??1?$ValueVectorOf@H@xercesc_2_2@@QAE@XZ 12063b10 f i SAX2XMLReaderImpl.obj
 0001:00062b10       ??1?$ValueStackOf@H@xercesc_2_2@@QAE@XZ 12063b10 f i SAX2XMLReaderImpl.obj
 0001:00062b10       ??1?$ValueVectorOf@PAVContentSpecNode@xercesc_2_2@@@xercesc_2_2@@QAE@XZ 12063b10 f i SAX2XMLReaderImpl.obj
 0001:00062b10       ??1?$ValueVectorOf@PAG@xercesc_2_2@@QAE@XZ 12063b10 f i SAX2XMLReaderImpl.obj
 0001:00062b20       ??_G?$RefVectorOf@VXMLBuffer@xercesc_2_2@@@xercesc_2_2@@UAEPAXI@Z 12063b20 f i SAX2XMLReaderImpl.obj
 0001:00062b20       ??_E?$RefVectorOf@VXMLBuffer@xercesc_2_2@@@xercesc_2_2@@UAEPAXI@Z 12063b20 f i SAX2XMLReaderImpl.obj
 0001:00062b40       ??1?$RefVectorOf@VXMLBuffer@xercesc_2_2@@@xercesc_2_2@@UAE@XZ 12063b40 f i SAX2XMLReaderImpl.obj
 0001:00062bd0       ?orphanElementAt@?$BaseRefVectorOf@VXMLReader@xercesc_2_2@@@xercesc_2_2@@QAEPAVXMLReader@2@I@Z 12063bd0 f i SAX2XMLReaderImpl.obj
 0001:00062bd0       ?orphanElementAt@?$BaseRefVectorOf@V?$RefHashTableOf@VValueStore@xercesc_2_2@@@xercesc_2_2@@@xercesc_2_2@@QAEPAV?$RefHashTableOf@VValueStore@xercesc_2_2@@@2@I@Z 12063bd0 f i SAX2XMLReaderImpl.obj
 0001:00062bd0       ?orphanElementAt@?$BaseRefVectorOf@VXMLEntityDecl@xercesc_2_2@@@xercesc_2_2@@QAEPAVXMLEntityDecl@2@I@Z 12063bd0 f i SAX2XMLReaderImpl.obj
 0001:00062bd0       ?orphanElementAt@?$BaseRefVectorOf@VXMLBuffer@xercesc_2_2@@@xercesc_2_2@@QAEPAVXMLBuffer@2@I@Z 12063bd0 f i SAX2XMLReaderImpl.obj
 0001:00062c60       ??_ESAX2XMLReaderImpl@xercesc_2_2@@W3AEPAXI@Z 12063c60 f i SAX2XMLReaderImpl.obj
 0001:00062c70       ??_ESAX2XMLReaderImpl@xercesc_2_2@@W7AEPAXI@Z 12063c70 f i SAX2XMLReaderImpl.obj
 0001:00062c80       ??_ESAX2XMLReaderImpl@xercesc_2_2@@WM@AEPAXI@Z 12063c80 f i SAX2XMLReaderImpl.obj
 0001:00062c90       ??_ESAX2XMLReaderImpl@xercesc_2_2@@WBA@AEPAXI@Z 12063c90 f i SAX2XMLReaderImpl.obj
 0001:00062ca0       ??0SAXParser@xercesc_2_2@@QAE@QAVXMLValidator@1@@Z 12063ca0 f   SAXParser.obj
 0001:00062df0       ??_ESAXParser@xercesc_2_2@@UAEPAXI@Z 12063df0 f i SAXParser.obj
 0001:00062e50       ??1SAXParser@xercesc_2_2@@UAE@XZ 12063e50 f   SAXParser.obj
 0001:00062f80       ?initialize@SAXParser@xercesc_2_2@@AAEXXZ 12063f80 f   SAXParser.obj
 0001:00063060       ?cleanUp@SAXParser@xercesc_2_2@@AAEXXZ 12064060 f   SAXParser.obj
 0001:000630c0       ?installAdvDocHandler@SAXParser@xercesc_2_2@@QAEXQAVXMLDocumentHandler@2@@Z 120640c0 f   SAXParser.obj
 0001:000631a0       ?removeAdvDocHandler@SAXParser@xercesc_2_2@@QAE_NQAVXMLDocumentHandler@2@@Z 120641a0 f   SAXParser.obj
 0001:00063220       ?getValidator@SAXParser@xercesc_2_2@@QBEABVXMLValidator@2@XZ 12064220 f   SAXParser.obj
 0001:00063230       ?getDoNamespaces@SAXParser@xercesc_2_2@@QBE_NXZ 12064230 f   SAXParser.obj
 0001:00063240       ?getExitOnFirstFatalError@SAXParser@xercesc_2_2@@QBE_NXZ 12064240 f   SAXParser.obj
 0001:00063250       ?getValidationConstraintFatal@SAXParser@xercesc_2_2@@QBE_NXZ 12064250 f   SAXParser.obj
 0001:00063260       ?getValidationScheme@SAXParser@xercesc_2_2@@QBE?AW4ValSchemes@12@XZ 12064260 f   SAXParser.obj
 0001:00063280       ?getDoSchema@SAXParser@xercesc_2_2@@QBE_NXZ 12064280 f   SAXParser.obj
 0001:00063290       ?getValidationSchemaFullChecking@SAXParser@xercesc_2_2@@QBE_NXZ 12064290 f   SAXParser.obj
 0001:000632a0       ?getErrorCount@SAXParser@xercesc_2_2@@QBEHXZ 120642a0 f   SAXParser.obj
 0001:000632b0       ?getExternalSchemaLocation@SAXParser@xercesc_2_2@@QBEPAGXZ 120642b0 f   SAXParser.obj
 0001:000632c0       ?getExternalNoNamespaceSchemaLocation@SAXParser@xercesc_2_2@@QBEPAGXZ 120642c0 f   SAXParser.obj
 0001:000632d0       ?getLoadExternalDTD@SAXParser@xercesc_2_2@@QBE_NXZ 120642d0 f   SAXParser.obj
 0001:000632e0       ?isCachingGrammarFromParse@SAXParser@xercesc_2_2@@QBE_NXZ 120642e0 f   SAXParser.obj
 0001:000632f0       ?isUsingCachedGrammarInParse@SAXParser@xercesc_2_2@@QBE_NXZ 120642f0 f   SAXParser.obj
 0001:00063300       ?getCalculateSrcOfs@SAXParser@xercesc_2_2@@QBE_NXZ 12064300 f   SAXParser.obj
 0001:00063310       ?getStandardUriConformant@SAXParser@xercesc_2_2@@QBE_NXZ 12064310 f   SAXParser.obj
 0001:00063320       ?getGrammar@SAXParser@xercesc_2_2@@QAEPAVGrammar@2@QBG@Z 12064320 f   SAXParser.obj
 0001:00063330       ?getRootGrammar@SAXParser@xercesc_2_2@@QAEPAVGrammar@2@XZ 12064330 f   SAXParser.obj
 0001:00063340       ?getURIText@SAXParser@xercesc_2_2@@QBEPBGI@Z 12064340 f   SAXParser.obj
 0001:00063350       ?getSrcOffset@SAXParser@xercesc_2_2@@QBEIXZ 12064350 f   SAXParser.obj
 0001:00063360       ?setDoNamespaces@SAXParser@xercesc_2_2@@QAEX_N@Z 12064360 f   SAXParser.obj
 0001:00063370       ?setExitOnFirstFatalError@SAXParser@xercesc_2_2@@QAEX_N@Z 12064370 f   SAXParser.obj
 0001:00063380       ?setValidationConstraintFatal@SAXParser@xercesc_2_2@@QAEX_N@Z 12064380 f   SAXParser.obj
 0001:00063390       ?setValidationScheme@SAXParser@xercesc_2_2@@QAEXW4ValSchemes@12@@Z 12064390 f   SAXParser.obj
 0001:000633e0       ?setDoSchema@SAXParser@xercesc_2_2@@QAEX_N@Z 120643e0 f   SAXParser.obj
 0001:000633f0       ?setValidationSchemaFullChecking@SAXParser@xercesc_2_2@@QAEX_N@Z 120643f0 f   SAXParser.obj
 0001:00063400       ?setExternalSchemaLocation@SAXParser@xercesc_2_2@@QAEXQBG@Z 12064400 f   SAXParser.obj
 0001:00063480       ?setExternalNoNamespaceSchemaLocation@SAXParser@xercesc_2_2@@QAEXQBG@Z 12064480 f   SAXParser.obj
 0001:00063500       ?setExternalSchemaLocation@SAXParser@xercesc_2_2@@QAEXQBD@Z 12064500 f   SAXParser.obj
 0001:00063530       ?setExternalNoNamespaceSchemaLocation@SAXParser@xercesc_2_2@@QAEXQBD@Z 12064530 f   SAXParser.obj
 0001:00063560       ?setLoadExternalDTD@SAXParser@xercesc_2_2@@QAEX_N@Z 12064560 f   SAXParser.obj
 0001:00063570       ?cacheGrammarFromParse@SAXParser@xercesc_2_2@@QAEX_N@Z 12064570 f   SAXParser.obj
 0001:00063590       ?useCachedGrammarInParse@SAXParser@xercesc_2_2@@QAEX_N@Z 12064590 f   SAXParser.obj
 0001:000635b0       ?setCalculateSrcOfs@SAXParser@xercesc_2_2@@QAEX_N@Z 120645b0 f   SAXParser.obj
 0001:000635c0       ?setStandardUriConformant@SAXParser@xercesc_2_2@@QAEX_N@Z 120645c0 f   SAXParser.obj
 0001:000635d0       ?useScanner@SAXParser@xercesc_2_2@@QAEXQBG@Z 120645d0 f   SAXParser.obj
 0001:00063620       ?parse@SAXParser@xercesc_2_2@@UAEXABVInputSource@2@@Z 12064620 f   SAXParser.obj
 0001:000636d0       ?parse@SAXParser@xercesc_2_2@@UAEXQBG@Z 120646d0 f   SAXParser.obj
 0001:00063780       ?parse@SAXParser@xercesc_2_2@@UAEXQBD@Z 12064780 f   SAXParser.obj
 0001:00063830       ?setDocumentHandler@SAXParser@xercesc_2_2@@UAEXQAVDocumentHandler@2@@Z 12064830 f   SAXParser.obj
 0001:00063870       ?setDTDHandler@SAXParser@xercesc_2_2@@UAEXQAVDTDHandler@2@@Z 12064870 f   SAXParser.obj
 0001:000638b0       ?setErrorHandler@SAXParser@xercesc_2_2@@UAEXQAVErrorHandler@2@@Z 120648b0 f   SAXParser.obj
 0001:000638f0       ?setEntityResolver@SAXParser@xercesc_2_2@@UAEXQAVEntityResolver@2@@Z 120648f0 f   SAXParser.obj
 0001:00063910       ?parseFirst@SAXParser@xercesc_2_2@@QAE_NQBGAAVXMLPScanToken@2@@Z 12064910 f   SAXParser.obj
 0001:00063960       ?parseFirst@SAXParser@xercesc_2_2@@QAE_NQBDAAVXMLPScanToken@2@@Z 12064960 f   SAXParser.obj
 0001:000639b0       ?parseFirst@SAXParser@xercesc_2_2@@QAE_NABVInputSource@2@AAVXMLPScanToken@2@@Z 120649b0 f   SAXParser.obj
 0001:00063a00       ?parseNext@SAXParser@xercesc_2_2@@QAE_NAAVXMLPScanToken@2@@Z 12064a00 f   SAXParser.obj
 0001:00063a10       ?parseReset@SAXParser@xercesc_2_2@@QAEXAAVXMLPScanToken@2@@Z 12064a10 f   SAXParser.obj
 0001:00063a20       ?docCharacters@SAXParser@xercesc_2_2@@UAEXQBGI_N@Z 12064a20 f   SAXParser.obj
 0001:00063a70       ?docComment@SAXParser@xercesc_2_2@@UAEXQBG@Z 12064a70 f   SAXParser.obj
 0001:00063aa0       ?XMLDecl@SAXParser@xercesc_2_2@@UAEXQBG000@Z 12064aa0 f   SAXParser.obj
 0001:00063ae0       ?docPI@SAXParser@xercesc_2_2@@UAEXQBG0@Z 12064ae0 f   SAXParser.obj
 0001:00063b30       ?endDocument@SAXParser@xercesc_2_2@@UAEXXZ 12064b30 f   SAXParser.obj
 0001:00063b60       ?endElement@SAXParser@xercesc_2_2@@UAEXABVXMLElementDecl@2@I_NQBG@Z 12064b60 f   SAXParser.obj
 0001:00063c40       ?endEntityReference@SAXParser@xercesc_2_2@@UAEXABVXMLEntityDecl@2@@Z 12064c40 f   SAXParser.obj
 0001:00063c70       ?ignorableWhitespace@SAXParser@xercesc_2_2@@UAEXQBGI_N@Z 12064c70 f   SAXParser.obj
 0001:00063cc0       ?resetDocument@SAXParser@xercesc_2_2@@UAEXXZ 12064cc0 f   SAXParser.obj
 0001:00063d00       ?startDocument@SAXParser@xercesc_2_2@@UAEXXZ 12064d00 f   SAXParser.obj
 0001:00063d40       ?startElement@SAXParser@xercesc_2_2@@UAEXABVXMLElementDecl@2@IQBGABV?$RefVectorOf@VXMLAttr@xercesc_2_2@@@2@I_N3@Z 12064d40 f   SAXParser.obj
 0001:00063ea0       ?startEntityReference@SAXParser@xercesc_2_2@@UAEXABVXMLEntityDecl@2@@Z 12064ea0 f   SAXParser.obj
 0001:00063ed0       ?doctypeDecl@SAXParser@xercesc_2_2@@UAEXABVDTDElementDecl@2@QBG1_N2@Z 12064ed0 f   SAXParser.obj
 0001:00063ee0       ?entityDecl@SAXParser@xercesc_2_2@@UAEXABVDTDEntityDecl@2@_N1@Z 12064ee0 f   SAXParser.obj
 0001:00063f20       ?resetDocType@SAXParser@xercesc_2_2@@UAEXXZ 12064f20 f   SAXParser.obj
 0001:00063f30       ?notationDecl@SAXParser@xercesc_2_2@@UAEXABVXMLNotationDecl@2@_N@Z 12064f30 f   SAXParser.obj
 0001:00063f60       ?doctypePI@SAX2XMLReaderImpl@xercesc_2_2@@UAEXQBG0@Z 12064f60 f   SAXParser.obj
 0001:00063f60       ?doctypeWhitespace@SAX2XMLReaderImpl@xercesc_2_2@@UAEXQBGI@Z 12064f60 f   SAXParser.obj
 0001:00063f60       ?doctypePI@SAXParser@xercesc_2_2@@UAEXQBG0@Z 12064f60 f   SAXParser.obj
 0001:00063f60       ?doctypeWhitespace@SAXParser@xercesc_2_2@@UAEXQBGI@Z 12064f60 f   SAXParser.obj
 0001:00063f60       ?TextDecl@SAXParser@xercesc_2_2@@UAEXQBG0@Z 12064f60 f   SAXParser.obj
 0001:00063f60       ?TextDecl@DOMParser@xercesc_2_2@@UAEXQBG0@Z 12064f60 f   SAXParser.obj
 0001:00063f60       ?elementDecl@SAXParser@xercesc_2_2@@UAEXABVDTDElementDecl@2@_N@Z 12064f60 f   SAXParser.obj
 0001:00063f60       ?TextDecl@SAX2XMLReaderImpl@xercesc_2_2@@UAEXQBG0@Z 12064f60 f   SAXParser.obj
 0001:00063f70       ?resetErrors@SAXParser@xercesc_2_2@@UAEXXZ 12064f70 f   SAXParser.obj
 0001:00063f80       ?error@SAXParser@xercesc_2_2@@UAEXIQBGW4ErrTypes@XMLErrorReporter@2@000JJ@Z 12064f80 f   SAXParser.obj
 0001:00064040       ?resolveEntity@SAXParser@xercesc_2_2@@UAEPAVInputSource@2@QBG00@Z 12065040 f   SAXParser.obj
 0001:00064060       ?getDoValidation@SAXParser@xercesc_2_2@@QBE_NXZ 12065060 f   SAXParser.obj
 0001:00064070       ?setDoValidation@SAXParser@xercesc_2_2@@QAEX_N@Z 12065070 f   SAXParser.obj
 0001:000640a0       ?loadGrammar@SAXParser@xercesc_2_2@@QAEPAVGrammar@2@QBDF_N@Z 120650a0 f   SAXParser.obj
 0001:00064150       ?loadGrammar@SAXParser@xercesc_2_2@@QAEPAVGrammar@2@QBGF_N@Z 12065150 f   SAXParser.obj
 0001:00064200       ?loadGrammar@SAXParser@xercesc_2_2@@QAEPAVGrammar@2@ABVInputSource@2@F_N@Z 12065200 f   SAXParser.obj
 0001:000642b0       ?resetCachedGrammarPool@SAXParser@xercesc_2_2@@QAEXXZ 120652b0 f   SAXParser.obj
 0001:000642c0       ??_ESAXParser@xercesc_2_2@@W3AEPAXI@Z 120652c0 f i SAXParser.obj
 0001:000642d0       ??_ESAXParser@xercesc_2_2@@W7AEPAXI@Z 120652d0 f i SAXParser.obj
 0001:000642e0       ??_ESAXParser@xercesc_2_2@@WM@AEPAXI@Z 120652e0 f i SAXParser.obj
 0001:000642f0       ??_ESAXParser@xercesc_2_2@@WBA@AEPAXI@Z 120652f0 f i SAXParser.obj
 0001:00064300       ??0XercesDOMParser@xercesc_2_2@@QAE@QAVXMLValidator@1@@Z 12065300 f   XercesDOMParser.obj
 0001:00064340       ??_EXercesDOMParser@xercesc_2_2@@UAEPAXI@Z 12065340 f i XercesDOMParser.obj
 0001:000643a0       ??1XercesDOMParser@xercesc_2_2@@UAE@XZ 120653a0 f   XercesDOMParser.obj
 0001:000643c0       ?isCachingGrammarFromParse@XercesDOMParser@xercesc_2_2@@QBE_NXZ 120653c0 f   XercesDOMParser.obj
 0001:000643d0       ?isUsingCachedGrammarInParse@XercesDOMParser@xercesc_2_2@@QBE_NXZ 120653d0 f   XercesDOMParser.obj
 0001:000643e0       ?getGrammar@XercesDOMParser@xercesc_2_2@@QAEPAVGrammar@2@QBG@Z 120653e0 f   XercesDOMParser.obj
 0001:000643f0       ?getRootGrammar@XercesDOMParser@xercesc_2_2@@QAEPAVGrammar@2@XZ 120653f0 f   XercesDOMParser.obj
 0001:00064400       ?getURIText@XercesDOMParser@xercesc_2_2@@QBEPBGI@Z 12065400 f   XercesDOMParser.obj
 0001:00064410       ?getSrcOffset@XercesDOMParser@xercesc_2_2@@QBEIXZ 12065410 f   XercesDOMParser.obj
 0001:00064420       ?setErrorHandler@XercesDOMParser@xercesc_2_2@@QAEXQAVErrorHandler@2@@Z 12065420 f   XercesDOMParser.obj
 0001:00064460       ?setEntityResolver@XercesDOMParser@xercesc_2_2@@QAEXQAVEntityResolver@2@@Z 12065460 f   XercesDOMParser.obj
 0001:00064480       ?cacheGrammarFromParse@XercesDOMParser@xercesc_2_2@@QAEX_N@Z 12065480 f   XercesDOMParser.obj
 0001:000644a0       ?useCachedGrammarInParse@XercesDOMParser@xercesc_2_2@@QAEX_N@Z 120654a0 f   XercesDOMParser.obj
 0001:000644c0       ?resetDocumentPool@XercesDOMParser@xercesc_2_2@@QAEXXZ 120654c0 f   XercesDOMParser.obj
 0001:000644d0       ?error@XercesDOMParser@xercesc_2_2@@UAEXIQBGW4ErrTypes@XMLErrorReporter@2@000JJ@Z 120654d0 f   XercesDOMParser.obj
 0001:00064590       ?resolveEntity@XercesDOMParser@xercesc_2_2@@UAEPAVInputSource@2@QBG00@Z 12065590 f   XercesDOMParser.obj
 0001:000645b0       ?loadGrammar@XercesDOMParser@xercesc_2_2@@QAEPAVGrammar@2@QBDF_N@Z 120655b0 f   XercesDOMParser.obj
 0001:00064660       ?loadGrammar@XercesDOMParser@xercesc_2_2@@QAEPAVGrammar@2@QBGF_N@Z 12065660 f   XercesDOMParser.obj
 0001:00064710       ?loadGrammar@XercesDOMParser@xercesc_2_2@@QAEPAVGrammar@2@ABVInputSource@2@F_N@Z 12065710 f   XercesDOMParser.obj
 0001:000647c0       ?resetCachedGrammarPool@XercesDOMParser@xercesc_2_2@@QAEXXZ 120657c0 f   XercesDOMParser.obj
 0001:000647d0       ??_EXercesDOMParser@xercesc_2_2@@W3AEPAXI@Z 120657d0 f i XercesDOMParser.obj
 0001:000647e0       ??_EXercesDOMParser@xercesc_2_2@@W7AEPAXI@Z 120657e0 f i XercesDOMParser.obj
 0001:000647f0       ??_EXercesDOMParser@xercesc_2_2@@WM@AEPAXI@Z 120657f0 f i XercesDOMParser.obj
 0001:00064800       ??0AllContentModel@xercesc_2_2@@QAE@QAVContentSpecNode@1@_N@Z 12065800 f   AllContentModel.obj
 0001:000649f0       ?getNextState@SimpleContentModel@xercesc_2_2@@UBEIII@Z 120659f0 f i AllContentModel.obj
 0001:000649f0       ?getNextState@MixedContentModel@xercesc_2_2@@UBEIII@Z 120659f0 f i AllContentModel.obj
 0001:000649f0       ?getNextState@AllContentModel@xercesc_2_2@@UBEIII@Z 120659f0 f i AllContentModel.obj
 0001:00064a00       ??_EAllContentModel@xercesc_2_2@@UAEPAXI@Z 12065a00 f i AllContentModel.obj
 0001:00064a00       ??_GAllContentModel@xercesc_2_2@@UAEPAXI@Z 12065a00 f i AllContentModel.obj
 0001:00064a20       ??1AllContentModel@xercesc_2_2@@UAE@XZ 12065a20 f   AllContentModel.obj
 0001:00064a80       ?validateContent@AllContentModel@xercesc_2_2@@UBEHQAPAVQName@2@II@Z 12065a80 f   AllContentModel.obj
 0001:00064bf0       ?validateContentSpecial@AllContentModel@xercesc_2_2@@UBEHQAPAVQName@2@IIQAVGrammarResolver@2@QAVXMLStringPool@2@@Z 12065bf0 f   AllContentModel.obj
 0001:00064d30       ?checkUniqueParticleAttribution@AllContentModel@xercesc_2_2@@UAEXQAVSchemaGrammar@2@QAVGrammarResolver@2@QAVXMLStringPool@2@QAVXMLValidator@2@QAI@Z 12065d30 f   AllContentModel.obj
 0001:00064e50       ?buildChildList@AllContentModel@xercesc_2_2@@AAEXQAVContentSpecNode@2@AAV?$ValueVectorOf@PAVQName@xercesc_2_2@@@2@AAV?$ValueVectorOf@_N@2@@Z 12065e50 f   AllContentModel.obj
 0001:00065030       ?ensureExtraCapacity@?$ValueVectorOf@_N@xercesc_2_2@@QAEXI@Z 12066030 f i AllContentModel.obj
 0001:000650b0       ??0CMAny@xercesc_2_2@@QAE@W4NodeTypes@ContentSpecNode@1@II@Z 120660b0 f   CMAny.obj
 0001:00065170       ??1CMNode@xercesc_2_2@@UAE@XZ 12066170 f i CMAny.obj
 0001:000651c0       ??_ECMNode@xercesc_2_2@@UAEPAXI@Z 120661c0 f i CMAny.obj
 0001:000651c0       ??_GCMNode@xercesc_2_2@@UAEPAXI@Z 120661c0 f i CMAny.obj
 0001:00065230       ??_ECMAny@xercesc_2_2@@UAEPAXI@Z 12066230 f i CMAny.obj
 0001:00065230       ??_GCMAny@xercesc_2_2@@UAEPAXI@Z 12066230 f i CMAny.obj
 0001:00065250       ??1CMAny@xercesc_2_2@@UAE@XZ 12066250 f   CMAny.obj
 0001:000652a0       ?isNullable@CMAny@xercesc_2_2@@UBE_NXZ 120662a0 f   CMAny.obj
 0001:000652b0       ?calcFirstPos@CMAny@xercesc_2_2@@MBEXAAVCMStateSet@2@@Z 120662b0 f   CMAny.obj
 0001:000652b0       ?calcLastPos@CMAny@xercesc_2_2@@MBEXAAVCMStateSet@2@@Z 120662b0 f   CMAny.obj
 0001:000653a0       ??0CMBinaryOp@xercesc_2_2@@QAE@W4NodeTypes@ContentSpecNode@1@QAVCMNode@1@1@Z 120663a0 f   CMBinaryOp.obj
 0001:00065450       ??_GCMBinaryOp@xercesc_2_2@@UAEPAXI@Z 12066450 f i CMBinaryOp.obj
 0001:00065450       ??_ECMBinaryOp@xercesc_2_2@@UAEPAXI@Z 12066450 f i CMBinaryOp.obj
 0001:00065470       ??1CMBinaryOp@xercesc_2_2@@UAE@XZ 12066470 f   CMBinaryOp.obj
 0001:00065520       ?isNullable@CMBinaryOp@xercesc_2_2@@UBE_NXZ 12066520 f   CMBinaryOp.obj
 0001:00065570       ?calcFirstPos@CMBinaryOp@xercesc_2_2@@MBEXAAVCMStateSet@2@@Z 12066570 f   CMBinaryOp.obj
 0001:00065730       ?getFirstPos@CMNode@xercesc_2_2@@QBEABVCMStateSet@2@XZ 12066730 f i CMBinaryOp.obj
 0001:00065800       ?calcLastPos@CMBinaryOp@xercesc_2_2@@MBEXAAVCMStateSet@2@@Z 12066800 f   CMBinaryOp.obj
 0001:000659c0       ?getLastPos@CMNode@xercesc_2_2@@QBEABVCMStateSet@2@XZ 120669c0 f i CMBinaryOp.obj
 0001:00065a90       ??0CMUnaryOp@xercesc_2_2@@QAE@W4NodeTypes@ContentSpecNode@1@QAVCMNode@1@@Z 12066a90 f   CMUnaryOp.obj
 0001:00065b40       ??_ECMUnaryOp@xercesc_2_2@@UAEPAXI@Z 12066b40 f i CMUnaryOp.obj
 0001:00065b40       ??_GCMUnaryOp@xercesc_2_2@@UAEPAXI@Z 12066b40 f i CMUnaryOp.obj
 0001:00065b60       ??1CMUnaryOp@xercesc_2_2@@UAE@XZ 12066b60 f   CMUnaryOp.obj
 0001:00065c00       ?isNullable@CMUnaryOp@xercesc_2_2@@UBE_NXZ 12066c00 f   CMUnaryOp.obj
 0001:00065c20       ?calcFirstPos@CMUnaryOp@xercesc_2_2@@MBEXAAVCMStateSet@2@@Z 12066c20 f   CMUnaryOp.obj
 0001:00065ca0       ?calcLastPos@CMUnaryOp@xercesc_2_2@@MBEXAAVCMStateSet@2@@Z 12066ca0 f   CMUnaryOp.obj
 0001:00065d20       ??1ContentLeafNameTypeVector@xercesc_2_2@@QAE@XZ 12066d20 f   ContentLeafNameTypeVector.obj
 0001:00065d40       ?setValues@ContentLeafNameTypeVector@xercesc_2_2@@QAEXQAPAVQName@2@QAW4NodeTypes@ContentSpecNode@2@I@Z 12066d40 f   ContentLeafNameTypeVector.obj
 0001:00065db0       ?getLeafNameAt@ContentLeafNameTypeVector@xercesc_2_2@@QBEPAVQName@2@I@Z 12066db0 f   ContentLeafNameTypeVector.obj
 0001:00065df0       ?getLeafTypeAt@ContentLeafNameTypeVector@xercesc_2_2@@QBE?BW4NodeTypes@ContentSpecNode@2@I@Z 12066df0 f   ContentLeafNameTypeVector.obj
 0001:00065e30       ??0ContentSpecNode@xercesc_2_2@@QAE@ABV01@@Z 12066e30 f   ContentSpecNode.obj
 0001:00065f50       ?formatSpec@ContentSpecNode@xercesc_2_2@@QBEXAAVXMLBuffer@2@@Z 12066f50 f   ContentSpecNode.obj
 0001:00066400       ?getMinTotalRange@ContentSpecNode@xercesc_2_2@@QBEHXZ 12067400 f   ContentSpecNode.obj
 0001:00066460       ?getMaxTotalRange@ContentSpecNode@xercesc_2_2@@QBEHXZ 12067460 f   ContentSpecNode.obj
 0001:000664f0       ??0HashCMStateSet@xercesc_2_2@@QAE@ABV01@@Z 120674f0 f i DFAContentModel.obj
 0001:00066500       ??_EHashCMStateSet@xercesc_2_2@@UAEPAXI@Z 12067500 f i DFAContentModel.obj
 0001:00066560       ??0HashCMStateSet@xercesc_2_2@@QAE@XZ 12067560 f i DFAContentModel.obj
 0001:00066570       ??1HashCMStateSet@xercesc_2_2@@UAE@XZ 12067570 f i DFAContentModel.obj
 0001:00066580       ?getHashVal@HashCMStateSet@xercesc_2_2@@UAEIQBXI@Z 12067580 f i DFAContentModel.obj
 0001:000665d0       ?equals@HashCMStateSet@xercesc_2_2@@UAE_NQBX0@Z 120675d0 f i DFAContentModel.obj
 0001:00066630       ??0DFAContentModel@xercesc_2_2@@QAE@_NQAVContentSpecNode@1@@Z 12067630 f   DFAContentModel.obj
 0001:000666b0       ?getNextState@DFAContentModel@xercesc_2_2@@UBEIII@Z 120676b0 f i DFAContentModel.obj
 0001:00066710       ??_GDFAContentModel@xercesc_2_2@@UAEPAXI@Z 12067710 f i DFAContentModel.obj
 0001:00066710       ??_EDFAContentModel@xercesc_2_2@@UAEPAXI@Z 12067710 f i DFAContentModel.obj
 0001:00066730       ??0DFAContentModel@xercesc_2_2@@QAE@_NQAVContentSpecNode@1@0@Z 12067730 f   DFAContentModel.obj
 0001:000667b0       ??1DFAContentModel@xercesc_2_2@@UAE@XZ 120677b0 f   DFAContentModel.obj
 0001:00066890       ?validateContent@DFAContentModel@xercesc_2_2@@UBEHQAPAVQName@2@II@Z 12067890 f   DFAContentModel.obj
 0001:00066ae0       ?validateContentSpecial@DFAContentModel@xercesc_2_2@@UBEHQAPAVQName@2@IIQAVGrammarResolver@2@QAVXMLStringPool@2@@Z 12067ae0 f   DFAContentModel.obj
 0001:00066c50       ?buildDFA@DFAContentModel@xercesc_2_2@@AAEXQAVContentSpecNode@2@@Z 12067c50 f   DFAContentModel.obj
 0001:00067bc0       ?zeroBits@CMStateSet@xercesc_2_2@@QAEXXZ 12068bc0 f i DFAContentModel.obj
 0001:00067bf0       ??_ECMLeaf@xercesc_2_2@@UAEPAXI@Z 12068bf0 f i DFAContentModel.obj
 0001:00067bf0       ??_GCMLeaf@xercesc_2_2@@UAEPAXI@Z 12068bf0 f i DFAContentModel.obj
 0001:00067c10       ??1CMLeaf@xercesc_2_2@@UAE@XZ 12068c10 f i DFAContentModel.obj
 0001:00067cc0       ?isNullable@CMLeaf@xercesc_2_2@@UBE_NXZ 12068cc0 f i DFAContentModel.obj
 0001:00067cd0       ?calcLastPos@CMLeaf@xercesc_2_2@@MBEXAAVCMStateSet@2@@Z 12068cd0 f i DFAContentModel.obj
 0001:00067cd0       ?calcFirstPos@CMLeaf@xercesc_2_2@@MBEXAAVCMStateSet@2@@Z 12068cd0 f i DFAContentModel.obj
 0001:00067dc0       ?buildSyntaxTree@DFAContentModel@xercesc_2_2@@AAEPAVCMNode@2@QAVContentSpecNode@2@@Z 12068dc0 f   DFAContentModel.obj
 0001:00067fe0       ?calcFollowList@DFAContentModel@xercesc_2_2@@AAEXQAVCMNode@2@@Z 12068fe0 f   DFAContentModel.obj
 0001:00068250       ?postTreeBuildInit@DFAContentModel@xercesc_2_2@@AAEHQAVCMNode@2@I@Z 12069250 f   DFAContentModel.obj
 0001:00068530       ?checkUniqueParticleAttribution@DFAContentModel@xercesc_2_2@@UAEXQAVSchemaGrammar@2@QAVGrammarResolver@2@QAVXMLStringPool@2@QAVXMLValidator@2@QAI@Z 12069530 f   DFAContentModel.obj
 0001:00068890       ??0GrammarResolver@xercesc_2_2@@QAE@XZ 12069890 f   GrammarResolver.obj
 0001:00068990       ??1GrammarResolver@xercesc_2_2@@QAE@XZ 12069990 f   GrammarResolver.obj
 0001:00068ad0       ?getDatatypeValidator@GrammarResolver@xercesc_2_2@@QAEPAVDatatypeValidator@2@QBG0@Z 12069ad0 f   GrammarResolver.obj
 0001:00068d50       ?getGrammar@GrammarResolver@xercesc_2_2@@QAEPAVGrammar@2@QBG@Z 12069d50 f   GrammarResolver.obj
 0001:00068e70       ?getGrammarEnumerator@GrammarResolver@xercesc_2_2@@QBE?AV?$RefHashTableOfEnumerator@VGrammar@xercesc_2_2@@@2@XZ 12069e70 f   GrammarResolver.obj
 0001:00068f30       ?containsNameSpace@GrammarResolver@xercesc_2_2@@QAE_NQBG@Z 12069f30 f   GrammarResolver.obj
 0001:00068fb0       ?putGrammar@GrammarResolver@xercesc_2_2@@QAEXQBGQAVGrammar@2@@Z 12069fb0 f   GrammarResolver.obj
 0001:00068fe0       ?reset@GrammarResolver@xercesc_2_2@@QAEXXZ 12069fe0 f   GrammarResolver.obj
 0001:00069040       ?resetCachedGrammar@GrammarResolver@xercesc_2_2@@QAEXXZ 1206a040 f   GrammarResolver.obj
 0001:000690a0       ?cacheGrammars@GrammarResolver@xercesc_2_2@@QAEXXZ 1206a0a0 f   GrammarResolver.obj
 0001:00069410       ??_G?$RefHashTableOf@VGrammar@xercesc_2_2@@@xercesc_2_2@@QAEPAXI@Z 1206a410 f i GrammarResolver.obj
 0001:00069490       ?cacheGrammarFromParse@GrammarResolver@xercesc_2_2@@QAEX_N@Z 1206a490 f   GrammarResolver.obj
 0001:000695c0       ??1?$XMLEnumerator@VGrammar@xercesc_2_2@@@xercesc_2_2@@UAE@XZ 1206a5c0 f i GrammarResolver.obj
 0001:000695d0       ??_G?$XMLEnumerator@VGrammar@xercesc_2_2@@@xercesc_2_2@@UAEPAXI@Z 1206a5d0 f i GrammarResolver.obj
 0001:000695d0       ??_E?$XMLEnumerator@VGrammar@xercesc_2_2@@@xercesc_2_2@@UAEPAXI@Z 1206a5d0 f i GrammarResolver.obj
 0001:000695f0       ?put@?$RefHashTableOf@VGrammar@xercesc_2_2@@@xercesc_2_2@@QAEXPAXQAVGrammar@2@@Z 1206a5f0 f i GrammarResolver.obj
 0001:000696f0       ??1?$RefHashTableOfEnumerator@VGrammar@xercesc_2_2@@@xercesc_2_2@@UAE@XZ 1206a6f0 f i GrammarResolver.obj
 0001:000697d0       ?hasMoreElements@?$RefHashTableOfEnumerator@VValueStore@xercesc_2_2@@@xercesc_2_2@@UBE_NXZ 1206a7d0 f i GrammarResolver.obj
 0001:000697d0       ?hasMoreElements@?$RefHashTableOfEnumerator@VGrammar@xercesc_2_2@@@xercesc_2_2@@UBE_NXZ 1206a7d0 f i GrammarResolver.obj
 0001:000697d0       ?hasMoreElements@?$RefHashTableOfEnumerator@VComplexTypeInfo@xercesc_2_2@@@xercesc_2_2@@UBE_NXZ 1206a7d0 f i GrammarResolver.obj
 0001:000697d0       ?hasMoreElements@?$RefHashTableOfEnumerator@VXercesGroupInfo@xercesc_2_2@@@xercesc_2_2@@UBE_NXZ 1206a7d0 f i GrammarResolver.obj
 0001:000697d0       ?hasMoreElements@?$RefHashTableOfEnumerator@VKVStringPair@xercesc_2_2@@@xercesc_2_2@@UBE_NXZ 1206a7d0 f i GrammarResolver.obj
 0001:000697d0       ?hasMoreElements@?$RefHashTableOfEnumerator@VXMLRefInfo@xercesc_2_2@@@xercesc_2_2@@UBE_NXZ 1206a7d0 f i GrammarResolver.obj
 0001:000697d0       ?hasMoreElements@?$RefHash2KeysTableOfEnumerator@VSchemaAttDef@xercesc_2_2@@@xercesc_2_2@@UBE_NXZ 1206a7d0 f i GrammarResolver.obj
 0001:000697d0       ?hasMoreElements@?$RefHashTableOfEnumerator@V?$KeyRefPair@XVDOMUserDataHandler@xercesc_2_2@@@xercesc_2_2@@@xercesc_2_2@@UBE_NXZ 1206a7d0 f i GrammarResolver.obj
 0001:000697d0       ?hasMoreElements@?$RefHashTableOfEnumerator@VDTDAttDef@xercesc_2_2@@@xercesc_2_2@@UBE_NXZ 1206a7d0 f i GrammarResolver.obj
 0001:000697f0       ??_E?$RefHashTableOfEnumerator@VGrammar@xercesc_2_2@@@xercesc_2_2@@UAEPAXI@Z 1206a7f0 f i GrammarResolver.obj
 0001:000697f0       ??_G?$RefHashTableOfEnumerator@VGrammar@xercesc_2_2@@@xercesc_2_2@@UAEPAXI@Z 1206a7f0 f i GrammarResolver.obj
 0001:00069810       ??0MixedContentModel@xercesc_2_2@@QAE@_NQAVContentSpecNode@1@0@Z 1206a810 f   MixedContentModel.obj
 0001:00069a10       ?checkUniqueParticleAttribution@MixedContentModel@xercesc_2_2@@UAEXQAVSchemaGrammar@2@QAVGrammarResolver@2@QAVXMLStringPool@2@QAVXMLValidator@2@QAI@Z 1206aa10 f i MixedContentModel.obj
 0001:00069a60       ??_GMixedContentModel@xercesc_2_2@@UAEPAXI@Z 1206aa60 f i MixedContentModel.obj
 0001:00069a60       ??_EMixedContentModel@xercesc_2_2@@UAEPAXI@Z 1206aa60 f i MixedContentModel.obj
 0001:00069a80       ??1MixedContentModel@xercesc_2_2@@UAE@XZ 1206aa80 f   MixedContentModel.obj
 0001:00069ae0       ?hasDups@MixedContentModel@xercesc_2_2@@QBE_NXZ 1206aae0 f   MixedContentModel.obj
 0001:00069bf0       ?validateContent@MixedContentModel@xercesc_2_2@@UBEHQAPAVQName@2@II@Z 1206abf0 f   MixedContentModel.obj
 0001:00069ea0       ?validateContentSpecial@MixedContentModel@xercesc_2_2@@UBEHQAPAVQName@2@IIQAVGrammarResolver@2@QAVXMLStringPool@2@@Z 1206aea0 f   MixedContentModel.obj
 0001:0006a010       ?buildChildList@MixedContentModel@xercesc_2_2@@AAEXQAVContentSpecNode@2@AAV?$ValueVectorOf@PAVQName@xercesc_2_2@@@2@AAV?$ValueVectorOf@W4NodeTypes@ContentSpecNode@xercesc_2_2@@@2@@Z 1206b010 f   MixedContentModel.obj
 0001:0006a1a0       ?validateContent@SimpleContentModel@xercesc_2_2@@UBEHQAPAVQName@2@II@Z 1206b1a0 f   SimpleContentModel.obj
 0001:0006a9d0       ?validateContentSpecial@SimpleContentModel@xercesc_2_2@@UBEHQAPAVQName@2@IIQAVGrammarResolver@2@QAVXMLStringPool@2@@Z 1206b9d0 f   SimpleContentModel.obj
 0001:0006ae90       ?checkUniqueParticleAttribution@SimpleContentModel@xercesc_2_2@@UAEXQAVSchemaGrammar@2@QAVGrammarResolver@2@QAVXMLStringPool@2@QAVXMLValidator@2@QAI@Z 1206be90 f   SimpleContentModel.obj
 0001:0006af70       ??0AbstractNumericFacetValidator@xercesc_2_2@@QAE@ABV01@@Z 1206bf70 f i AbstractNumericFacetValidator.obj
 0001:0006b010       ??_EAbstractNumericFacetValidator@xercesc_2_2@@UAEPAXI@Z 1206c010 f i AbstractNumericFacetValidator.obj
 0001:0006b070       ??0InvalidDatatypeFacetException@xercesc_2_2@@QAE@QBDIW4Codes@XMLExcepts@1@@Z 1206c070 f i AbstractNumericFacetValidator.obj
 0001:0006b0d0       ??0InvalidDatatypeFacetException@xercesc_2_2@@QAE@ABV01@@Z 1206c0d0 f i AbstractNumericFacetValidator.obj
 0001:0006b0f0       ??0InvalidDatatypeFacetException@xercesc_2_2@@QAE@QBDIW4Codes@XMLExcepts@1@QBG222@Z 1206c0f0 f i AbstractNumericFacetValidator.obj
 0001:0006b160       ??0InvalidDatatypeFacetException@xercesc_2_2@@QAE@QBDIW4Codes@XMLExcepts@1@0000@Z 1206c160 f i AbstractNumericFacetValidator.obj
 0001:0006b1d0       ??1InvalidDatatypeFacetException@xercesc_2_2@@UAE@XZ 1206c1d0 f i AbstractNumericFacetValidator.obj
 0001:0006b1e0       ?duplicate@InvalidDatatypeFacetException@xercesc_2_2@@UBEPAVXMLException@2@XZ 1206c1e0 f i AbstractNumericFacetValidator.obj
 0001:0006b240       ?getType@InvalidDatatypeFacetException@xercesc_2_2@@UBEPBGXZ 1206c240 f i AbstractNumericFacetValidator.obj
 0001:0006b250       ??_EInvalidDatatypeFacetException@xercesc_2_2@@UAEPAXI@Z 1206c250 f i AbstractNumericFacetValidator.obj
 0001:0006b2b0       ??1AbstractNumericFacetValidator@xercesc_2_2@@UAE@XZ 1206c2b0 f   AbstractNumericFacetValidator.obj
 0001:0006b380       ??0AbstractNumericFacetValidator@xercesc_2_2@@IAE@QAVDatatypeValidator@1@QAV?$RefHashTableOf@VKVStringPair@xercesc_2_2@@@1@HW4ValidatorType@21@@Z 1206c380 f   AbstractNumericFacetValidator.obj
 0001:0006b3d0       ?init@AbstractNumericFacetValidator@xercesc_2_2@@IAEXQAV?$RefArrayVectorOf@G@2@@Z 1206c3d0 f   AbstractNumericFacetValidator.obj
 0001:0006b410       ?assignFacet@AbstractNumericFacetValidator@xercesc_2_2@@AAEXXZ 1206c410 f   AbstractNumericFacetValidator.obj
 0001:0006b9b0       ?inspectFacet@AbstractNumericFacetValidator@xercesc_2_2@@AAEXXZ 1206c9b0 f   AbstractNumericFacetValidator.obj
 0001:0006bbe0       ?inspectFacetBase@AbstractNumericFacetValidator@xercesc_2_2@@AAEXXZ 1206cbe0 f   AbstractNumericFacetValidator.obj
 0001:0006c990       ?inheritFacet@AbstractNumericFacetValidator@xercesc_2_2@@AAEXXZ 1206d990 f   AbstractNumericFacetValidator.obj
 0001:0006ca50       ?getEnumString@AbstractNumericFacetValidator@xercesc_2_2@@UBEPBV?$RefArrayVectorOf@G@2@XZ 1206da50 f   AbstractNumericFacetValidator.obj
 0001:0006ca70       ??1?$XMLEnumerator@VKVStringPair@xercesc_2_2@@@xercesc_2_2@@UAE@XZ 1206da70 f i AbstractNumericFacetValidator.obj
 0001:0006ca80       ??_E?$XMLEnumerator@VKVStringPair@xercesc_2_2@@@xercesc_2_2@@UAEPAXI@Z 1206da80 f i AbstractNumericFacetValidator.obj
 0001:0006ca80       ??_G?$XMLEnumerator@VKVStringPair@xercesc_2_2@@@xercesc_2_2@@UAEPAXI@Z 1206da80 f i AbstractNumericFacetValidator.obj
 0001:0006caa0       ??1?$RefHashTableOfEnumerator@VKVStringPair@xercesc_2_2@@@xercesc_2_2@@UAE@XZ 1206daa0 f i AbstractNumericFacetValidator.obj
 0001:0006cb80       ??_E?$RefHashTableOfEnumerator@VKVStringPair@xercesc_2_2@@@xercesc_2_2@@UAEPAXI@Z 1206db80 f i AbstractNumericFacetValidator.obj
 0001:0006cb80       ??_G?$RefHashTableOfEnumerator@VKVStringPair@xercesc_2_2@@@xercesc_2_2@@UAEPAXI@Z 1206db80 f i AbstractNumericFacetValidator.obj
 0001:0006cba0       ??0AbstractNumericValidator@xercesc_2_2@@QAE@ABV01@@Z 1206dba0 f i AbstractNumericValidator.obj
 0001:0006cc40       ??_EAbstractNumericValidator@xercesc_2_2@@UAEPAXI@Z 1206dc40 f i AbstractNumericValidator.obj
 0001:0006cca0       ?init@AbstractNumericValidator@xercesc_2_2@@IAEXQAV?$RefArrayVectorOf@G@2@@Z 1206dca0 f i AbstractNumericValidator.obj
 0001:0006ccb0       ??0InvalidDatatypeValueException@xercesc_2_2@@QAE@QBDIW4Codes@XMLExcepts@1@@Z 1206dcb0 f i AbstractNumericValidator.obj
 0001:0006cd10       ??0InvalidDatatypeValueException@xercesc_2_2@@QAE@ABV01@@Z 1206dd10 f i AbstractNumericValidator.obj
 0001:0006cd30       ??0InvalidDatatypeValueException@xercesc_2_2@@QAE@QBDIW4Codes@XMLExcepts@1@QBG222@Z 1206dd30 f i AbstractNumericValidator.obj
 0001:0006cda0       ??0InvalidDatatypeValueException@xercesc_2_2@@QAE@QBDIW4Codes@XMLExcepts@1@0000@Z 1206dda0 f i AbstractNumericValidator.obj
 0001:0006ce10       ??1InvalidDatatypeValueException@xercesc_2_2@@UAE@XZ 1206de10 f i AbstractNumericValidator.obj
 0001:0006ce20       ?duplicate@InvalidDatatypeValueException@xercesc_2_2@@UBEPAVXMLException@2@XZ 1206de20 f i AbstractNumericValidator.obj
 0001:0006ce80       ?getType@InvalidDatatypeValueException@xercesc_2_2@@UBEPBGXZ 1206de80 f i AbstractNumericValidator.obj
 0001:0006ce90       ??_EInvalidDatatypeValueException@xercesc_2_2@@UAEPAXI@Z 1206de90 f i AbstractNumericValidator.obj
 0001:0006cef0       ??1AbstractNumericValidator@xercesc_2_2@@UAE@XZ 1206def0 f   AbstractNumericValidator.obj
 0001:0006cf00       ??0AbstractNumericValidator@xercesc_2_2@@IAE@QAVDatatypeValidator@1@QAV?$RefHashTableOf@VKVStringPair@xercesc_2_2@@@1@HW4ValidatorType@21@@Z 1206df00 f   AbstractNumericValidator.obj
 0001:0006cf30       ?boundsCheck@AbstractNumericValidator@xercesc_2_2@@IAEXQBVXMLNumber@2@@Z 1206df30 f   AbstractNumericValidator.obj
 0001:0006d180       ??1AbstractStringValidator@xercesc_2_2@@UAE@XZ 1206e180 f   AbstractStringValidator.obj
 0001:0006d1f0       ??0AbstractStringValidator@xercesc_2_2@@IAE@QAVDatatypeValidator@1@QAV?$RefHashTableOf@VKVStringPair@xercesc_2_2@@@1@HW4ValidatorType@21@@Z 1206e1f0 f   AbstractStringValidator.obj
 0001:0006d240       ?init@AbstractStringValidator@xercesc_2_2@@IAEXQAV?$RefArrayVectorOf@G@2@@Z 1206e240 f   AbstractStringValidator.obj
 0001:0006d2a0       ?assignFacet@AbstractStringValidator@xercesc_2_2@@AAEXXZ 1206e2a0 f   AbstractStringValidator.obj
 0001:0006d850       ?inspectFacet@AbstractStringValidator@xercesc_2_2@@AAEXXZ 1206e850 f   AbstractStringValidator.obj
 0001:0006d930       ?inspectFacetBase@AbstractStringValidator@xercesc_2_2@@MAEXXZ 1206e930 f   AbstractStringValidator.obj
 0001:0006ddc0       ?inheritFacet@AbstractStringValidator@xercesc_2_2@@MAEXXZ 1206edc0 f   AbstractStringValidator.obj
 0001:0006de60       ?compare@AbstractStringValidator@xercesc_2_2@@UAEHQBG0@Z 1206ee60 f   AbstractStringValidator.obj
 0001:0006de80       ?validate@AbstractStringValidator@xercesc_2_2@@UAEXQBG@Z 1206ee80 f   AbstractStringValidator.obj
 0001:0006de90       ?checkContent@AbstractStringValidator@xercesc_2_2@@MAEXQBG_N@Z 1206ee90 f   AbstractStringValidator.obj
 0001:0006e300       ?getEnumString@AbstractStringValidator@xercesc_2_2@@UBEPBV?$RefArrayVectorOf@G@2@XZ 1206f300 f   AbstractStringValidator.obj
 0001:0006e310       ??0AnySimpleTypeDatatypeValidator@xercesc_2_2@@QAE@ABV01@@Z 1206f310 f i AnySimpleTypeDatatypeValidator.obj
 0001:0006e370       ??_EAnySimpleTypeDatatypeValidator@xercesc_2_2@@UAEPAXI@Z 1206f370 f i AnySimpleTypeDatatypeValidator.obj
 0001:0006e3d0       ?compare@AnySimpleTypeDatatypeValidator@xercesc_2_2@@UAEHQBG0@Z 1206f3d0 f i AnySimpleTypeDatatypeValidator.obj
 0001:0006e3e0       ?checkRootElement@XMLValidator@xercesc_2_2@@QAE_NI@Z 1206f3e0 f i AnySimpleTypeDatatypeValidator.obj
 0001:0006e3e0       ?isSubstitutableBy@AnySimpleTypeDatatypeValidator@xercesc_2_2@@UAE_NQBVDatatypeValidator@2@@Z 1206f3e0 f i AnySimpleTypeDatatypeValidator.obj
 0001:0006e3f0       ??0AnySimpleTypeDatatypeValidator@xercesc_2_2@@QAE@XZ 1206f3f0 f   AnySimpleTypeDatatypeValidator.obj
 0001:0006e410       ??1AnySimpleTypeDatatypeValidator@xercesc_2_2@@UAE@XZ 1206f410 f   AnySimpleTypeDatatypeValidator.obj
 0001:0006e420       ?newInstance@AnySimpleTypeDatatypeValidator@xercesc_2_2@@UAEPAVDatatypeValidator@2@QAV?$RefHashTableOf@VKVStringPair@xercesc_2_2@@@2@QAV?$RefArrayVectorOf@G@2@H@Z 1206f420 f   AnySimpleTypeDatatypeValidator.obj
 0001:0006e4f0       ??0AnyURIDatatypeValidator@xercesc_2_2@@QAE@ABV01@@Z 1206f4f0 f i AnyURIDatatypeValidator.obj
 0001:0006e580       ??_EAnyURIDatatypeValidator@xercesc_2_2@@UAEPAXI@Z 1206f580 f i AnyURIDatatypeValidator.obj
 0001:0006e5e0       ?cleanUp@AnyURIDatatypeValidator@xercesc_2_2@@AAEXXZ 1206f5e0 f i AnyURIDatatypeValidator.obj
 0001:0006e600       ??0AnyURIDatatypeValidator@xercesc_2_2@@QAE@XZ 1206f600 f   AnyURIDatatypeValidator.obj
 0001:0006e630       ??1AnyURIDatatypeValidator@xercesc_2_2@@UAE@XZ 1206f630 f   AnyURIDatatypeValidator.obj
 0001:0006e690       ??0AnyURIDatatypeValidator@xercesc_2_2@@QAE@QAVDatatypeValidator@1@QAV?$RefHashTableOf@VKVStringPair@xercesc_2_2@@@1@QAV?$RefArrayVectorOf@G@1@H@Z 1206f690 f   AnyURIDatatypeValidator.obj
 0001:0006e720       ?newInstance@AnyURIDatatypeValidator@xercesc_2_2@@UAEPAVDatatypeValidator@2@QAV?$RefHashTableOf@VKVStringPair@xercesc_2_2@@@2@QAV?$RefArrayVectorOf@G@2@H@Z 1206f720 f   AnyURIDatatypeValidator.obj
 0001:0006e790       ?assignAdditionalFacet@AnyURIDatatypeValidator@xercesc_2_2@@MAEXQBG0@Z 1206f790 f   AnyURIDatatypeValidator.obj
 0001:0006e7d0       ?getLength@QNameDatatypeValidator@xercesc_2_2@@MBEHQBG@Z 1206f7d0 f   AnyURIDatatypeValidator.obj
 0001:0006e7d0       ?getLength@AnyURIDatatypeValidator@xercesc_2_2@@MBEHQBG@Z 1206f7d0 f   AnyURIDatatypeValidator.obj
 0001:0006e7d0       ?getLength@StringDatatypeValidator@xercesc_2_2@@MBEHQBG@Z 1206f7d0 f   AnyURIDatatypeValidator.obj
 0001:0006e7d0       ?getLength@NOTATIONDatatypeValidator@xercesc_2_2@@MBEHQBG@Z 1206f7d0 f   AnyURIDatatypeValidator.obj
 0001:0006e800       ?checkValueSpace@AnyURIDatatypeValidator@xercesc_2_2@@MAEXQBG@Z 1206f800 f   AnyURIDatatypeValidator.obj
 0001:0006e8f0       ??0Base64BinaryDatatypeValidator@xercesc_2_2@@QAE@ABV01@@Z 1206f8f0 f i Base64BinaryDatatypeValidator.obj
 0001:0006e970       ??4AbstractStringValidator@xercesc_2_2@@QAEAAV01@ABV01@@Z 1206f970 f i Base64BinaryDatatypeValidator.obj
 0001:0006e970       ??4HexBinaryDatatypeValidator@xercesc_2_2@@QAEAAV01@ABV01@@Z 1206f970 f i Base64BinaryDatatypeValidator.obj
 0001:0006e970       ??4NOTATIONDatatypeValidator@xercesc_2_2@@QAEAAV01@ABV01@@Z 1206f970 f i Base64BinaryDatatypeValidator.obj
 0001:0006e970       ??4QNameDatatypeValidator@xercesc_2_2@@QAEAAV01@ABV01@@Z 1206f970 f i Base64BinaryDatatypeValidator.obj
 0001:0006e970       ??4Base64BinaryDatatypeValidator@xercesc_2_2@@QAEAAV01@ABV01@@Z 1206f970 f i Base64BinaryDatatypeValidator.obj
 0001:0006e9e0       ??_EBase64BinaryDatatypeValidator@xercesc_2_2@@UAEPAXI@Z 1206f9e0 f i Base64BinaryDatatypeValidator.obj
 0001:0006ea40       ??0Base64BinaryDatatypeValidator@xercesc_2_2@@QAE@XZ 1206fa40 f   Base64BinaryDatatypeValidator.obj
 0001:0006ea60       ??1Base64BinaryDatatypeValidator@xercesc_2_2@@UAE@XZ 1206fa60 f   Base64BinaryDatatypeValidator.obj
 0001:0006ea70       ??0Base64BinaryDatatypeValidator@xercesc_2_2@@QAE@QAVDatatypeValidator@1@QAV?$RefHashTableOf@VKVStringPair@xercesc_2_2@@@1@QAV?$RefArrayVectorOf@G@1@H@Z 1206fa70 f   Base64BinaryDatatypeValidator.obj
 0001:0006eae0       ?newInstance@Base64BinaryDatatypeValidator@xercesc_2_2@@UAEPAVDatatypeValidator@2@QAV?$RefHashTableOf@VKVStringPair@xercesc_2_2@@@2@QAV?$RefArrayVectorOf@G@2@H@Z 1206fae0 f   Base64BinaryDatatypeValidator.obj
 0001:0006eb60       ?assignAdditionalFacet@Base64BinaryDatatypeValidator@xercesc_2_2@@MAEXQBG0@Z 1206fb60 f   Base64BinaryDatatypeValidator.obj
 0001:0006eba0       ?setLanguageName@XMLMsgLoader@xercesc_2_2@@IAEXQAG@Z 1206fba0 f   Base64BinaryDatatypeValidator.obj
 0001:0006eba0       ?endInputSource@SAX2XMLReaderImpl@xercesc_2_2@@UAEXABVInputSource@2@@Z 1206fba0 f   Base64BinaryDatatypeValidator.obj
 0001:0006eba0       ?doctypeComment@SAXParser@xercesc_2_2@@UAEXQBG@Z 1206fba0 f   Base64BinaryDatatypeValidator.obj
 0001:0006eba0       ?checkAdditionalFacet@QNameDatatypeValidator@xercesc_2_2@@MBEXQBG@Z 1206fba0 f   Base64BinaryDatatypeValidator.obj
 0001:0006eba0       ?checkAdditionalFacet@HexBinaryDatatypeValidator@xercesc_2_2@@MBEXQBG@Z 1206fba0 f   Base64BinaryDatatypeValidator.obj
 0001:0006eba0       ?startInputSource@SAX2XMLReaderImpl@xercesc_2_2@@UAEXABVInputSource@2@@Z 1206fba0 f   Base64BinaryDatatypeValidator.obj
 0001:0006eba0       ?startInputSource@SAXParser@xercesc_2_2@@UAEXABVInputSource@2@@Z 1206fba0 f   Base64BinaryDatatypeValidator.obj
 0001:0006eba0       ?checkValueSpace@ListDatatypeValidator@xercesc_2_2@@MAEXQBG@Z 1206fba0 f   Base64BinaryDatatypeValidator.obj
 0001:0006eba0       ?checkAdditionalFacet@AnyURIDatatypeValidator@xercesc_2_2@@MBEXQBG@Z 1206fba0 f   Base64BinaryDatatypeValidator.obj
 0001:0006eba0       ?startAttList@DOMParser@xercesc_2_2@@UAEXABVDTDElementDecl@2@@Z 1206fba0 f   Base64BinaryDatatypeValidator.obj
 0001:0006eba0       ?endAttList@SAX2XMLReaderImpl@xercesc_2_2@@UAEXABVDTDElementDecl@2@@Z 1206fba0 f   Base64BinaryDatatypeValidator.obj
 0001:0006eba0       ?checkBlockSize@XMLTranscoder@xercesc_2_2@@IAEXI@Z 1206fba0 f   Base64BinaryDatatypeValidator.obj
 0001:0006eba0       ?checkAdditionalFacet@Base64BinaryDatatypeValidator@xercesc_2_2@@MBEXQBG@Z 1206fba0 f   Base64BinaryDatatypeValidator.obj
 0001:0006eba0       ?startAttList@SAX2XMLReaderImpl@xercesc_2_2@@UAEXABVDTDElementDecl@2@@Z 1206fba0 f   Base64BinaryDatatypeValidator.obj
 0001:0006eba0       ?normalizeContent@AbstractStringValidator@xercesc_2_2@@MBEXQAG@Z 1206fba0 f   Base64BinaryDatatypeValidator.obj
 0001:0006eba0       ?checkAdditionalFacet@ListDatatypeValidator@xercesc_2_2@@MBEXQBG@Z 1206fba0 f   Base64BinaryDatatypeValidator.obj
 0001:0006eba0       ?setNodeValue@NodeImpl@xercesc_2_2@@UAEXABVDOMString@2@@Z 1206fba0 f   Base64BinaryDatatypeValidator.obj
 0001:0006eba0       ?setNodeValue@DOMNodeImpl@xercesc_2_2@@QAEXPBG@Z 1206fba0 f   Base64BinaryDatatypeValidator.obj
 0001:0006eba0       ?startAttList@SAXParser@xercesc_2_2@@UAEXABVDTDElementDecl@2@@Z 1206fba0 f   Base64BinaryDatatypeValidator.obj
 0001:0006eba0       ?checkAdditionalFacet@NOTATIONDatatypeValidator@xercesc_2_2@@MBEXQBG@Z 1206fba0 f   Base64BinaryDatatypeValidator.obj
 0001:0006eba0       ?checkValueSpace@StringDatatypeValidator@xercesc_2_2@@MAEXQBG@Z 1206fba0 f   Base64BinaryDatatypeValidator.obj
 0001:0006eba0       ?endInputSource@SAXParser@xercesc_2_2@@UAEXABVInputSource@2@@Z 1206fba0 f   Base64BinaryDatatypeValidator.obj
 0001:0006eba0       ?endAttList@SAXParser@xercesc_2_2@@UAEXABVDTDElementDecl@2@@Z 1206fba0 f   Base64BinaryDatatypeValidator.obj
 0001:0006ebb0       ?checkValueSpace@Base64BinaryDatatypeValidator@xercesc_2_2@@MAEXQBG@Z 1206fbb0 f   Base64BinaryDatatypeValidator.obj
 0001:0006ec00       ?getLength@Base64BinaryDatatypeValidator@xercesc_2_2@@MBEHQBG@Z 1206fc00 f   Base64BinaryDatatypeValidator.obj
 0001:0006ec10       ?normalizeEnumeration@Base64BinaryDatatypeValidator@xercesc_2_2@@MAEXXZ 1206fc10 f   Base64BinaryDatatypeValidator.obj
 0001:0006ec70       ?normalizeContent@Base64BinaryDatatypeValidator@xercesc_2_2@@MBEXQAG@Z 1206fc70 f   Base64BinaryDatatypeValidator.obj
 0001:0006ec80       ??0BooleanDatatypeValidator@xercesc_2_2@@QAE@ABV01@@Z 1206fc80 f i BooleanDatatypeValidator.obj
 0001:0006ece0       ??4BooleanDatatypeValidator@xercesc_2_2@@QAEAAV01@ABV01@@Z 1206fce0 f i BooleanDatatypeValidator.obj
 0001:0006ece0       ??4AnySimpleTypeDatatypeValidator@xercesc_2_2@@QAEAAV01@ABV01@@Z 1206fce0 f i BooleanDatatypeValidator.obj
 0001:0006ece0       ??4DatatypeValidator@xercesc_2_2@@QAEAAV01@ABV01@@Z 1206fce0 f i BooleanDatatypeValidator.obj
 0001:0006ed40       ??_EBooleanDatatypeValidator@xercesc_2_2@@UAEPAXI@Z 1206fd40 f i BooleanDatatypeValidator.obj
 0001:0006eda0       ??0BooleanDatatypeValidator@xercesc_2_2@@QAE@XZ 1206fda0 f i BooleanDatatypeValidator.obj
 0001:0006edc0       ??1BooleanDatatypeValidator@xercesc_2_2@@UAE@XZ 1206fdc0 f i BooleanDatatypeValidator.obj
 0001:0006edd0       ?newInstance@BooleanDatatypeValidator@xercesc_2_2@@UAEPAVDatatypeValidator@2@QAV?$RefHashTableOf@VKVStringPair@xercesc_2_2@@@2@QAV?$RefArrayVectorOf@G@2@H@Z 1206fdd0 f i BooleanDatatypeValidator.obj
 0001:0006ee40       ?validate@BooleanDatatypeValidator@xercesc_2_2@@UAEXQBG@Z 1206fe40 f i BooleanDatatypeValidator.obj
 0001:0006ee50       ??0BooleanDatatypeValidator@xercesc_2_2@@QAE@QAVDatatypeValidator@1@QAV?$RefHashTableOf@VKVStringPair@xercesc_2_2@@@1@QAV?$RefArrayVectorOf@G@1@H@Z 1206fe50 f   BooleanDatatypeValidator.obj
 0001:0006f0e0       ?checkContent@BooleanDatatypeValidator@xercesc_2_2@@AAEXQBG_N@Z 120700e0 f   BooleanDatatypeValidator.obj
 0001:0006f2c0       ?compare@BooleanDatatypeValidator@xercesc_2_2@@UAEHQBG0@Z 120702c0 f   BooleanDatatypeValidator.obj
 0001:0006f590       ??1?$RefHashTableOf@VKVStringPair@xercesc_2_2@@@xercesc_2_2@@QAE@XZ 12070590 f i BooleanDatatypeValidator.obj
 0001:0006f620       ??0DatatypeValidator@xercesc_2_2@@IAE@QAV01@QAV?$RefHashTableOf@VKVStringPair@xercesc_2_2@@@1@HW4ValidatorType@01@@Z 12070620 f   DatatypeValidator.obj
 0001:0006f670       ??1DatatypeValidator@xercesc_2_2@@UAE@XZ 12070670 f   DatatypeValidator.obj
 0001:0006f750       ?getWSstring@DatatypeValidator@xercesc_2_2@@IBEPBGF@Z 12070750 f   DatatypeValidator.obj
 0001:0006f780       ??0DecimalDatatypeValidator@xercesc_2_2@@QAE@ABV01@@Z 12070780 f i DatatypeValidatorFactory.obj
 0001:0006f840       ??4DecimalDatatypeValidator@xercesc_2_2@@QAEAAV01@ABV01@@Z 12070840 f i DatatypeValidatorFactory.obj
 0001:0006f8e0       ??_EDecimalDatatypeValidator@xercesc_2_2@@UAEPAXI@Z 120708e0 f i DatatypeValidatorFactory.obj
 0001:0006f940       ?getErrorHandler@XercesDOMParser@xercesc_2_2@@QAEPAVErrorHandler@2@XZ 12070940 f i DatatypeValidatorFactory.obj
 0001:0006f940       ?getErrorHandler@XercesDOMParser@xercesc_2_2@@QBEPBVErrorHandler@2@XZ 12070940 f i DatatypeValidatorFactory.obj
 0001:0006f940       ?getDTDHandler@SAX2XMLReaderImpl@xercesc_2_2@@UBEPAVDTDHandler@2@XZ 12070940 f i DatatypeValidatorFactory.obj
 0001:0006f940       ?getIDRefList@XMLScanner@xercesc_2_2@@QAEPAV?$RefHashTableOf@VXMLRefInfo@xercesc_2_2@@@2@XZ 12070940 f i DatatypeValidatorFactory.obj
 0001:0006f940       ?getTotalDigits@DecimalDatatypeValidator@xercesc_2_2@@QBEIXZ 12070940 f i DatatypeValidatorFactory.obj
 0001:0006f940       ?getIDRefList@XMLScanner@xercesc_2_2@@QBEPBV?$RefHashTableOf@VXMLRefInfo@xercesc_2_2@@@2@XZ 12070940 f i DatatypeValidatorFactory.obj
 0001:0006f950       ?getFractionDigits@DecimalDatatypeValidator@xercesc_2_2@@QBEIXZ 12070950 f i DatatypeValidatorFactory.obj
 0001:0006f950       ?getEntityResolver@SAX2XMLReaderImpl@xercesc_2_2@@UBEPAVEntityResolver@2@XZ 12070950 f i DatatypeValidatorFactory.obj
 0001:0006f960       ?setTotalDigits@DecimalDatatypeValidator@xercesc_2_2@@AAEXI@Z 12070960 f i DatatypeValidatorFactory.obj
 0001:0006f970       ?setFractionDigits@DecimalDatatypeValidator@xercesc_2_2@@AAEXI@Z 12070970 f i DatatypeValidatorFactory.obj
 0001:0006f980       ??0HexBinaryDatatypeValidator@xercesc_2_2@@QAE@ABV01@@Z 12070980 f i DatatypeValidatorFactory.obj
 0001:0006fa00       ??_EHexBinaryDatatypeValidator@xercesc_2_2@@UAEPAXI@Z 12070a00 f i DatatypeValidatorFactory.obj
 0001:0006fa60       ??0IDREFDatatypeValidator@xercesc_2_2@@QAE@ABV01@@Z 12070a60 f i DatatypeValidatorFactory.obj
 0001:0006fb00       ??_EIDREFDatatypeValidator@xercesc_2_2@@UAEPAXI@Z 12070b00 f i DatatypeValidatorFactory.obj
 0001:0006fb60       ??0NOTATIONDatatypeValidator@xercesc_2_2@@QAE@ABV01@@Z 12070b60 f i DatatypeValidatorFactory.obj
 0001:0006fbe0       ??_ENOTATIONDatatypeValidator@xercesc_2_2@@UAEPAXI@Z 12070be0 f i DatatypeValidatorFactory.obj
 0001:0006fc40       ??0ENTITYDatatypeValidator@xercesc_2_2@@QAE@ABV01@@Z 12070c40 f i DatatypeValidatorFactory.obj
 0001:0006fce0       ??4IDDatatypeValidator@xercesc_2_2@@QAEAAV01@ABV01@@Z 12070ce0 f i DatatypeValidatorFactory.obj
 0001:0006fce0       ??4ENTITYDatatypeValidator@xercesc_2_2@@QAEAAV01@ABV01@@Z 12070ce0 f i DatatypeValidatorFactory.obj
 0001:0006fce0       ??4IDREFDatatypeValidator@xercesc_2_2@@QAEAAV01@ABV01@@Z 12070ce0 f i DatatypeValidatorFactory.obj
 0001:0006fd60       ??_EENTITYDatatypeValidator@xercesc_2_2@@UAEPAXI@Z 12070d60 f i DatatypeValidatorFactory.obj
 0001:0006fdc0       ??0QNameDatatypeValidator@xercesc_2_2@@QAE@ABV01@@Z 12070dc0 f i DatatypeValidatorFactory.obj
 0001:0006fe40       ??_EQNameDatatypeValidator@xercesc_2_2@@UAEPAXI@Z 12070e40 f i DatatypeValidatorFactory.obj
 0001:0006fea0       ??0NameDatatypeValidator@xercesc_2_2@@QAE@ABV01@@Z 12070ea0 f i DatatypeValidatorFactory.obj
 0001:0006ff30       ??_ENameDatatypeValidator@xercesc_2_2@@UAEPAXI@Z 12070f30 f i DatatypeValidatorFactory.obj
 0001:0006ff90       ??0NCNameDatatypeValidator@xercesc_2_2@@QAE@ABV01@@Z 12070f90 f i DatatypeValidatorFactory.obj
 0001:00070020       ??4StringDatatypeValidator@xercesc_2_2@@QAEAAV01@ABV01@@Z 12071020 f i DatatypeValidatorFactory.obj
 0001:00070020       ??4NCNameDatatypeValidator@xercesc_2_2@@QAEAAV01@ABV01@@Z 12071020 f i DatatypeValidatorFactory.obj
 0001:00070020       ??4NameDatatypeValidator@xercesc_2_2@@QAEAAV01@ABV01@@Z 12071020 f i DatatypeValidatorFactory.obj
 0001:000700a0       ??_ENCNameDatatypeValidator@xercesc_2_2@@UAEPAXI@Z 120710a0 f i DatatypeValidatorFactory.obj
 0001:00070100       ??0ListDatatypeValidator@xercesc_2_2@@QAE@ABV01@@Z 12071100 f i DatatypeValidatorFactory.obj
 0001:00070190       ??4AnyURIDatatypeValidator@xercesc_2_2@@QAEAAV01@ABV01@@Z 12071190 f i DatatypeValidatorFactory.obj
 0001:00070190       ??4ListDatatypeValidator@xercesc_2_2@@QAEAAV01@ABV01@@Z 12071190 f i DatatypeValidatorFactory.obj
 0001:00070210       ??_EListDatatypeValidator@xercesc_2_2@@UAEPAXI@Z 12071210 f i DatatypeValidatorFactory.obj
 0001:00070270       ??0DoubleDatatypeValidator@xercesc_2_2@@QAE@ABV01@@Z 12071270 f i DatatypeValidatorFactory.obj
 0001:00070310       ??_EDoubleDatatypeValidator@xercesc_2_2@@UAEPAXI@Z 12071310 f i DatatypeValidatorFactory.obj
 0001:00070370       ??0FloatDatatypeValidator@xercesc_2_2@@QAE@ABV01@@Z 12071370 f i DatatypeValidatorFactory.obj
 0001:00070410       ??_EFloatDatatypeValidator@xercesc_2_2@@UAEPAXI@Z 12071410 f i DatatypeValidatorFactory.obj
 0001:00070470       ??0DateTimeValidator@xercesc_2_2@@QAE@ABV01@@Z 12071470 f i DatatypeValidatorFactory.obj
 0001:00070510       ??_EDateTimeValidator@xercesc_2_2@@UAEPAXI@Z 12071510 f i DatatypeValidatorFactory.obj
 0001:00070570       ??0DateTimeDatatypeValidator@xercesc_2_2@@QAE@ABV01@@Z 12071570 f i DatatypeValidatorFactory.obj
 0001:00070610       ??_EDateTimeDatatypeValidator@xercesc_2_2@@UAEPAXI@Z 12071610 f i DatatypeValidatorFactory.obj
 0001:00070670       ??0DateDatatypeValidator@xercesc_2_2@@QAE@ABV01@@Z 12071670 f i DatatypeValidatorFactory.obj
 0001:00070710       ??_EDateDatatypeValidator@xercesc_2_2@@UAEPAXI@Z 12071710 f i DatatypeValidatorFactory.obj
 0001:00070770       ??0TimeDatatypeValidator@xercesc_2_2@@QAE@ABV01@@Z 12071770 f i DatatypeValidatorFactory.obj
 0001:00070810       ??_ETimeDatatypeValidator@xercesc_2_2@@UAEPAXI@Z 12071810 f i DatatypeValidatorFactory.obj
 0001:00070870       ??0DayDatatypeValidator@xercesc_2_2@@QAE@ABV01@@Z 12071870 f i DatatypeValidatorFactory.obj
 0001:00070910       ??_EDayDatatypeValidator@xercesc_2_2@@UAEPAXI@Z 12071910 f i DatatypeValidatorFactory.obj
 0001:00070970       ??0MonthDatatypeValidator@xercesc_2_2@@QAE@ABV01@@Z 12071970 f i DatatypeValidatorFactory.obj
 0001:00070a10       ??_EMonthDatatypeValidator@xercesc_2_2@@UAEPAXI@Z 12071a10 f i DatatypeValidatorFactory.obj
 0001:00070a70       ??0MonthDayDatatypeValidator@xercesc_2_2@@QAE@ABV01@@Z 12071a70 f i DatatypeValidatorFactory.obj
 0001:00070b10       ??_EMonthDayDatatypeValidator@xercesc_2_2@@UAEPAXI@Z 12071b10 f i DatatypeValidatorFactory.obj
 0001:00070b70       ??0YearDatatypeValidator@xercesc_2_2@@QAE@ABV01@@Z 12071b70 f i DatatypeValidatorFactory.obj
 0001:00070c10       ??_EYearDatatypeValidator@xercesc_2_2@@UAEPAXI@Z 12071c10 f i DatatypeValidatorFactory.obj
 0001:00070c70       ??0YearMonthDatatypeValidator@xercesc_2_2@@QAE@ABV01@@Z 12071c70 f i DatatypeValidatorFactory.obj
 0001:00070d10       ??4MonthDayDatatypeValidator@xercesc_2_2@@QAEAAV01@ABV01@@Z 12071d10 f i DatatypeValidatorFactory.obj
 0001:00070d10       ??4DoubleDatatypeValidator@xercesc_2_2@@QAEAAV01@ABV01@@Z 12071d10 f i DatatypeValidatorFactory.obj
 0001:00070d10       ??4FloatDatatypeValidator@xercesc_2_2@@QAEAAV01@ABV01@@Z 12071d10 f i DatatypeValidatorFactory.obj
 0001:00070d10       ??4DateTimeValidator@xercesc_2_2@@QAEAAV01@ABV01@@Z 12071d10 f i DatatypeValidatorFactory.obj
 0001:00070d10       ??4DateTimeDatatypeValidator@xercesc_2_2@@QAEAAV01@ABV01@@Z 12071d10 f i DatatypeValidatorFactory.obj
 0001:00070d10       ??4DayDatatypeValidator@xercesc_2_2@@QAEAAV01@ABV01@@Z 12071d10 f i DatatypeValidatorFactory.obj
 0001:00070d10       ??4DurationDatatypeValidator@xercesc_2_2@@QAEAAV01@ABV01@@Z 12071d10 f i DatatypeValidatorFactory.obj
 0001:00070d10       ??4YearDatatypeValidator@xercesc_2_2@@QAEAAV01@ABV01@@Z 12071d10 f i DatatypeValidatorFactory.obj
 0001:00070d10       ??4DateDatatypeValidator@xercesc_2_2@@QAEAAV01@ABV01@@Z 12071d10 f i DatatypeValidatorFactory.obj
 0001:00070d10       ??4AbstractNumericFacetValidator@xercesc_2_2@@QAEAAV01@ABV01@@Z 12071d10 f i DatatypeValidatorFactory.obj
 0001:00070d10       ??4YearMonthDatatypeValidator@xercesc_2_2@@QAEAAV01@ABV01@@Z 12071d10 f i DatatypeValidatorFactory.obj
 0001:00070d10       ??4MonthDatatypeValidator@xercesc_2_2@@QAEAAV01@ABV01@@Z 12071d10 f i DatatypeValidatorFactory.obj
 0001:00070d10       ??4TimeDatatypeValidator@xercesc_2_2@@QAEAAV01@ABV01@@Z 12071d10 f i DatatypeValidatorFactory.obj
 0001:00070d10       ??4AbstractNumericValidator@xercesc_2_2@@QAEAAV01@ABV01@@Z 12071d10 f i DatatypeValidatorFactory.obj
 0001:00070db0       ??_EYearMonthDatatypeValidator@xercesc_2_2@@UAEPAXI@Z 12071db0 f i DatatypeValidatorFactory.obj
 0001:00070e10       ??0DurationDatatypeValidator@xercesc_2_2@@QAE@ABV01@@Z 12071e10 f i DatatypeValidatorFactory.obj
 0001:00070eb0       ??_EDurationDatatypeValidator@xercesc_2_2@@UAEPAXI@Z 12071eb0 f i DatatypeValidatorFactory.obj
 0001:00070f10       ??0DOM_Node@xercesc_2_2@@QAE@XZ 12071f10 f   DatatypeValidatorFactory.obj
 0001:00070f10       ??0DOM_NodeIterator@xercesc_2_2@@QAE@XZ 12071f10 f   DatatypeValidatorFactory.obj
 0001:00070f10       ??0DatatypeValidatorFactory@xercesc_2_2@@QAE@XZ 12071f10 f   DatatypeValidatorFactory.obj
 0001:00070f10       ??0DOM_TreeWalker@xercesc_2_2@@QAE@XZ 12071f10 f   DatatypeValidatorFactory.obj
 0001:00070f10       ??0DOM_Range@xercesc_2_2@@QAE@XZ 12071f10 f   DatatypeValidatorFactory.obj
 0001:00070f10       ??0DOMString@xercesc_2_2@@QAE@XZ 12071f10 f   DatatypeValidatorFactory.obj
 0001:00070f10       ??0DOM_NodeList@xercesc_2_2@@QAE@XZ 12071f10 f   DatatypeValidatorFactory.obj
 0001:00070f10       ??0XercesLocationPath@xercesc_2_2@@QAE@XZ 12071f10 f   DatatypeValidatorFactory.obj
 0001:00070f20       ??1DatatypeValidatorFactory@xercesc_2_2@@QAE@XZ 12071f20 f   DatatypeValidatorFactory.obj
 0001:00070fb0       ?resetRegistry@DatatypeValidatorFactory@xercesc_2_2@@QAEXXZ 12071fb0 f   DatatypeValidatorFactory.obj
 0001:00071010       ?reinitRegistry@DatatypeValidatorFactory@xercesc_2_2@@SAXXZ 12072010 f   DatatypeValidatorFactory.obj
 0001:000710a0       ?expandRegistryToFullSchemaSet@DatatypeValidatorFactory@xercesc_2_2@@QAEXXZ 120720a0 f   DatatypeValidatorFactory.obj
 0001:00073ca0       ?createDatatypeValidator@DatatypeValidatorFactory@xercesc_2_2@@QAEPAVDatatypeValidator@2@QBGQAV32@QAV?$RefHashTableOf@VKVStringPair@xercesc_2_2@@@2@QAV?$RefArrayVectorOf@G@2@_NH4@Z 12074ca0 f   DatatypeValidatorFactory.obj
 0001:00073f20       ??_G?$RefHashTableOf@VKVStringPair@xercesc_2_2@@@xercesc_2_2@@QAEPAXI@Z 12074f20 f i DatatypeValidatorFactory.obj
 0001:00073fc0       ?createDatatypeValidator@DatatypeValidatorFactory@xercesc_2_2@@QAEPAVDatatypeValidator@2@QBGQAV?$RefVectorOf@VDatatypeValidator@xercesc_2_2@@@2@H_N@Z 12074fc0 f   DatatypeValidatorFactory.obj
 0001:00074220       ??0?$RefHashTableOf@VKVStringPair@xercesc_2_2@@@xercesc_2_2@@QAE@I@Z 12075220 f i DatatypeValidatorFactory.obj
 0001:00074300       ?put@?$RefHashTableOf@VKVStringPair@xercesc_2_2@@@xercesc_2_2@@QAEXPAXQAVKVStringPair@2@@Z 12075300 f i DatatypeValidatorFactory.obj
 0001:00074410       ??0?$RefHashTableOf@VDatatypeValidator@xercesc_2_2@@@xercesc_2_2@@QAE@I@Z 12075410 f i DatatypeValidatorFactory.obj
 0001:000744f0       ?put@?$RefHashTableOf@VDatatypeValidator@xercesc_2_2@@@xercesc_2_2@@QAEXPAXQAVDatatypeValidator@2@@Z 120754f0 f i DatatypeValidatorFactory.obj
 0001:000745f0       ??_GKVStringPair@xercesc_2_2@@QAEPAXI@Z 120755f0 f i DatatypeValidatorFactory.obj
 0001:00074610       ?removeBucketElem@?$RefHashTableOf@VKVStringPair@xercesc_2_2@@@xercesc_2_2@@AAEXQBXAAI@Z 12075610 f i DatatypeValidatorFactory.obj
 0001:000746f0       ??0DateDatatypeValidator@xercesc_2_2@@QAE@XZ 120756f0 f   DateDatatypeValidator.obj
 0001:00074710       ??0DateDatatypeValidator@xercesc_2_2@@QAE@QAVDatatypeValidator@1@QAV?$RefHashTableOf@VKVStringPair@xercesc_2_2@@@1@QAV?$RefArrayVectorOf@G@1@H@Z 12075710 f   DateDatatypeValidator.obj
 0001:00074780       ??1DateDatatypeValidator@xercesc_2_2@@UAE@XZ 12075780 f   DateDatatypeValidator.obj
 0001:00074790       ?newInstance@DateDatatypeValidator@xercesc_2_2@@UAEPAVDatatypeValidator@2@QAV?$RefHashTableOf@VKVStringPair@xercesc_2_2@@@2@QAV?$RefArrayVectorOf@G@2@H@Z 12075790 f   DateDatatypeValidator.obj
 0001:00074810       ?parse@DateDatatypeValidator@xercesc_2_2@@MAEPAVXMLDateTime@2@QBG@Z 12075810 f   DateDatatypeValidator.obj
 0001:000748a0       ??0DateTimeDatatypeValidator@xercesc_2_2@@QAE@XZ 120758a0 f   DateTimeDatatypeValidator.obj
 0001:000748c0       ??0DateTimeDatatypeValidator@xercesc_2_2@@QAE@QAVDatatypeValidator@1@QAV?$RefHashTableOf@VKVStringPair@xercesc_2_2@@@1@QAV?$RefArrayVectorOf@G@1@H@Z 120758c0 f   DateTimeDatatypeValidator.obj
 0001:00074930       ??1DateTimeDatatypeValidator@xercesc_2_2@@UAE@XZ 12075930 f   DateTimeDatatypeValidator.obj
 0001:00074940       ?newInstance@DateTimeDatatypeValidator@xercesc_2_2@@UAEPAVDatatypeValidator@2@QAV?$RefHashTableOf@VKVStringPair@xercesc_2_2@@@2@QAV?$RefArrayVectorOf@G@2@H@Z 12075940 f   DateTimeDatatypeValidator.obj
 0001:000749c0       ?parse@DateTimeDatatypeValidator@xercesc_2_2@@MAEPAVXMLDateTime@2@QBG@Z 120759c0 f   DateTimeDatatypeValidator.obj
 0001:00074a50       ??1DateTimeValidator@xercesc_2_2@@UAE@XZ 12075a50 f   DateTimeValidator.obj
 0001:00074a60       ??0DateTimeValidator@xercesc_2_2@@IAE@QAVDatatypeValidator@1@QAV?$RefHashTableOf@VKVStringPair@xercesc_2_2@@@1@HW4ValidatorType@21@@Z 12075a60 f   DateTimeValidator.obj
 0001:00074a90       ?compare@DateTimeValidator@xercesc_2_2@@UAEHQBG0@Z 12075a90 f   DateTimeValidator.obj
 0001:00074b50       ?assignAdditionalFacet@DateTimeValidator@xercesc_2_2@@MAEXQBG0@Z 12075b50 f   DateTimeValidator.obj
 0001:00074b90       ?checkContent@DateTimeValidator@xercesc_2_2@@MAEXQBG_N@Z 12075b90 f   DateTimeValidator.obj
 0001:00074fc0       ?compareValues@DateTimeValidator@xercesc_2_2@@MAEHQBVXMLNumber@2@0@Z 12075fc0 f   DateTimeValidator.obj
 0001:00074fe0       ?compareDates@DateTimeValidator@xercesc_2_2@@MAEHQBVXMLDateTime@2@0_N@Z 12075fe0 f   DateTimeValidator.obj
 0001:00075000       ?setMaxInclusive@DateTimeValidator@xercesc_2_2@@MAEXQBG@Z 12076000 f   DateTimeValidator.obj
 0001:00075020       ?setMaxExclusive@DateTimeValidator@xercesc_2_2@@MAEXQBG@Z 12076020 f   DateTimeValidator.obj
 0001:00075040       ?setMinInclusive@DateTimeValidator@xercesc_2_2@@MAEXQBG@Z 12076040 f   DateTimeValidator.obj
 0001:00075060       ?setMinExclusive@DateTimeValidator@xercesc_2_2@@MAEXQBG@Z 12076060 f   DateTimeValidator.obj
 0001:00075080       ?setEnumeration@DateTimeValidator@xercesc_2_2@@MAEXXZ 12076080 f   DateTimeValidator.obj
 0001:000752b0       ??_G?$RefVectorOf@VXMLNumber@xercesc_2_2@@@xercesc_2_2@@UAEPAXI@Z 120762b0 f i DateTimeValidator.obj
 0001:000752b0       ??_E?$RefVectorOf@VXMLNumber@xercesc_2_2@@@xercesc_2_2@@UAEPAXI@Z 120762b0 f i DateTimeValidator.obj
 0001:000752d0       ??1?$RefVectorOf@VXMLNumber@xercesc_2_2@@@xercesc_2_2@@UAE@XZ 120762d0 f i DateTimeValidator.obj
 0001:00075350       ??1?$BaseRefVectorOf@VXMLNumber@xercesc_2_2@@@xercesc_2_2@@UAE@XZ 12076350 f i DateTimeValidator.obj
 0001:00075360       ??0DayDatatypeValidator@xercesc_2_2@@QAE@XZ 12076360 f   DayDatatypeValidator.obj
 0001:00075380       ??0DayDatatypeValidator@xercesc_2_2@@QAE@QAVDatatypeValidator@1@QAV?$RefHashTableOf@VKVStringPair@xercesc_2_2@@@1@QAV?$RefArrayVectorOf@G@1@H@Z 12076380 f   DayDatatypeValidator.obj
 0001:000753f0       ??1DayDatatypeValidator@xercesc_2_2@@UAE@XZ 120763f0 f   DayDatatypeValidator.obj
 0001:00075400       ?newInstance@DayDatatypeValidator@xercesc_2_2@@UAEPAVDatatypeValidator@2@QAV?$RefHashTableOf@VKVStringPair@xercesc_2_2@@@2@QAV?$RefArrayVectorOf@G@2@H@Z 12076400 f   DayDatatypeValidator.obj
 0001:00075480       ?parse@DayDatatypeValidator@xercesc_2_2@@MAEPAVXMLDateTime@2@QBG@Z 12076480 f   DayDatatypeValidator.obj
 0001:00075510       ??0DecimalDatatypeValidator@xercesc_2_2@@QAE@XZ 12076510 f   DecimalDatatypeValidator.obj
 0001:00075540       ??0DecimalDatatypeValidator@xercesc_2_2@@QAE@QAVDatatypeValidator@1@QAV?$RefHashTableOf@VKVStringPair@xercesc_2_2@@@1@QAV?$RefArrayVectorOf@G@1@H@Z 12076540 f   DecimalDatatypeValidator.obj
 0001:000755b0       ??1DecimalDatatypeValidator@xercesc_2_2@@UAE@XZ 120765b0 f   DecimalDatatypeValidator.obj
 0001:000755c0       ?compare@DecimalDatatypeValidator@xercesc_2_2@@UAEHQBG0@Z 120765c0 f   DecimalDatatypeValidator.obj
 0001:00075690       ?newInstance@DecimalDatatypeValidator@xercesc_2_2@@UAEPAVDatatypeValidator@2@QAV?$RefHashTableOf@VKVStringPair@xercesc_2_2@@@2@QAV?$RefArrayVectorOf@G@2@H@Z 12076690 f   DecimalDatatypeValidator.obj
 0001:00075730       ??0DecimalDatatypeValidator@xercesc_2_2@@IAE@QAVDatatypeValidator@1@QAV?$RefHashTableOf@VKVStringPair@xercesc_2_2@@@1@HW4ValidatorType@21@@Z 12076730 f   DecimalDatatypeValidator.obj
 0001:00075770       ?assignAdditionalFacet@DecimalDatatypeValidator@xercesc_2_2@@MAEXQBG0@Z 12076770 f   DecimalDatatypeValidator.obj
 0001:00075a20       ?inheritAdditionalFacet@DecimalDatatypeValidator@xercesc_2_2@@MAEXXZ 12076a20 f   DecimalDatatypeValidator.obj
 0001:00075a70       ?checkAdditionalFacetConstraints@DecimalDatatypeValidator@xercesc_2_2@@MBEXXZ 12076a70 f   DecimalDatatypeValidator.obj
 0001:00075af0       ?checkAdditionalFacetConstraintsBase@DecimalDatatypeValidator@xercesc_2_2@@MBEXXZ 12076af0 f   DecimalDatatypeValidator.obj
 0001:00075d40       ?compareValues@DecimalDatatypeValidator@xercesc_2_2@@MAEHQBVXMLNumber@2@0@Z 12076d40 f   DecimalDatatypeValidator.obj
 0001:00075d60       ?setMaxInclusive@DecimalDatatypeValidator@xercesc_2_2@@MAEXQBG@Z 12076d60 f   DecimalDatatypeValidator.obj
 0001:00075dc0       ?setMaxExclusive@DecimalDatatypeValidator@xercesc_2_2@@MAEXQBG@Z 12076dc0 f   DecimalDatatypeValidator.obj
 0001:00075e20       ?setMinInclusive@DecimalDatatypeValidator@xercesc_2_2@@MAEXQBG@Z 12076e20 f   DecimalDatatypeValidator.obj
 0001:00075e80       ?setMinExclusive@DecimalDatatypeValidator@xercesc_2_2@@MAEXQBG@Z 12076e80 f   DecimalDatatypeValidator.obj
 0001:00075ee0       ?setEnumeration@DecimalDatatypeValidator@xercesc_2_2@@MAEXXZ 12076ee0 f   DecimalDatatypeValidator.obj
 0001:00076190       ?checkContent@DecimalDatatypeValidator@xercesc_2_2@@MAEXQBG_N@Z 12077190 f   DecimalDatatypeValidator.obj
 0001:000765e0       ?insertElementAt@?$BaseRefVectorOf@VXMLNumber@xercesc_2_2@@@xercesc_2_2@@QAEXQAVXMLNumber@2@I@Z 120775e0 f i DecimalDatatypeValidator.obj
 0001:00076730       ??0DoubleDatatypeValidator@xercesc_2_2@@QAE@XZ 12077730 f   DoubleDatatypeValidator.obj
 0001:00076750       ??0DoubleDatatypeValidator@xercesc_2_2@@QAE@QAVDatatypeValidator@1@QAV?$RefHashTableOf@VKVStringPair@xercesc_2_2@@@1@QAV?$RefArrayVectorOf@G@1@H@Z 12077750 f   DoubleDatatypeValidator.obj
 0001:000767c0       ??1DoubleDatatypeValidator@xercesc_2_2@@UAE@XZ 120777c0 f   DoubleDatatypeValidator.obj
 0001:000767d0       ?compare@DoubleDatatypeValidator@xercesc_2_2@@UAEHQBG0@Z 120777d0 f   DoubleDatatypeValidator.obj
 0001:000768a0       ?newInstance@DoubleDatatypeValidator@xercesc_2_2@@UAEPAVDatatypeValidator@2@QAV?$RefHashTableOf@VKVStringPair@xercesc_2_2@@@2@QAV?$RefArrayVectorOf@G@2@H@Z 120778a0 f   DoubleDatatypeValidator.obj
 0001:00076920       ??0DoubleDatatypeValidator@xercesc_2_2@@IAE@QAVDatatypeValidator@1@QAV?$RefHashTableOf@VKVStringPair@xercesc_2_2@@@1@HW4ValidatorType@21@@Z 12077920 f   DoubleDatatypeValidator.obj
 0001:00076950       ?assignAdditionalFacet@DoubleDatatypeValidator@xercesc_2_2@@MAEXQBG0@Z 12077950 f   DoubleDatatypeValidator.obj
 0001:00076990       ?setMaxInclusive@DoubleDatatypeValidator@xercesc_2_2@@MAEXQBG@Z 12077990 f   DoubleDatatypeValidator.obj
 0001:000769f0       ?setMaxExclusive@DoubleDatatypeValidator@xercesc_2_2@@MAEXQBG@Z 120779f0 f   DoubleDatatypeValidator.obj
 0001:00076a50       ?setMinInclusive@DoubleDatatypeValidator@xercesc_2_2@@MAEXQBG@Z 12077a50 f   DoubleDatatypeValidator.obj
 0001:00076ab0       ?setMinExclusive@DoubleDatatypeValidator@xercesc_2_2@@MAEXQBG@Z 12077ab0 f   DoubleDatatypeValidator.obj
 0001:00076b10       ?setEnumeration@DoubleDatatypeValidator@xercesc_2_2@@MAEXXZ 12077b10 f   DoubleDatatypeValidator.obj
 0001:00076dc0       ?checkContent@DoubleDatatypeValidator@xercesc_2_2@@MAEXQBG_N@Z 12077dc0 f   DoubleDatatypeValidator.obj
 0001:00077050       ??0DurationDatatypeValidator@xercesc_2_2@@QAE@XZ 12078050 f   DurationDatatypeValidator.obj
 0001:00077070       ??0DurationDatatypeValidator@xercesc_2_2@@QAE@QAVDatatypeValidator@1@QAV?$RefHashTableOf@VKVStringPair@xercesc_2_2@@@1@QAV?$RefArrayVectorOf@G@1@H@Z 12078070 f   DurationDatatypeValidator.obj
 0001:000770e0       ??1DurationDatatypeValidator@xercesc_2_2@@UAE@XZ 120780e0 f   DurationDatatypeValidator.obj
 0001:000770f0       ?newInstance@DurationDatatypeValidator@xercesc_2_2@@UAEPAVDatatypeValidator@2@QAV?$RefHashTableOf@VKVStringPair@xercesc_2_2@@@2@QAV?$RefArrayVectorOf@G@2@H@Z 120780f0 f   DurationDatatypeValidator.obj
 0001:00077170       ?parse@DurationDatatypeValidator@xercesc_2_2@@MAEPAVXMLDateTime@2@QBG@Z 12078170 f   DurationDatatypeValidator.obj
 0001:00077200       ?compareDates@DurationDatatypeValidator@xercesc_2_2@@MAEHQBVXMLDateTime@2@0_N@Z 12078200 f   DurationDatatypeValidator.obj
 0001:00077220       ??0ENTITYDatatypeValidator@xercesc_2_2@@QAE@XZ 12078220 f   ENTITYDatatypeValidator.obj
 0001:00077250       ??0ENTITYDatatypeValidator@xercesc_2_2@@QAE@QAVDatatypeValidator@1@QAV?$RefHashTableOf@VKVStringPair@xercesc_2_2@@@1@QAV?$RefArrayVectorOf@G@1@H@Z 12078250 f   ENTITYDatatypeValidator.obj
 0001:000772c0       ??1ENTITYDatatypeValidator@xercesc_2_2@@UAE@XZ 120782c0 f   ENTITYDatatypeValidator.obj
 0001:000772d0       ?newInstance@ENTITYDatatypeValidator@xercesc_2_2@@UAEPAVDatatypeValidator@2@QAV?$RefHashTableOf@VKVStringPair@xercesc_2_2@@@2@QAV?$RefArrayVectorOf@G@2@H@Z 120782d0 f   ENTITYDatatypeValidator.obj
 0001:00077370       ?compare@ENTITYDatatypeValidator@xercesc_2_2@@UAEHQBG0@Z 12078370 f   ENTITYDatatypeValidator.obj
 0001:00077370       ?compare@NameDatatypeValidator@xercesc_2_2@@UAEHQBG0@Z 12078370 f   ENTITYDatatypeValidator.obj
 0001:00077370       ?compare@NCNameDatatypeValidator@xercesc_2_2@@UAEHQBG0@Z 12078370 f   ENTITYDatatypeValidator.obj
 0001:000773e0       ?validate@ENTITYDatatypeValidator@xercesc_2_2@@UAEXQBG@Z 120783e0 f   ENTITYDatatypeValidator.obj
 0001:00077500       ?checkValueSpace@ENTITYDatatypeValidator@xercesc_2_2@@MAEXQBG@Z 12078500 f   ENTITYDatatypeValidator.obj
 0001:00077550       ??0FloatDatatypeValidator@xercesc_2_2@@QAE@XZ 12078550 f   FloatDatatypeValidator.obj
 0001:00077570       ??0FloatDatatypeValidator@xercesc_2_2@@QAE@QAVDatatypeValidator@1@QAV?$RefHashTableOf@VKVStringPair@xercesc_2_2@@@1@QAV?$RefArrayVectorOf@G@1@H@Z 12078570 f   FloatDatatypeValidator.obj
 0001:000775e0       ??1FloatDatatypeValidator@xercesc_2_2@@UAE@XZ 120785e0 f   FloatDatatypeValidator.obj
 0001:000775f0       ?compare@FloatDatatypeValidator@xercesc_2_2@@UAEHQBG0@Z 120785f0 f   FloatDatatypeValidator.obj
 0001:000776c0       ?newInstance@FloatDatatypeValidator@xercesc_2_2@@UAEPAVDatatypeValidator@2@QAV?$RefHashTableOf@VKVStringPair@xercesc_2_2@@@2@QAV?$RefArrayVectorOf@G@2@H@Z 120786c0 f   FloatDatatypeValidator.obj
 0001:00077740       ??0FloatDatatypeValidator@xercesc_2_2@@IAE@QAVDatatypeValidator@1@QAV?$RefHashTableOf@VKVStringPair@xercesc_2_2@@@1@HW4ValidatorType@21@@Z 12078740 f   FloatDatatypeValidator.obj
 0001:00077770       ?assignAdditionalFacet@FloatDatatypeValidator@xercesc_2_2@@MAEXQBG0@Z 12078770 f   FloatDatatypeValidator.obj
 0001:000777b0       ?compareValues@FloatDatatypeValidator@xercesc_2_2@@MAEHQBVXMLNumber@2@0@Z 120787b0 f   FloatDatatypeValidator.obj
 0001:000777b0       ?compareValues@DoubleDatatypeValidator@xercesc_2_2@@MAEHQBVXMLNumber@2@0@Z 120787b0 f   FloatDatatypeValidator.obj
 0001:000777d0       ?setMaxInclusive@FloatDatatypeValidator@xercesc_2_2@@MAEXQBG@Z 120787d0 f   FloatDatatypeValidator.obj
 0001:00077830       ?setMaxExclusive@FloatDatatypeValidator@xercesc_2_2@@MAEXQBG@Z 12078830 f   FloatDatatypeValidator.obj
 0001:00077890       ?setMinInclusive@FloatDatatypeValidator@xercesc_2_2@@MAEXQBG@Z 12078890 f   FloatDatatypeValidator.obj
 0001:000778f0       ?setMinExclusive@FloatDatatypeValidator@xercesc_2_2@@MAEXQBG@Z 120788f0 f   FloatDatatypeValidator.obj
 0001:00077950       ?setEnumeration@FloatDatatypeValidator@xercesc_2_2@@MAEXXZ 12078950 f   FloatDatatypeValidator.obj
 0001:00077c00       ?checkContent@FloatDatatypeValidator@xercesc_2_2@@MAEXQBG_N@Z 12078c00 f   FloatDatatypeValidator.obj
 0001:00077e90       ??0HexBinaryDatatypeValidator@xercesc_2_2@@QAE@XZ 12078e90 f   HexBinaryDatatypeValidator.obj
 0001:00077eb0       ??1HexBinaryDatatypeValidator@xercesc_2_2@@UAE@XZ 12078eb0 f   HexBinaryDatatypeValidator.obj
 0001:00077ec0       ??0HexBinaryDatatypeValidator@xercesc_2_2@@QAE@QAVDatatypeValidator@1@QAV?$RefHashTableOf@VKVStringPair@xercesc_2_2@@@1@QAV?$RefArrayVectorOf@G@1@H@Z 12078ec0 f   HexBinaryDatatypeValidator.obj
 0001:00077f30       ?newInstance@HexBinaryDatatypeValidator@xercesc_2_2@@UAEPAVDatatypeValidator@2@QAV?$RefHashTableOf@VKVStringPair@xercesc_2_2@@@2@QAV?$RefArrayVectorOf@G@2@H@Z 12078f30 f   HexBinaryDatatypeValidator.obj
 0001:00077fb0       ?assignAdditionalFacet@HexBinaryDatatypeValidator@xercesc_2_2@@MAEXQBG0@Z 12078fb0 f   HexBinaryDatatypeValidator.obj
 0001:00077ff0       ?checkValueSpace@HexBinaryDatatypeValidator@xercesc_2_2@@MAEXQBG@Z 12078ff0 f   HexBinaryDatatypeValidator.obj
 0001:00078040       ?getLength@HexBinaryDatatypeValidator@xercesc_2_2@@MBEHQBG@Z 12079040 f   HexBinaryDatatypeValidator.obj
 0001:00078050       ??0IDDatatypeValidator@xercesc_2_2@@QAE@XZ 12079050 f   IDDatatypeValidator.obj
 0001:00078080       ??0IDDatatypeValidator@xercesc_2_2@@QAE@QAVDatatypeValidator@1@QAV?$RefHashTableOf@VKVStringPair@xercesc_2_2@@@1@QAV?$RefArrayVectorOf@G@1@H@Z 12079080 f   IDDatatypeValidator.obj
 0001:000780f0       ??1IDDatatypeValidator@xercesc_2_2@@UAE@XZ 120790f0 f   IDDatatypeValidator.obj
 0001:00078100       ?newInstance@IDDatatypeValidator@xercesc_2_2@@UAEPAVDatatypeValidator@2@QAV?$RefHashTableOf@VKVStringPair@xercesc_2_2@@@2@QAV?$RefArrayVectorOf@G@2@H@Z 12079100 f   IDDatatypeValidator.obj
 0001:000781a0       ??0IDDatatypeValidator@xercesc_2_2@@IAE@QAVDatatypeValidator@1@QAV?$RefHashTableOf@VKVStringPair@xercesc_2_2@@@1@HW4ValidatorType@21@@Z 120791a0 f   IDDatatypeValidator.obj
 0001:000781e0       ?validate@IDDatatypeValidator@xercesc_2_2@@UAEXQBG@Z 120791e0 f   IDDatatypeValidator.obj
 0001:00078210       ?addId@IDDatatypeValidator@xercesc_2_2@@AAEXQBG@Z 12079210 f   IDDatatypeValidator.obj
 0001:00078410       ?checkValueSpace@IDDatatypeValidator@xercesc_2_2@@MAEXQBG@Z 12079410 f   IDDatatypeValidator.obj
 0001:00078460       ??0IDREFDatatypeValidator@xercesc_2_2@@QAE@XZ 12079460 f   IDREFDatatypeValidator.obj
 0001:00078490       ??0IDREFDatatypeValidator@xercesc_2_2@@QAE@QAVDatatypeValidator@1@QAV?$RefHashTableOf@VKVStringPair@xercesc_2_2@@@1@QAV?$RefArrayVectorOf@G@1@H@Z 12079490 f   IDREFDatatypeValidator.obj
 0001:00078500       ??1IDREFDatatypeValidator@xercesc_2_2@@UAE@XZ 12079500 f   IDREFDatatypeValidator.obj
 0001:00078510       ?newInstance@IDREFDatatypeValidator@xercesc_2_2@@UAEPAVDatatypeValidator@2@QAV?$RefHashTableOf@VKVStringPair@xercesc_2_2@@@2@QAV?$RefArrayVectorOf@G@2@H@Z 12079510 f   IDREFDatatypeValidator.obj
 0001:000785b0       ??0IDREFDatatypeValidator@xercesc_2_2@@IAE@QAVDatatypeValidator@1@QAV?$RefHashTableOf@VKVStringPair@xercesc_2_2@@@1@HW4ValidatorType@21@@Z 120795b0 f   IDREFDatatypeValidator.obj
 0001:000785f0       ?validate@IDREFDatatypeValidator@xercesc_2_2@@UAEXQBG@Z 120795f0 f   IDREFDatatypeValidator.obj
 0001:00078620       ?addIdRef@IDREFDatatypeValidator@xercesc_2_2@@AAEXQBG@Z 12079620 f   IDREFDatatypeValidator.obj
 0001:00078800       ?checkValueSpace@IDREFDatatypeValidator@xercesc_2_2@@MAEXQBG@Z 12079800 f   IDREFDatatypeValidator.obj
 0001:00078850       ??0ListDatatypeValidator@xercesc_2_2@@QAE@XZ 12079850 f   ListDatatypeValidator.obj
 0001:00078880       ??0ListDatatypeValidator@xercesc_2_2@@QAE@QAVDatatypeValidator@1@QAV?$RefHashTableOf@VKVStringPair@xercesc_2_2@@@1@QAV?$RefArrayVectorOf@G@1@H@Z 12079880 f   ListDatatypeValidator.obj
 0001:00078940       ??1ListDatatypeValidator@xercesc_2_2@@UAE@XZ 12079940 f   ListDatatypeValidator.obj
 0001:00078950       ?newInstance@ListDatatypeValidator@xercesc_2_2@@UAEPAVDatatypeValidator@2@QAV?$RefHashTableOf@VKVStringPair@xercesc_2_2@@@2@QAV?$RefArrayVectorOf@G@2@H@Z 12079950 f   ListDatatypeValidator.obj
 0001:00078a30       ?compare@ListDatatypeValidator@xercesc_2_2@@UAEHQBG0@Z 12079a30 f   ListDatatypeValidator.obj
 0001:00078c10       ?validate@ListDatatypeValidator@xercesc_2_2@@UAEXQBG@Z 12079c10 f   ListDatatypeValidator.obj
 0001:00078c80       ?checkContent@ListDatatypeValidator@xercesc_2_2@@MAEXQBG_N@Z 12079c80 f   ListDatatypeValidator.obj
 0001:00078cf0       ?checkContent@ListDatatypeValidator@xercesc_2_2@@AAEXPAV?$BaseRefVectorOf@G@2@QBG_N@Z 12079cf0 f   ListDatatypeValidator.obj
 0001:000791d0       ?valueSpaceCheck@ListDatatypeValidator@xercesc_2_2@@ABE_NPAV?$BaseRefVectorOf@G@2@QBG@Z 1207a1d0 f   ListDatatypeValidator.obj
 0001:00079350       ?getItemTypeDTV@ListDatatypeValidator@xercesc_2_2@@QBEPAVDatatypeValidator@2@XZ 1207a350 f   ListDatatypeValidator.obj
 0001:00079370       ?assignAdditionalFacet@ListDatatypeValidator@xercesc_2_2@@MAEXQBG0@Z 1207a370 f   ListDatatypeValidator.obj
 0001:000793b0       ?getLength@ListDatatypeValidator@xercesc_2_2@@MBEHQBG@Z 1207a3b0 f   ListDatatypeValidator.obj
 0001:000793e0       ?inspectFacetBase@ListDatatypeValidator@xercesc_2_2@@MAEXXZ 1207a3e0 f   ListDatatypeValidator.obj
 0001:00079630       ?inheritFacet@ListDatatypeValidator@xercesc_2_2@@MAEXXZ 1207a630 f   ListDatatypeValidator.obj
 0001:00079640       ??0MonthDatatypeValidator@xercesc_2_2@@QAE@XZ 1207a640 f   MonthDatatypeValidator.obj
 0001:00079660       ??0MonthDatatypeValidator@xercesc_2_2@@QAE@QAVDatatypeValidator@1@QAV?$RefHashTableOf@VKVStringPair@xercesc_2_2@@@1@QAV?$RefArrayVectorOf@G@1@H@Z 1207a660 f   MonthDatatypeValidator.obj
 0001:000796d0       ??1MonthDatatypeValidator@xercesc_2_2@@UAE@XZ 1207a6d0 f   MonthDatatypeValidator.obj
 0001:000796e0       ?newInstance@MonthDatatypeValidator@xercesc_2_2@@UAEPAVDatatypeValidator@2@QAV?$RefHashTableOf@VKVStringPair@xercesc_2_2@@@2@QAV?$RefArrayVectorOf@G@2@H@Z 1207a6e0 f   MonthDatatypeValidator.obj
 0001:00079760       ?parse@MonthDatatypeValidator@xercesc_2_2@@MAEPAVXMLDateTime@2@QBG@Z 1207a760 f   MonthDatatypeValidator.obj
 0001:000797f0       ??0MonthDayDatatypeValidator@xercesc_2_2@@QAE@XZ 1207a7f0 f   MonthDayDatatypeValidator.obj
 0001:00079810       ??0MonthDayDatatypeValidator@xercesc_2_2@@QAE@QAVDatatypeValidator@1@QAV?$RefHashTableOf@VKVStringPair@xercesc_2_2@@@1@QAV?$RefArrayVectorOf@G@1@H@Z 1207a810 f   MonthDayDatatypeValidator.obj
 0001:00079880       ??1MonthDayDatatypeValidator@xercesc_2_2@@UAE@XZ 1207a880 f   MonthDayDatatypeValidator.obj
 0001:00079890       ?newInstance@MonthDayDatatypeValidator@xercesc_2_2@@UAEPAVDatatypeValidator@2@QAV?$RefHashTableOf@VKVStringPair@xercesc_2_2@@@2@QAV?$RefArrayVectorOf@G@2@H@Z 1207a890 f   MonthDayDatatypeValidator.obj
 0001:00079910       ?parse@MonthDayDatatypeValidator@xercesc_2_2@@MAEPAVXMLDateTime@2@QBG@Z 1207a910 f   MonthDayDatatypeValidator.obj
 0001:000799a0       ??0NameDatatypeValidator@xercesc_2_2@@QAE@XZ 1207a9a0 f   NameDatatypeValidator.obj
 0001:000799c0       ??1NameDatatypeValidator@xercesc_2_2@@UAE@XZ 1207a9c0 f   NameDatatypeValidator.obj
 0001:000799d0       ??0NameDatatypeValidator@xercesc_2_2@@QAE@QAVDatatypeValidator@1@QAV?$RefHashTableOf@VKVStringPair@xercesc_2_2@@@1@QAV?$RefArrayVectorOf@G@1@H@Z 1207a9d0 f   NameDatatypeValidator.obj
 0001:00079a40       ?newInstance@NameDatatypeValidator@xercesc_2_2@@UAEPAVDatatypeValidator@2@QAV?$RefHashTableOf@VKVStringPair@xercesc_2_2@@@2@QAV?$RefArrayVectorOf@G@2@H@Z 1207aa40 f   NameDatatypeValidator.obj
 0001:00079ac0       ??0NameDatatypeValidator@xercesc_2_2@@IAE@QAVDatatypeValidator@1@QAV?$RefHashTableOf@VKVStringPair@xercesc_2_2@@@1@HW4ValidatorType@21@@Z 1207aac0 f   NameDatatypeValidator.obj
 0001:00079af0       ?checkValueSpace@NameDatatypeValidator@xercesc_2_2@@MAEXQBG@Z 1207aaf0 f   NameDatatypeValidator.obj
 0001:00079b40       ??0NCNameDatatypeValidator@xercesc_2_2@@QAE@XZ 1207ab40 f   NCNameDatatypeValidator.obj
 0001:00079b60       ??1NCNameDatatypeValidator@xercesc_2_2@@UAE@XZ 1207ab60 f   NCNameDatatypeValidator.obj
 0001:00079b70       ??0NCNameDatatypeValidator@xercesc_2_2@@QAE@QAVDatatypeValidator@1@QAV?$RefHashTableOf@VKVStringPair@xercesc_2_2@@@1@QAV?$RefArrayVectorOf@G@1@H@Z 1207ab70 f   NCNameDatatypeValidator.obj
 0001:00079be0       ?newInstance@NCNameDatatypeValidator@xercesc_2_2@@UAEPAVDatatypeValidator@2@QAV?$RefHashTableOf@VKVStringPair@xercesc_2_2@@@2@QAV?$RefArrayVectorOf@G@2@H@Z 1207abe0 f   NCNameDatatypeValidator.obj
 0001:00079c60       ??0NCNameDatatypeValidator@xercesc_2_2@@IAE@QAVDatatypeValidator@1@QAV?$RefHashTableOf@VKVStringPair@xercesc_2_2@@@1@HW4ValidatorType@21@@Z 1207ac60 f   NCNameDatatypeValidator.obj
 0001:00079c90       ?validate@NCNameDatatypeValidator@xercesc_2_2@@UAEXQBG@Z 1207ac90 f   NCNameDatatypeValidator.obj
 0001:00079c90       ?validate@NameDatatypeValidator@xercesc_2_2@@UAEXQBG@Z 1207ac90 f   NCNameDatatypeValidator.obj
 0001:00079ca0       ?checkValueSpace@NCNameDatatypeValidator@xercesc_2_2@@MAEXQBG@Z 1207aca0 f   NCNameDatatypeValidator.obj
 0001:00079cf0       ??0NOTATIONDatatypeValidator@xercesc_2_2@@QAE@XZ 1207acf0 f   NOTATIONDatatypeValidator.obj
 0001:00079d10       ??1NOTATIONDatatypeValidator@xercesc_2_2@@UAE@XZ 1207ad10 f   NOTATIONDatatypeValidator.obj
 0001:00079d20       ??0NOTATIONDatatypeValidator@xercesc_2_2@@QAE@QAVDatatypeValidator@1@QAV?$RefHashTableOf@VKVStringPair@xercesc_2_2@@@1@QAV?$RefArrayVectorOf@G@1@H@Z 1207ad20 f   NOTATIONDatatypeValidator.obj
 0001:00079d90       ?newInstance@NOTATIONDatatypeValidator@xercesc_2_2@@UAEPAVDatatypeValidator@2@QAV?$RefHashTableOf@VKVStringPair@xercesc_2_2@@@2@QAV?$RefArrayVectorOf@G@2@H@Z 1207ad90 f   NOTATIONDatatypeValidator.obj
 0001:00079e10       ?assignAdditionalFacet@NOTATIONDatatypeValidator@xercesc_2_2@@MAEXQBG0@Z 1207ae10 f   NOTATIONDatatypeValidator.obj
 0001:00079e50       ?checkValueSpace@NOTATIONDatatypeValidator@xercesc_2_2@@MAEXQBG@Z 1207ae50 f   NOTATIONDatatypeValidator.obj
 0001:0007a040       ??0QNameDatatypeValidator@xercesc_2_2@@QAE@XZ 1207b040 f   QNameDatatypeValidator.obj
 0001:0007a060       ??1QNameDatatypeValidator@xercesc_2_2@@UAE@XZ 1207b060 f   QNameDatatypeValidator.obj
 0001:0007a070       ??0QNameDatatypeValidator@xercesc_2_2@@QAE@QAVDatatypeValidator@1@QAV?$RefHashTableOf@VKVStringPair@xercesc_2_2@@@1@QAV?$RefArrayVectorOf@G@1@H@Z 1207b070 f   QNameDatatypeValidator.obj
 0001:0007a0e0       ?newInstance@QNameDatatypeValidator@xercesc_2_2@@UAEPAVDatatypeValidator@2@QAV?$RefHashTableOf@VKVStringPair@xercesc_2_2@@@2@QAV?$RefArrayVectorOf@G@2@H@Z 1207b0e0 f   QNameDatatypeValidator.obj
 0001:0007a160       ?assignAdditionalFacet@QNameDatatypeValidator@xercesc_2_2@@MAEXQBG0@Z 1207b160 f   QNameDatatypeValidator.obj
 0001:0007a1a0       ?checkValueSpace@QNameDatatypeValidator@xercesc_2_2@@MAEXQBG@Z 1207b1a0 f   QNameDatatypeValidator.obj
 0001:0007a1f0       ??0StringDatatypeValidator@xercesc_2_2@@QAE@XZ 1207b1f0 f   StringDatatypeValidator.obj
 0001:0007a210       ??0StringDatatypeValidator@xercesc_2_2@@QAE@QAVDatatypeValidator@1@QAV?$RefHashTableOf@VKVStringPair@xercesc_2_2@@@1@QAV?$RefArrayVectorOf@G@1@H@Z 1207b210 f   StringDatatypeValidator.obj
 0001:0007a280       ??1StringDatatypeValidator@xercesc_2_2@@UAE@XZ 1207b280 f   StringDatatypeValidator.obj
 0001:0007a290       ?newInstance@StringDatatypeValidator@xercesc_2_2@@UAEPAVDatatypeValidator@2@QAV?$RefHashTableOf@VKVStringPair@xercesc_2_2@@@2@QAV?$RefArrayVectorOf@G@2@H@Z 1207b290 f   StringDatatypeValidator.obj
 0001:0007a330       ??0StringDatatypeValidator@xercesc_2_2@@IAE@QAVDatatypeValidator@1@QAV?$RefHashTableOf@VKVStringPair@xercesc_2_2@@@1@HW4ValidatorType@21@@Z 1207b330 f   StringDatatypeValidator.obj
 0001:0007a360       ?getWSFacet@StringDatatypeValidator@xercesc_2_2@@UBEFXZ 1207b360 f   StringDatatypeValidator.obj
 0001:0007a370       ?assignAdditionalFacet@StringDatatypeValidator@xercesc_2_2@@MAEXQBG0@Z 1207b370 f   StringDatatypeValidator.obj
 0001:0007a570       ?inheritAdditionalFacet@StringDatatypeValidator@xercesc_2_2@@MAEXXZ 1207b570 f   StringDatatypeValidator.obj
 0001:0007a5a0       ?checkAdditionalFacetConstraints@StringDatatypeValidator@xercesc_2_2@@MBEXXZ 1207b5a0 f   StringDatatypeValidator.obj
 0001:0007a6a0       ?checkAdditionalFacet@StringDatatypeValidator@xercesc_2_2@@MBEXQBG@Z 1207b6a0 f   StringDatatypeValidator.obj
 0001:0007a750       ??0TimeDatatypeValidator@xercesc_2_2@@QAE@XZ 1207b750 f   TimeDatatypeValidator.obj
 0001:0007a770       ??0TimeDatatypeValidator@xercesc_2_2@@QAE@QAVDatatypeValidator@1@QAV?$RefHashTableOf@VKVStringPair@xercesc_2_2@@@1@QAV?$RefArrayVectorOf@G@1@H@Z 1207b770 f   TimeDatatypeValidator.obj
 0001:0007a7e0       ??1TimeDatatypeValidator@xercesc_2_2@@UAE@XZ 1207b7e0 f   TimeDatatypeValidator.obj
 0001:0007a7f0       ?newInstance@TimeDatatypeValidator@xercesc_2_2@@UAEPAVDatatypeValidator@2@QAV?$RefHashTableOf@VKVStringPair@xercesc_2_2@@@2@QAV?$RefArrayVectorOf@G@2@H@Z 1207b7f0 f   TimeDatatypeValidator.obj
 0001:0007a870       ?parse@TimeDatatypeValidator@xercesc_2_2@@MAEPAVXMLDateTime@2@QBG@Z 1207b870 f   TimeDatatypeValidator.obj
 0001:0007a900       ??0UnionDatatypeValidator@xercesc_2_2@@QAE@XZ 1207b900 f   UnionDatatypeValidator.obj
 0001:0007a930       ??1UnionDatatypeValidator@xercesc_2_2@@UAE@XZ 1207b930 f   UnionDatatypeValidator.obj
 0001:0007a9a0       ??0UnionDatatypeValidator@xercesc_2_2@@QAE@QAV?$RefVectorOf@VDatatypeValidator@xercesc_2_2@@@1@H@Z 1207b9a0 f   UnionDatatypeValidator.obj
 0001:0007aa50       ??0UnionDatatypeValidator@xercesc_2_2@@QAE@QAVDatatypeValidator@1@QAV?$RefHashTableOf@VKVStringPair@xercesc_2_2@@@1@QAV?$RefArrayVectorOf@G@1@H@Z 1207ba50 f   UnionDatatypeValidator.obj
 0001:0007aba0       ?init@UnionDatatypeValidator@xercesc_2_2@@AAEXQAVDatatypeValidator@2@QAV?$RefHashTableOf@VKVStringPair@xercesc_2_2@@@2@QAV?$RefArrayVectorOf@G@2@@Z 1207bba0 f   UnionDatatypeValidator.obj
 0001:0007aed0       ?checkContent@UnionDatatypeValidator@xercesc_2_2@@AAEXQBG_N@Z 1207bed0 f   UnionDatatypeValidator.obj
 0001:0007b2d0       ?compare@UnionDatatypeValidator@xercesc_2_2@@UAEHQBG0@Z 1207c2d0 f   UnionDatatypeValidator.obj
 0001:0007b360       ??0YearDatatypeValidator@xercesc_2_2@@QAE@XZ 1207c360 f   YearDatatypeValidator.obj
 0001:0007b380       ??0YearDatatypeValidator@xercesc_2_2@@QAE@QAVDatatypeValidator@1@QAV?$RefHashTableOf@VKVStringPair@xercesc_2_2@@@1@QAV?$RefArrayVectorOf@G@1@H@Z 1207c380 f   YearDatatypeValidator.obj
 0001:0007b3f0       ??1YearDatatypeValidator@xercesc_2_2@@UAE@XZ 1207c3f0 f   YearDatatypeValidator.obj
 0001:0007b400       ?newInstance@YearDatatypeValidator@xercesc_2_2@@UAEPAVDatatypeValidator@2@QAV?$RefHashTableOf@VKVStringPair@xercesc_2_2@@@2@QAV?$RefArrayVectorOf@G@2@H@Z 1207c400 f   YearDatatypeValidator.obj
 0001:0007b480       ?parse@YearDatatypeValidator@xercesc_2_2@@MAEPAVXMLDateTime@2@QBG@Z 1207c480 f   YearDatatypeValidator.obj
 0001:0007b510       ??0YearMonthDatatypeValidator@xercesc_2_2@@QAE@XZ 1207c510 f   YearMonthDatatypeValidator.obj
 0001:0007b530       ??0YearMonthDatatypeValidator@xercesc_2_2@@QAE@QAVDatatypeValidator@1@QAV?$RefHashTableOf@VKVStringPair@xercesc_2_2@@@1@QAV?$RefArrayVectorOf@G@1@H@Z 1207c530 f   YearMonthDatatypeValidator.obj
 0001:0007b5a0       ??1YearMonthDatatypeValidator@xercesc_2_2@@UAE@XZ 1207c5a0 f   YearMonthDatatypeValidator.obj
 0001:0007b5b0       ?newInstance@YearMonthDatatypeValidator@xercesc_2_2@@UAEPAVDatatypeValidator@2@QAV?$RefHashTableOf@VKVStringPair@xercesc_2_2@@@2@QAV?$RefArrayVectorOf@G@2@H@Z 1207c5b0 f   YearMonthDatatypeValidator.obj
 0001:0007b630       ?parse@YearMonthDatatypeValidator@xercesc_2_2@@MAEPAVXMLDateTime@2@QBG@Z 1207c630 f   YearMonthDatatypeValidator.obj
 0001:0007b6c0       ??0DTDAttDef@xercesc_2_2@@QAE@XZ 1207c6c0 f   DTDAttDef.obj
 0001:0007b6f0       ??_EDTDAttDef@xercesc_2_2@@UAEPAXI@Z 1207c6f0 f i DTDAttDef.obj
 0001:0007b750       ??0DTDAttDef@xercesc_2_2@@QAE@QBGW4AttTypes@XMLAttDef@1@W4DefAttTypes@31@@Z 1207c750 f   DTDAttDef.obj
 0001:0007b820       ??0DTDAttDef@xercesc_2_2@@QAE@QBG0W4AttTypes@XMLAttDef@1@W4DefAttTypes@31@0@Z 1207c820 f   DTDAttDef.obj
 0001:0007b8f0       ??1DTDAttDef@xercesc_2_2@@UAE@XZ 1207c8f0 f   DTDAttDef.obj
 0001:0007b950       ?setName@DTDAttDef@xercesc_2_2@@QAEXQBG@Z 1207c950 f   DTDAttDef.obj
 0001:0007b9c0       ??0DTDAttDefList@xercesc_2_2@@QAE@ABV01@@Z 1207c9c0 f i DTDAttDefList.obj
 0001:0007b9f0       ??_EDTDAttDefList@xercesc_2_2@@UAEPAXI@Z 1207c9f0 f i DTDAttDefList.obj
 0001:0007ba50       ??0DTDAttDefList@xercesc_2_2@@QAE@QAV?$RefHashTableOf@VDTDAttDef@xercesc_2_2@@@1@@Z 1207ca50 f   DTDAttDefList.obj
 0001:0007bb50       ??1DTDAttDefList@xercesc_2_2@@UAE@XZ 1207cb50 f   DTDAttDefList.obj
 0001:0007bba0       ?findAttDef@DTDAttDefList@xercesc_2_2@@UAEPAVXMLAttDef@2@QBG0@Z 1207cba0 f   DTDAttDefList.obj
 0001:0007bba0       ?findAttDef@DTDAttDefList@xercesc_2_2@@UBEPBVXMLAttDef@2@QBG0@Z 1207cba0 f   DTDAttDefList.obj
 0001:0007bba0       ?findAttDef@DTDAttDefList@xercesc_2_2@@UAEPAVXMLAttDef@2@KQBG@Z 1207cba0 f   DTDAttDefList.obj
 0001:0007bba0       ?findAttDef@DTDAttDefList@xercesc_2_2@@UBEPBVXMLAttDef@2@KQBG@Z 1207cba0 f   DTDAttDefList.obj
 0001:0007bc30       ??1?$XMLEnumerator@VDTDAttDef@xercesc_2_2@@@xercesc_2_2@@UAE@XZ 1207cc30 f i DTDAttDefList.obj
 0001:0007bc40       ??_E?$XMLEnumerator@VDTDAttDef@xercesc_2_2@@@xercesc_2_2@@UAEPAXI@Z 1207cc40 f i DTDAttDefList.obj
 0001:0007bc40       ??_G?$XMLEnumerator@VDTDAttDef@xercesc_2_2@@@xercesc_2_2@@UAEPAXI@Z 1207cc40 f i DTDAttDefList.obj
 0001:0007bc60       ??_E?$RefHashTableOfEnumerator@VDTDAttDef@xercesc_2_2@@@xercesc_2_2@@UAEPAXI@Z 1207cc60 f i DTDAttDefList.obj
 0001:0007bc60       ??_G?$RefHashTableOfEnumerator@VDTDAttDef@xercesc_2_2@@@xercesc_2_2@@UAEPAXI@Z 1207cc60 f i DTDAttDefList.obj
 0001:0007bc80       ??1?$RefHashTableOfEnumerator@VDTDAttDef@xercesc_2_2@@@xercesc_2_2@@UAE@XZ 1207cc80 f i DTDAttDefList.obj
 0001:0007bd60       ??0DTDElementDecl@xercesc_2_2@@QAE@XZ 1207cd60 f   DTDElementDecl.obj
 0001:0007bd90       ??_EDTDElementDecl@xercesc_2_2@@UAEPAXI@Z 1207cd90 f i DTDElementDecl.obj
 0001:0007bdf0       ??0DTDElementDecl@xercesc_2_2@@QAE@QBGIW4ModelTypes@01@@Z 1207cdf0 f   DTDElementDecl.obj
 0001:0007be60       ??0DTDElementDecl@xercesc_2_2@@QAE@QAVQName@1@W4ModelTypes@01@@Z 1207ce60 f   DTDElementDecl.obj
 0001:0007bed0       ??1DTDElementDecl@xercesc_2_2@@UAE@XZ 1207ced0 f   DTDElementDecl.obj
 0001:0007c000       ??_GContentSpecNode@xercesc_2_2@@QAEPAXI@Z 1207d000 f i DTDElementDecl.obj
 0001:0007c060       ?findAttr@DTDElementDecl@xercesc_2_2@@UBEPAVXMLAttDef@2@QBGI00W4LookupOpts@XMLElementDecl@2@AA_N@Z 1207d060 f   DTDElementDecl.obj
 0001:0007c2d0       ?getAttDefList@DTDElementDecl@xercesc_2_2@@UBEAAVXMLAttDefList@2@XZ 1207d2d0 f   DTDElementDecl.obj
 0001:0007c3e0       ?getCharDataOpts@DTDElementDecl@xercesc_2_2@@UBE?AW4CharDataOpts@XMLElementDecl@2@XZ 1207d3e0 f   DTDElementDecl.obj
 0001:0007c400       ?hasAttDefs@DTDElementDecl@xercesc_2_2@@UBE_NXZ 1207d400 f   DTDElementDecl.obj
 0001:0007c440       ?resetDefs@DTDElementDecl@xercesc_2_2@@UAE_NXZ 1207d440 f   DTDElementDecl.obj
 0001:0007c600       ?setContentSpec@DTDElementDecl@xercesc_2_2@@UAEXPAVContentSpecNode@2@@Z 1207d600 f   DTDElementDecl.obj
 0001:0007c670       ?getFormattedContentModel@DTDElementDecl@xercesc_2_2@@UBEPBGXZ 1207d670 f   DTDElementDecl.obj
 0001:0007c690       ?getAttDef@DTDElementDecl@xercesc_2_2@@QAEPAVDTDAttDef@2@QBG@Z 1207d690 f   DTDElementDecl.obj
 0001:0007c690       ?getAttDef@DTDElementDecl@xercesc_2_2@@QBEPBVDTDAttDef@2@QBG@Z 1207d690 f   DTDElementDecl.obj
 0001:0007c730       ?addAttDef@DTDElementDecl@xercesc_2_2@@QAEXQAVDTDAttDef@2@@Z 1207d730 f   DTDElementDecl.obj
 0001:0007c760       ?formatContentModel@DTDElementDecl@xercesc_2_2@@ABEPAGXZ 1207d760 f   DTDElementDecl.obj
 0001:0007c940       ?makeContentModel@DTDElementDecl@xercesc_2_2@@AAEPAVXMLContentModel@2@XZ 1207d940 f   DTDElementDecl.obj
 0001:0007ca10       ?createChildModel@DTDElementDecl@xercesc_2_2@@AAEPAVXMLContentModel@2@XZ 1207da10 f   DTDElementDecl.obj
 0001:0007ceb0       ??_ESimpleContentModel@xercesc_2_2@@UAEPAXI@Z 1207deb0 f i DTDElementDecl.obj
 0001:0007ceb0       ??_GSimpleContentModel@xercesc_2_2@@UAEPAXI@Z 1207deb0 f i DTDElementDecl.obj
 0001:0007ced0       ??1SimpleContentModel@xercesc_2_2@@UAE@XZ 1207ded0 f i DTDElementDecl.obj
 0001:0007cf50       ?faultInAttDefList@DTDElementDecl@xercesc_2_2@@ABEXXZ 1207df50 f   DTDElementDecl.obj
 0001:0007d030       ?put@?$RefHashTableOf@VDTDAttDef@xercesc_2_2@@@xercesc_2_2@@QAEXPAXQAVDTDAttDef@2@@Z 1207e030 f i DTDElementDecl.obj
 0001:0007d130       ??0DTDGrammar@xercesc_2_2@@QAE@XZ 1207e130 f   DTDGrammar.obj
 0001:0007d350       ??1DTDGrammar@xercesc_2_2@@UAE@XZ 1207e350 f   DTDGrammar.obj
 0001:0007d4e0       ?findOrAddElemDecl@DTDGrammar@xercesc_2_2@@UAEPAVXMLElementDecl@2@IQBG00IAA_N@Z 1207e4e0 f   DTDGrammar.obj
 0001:0007d700       ?putElemDecl@DTDGrammar@xercesc_2_2@@UAEPAVXMLElementDecl@2@IQBG00I_N@Z 1207e700 f   DTDGrammar.obj
 0001:0007d9f0       ?reset@DTDGrammar@xercesc_2_2@@UAEXXZ 1207e9f0 f   DTDGrammar.obj
 0001:0007db20       ?resetEntityDeclPool@DTDGrammar@xercesc_2_2@@AAEXXZ 1207eb20 f   DTDGrammar.obj
 0001:0007dee0       ?removeAll@?$NameIdPool@VDTDElementDecl@xercesc_2_2@@@xercesc_2_2@@QAEXXZ 1207eee0 f i DTDGrammar.obj
 0001:0007df50       ??0?$NameIdPool@VXMLNotationDecl@xercesc_2_2@@@xercesc_2_2@@QAE@II@Z 1207ef50 f i DTDGrammar.obj
 0001:0007e000       ?removeAll@?$NameIdPool@VXMLNotationDecl@xercesc_2_2@@@xercesc_2_2@@QAEXXZ 1207f000 f i DTDGrammar.obj
 0001:0007e080       ??_GXMLNotationDecl@xercesc_2_2@@QAEPAXI@Z 1207f080 f i DTDGrammar.obj
 0001:0007e0a0       ??_G?$NameIdPoolBucketElem@VDTDEntityDecl@xercesc_2_2@@@xercesc_2_2@@QAEPAXI@Z 1207f0a0 f i DTDGrammar.obj
 0001:0007e0a0       ??_G?$NameIdPoolBucketElem@VXMLNotationDecl@xercesc_2_2@@@xercesc_2_2@@QAEPAXI@Z 1207f0a0 f i DTDGrammar.obj
 0001:0007e0a0       ??_GRangeTokenElemMap@xercesc_2_2@@QAEPAXI@Z 1207f0a0 f i DTDGrammar.obj
 0001:0007e0c0       ?findBucketElem@?$NameIdPool@VDTDElementDecl@xercesc_2_2@@@xercesc_2_2@@AAEPAU?$NameIdPoolBucketElem@VDTDElementDecl@xercesc_2_2@@@2@QBGAAI@Z 1207f0c0 f i DTDGrammar.obj
 0001:0007e180       ??0DTDScanner@xercesc_2_2@@QAE@PAVDTDGrammar@1@QAVDocTypeHandler@1@@Z 1207f180 f   DTDScanner.obj
 0001:0007e260       ??1DTDScanner@xercesc_2_2@@UAE@XZ 1207f260 f   DTDScanner.obj
 0001:0007e310       ?setScannerInfo@DTDScanner@xercesc_2_2@@QAEXQAVXMLScanner@2@QAVReaderMgr@2@QAVXMLBufferMgr@2@@Z 1207f310 f   DTDScanner.obj
 0001:0007e360       ?checkForPERef@DTDScanner@xercesc_2_2@@AAE_N_N000@Z 1207f360 f   DTDScanner.obj
 0001:0007e3f0       ?expandPERef@DTDScanner@xercesc_2_2@@AAE_N_N000@Z 1207f3f0 f   DTDScanner.obj
 0001:0007e7b0       ?getQuotedString@DTDScanner@xercesc_2_2@@AAE_NAAVXMLBuffer@2@@Z 1207f7b0 f   DTDScanner.obj
 0001:0007e820       ?scanAttDef@DTDScanner@xercesc_2_2@@AAEPAVXMLAttDef@2@AAVDTDElementDecl@2@AAVXMLBuffer@2@@Z 1207f820 f   DTDScanner.obj
 0001:0007f0f0       ?scanAttListDecl@DTDScanner@xercesc_2_2@@AAEXXZ 120800f0 f   DTDScanner.obj
 0001:0007f410       ?scanAttValue@DTDScanner@xercesc_2_2@@AAE_NQBGAAVXMLBuffer@2@W4AttTypes@XMLAttDef@2@@Z 12080410 f   DTDScanner.obj
 0001:0007f750       ?scanCharRef@DTDScanner@xercesc_2_2@@AAE_NAAG0@Z 12080750 f   DTDScanner.obj
 0001:0007f970       ?scanChildren@DTDScanner@xercesc_2_2@@AAEPAVContentSpecNode@2@ABVDTDElementDecl@2@AAVXMLBuffer@2@@Z 12080970 f   DTDScanner.obj
 0001:00080160       ??1ContentSpecNode@xercesc_2_2@@QAE@XZ 12081160 f i DTDScanner.obj
 0001:000801c0       ??_GQName@xercesc_2_2@@QAEPAXI@Z 120811c0 f i DTDScanner.obj
 0001:000802a0       ?scanComment@DTDScanner@xercesc_2_2@@AAEXXZ 120812a0 f   DTDScanner.obj
 0001:000804e0       ?scanContentSpec@DTDScanner@xercesc_2_2@@AAE_NAAVDTDElementDecl@2@@Z 120814e0 f   DTDScanner.obj
 0001:000806c0       ?scanDefaultDecl@DTDScanner@xercesc_2_2@@AAEXAAVDTDAttDef@2@@Z 120816c0 f   DTDScanner.obj
 0001:00080880       ?scanElementDecl@DTDScanner@xercesc_2_2@@AAEXXZ 12081880 f   DTDScanner.obj
 0001:00080b30       ?scanEntityDecl@DTDScanner@xercesc_2_2@@AAEXXZ 12081b30 f   DTDScanner.obj
 0001:00080f90       ?scanEntityRef@DTDScanner@xercesc_2_2@@AAE?AW4EntityExpRes@12@AAG0AA_N@Z 12081f90 f   DTDScanner.obj
 0001:00081370       ?scanEntityLiteral@DTDScanner@xercesc_2_2@@AAE_NAAVXMLBuffer@2@_N@Z 12082370 f   DTDScanner.obj
 0001:000816f0       ?scanEntityDef@DTDScanner@xercesc_2_2@@AAE_NAAVDTDEntityDecl@2@_N@Z 120826f0 f   DTDScanner.obj
 0001:00081af0       ?scanEnumeration@DTDScanner@xercesc_2_2@@AAE_NABVDTDAttDef@2@AAVXMLBuffer@2@_N@Z 12082af0 f   DTDScanner.obj
 0001:00081c80       ?scanEq@DTDScanner@xercesc_2_2@@AAE_NXZ 12082c80 f   DTDScanner.obj
 0001:00081cb0       ?scanExtSubsetDecl@DTDScanner@xercesc_2_2@@QAEX_N0@Z 12082cb0 f   DTDScanner.obj
 0001:00082060       ?scanId@DTDScanner@xercesc_2_2@@QAE_NAAVXMLBuffer@2@0W4IDTypes@12@@Z 12083060 f   DTDScanner.obj
 0001:00082300       ?scanIgnoredSection@DTDScanner@xercesc_2_2@@AAEXXZ 12083300 f   DTDScanner.obj
 0001:00082480       ?scanInternalSubset@DTDScanner@xercesc_2_2@@QAE_NXZ 12083480 f   DTDScanner.obj
 0001:000826c0       ?scanMarkupDecl@DTDScanner@xercesc_2_2@@AAEX_N@Z 120836c0 f   DTDScanner.obj
 0001:00082a00       ?scanMixed@DTDScanner@xercesc_2_2@@AAE_NAAVDTDElementDecl@2@@Z 12083a00 f   DTDScanner.obj
 0001:00082f20       ?scanNotationDecl@DTDScanner@xercesc_2_2@@AAEXXZ 12083f20 f   DTDScanner.obj
 0001:00083270       ?scanPI@DTDScanner@xercesc_2_2@@AAEXXZ 12084270 f   DTDScanner.obj
 0001:000835a0       ?scanPublicLiteral@DTDScanner@xercesc_2_2@@AAE_NAAVXMLBuffer@2@@Z 120845a0 f   DTDScanner.obj
 0001:00083690       ?scanSystemLiteral@DTDScanner@xercesc_2_2@@AAE_NAAVXMLBuffer@2@@Z 12084690 f   DTDScanner.obj
 0001:00083740       ?scanTextDecl@DTDScanner@xercesc_2_2@@AAEXXZ 12084740 f   DTDScanner.obj
 0001:00083b90       ??1?$FlagJanitor@_N@xercesc_2_2@@QAE@XZ 12084b90 f i DTDScanner.obj
 0001:00083ba0       ??0DTDValidator@xercesc_2_2@@QAE@QAVXMLErrorReporter@1@@Z 12084ba0 f   DTDValidator.obj
 0001:00083bc0       ??_EDTDValidator@xercesc_2_2@@UAEPAXI@Z 12084bc0 f i DTDValidator.obj
 0001:00083c20       ??1DTDValidator@xercesc_2_2@@UAE@XZ 12084c20 f   DTDValidator.obj
 0001:00083c30       ?checkContent@DTDValidator@xercesc_2_2@@UAEHQAVXMLElementDecl@2@QAPAVQName@2@I@Z 12084c30 f   DTDValidator.obj
 0001:00083ce0       ?faultInAttr@DTDValidator@xercesc_2_2@@UBEXAAVXMLAttr@2@ABVXMLAttDef@2@@Z 12084ce0 f   DTDValidator.obj
 0001:00083df0       ?validateAttrValue@DTDValidator@xercesc_2_2@@UAEXPBVXMLAttDef@2@QBG_NPBVXMLElementDecl@2@@Z 12084df0 f   DTDValidator.obj
 0001:00084470       ?preContentValidation@DTDValidator@xercesc_2_2@@UAEX_N0@Z 12085470 f   DTDValidator.obj
 0001:00084700       ??0FieldActivator@xercesc_2_2@@QAE@ABV01@@Z 12085700 f   FieldActivator.obj
 0001:00084720       ??4FieldActivator@xercesc_2_2@@QAEAAV01@ABV01@@Z 12085720 f   FieldActivator.obj
 0001:00084740       ?activateField@FieldActivator@xercesc_2_2@@QAEPAVXPathMatcher@2@QAVIC_Field@2@H@Z 12085740 f   FieldActivator.obj
 0001:000848d0       ?startValueScopeFor@FieldActivator@xercesc_2_2@@QAEXQBVIdentityConstraint@2@H@Z 120858d0 f   FieldActivator.obj
 0001:000849d0       ?endValueScopeFor@FieldActivator@xercesc_2_2@@QAEXQBVIdentityConstraint@2@H@Z 120859d0 f   FieldActivator.obj
 0001:00084a80       ??0ContentLeafNameTypeVector@xercesc_2_2@@QAE@XZ 12085a80 f   FieldValueMap.obj
 0001:00084a80       ??0FieldValueMap@xercesc_2_2@@QAE@XZ 12085a80 f   FieldValueMap.obj
 0001:00084a90       ??0FieldValueMap@xercesc_2_2@@QAE@ABV01@@Z 12085a90 f   FieldValueMap.obj
 0001:00084d00       ??1FieldValueMap@xercesc_2_2@@QAE@XZ 12085d00 f   FieldValueMap.obj
 0001:00084d50       ?indexOf@FieldValueMap@xercesc_2_2@@QBEHQBVIC_Field@2@@Z 12085d50 f   FieldValueMap.obj
 0001:00084db0       ??1XercesNodeTest@xercesc_2_2@@QAE@XZ 12085db0 f i IC_Field.obj
 0001:00084dd0       ??1XercesStep@xercesc_2_2@@QAE@XZ 12085dd0 f i IC_Field.obj
 0001:00084e00       ?getType@XercesNodeTest@xercesc_2_2@@QBEFXZ 12085e00 f i IC_Field.obj
 0001:00084e00       ?getAxisType@XercesStep@xercesc_2_2@@QBEGXZ 12085e00 f i IC_Field.obj
 0001:00084e10       ??1XercesLocationPath@xercesc_2_2@@QAE@XZ 12085e10 f i IC_Field.obj
 0001:00084e20       ??1XPathScanner@xercesc_2_2@@UAE@XZ 12085e20 f i IC_Field.obj
 0001:00084e20       ??1XPathScannerForSchema@xercesc_2_2@@UAE@XZ 12085e20 f i IC_Field.obj
 0001:00084e30       ??_EXPathScanner@xercesc_2_2@@UAEPAXI@Z 12085e30 f i IC_Field.obj
 0001:00084e90       ??_EXPathScannerForSchema@xercesc_2_2@@UAEPAXI@Z 12085e90 f i IC_Field.obj
 0001:00084ef0       ?getStepSize@XercesLocationPath@xercesc_2_2@@QBEIXZ 12085ef0 f i IC_Field.obj
 0001:00084f00       ?addStep@XercesLocationPath@xercesc_2_2@@QAEXQAVXercesStep@2@@Z 12085f00 f i IC_Field.obj
 0001:00085020       ?getStep@XercesLocationPath@xercesc_2_2@@QBEPAVXercesStep@2@I@Z 12086020 f i IC_Field.obj
 0001:00085070       ?addToken@XPathScanner@xercesc_2_2@@MAEXQAV?$ValueVectorOf@H@2@H@Z 12086070 f i IC_Field.obj
 0001:00085110       ??0FieldMatcher@xercesc_2_2@@AAE@QAVXercesXPath@1@QAVIC_Field@1@QAVValueStore@1@@Z 12086110 f   IC_Field.obj
 0001:00085140       ?matched@FieldMatcher@xercesc_2_2@@UAEXQBGQAVDatatypeValidator@2@_N@Z 12086140 f   IC_Field.obj
 0001:00085180       ??0IC_Field@xercesc_2_2@@QAE@QAVXercesXPath@1@QAVIdentityConstraint@1@@Z 12086180 f   IC_Field.obj
 0001:000851a0       ??1IC_Field@xercesc_2_2@@QAE@XZ 120861a0 f   IC_Field.obj
 0001:000851c0       ??8IC_Field@xercesc_2_2@@QBE_NABV01@@Z 120861c0 f   IC_Field.obj
 0001:000851e0       ??9IC_Field@xercesc_2_2@@QBE_NABV01@@Z 120861e0 f   IC_Field.obj
 0001:00085200       ?createMatcher@IC_Field@xercesc_2_2@@QAEPAVXPathMatcher@2@QAVValueStore@2@@Z 12086200 f   IC_Field.obj
 0001:00085270       ??_E?$RefVectorOf@VXercesStep@xercesc_2_2@@@xercesc_2_2@@UAEPAXI@Z 12086270 f i IC_Field.obj
 0001:00085270       ??_G?$RefVectorOf@VXercesStep@xercesc_2_2@@@xercesc_2_2@@UAEPAXI@Z 12086270 f i IC_Field.obj
 0001:00085290       ??1?$RefVectorOf@VXercesStep@xercesc_2_2@@@xercesc_2_2@@UAE@XZ 12086290 f i IC_Field.obj
 0001:00085340       ??1?$BaseRefVectorOf@VXercesStep@xercesc_2_2@@@xercesc_2_2@@UAE@XZ 12086340 f i IC_Field.obj
 0001:00085350       ?getType@IC_Key@xercesc_2_2@@UBEFXZ 12086350 f i IC_Key.obj
 0001:00085360       ??0IC_Key@xercesc_2_2@@QAE@QBG0@Z 12086360 f   IC_Key.obj
 0001:00085380       ??_EIC_Key@xercesc_2_2@@UAEPAXI@Z 12086380 f i IC_Key.obj
 0001:000853e0       ??1IC_Key@xercesc_2_2@@UAE@XZ 120863e0 f   IC_Key.obj
 0001:000853f0       ?getWSFacet@DatatypeValidator@xercesc_2_2@@UBEFXZ 120863f0 f i IC_KeyRef.obj
 0001:000853f0       ?getType@IC_KeyRef@xercesc_2_2@@UBEFXZ 120863f0 f i IC_KeyRef.obj
 0001:00085400       ??0IC_KeyRef@xercesc_2_2@@QAE@QBG0QAVIdentityConstraint@1@@Z 12086400 f   IC_KeyRef.obj
 0001:00085430       ??_EIC_KeyRef@xercesc_2_2@@UAEPAXI@Z 12086430 f i IC_KeyRef.obj
 0001:00085490       ??1IC_KeyRef@xercesc_2_2@@UAE@XZ 12086490 f   IC_KeyRef.obj
 0001:000854a0       ??0SelectorMatcher@xercesc_2_2@@AAE@QAVXercesXPath@1@QAVIC_Selector@1@QAVFieldActivator@1@H@Z 120864a0 f   IC_Selector.obj
 0001:000854f0       ?startDocumentFragment@SelectorMatcher@xercesc_2_2@@UAEXXZ 120864f0 f   IC_Selector.obj
 0001:00085510       ?startElement@SelectorMatcher@xercesc_2_2@@UAEXABVXMLElementDecl@2@IQBGABV?$RefVectorOf@VXMLAttr@xercesc_2_2@@@2@I@Z 12086510 f   IC_Selector.obj
 0001:00085610       ?endElement@SelectorMatcher@xercesc_2_2@@UAEXABVXMLElementDecl@2@QBG@Z 12086610 f   IC_Selector.obj
 0001:00085650       ??0FieldActivator@xercesc_2_2@@QAE@QAVValueStoreCache@1@QAVXPathMatcherStack@1@@Z 12086650 f   IC_Selector.obj
 0001:00085650       ??0IC_Selector@xercesc_2_2@@QAE@QAVXercesXPath@1@QAVIdentityConstraint@1@@Z 12086650 f   IC_Selector.obj
 0001:00085670       ??1IC_Selector@xercesc_2_2@@QAE@XZ 12086670 f   IC_Selector.obj
 0001:00085690       ??8IC_Selector@xercesc_2_2@@QBE_NABV01@@Z 12086690 f   IC_Selector.obj
 0001:000856b0       ??9IC_Selector@xercesc_2_2@@QBE_NABV01@@Z 120866b0 f   IC_Selector.obj
 0001:000856d0       ?createMatcher@IC_Selector@xercesc_2_2@@QAEPAVXPathMatcher@2@QAVFieldActivator@2@H@Z 120866d0 f   IC_Selector.obj
 0001:00085770       ?getWSFacet@AnySimpleTypeDatatypeValidator@xercesc_2_2@@UBEFXZ 12086770 f i IC_Unique.obj
 0001:00085770       ?getType@IC_Unique@xercesc_2_2@@UBEFXZ 12086770 f i IC_Unique.obj
 0001:00085780       ??0IC_Unique@xercesc_2_2@@QAE@QBG0@Z 12086780 f   IC_Unique.obj
 0001:000857a0       ??_EIC_Unique@xercesc_2_2@@UAEPAXI@Z 120867a0 f i IC_Unique.obj
 0001:00085800       ??1IC_Unique@xercesc_2_2@@UAE@XZ 12086800 f   IC_Unique.obj
 0001:00085810       ??0IdentityConstraint@xercesc_2_2@@IAE@QBG0@Z 12086810 f   IdentityConstraint.obj
 0001:00085950       ??_EIdentityConstraint@xercesc_2_2@@UAEPAXI@Z 12086950 f i IdentityConstraint.obj
 0001:000859e0       ??1IdentityConstraint@xercesc_2_2@@UAE@XZ 120869e0 f   IdentityConstraint.obj
 0001:00085a30       ??8IdentityConstraint@xercesc_2_2@@QBE_NABV01@@Z 12086a30 f   IdentityConstraint.obj
 0001:00085b70       ??9IdentityConstraint@xercesc_2_2@@QBE_NABV01@@Z 12086b70 f   IdentityConstraint.obj
 0001:00085b90       ?setSelector@IdentityConstraint@xercesc_2_2@@QAEXQAVIC_Selector@2@@Z 12086b90 f   IdentityConstraint.obj
 0001:00085bd0       ?cleanUp@IdentityConstraint@xercesc_2_2@@AAEXXZ 12086bd0 f   IdentityConstraint.obj
 0001:00085c10       ??0ValueStore@xercesc_2_2@@QAE@QAVIdentityConstraint@1@QAVXMLScanner@1@@Z 12086c10 f   ValueStore.obj
 0001:00085c70       ??1ValueStore@xercesc_2_2@@QAE@XZ 12086c70 f   ValueStore.obj
 0001:00085cd0       ?addValue@ValueStore@xercesc_2_2@@QAEXQAVIC_Field@2@QAVDatatypeValidator@2@QBG@Z 12086cd0 f   ValueStore.obj
 0001:00086000       ?append@ValueStore@xercesc_2_2@@QAEXQBV12@@Z 12087000 f   ValueStore.obj
 0001:00086200       ?startValueScope@ValueStore@xercesc_2_2@@QAEXXZ 12087200 f   ValueStore.obj
 0001:00086280       ?endValueScope@ValueStore@xercesc_2_2@@QAEXXZ 12087280 f   ValueStore.obj
 0001:00086350       ?contains@ValueStore@xercesc_2_2@@QAE_NQBVFieldValueMap@2@@Z 12087350 f   ValueStore.obj
 0001:00086540       ?isDuplicateOf@ValueStore@xercesc_2_2@@AAE_NQAVDatatypeValidator@2@QBG01@Z 12087540 f   ValueStore.obj
 0001:000866d0       ?endDcocumentFragment@ValueStore@xercesc_2_2@@QAEXQAVValueStoreCache@2@@Z 120876d0 f   ValueStore.obj
 0001:000867c0       ?reportNilError@ValueStore@xercesc_2_2@@QAEXQAVIdentityConstraint@2@@Z 120877c0 f   ValueStore.obj
 0001:00086800       ?duplicateValue@ValueStore@xercesc_2_2@@QAEXXZ 12087800 f   ValueStore.obj
 0001:00086860       ??0?$ValueVectorOf@PAVDatatypeValidator@xercesc_2_2@@@xercesc_2_2@@QAE@I@Z 12087860 f i ValueStore.obj
 0001:00086860       ??0?$ValueVectorOf@PAVContentSpecNode@xercesc_2_2@@@xercesc_2_2@@QAE@I@Z 12087860 f i ValueStore.obj
 0001:00086860       ??0?$ValueVectorOf@I@xercesc_2_2@@QAE@I@Z 12087860 f i ValueStore.obj
 0001:00086860       ??0?$ValueVectorOf@PAVSchemaElementDecl@xercesc_2_2@@@xercesc_2_2@@QAE@I@Z 12087860 f i ValueStore.obj
 0001:00086860       ??0?$ValueVectorOf@PBG@xercesc_2_2@@QAE@I@Z 12087860 f i ValueStore.obj
 0001:00086860       ??0?$ValueVectorOf@PBVDOMElement@xercesc_2_2@@@xercesc_2_2@@QAE@I@Z 12087860 f i ValueStore.obj
 0001:00086890       ?setElementAt@?$ValueVectorOf@PAVDatatypeValidator@xercesc_2_2@@@xercesc_2_2@@QAEXABQAVDatatypeValidator@2@I@Z 12087890 f i ValueStore.obj
 0001:000868e0       ?addElement@?$BaseRefVectorOf@VSchemaInfo@xercesc_2_2@@@xercesc_2_2@@QAEXQAVSchemaInfo@2@@Z 120878e0 f i ValueStore.obj
 0001:000868e0       ?addElement@?$BaseRefVectorOf@VSchemaElementDecl@xercesc_2_2@@@xercesc_2_2@@QAEXQAVSchemaElementDecl@2@@Z 120878e0 f i ValueStore.obj
 0001:000868e0       ?addElement@?$BaseRefVectorOf@VSchemaAttDef@xercesc_2_2@@@xercesc_2_2@@QAEXQAVSchemaAttDef@2@@Z 120878e0 f i ValueStore.obj
 0001:000868e0       ?addElement@?$BaseRefVectorOf@G@xercesc_2_2@@QAEXQAG@Z 120878e0 f i ValueStore.obj
 0001:00086960       ?setElementAt@?$BaseRefVectorOf@G@xercesc_2_2@@QAEXQAGI@Z 12087960 f i ValueStore.obj
 0001:000869c0       ??0?$RefArrayVectorOf@G@xercesc_2_2@@QAE@I_N@Z 120879c0 f i ValueStore.obj
 0001:00086a20       ??_G?$RefVectorOf@VFieldValueMap@xercesc_2_2@@@xercesc_2_2@@UAEPAXI@Z 12087a20 f i ValueStore.obj
 0001:00086a20       ??_E?$RefVectorOf@VFieldValueMap@xercesc_2_2@@@xercesc_2_2@@UAEPAXI@Z 12087a20 f i ValueStore.obj
 0001:00086a40       ??1?$RefVectorOf@VFieldValueMap@xercesc_2_2@@@xercesc_2_2@@UAE@XZ 12087a40 f i ValueStore.obj
 0001:00086ad0       ??1?$BaseRefVectorOf@VFieldValueMap@xercesc_2_2@@@xercesc_2_2@@UAE@XZ 12087ad0 f i ValueStore.obj
 0001:00086ae0       ??0?$BaseRefVectorOf@VFieldValueMap@xercesc_2_2@@@xercesc_2_2@@QAE@I_N@Z 12087ae0 f i ValueStore.obj
 0001:00086b40       ?ensureExtraCapacity@?$BaseRefVectorOf@VXMLAttr@xercesc_2_2@@@xercesc_2_2@@QAEXI@Z 12087b40 f i ValueStore.obj
 0001:00086b40       ?ensureExtraCapacity@?$BaseRefVectorOf@VXercesStep@xercesc_2_2@@@xercesc_2_2@@QAEXI@Z 12087b40 f i ValueStore.obj
 0001:00086b40       ?ensureExtraCapacity@?$BaseRefVectorOf@VNodeImpl@xercesc_2_2@@@xercesc_2_2@@QAEXI@Z 12087b40 f i ValueStore.obj
 0001:00086b40       ?ensureExtraCapacity@?$BaseRefVectorOf@VXMLBuffer@xercesc_2_2@@@xercesc_2_2@@QAEXI@Z 12087b40 f i ValueStore.obj
 0001:00086b40       ?ensureExtraCapacity@?$BaseRefVectorOf@VDatatypeValidator@xercesc_2_2@@@xercesc_2_2@@QAEXI@Z 12087b40 f i ValueStore.obj
 0001:00086b40       ?ensureExtraCapacity@?$BaseRefVectorOf@VIC_Field@xercesc_2_2@@@xercesc_2_2@@QAEXI@Z 12087b40 f i ValueStore.obj
 0001:00086b40       ?ensureExtraCapacity@?$BaseRefVectorOf@VXMLReader@xercesc_2_2@@@xercesc_2_2@@QAEXI@Z 12087b40 f i ValueStore.obj
 0001:00086b40       ?ensureExtraCapacity@?$BaseRefVectorOf@VSchemaElementDecl@xercesc_2_2@@@xercesc_2_2@@QAEXI@Z 12087b40 f i ValueStore.obj
 0001:00086b40       ?ensureExtraCapacity@?$BaseRefVectorOf@G@xercesc_2_2@@QAEXI@Z 12087b40 f i ValueStore.obj
 0001:00086b40       ?ensureExtraCapacity@?$BaseRefVectorOf@VXercesLocationPath@xercesc_2_2@@@xercesc_2_2@@QAEXI@Z 12087b40 f i ValueStore.obj
 0001:00086b40       ?ensureExtraCapacity@?$BaseRefVectorOf@VDOMNode@xercesc_2_2@@@xercesc_2_2@@QAEXI@Z 12087b40 f i ValueStore.obj
 0001:00086b40       ?ensureExtraCapacity@?$BaseRefVectorOf@VENameMap@xercesc_2_2@@@xercesc_2_2@@QAEXI@Z 12087b40 f i ValueStore.obj
 0001:00086b40       ?ensureExtraCapacity@?$BaseRefVectorOf@VXMLElementDecl@xercesc_2_2@@@xercesc_2_2@@QAEXI@Z 12087b40 f i ValueStore.obj
 0001:00086b40       ?ensureExtraCapacity@?$BaseRefVectorOf@VXMLNumber@xercesc_2_2@@@xercesc_2_2@@QAEXI@Z 12087b40 f i ValueStore.obj
 0001:00086b40       ?ensureExtraCapacity@?$BaseRefVectorOf@VFieldValueMap@xercesc_2_2@@@xercesc_2_2@@QAEXI@Z 12087b40 f i ValueStore.obj
 0001:00086b40       ?ensureExtraCapacity@?$BaseRefVectorOf@VMatch@xercesc_2_2@@@xercesc_2_2@@QAEXI@Z 12087b40 f i ValueStore.obj
 0001:00086b40       ?ensureExtraCapacity@?$BaseRefVectorOf@VXPathMatcher@xercesc_2_2@@@xercesc_2_2@@QAEXI@Z 12087b40 f i ValueStore.obj
 0001:00086b40       ?ensureExtraCapacity@?$BaseRefVectorOf@VToken@xercesc_2_2@@@xercesc_2_2@@QAEXI@Z 12087b40 f i ValueStore.obj
 0001:00086b40       ?ensureExtraCapacity@?$BaseRefVectorOf@VReferencePosition@RegxParser@xercesc_2_2@@@xercesc_2_2@@QAEXI@Z 12087b40 f i ValueStore.obj
 0001:00086b40       ?ensureExtraCapacity@?$BaseRefVectorOf@VSchemaInfo@xercesc_2_2@@@xercesc_2_2@@QAEXI@Z 12087b40 f i ValueStore.obj
 0001:00086b40       ?ensureExtraCapacity@?$BaseRefVectorOf@VDOMImplementationSource@xercesc_2_2@@@xercesc_2_2@@QAEXI@Z 12087b40 f i ValueStore.obj
 0001:00086bc0       ??0ValueStoreCache@xercesc_2_2@@QAE@XZ 12087bc0 f   ValueStoreCache.obj
 0001:00086d90       ??1ValueStoreCache@xercesc_2_2@@QAE@XZ 12087d90 f   ValueStoreCache.obj
 0001:00086ec0       ?startDocument@ValueStoreCache@xercesc_2_2@@QAEXXZ 12087ec0 f   ValueStoreCache.obj
 0001:000870c0       ?startElement@ValueStoreCache@xercesc_2_2@@QAEXXZ 120880c0 f   ValueStoreCache.obj
 0001:00087210       ?endElement@ValueStoreCache@xercesc_2_2@@QAEXXZ 12088210 f   ValueStoreCache.obj
 0001:00087490       ??_G?$RefHashTableOf@VValueStore@xercesc_2_2@@@xercesc_2_2@@QAEPAXI@Z 12088490 f i ValueStoreCache.obj
 0001:00087530       ?cleanUp@ValueStoreCache@xercesc_2_2@@AAEXXZ 12088530 f   ValueStoreCache.obj
 0001:00087670       ?init@ValueStoreCache@xercesc_2_2@@AAEXXZ 12088670 f   ValueStoreCache.obj
 0001:00087880       ?initValueStoresFor@ValueStoreCache@xercesc_2_2@@QAEXQAVSchemaElementDecl@2@H@Z 12088880 f   ValueStoreCache.obj
 0001:00087af0       ?transplant@ValueStoreCache@xercesc_2_2@@QAEXQAVIdentityConstraint@2@H@Z 12088af0 f   ValueStoreCache.obj
 0001:00087da0       ??1?$XMLEnumerator@VValueStore@xercesc_2_2@@@xercesc_2_2@@UAE@XZ 12088da0 f i ValueStoreCache.obj
 0001:00087db0       ??_G?$XMLEnumerator@VValueStore@xercesc_2_2@@@xercesc_2_2@@UAEPAXI@Z 12088db0 f i ValueStoreCache.obj
 0001:00087db0       ??_E?$XMLEnumerator@VValueStore@xercesc_2_2@@@xercesc_2_2@@UAEPAXI@Z 12088db0 f i ValueStoreCache.obj
 0001:00087dd0       ??1?$RefHashTableOf@VValueStore@xercesc_2_2@@@xercesc_2_2@@QAE@XZ 12088dd0 f i ValueStoreCache.obj
 0001:00087e60       ??1?$BaseRefVectorOf@V?$RefHashTableOf@VValueStore@xercesc_2_2@@@xercesc_2_2@@@xercesc_2_2@@UAE@XZ 12088e60 f i ValueStoreCache.obj
 0001:00087e70       ??1?$RefStackOf@V?$RefHashTableOf@VValueStore@xercesc_2_2@@@xercesc_2_2@@@xercesc_2_2@@QAE@XZ 12088e70 f i ValueStoreCache.obj
 0001:00087f80       ??1?$RefHashTableOfEnumerator@VValueStore@xercesc_2_2@@@xercesc_2_2@@UAE@XZ 12088f80 f i ValueStoreCache.obj
 0001:00088060       ??_GValueStore@xercesc_2_2@@QAEPAXI@Z 12089060 f i ValueStoreCache.obj
 0001:00088080       ??_G?$RefVectorOf@VValueStore@xercesc_2_2@@@xercesc_2_2@@UAEPAXI@Z 12089080 f i ValueStoreCache.obj
 0001:00088080       ??_E?$RefVectorOf@VValueStore@xercesc_2_2@@@xercesc_2_2@@UAEPAXI@Z 12089080 f i ValueStoreCache.obj
 0001:000880a0       ??1?$RefVectorOf@VValueStore@xercesc_2_2@@@xercesc_2_2@@UAE@XZ 120890a0 f i ValueStoreCache.obj
 0001:00088130       ??1?$BaseRefVectorOf@VValueStore@xercesc_2_2@@@xercesc_2_2@@UAE@XZ 12089130 f i ValueStoreCache.obj
 0001:00088140       ??_G?$RefVectorOf@V?$RefHashTableOf@VValueStore@xercesc_2_2@@@xercesc_2_2@@@xercesc_2_2@@UAEPAXI@Z 12089140 f i ValueStoreCache.obj
 0001:00088140       ??_E?$RefVectorOf@V?$RefHashTableOf@VValueStore@xercesc_2_2@@@xercesc_2_2@@@xercesc_2_2@@UAEPAXI@Z 12089140 f i ValueStoreCache.obj
 0001:00088160       ??1?$RefVectorOf@V?$RefHashTableOf@VValueStore@xercesc_2_2@@@xercesc_2_2@@@xercesc_2_2@@UAE@XZ 12089160 f i ValueStoreCache.obj
 0001:00088270       ??_G?$RefHashTableOfEnumerator@VValueStore@xercesc_2_2@@@xercesc_2_2@@UAEPAXI@Z 12089270 f i ValueStoreCache.obj
 0001:00088270       ??_E?$RefHashTableOfEnumerator@VValueStore@xercesc_2_2@@@xercesc_2_2@@UAEPAXI@Z 12089270 f i ValueStoreCache.obj
 0001:00088290       ??0XPathException@xercesc_2_2@@QAE@QBDIW4Codes@XMLExcepts@1@@Z 12089290 f i XercesXPath.obj
 0001:000882f0       ??0XPathException@xercesc_2_2@@QAE@ABV01@@Z 120892f0 f i XercesXPath.obj
 0001:00088310       ??0XPathException@xercesc_2_2@@QAE@QBDIW4Codes@XMLExcepts@1@QBG222@Z 12089310 f i XercesXPath.obj
 0001:00088380       ??0XPathException@xercesc_2_2@@QAE@QBDIW4Codes@XMLExcepts@1@0000@Z 12089380 f i XercesXPath.obj
 0001:000883f0       ??1XPathException@xercesc_2_2@@UAE@XZ 120893f0 f i XercesXPath.obj
 0001:00088400       ?duplicate@XPathException@xercesc_2_2@@UBEPAVXMLException@2@XZ 12089400 f i XercesXPath.obj
 0001:00088460       ?getType@XPathException@xercesc_2_2@@UBEPBGXZ 12089460 f i XercesXPath.obj
 0001:00088470       ??_EXPathException@xercesc_2_2@@UAEPAXI@Z 12089470 f i XercesXPath.obj
 0001:000884d0       ?getNamespaceForPrefix@NamespaceScope@xercesc_2_2@@QBEIQBG@Z 120894d0 f i XercesXPath.obj
 0001:000884f0       ?isEmpty@NamespaceScope@xercesc_2_2@@QBE_NXZ 120894f0 f i XercesXPath.obj
 0001:00088500       ??0XercesNodeTest@xercesc_2_2@@QAE@F@Z 12089500 f   XercesXPath.obj
 0001:00088560       ??0XercesNodeTest@xercesc_2_2@@QAE@QBVQName@1@@Z 12089560 f   XercesXPath.obj
 0001:000885c0       ??0XercesNodeTest@xercesc_2_2@@QAE@QBGI@Z 120895c0 f   XercesXPath.obj
 0001:00088640       ??0XercesNodeTest@xercesc_2_2@@QAE@ABV01@@Z 12089640 f   XercesXPath.obj
 0001:000886b0       ??4XercesNodeTest@xercesc_2_2@@QAEAAV01@ABV01@@Z 120896b0 f   XercesXPath.obj
 0001:000886e0       ??8XercesNodeTest@xercesc_2_2@@QBE_NABV01@@Z 120896e0 f   XercesXPath.obj
 0001:00088710       ??9XercesNodeTest@xercesc_2_2@@QBE_NABV01@@Z 12089710 f   XercesXPath.obj
 0001:00088760       ??0XercesStep@xercesc_2_2@@QAE@GQAVXercesNodeTest@1@@Z 12089760 f   XercesXPath.obj
 0001:00088780       ??0XercesStep@xercesc_2_2@@QAE@ABV01@@Z 12089780 f   XercesXPath.obj
 0001:00088820       ??4XercesStep@xercesc_2_2@@QAEAAV01@ABV01@@Z 12089820 f   XercesXPath.obj
 0001:00088860       ??8XercesStep@xercesc_2_2@@QBE_NABV01@@Z 12089860 f   XercesXPath.obj
 0001:000888c0       ??9XercesStep@xercesc_2_2@@QBE_NABV01@@Z 120898c0 f   XercesXPath.obj
 0001:00088950       ??0XercesLocationPath@xercesc_2_2@@QAE@QAV?$RefVectorOf@VXercesStep@xercesc_2_2@@@1@@Z 12089950 f   XercesXPath.obj
 0001:00088960       ??8XercesLocationPath@xercesc_2_2@@QBE_NABV01@@Z 12089960 f   XercesXPath.obj
 0001:00088a40       ??9XercesLocationPath@xercesc_2_2@@QBE_NABV01@@Z 12089a40 f   XercesXPath.obj
 0001:00088b40       ??0XercesXPath@xercesc_2_2@@QAE@QBGQAVXMLStringPool@1@QAVNamespaceScope@1@I_N@Z 12089b40 f   XercesXPath.obj
 0001:00088cc0       ??8XercesXPath@xercesc_2_2@@QBE_NABV01@@Z 12089cc0 f   XercesXPath.obj
 0001:00088e60       ??9XercesXPath@xercesc_2_2@@QBE_NABV01@@Z 12089e60 f   XercesXPath.obj
 0001:00089010       ?cleanUp@XercesXPath@xercesc_2_2@@AAEXXZ 1208a010 f   XercesXPath.obj
 0001:00089010       ??1XercesXPath@xercesc_2_2@@QAE@XZ 1208a010 f   XercesXPath.obj
 0001:00089030       ?checkForSelectedAttributes@XercesXPath@xercesc_2_2@@AAEXXZ 1208a030 f   XercesXPath.obj
 0001:00089100       ?parseExpression@XercesXPath@xercesc_2_2@@AAEXQAVXMLStringPool@2@QAVNamespaceScope@2@@Z 1208a100 f   XercesXPath.obj
 0001:0008a2a0       ??0XPathScanner@xercesc_2_2@@QAE@QAVXMLStringPool@1@@Z 1208b2a0 f   XercesXPath.obj
 0001:0008a300       ?init@XPathScanner@xercesc_2_2@@AAEXXZ 1208b300 f   XercesXPath.obj
 0001:0008a460       ?scanExpression@XPathScanner@xercesc_2_2@@QAE_NQBGHHQAV?$ValueVectorOf@H@2@@Z 1208b460 f   XercesXPath.obj
 0001:0008b570       ?scanNCName@XPathScanner@xercesc_2_2@@AAEHQBGHH@Z 1208c570 f   XercesXPath.obj
 0001:0008b5d0       ?scanNumber@XPathScanner@xercesc_2_2@@AAEHQBGHHQAV?$ValueVectorOf@H@2@@Z 1208c5d0 f   XercesXPath.obj
 0001:0008b7b0       ??0XPathScannerForSchema@xercesc_2_2@@QAE@QAVXMLStringPool@1@@Z 1208c7b0 f   XercesXPath.obj
 0001:0008b7d0       ?addToken@XPathScannerForSchema@xercesc_2_2@@MAEXQAV?$ValueVectorOf@H@2@H@Z 1208c7d0 f   XercesXPath.obj
 0001:0008b8d0       ?elementAt@?$BaseRefVectorOf@VXercesStep@xercesc_2_2@@@xercesc_2_2@@QAEPAVXercesStep@2@I@Z 1208c8d0 f i XercesXPath.obj
 0001:0008b8d0       ?elementAt@?$BaseRefVectorOf@VSchemaAttDef@xercesc_2_2@@@xercesc_2_2@@QAEPAVSchemaAttDef@2@I@Z 1208c8d0 f i XercesXPath.obj
 0001:0008b8d0       ?elementAt@?$BaseRefVectorOf@G@xercesc_2_2@@QAEPAGI@Z 1208c8d0 f i XercesXPath.obj
 0001:0008b8d0       ?elementAt@?$BaseRefVectorOf@VSchemaElementDecl@xercesc_2_2@@@xercesc_2_2@@QAEPAVSchemaElementDecl@2@I@Z 1208c8d0 f i XercesXPath.obj
 0001:0008b8d0       ?elementAt@?$BaseRefVectorOf@VSchemaInfo@xercesc_2_2@@@xercesc_2_2@@QAEPAVSchemaInfo@2@I@Z 1208c8d0 f i XercesXPath.obj
 0001:0008b910       ??_E?$RefVectorOf@VXercesLocationPath@xercesc_2_2@@@xercesc_2_2@@UAEPAXI@Z 1208c910 f i XercesXPath.obj
 0001:0008b910       ??_G?$RefVectorOf@VXercesLocationPath@xercesc_2_2@@@xercesc_2_2@@UAEPAXI@Z 1208c910 f i XercesXPath.obj
 0001:0008b930       ??1?$RefVectorOf@VXercesLocationPath@xercesc_2_2@@@xercesc_2_2@@UAE@XZ 1208c930 f i XercesXPath.obj
 0001:0008b9c0       ??1?$BaseRefVectorOf@VXercesLocationPath@xercesc_2_2@@@xercesc_2_2@@UAE@XZ 1208c9c0 f i XercesXPath.obj
 0001:0008b9d0       ??0?$BaseRefVectorOf@VXercesStep@xercesc_2_2@@@xercesc_2_2@@QAE@I_N@Z 1208c9d0 f i XercesXPath.obj
 0001:0008ba30       ??0?$BaseRefVectorOf@VXercesLocationPath@xercesc_2_2@@@xercesc_2_2@@QAE@I_N@Z 1208ca30 f i XercesXPath.obj
 0001:0008ba90       ??0XPathMatcher@xercesc_2_2@@QAE@QAVXercesXPath@1@@Z 1208ca90 f   XPathMatcher.obj
 0001:0008bb30       ??0XPathMatcher@xercesc_2_2@@QAE@QAVXercesXPath@1@QAVIdentityConstraint@1@@Z 1208cb30 f   XPathMatcher.obj
 0001:0008bbd0       ??1XPathMatcher@xercesc_2_2@@UAE@XZ 1208cbd0 f   XPathMatcher.obj
 0001:0008bc10       ?init@XPathMatcher@xercesc_2_2@@AAEXQAVXercesXPath@2@@Z 1208cc10 f   XPathMatcher.obj
 0001:0008bdf0       ?startDocumentFragment@XPathMatcher@xercesc_2_2@@UAEXXZ 1208cdf0 f   XPathMatcher.obj
 0001:0008be60       ?startElement@XPathMatcher@xercesc_2_2@@UAEXABVXMLElementDecl@2@IQBGABV?$RefVectorOf@VXMLAttr@xercesc_2_2@@@2@I@Z 1208ce60 f   XPathMatcher.obj
 0001:0008c410       ?endElement@XPathMatcher@xercesc_2_2@@UAEXABVXMLElementDecl@2@QBG@Z 1208d410 f   XPathMatcher.obj
 0001:0008c590       ?isMatched@XPathMatcher@xercesc_2_2@@QAEHXZ 1208d590 f   XPathMatcher.obj
 0001:0008c5d0       ?matched@XPathMatcher@xercesc_2_2@@MAEXQBGQAVDatatypeValidator@2@_N@Z 1208d5d0 f   XPathMatcher.obj
 0001:0008c5d0       ?attDef@SAXParser@xercesc_2_2@@UAEXABVDTDElementDecl@2@ABVDTDAttDef@2@_N@Z 1208d5d0 f   XPathMatcher.obj
 0001:0008c5e0       ?getInitialDepth@XPathMatcher@xercesc_2_2@@UBEHXZ 1208d5e0 f   XPathMatcher.obj
 0001:0008c610       ??_E?$RefVectorOf@V?$ValueStackOf@H@xercesc_2_2@@@xercesc_2_2@@UAEPAXI@Z 1208d610 f i XPathMatcher.obj
 0001:0008c610       ??_G?$RefVectorOf@V?$ValueStackOf@H@xercesc_2_2@@@xercesc_2_2@@UAEPAXI@Z 1208d610 f i XPathMatcher.obj
 0001:0008c630       ??1?$RefVectorOf@V?$ValueStackOf@H@xercesc_2_2@@@xercesc_2_2@@UAE@XZ 1208d630 f i XPathMatcher.obj
 0001:0008c6c0       ??1?$BaseRefVectorOf@V?$ValueStackOf@H@xercesc_2_2@@@xercesc_2_2@@UAE@XZ 1208d6c0 f i XPathMatcher.obj
 0001:0008c6d0       ??0XPathMatcherStack@xercesc_2_2@@QAE@XZ 1208d6d0 f   XPathMatcherStack.obj
 0001:0008c7d0       ??1XPathMatcherStack@xercesc_2_2@@QAE@XZ 1208d7d0 f   XPathMatcherStack.obj
 0001:0008c800       ?clear@XPathMatcherStack@xercesc_2_2@@QAEXXZ 1208d800 f   XPathMatcherStack.obj
 0001:0008c860       ??_G?$RefVectorOf@VXPathMatcher@xercesc_2_2@@@xercesc_2_2@@UAEPAXI@Z 1208d860 f i XPathMatcherStack.obj
 0001:0008c860       ??_E?$RefVectorOf@VXPathMatcher@xercesc_2_2@@@xercesc_2_2@@UAEPAXI@Z 1208d860 f i XPathMatcherStack.obj
 0001:0008c880       ??1?$RefVectorOf@VXPathMatcher@xercesc_2_2@@@xercesc_2_2@@UAE@XZ 1208d880 f i XPathMatcherStack.obj
 0001:0008c900       ??1?$BaseRefVectorOf@VXPathMatcher@xercesc_2_2@@@xercesc_2_2@@UAE@XZ 1208d900 f i XPathMatcherStack.obj
 0001:0008c910       ??0SchemaAttDefList@xercesc_2_2@@QAE@ABV01@@Z 1208d910 f i ComplexTypeInfo.obj
 0001:0008c940       ??4DOMNamedNodeMapImpl@xercesc_2_2@@QAEAAV01@ABV01@@Z 1208d940 f i ComplexTypeInfo.obj
 0001:0008c940       ??4DOMTypeInfoImpl@xercesc_2_2@@QAEAAV01@ABV01@@Z 1208d940 f i ComplexTypeInfo.obj
 0001:0008c940       ??4DTDAttDefList@xercesc_2_2@@QAEAAV01@ABV01@@Z 1208d940 f i ComplexTypeInfo.obj
 0001:0008c940       ??4SchemaAttDefList@xercesc_2_2@@QAEAAV01@ABV01@@Z 1208d940 f i ComplexTypeInfo.obj
 0001:0008c940       ??4DOMException@xercesc_2_2@@QAEAAV01@ABV01@@Z 1208d940 f i ComplexTypeInfo.obj
 0001:0008c960       ??_ESchemaAttDefList@xercesc_2_2@@UAEPAXI@Z 1208d960 f i ComplexTypeInfo.obj
 0001:0008c9c0       ??1XSDLocator@xercesc_2_2@@UAE@XZ 1208d9c0 f i ComplexTypeInfo.obj
 0001:0008c9c0       ??1Locator@xercesc_2_2@@UAE@XZ 1208d9c0 f i ComplexTypeInfo.obj
 0001:0008c9d0       ??_EXSDLocator@xercesc_2_2@@UAEPAXI@Z 1208d9d0 f i ComplexTypeInfo.obj
 0001:0008ca30       ??0ComplexTypeInfo@xercesc_2_2@@QAE@XZ 1208da30 f   ComplexTypeInfo.obj
 0001:0008caa0       ??1ComplexTypeInfo@xercesc_2_2@@QAE@XZ 1208daa0 f   ComplexTypeInfo.obj
 0001:0008cc00       ?addAttDef@ComplexTypeInfo@xercesc_2_2@@QAEXQAVSchemaAttDef@2@@Z 1208dc00 f   ComplexTypeInfo.obj
 0001:0008cc40       ?setContentSpec@ComplexTypeInfo@xercesc_2_2@@QAEXQAVContentSpecNode@2@@Z 1208dc40 f   ComplexTypeInfo.obj
 0001:0008cce0       ?setLocator@ComplexTypeInfo@xercesc_2_2@@QAEXQAVXSDLocator@2@@Z 1208dce0 f   ComplexTypeInfo.obj
 0001:0008cd10       ?getAttDefList@ComplexTypeInfo@xercesc_2_2@@QBEAAVXMLAttDefList@2@XZ 1208dd10 f   ComplexTypeInfo.obj
 0001:0008ce20       ?getFormattedContentModel@ComplexTypeInfo@xercesc_2_2@@QBEPBGXZ 1208de20 f   ComplexTypeInfo.obj
 0001:0008ce40       ?findAttr@ComplexTypeInfo@xercesc_2_2@@QBEPAVXMLAttDef@2@QBGI00W4LookupOpts@XMLElementDecl@2@AA_N@Z 1208de40 f   ComplexTypeInfo.obj
 0001:0008d070       ?resetDefs@ComplexTypeInfo@xercesc_2_2@@QAE_NXZ 1208e070 f   ComplexTypeInfo.obj
 0001:0008d230       ?checkUniqueParticleAttribution@ComplexTypeInfo@xercesc_2_2@@QAEXQAVSchemaGrammar@2@QAVGrammarResolver@2@QAVXMLStringPool@2@QAVXMLValidator@2@@Z 1208e230 f   ComplexTypeInfo.obj
 0001:0008d360       ?faultInAttDefList@ComplexTypeInfo@xercesc_2_2@@ABEXXZ 1208e360 f   ComplexTypeInfo.obj
 0001:0008d440       ?formatContentModel@ComplexTypeInfo@xercesc_2_2@@ABEPAGXZ 1208e440 f   ComplexTypeInfo.obj
 0001:0008d610       ?makeContentModel@ComplexTypeInfo@xercesc_2_2@@AAEPAVXMLContentModel@2@_NQAVContentSpecNode@2@@Z 1208e610 f   ComplexTypeInfo.obj
 0001:0008d850       ?createChildModel@ComplexTypeInfo@xercesc_2_2@@AAEPAVXMLContentModel@2@PAVContentSpecNode@2@_N@Z 1208e850 f   ComplexTypeInfo.obj
 0001:0008dd90       ?convertContentSpecTree@ComplexTypeInfo@xercesc_2_2@@AAEPAVContentSpecNode@2@QAV32@_N@Z 1208ed90 f   ComplexTypeInfo.obj
 0001:0008df20       ?expandContentModel@ComplexTypeInfo@xercesc_2_2@@AAEPAVContentSpecNode@2@QAV32@HH@Z 1208ef20 f   ComplexTypeInfo.obj
 0001:0008e270       ?resizeContentSpecOrgURI@ComplexTypeInfo@xercesc_2_2@@AAEXXZ 1208f270 f   ComplexTypeInfo.obj
 0001:0008e2d0       ?put@?$RefHash2KeysTableOf@VSchemaAttDef@xercesc_2_2@@@xercesc_2_2@@QAEXPAXHQAVSchemaAttDef@2@@Z 1208f2d0 f i ComplexTypeInfo.obj
 0001:0008e3f0       ??_G?$RefVectorOf@VContentSpecNode@xercesc_2_2@@@xercesc_2_2@@UAEPAXI@Z 1208f3f0 f i ComplexTypeInfo.obj
 0001:0008e3f0       ??_E?$RefVectorOf@VContentSpecNode@xercesc_2_2@@@xercesc_2_2@@UAEPAXI@Z 1208f3f0 f i ComplexTypeInfo.obj
 0001:0008e410       ??1?$RefVectorOf@VContentSpecNode@xercesc_2_2@@@xercesc_2_2@@UAE@XZ 1208f410 f i ComplexTypeInfo.obj
 0001:0008e4d0       ??1?$BaseRefVectorOf@VContentSpecNode@xercesc_2_2@@@xercesc_2_2@@UAE@XZ 1208f4d0 f i ComplexTypeInfo.obj
 0001:0008e4e0       ?initialize@?$RefHash2KeysTableOf@VIdentityConstraint@xercesc_2_2@@@xercesc_2_2@@AAEXI@Z 1208f4e0 f i ComplexTypeInfo.obj
 0001:0008e4e0       ?initialize@?$RefHash2KeysTableOf@VSchemaAttDef@xercesc_2_2@@@xercesc_2_2@@AAEXI@Z 1208f4e0 f i ComplexTypeInfo.obj
 0001:0008e570       ??0GeneralAttributeCheck@xercesc_2_2@@QAE@XZ 1208f570 f   GeneralAttributeCheck.obj
 0001:0008e790       ??1GeneralAttributeCheck@xercesc_2_2@@QAE@XZ 1208f790 f   GeneralAttributeCheck.obj
 0001:0008e7a0       ?setUpValidators@GeneralAttributeCheck@xercesc_2_2@@AAEXXZ 1208f7a0 f   GeneralAttributeCheck.obj
 0001:0008ea40       ?mapElements@GeneralAttributeCheck@xercesc_2_2@@AAEXXZ 1208fa40 f   GeneralAttributeCheck.obj
 0001:0008ec80       ?mapAttributes@GeneralAttributeCheck@xercesc_2_2@@AAEXXZ 1208fc80 f   GeneralAttributeCheck.obj
 0001:0008f750       ?reinitGeneralAttCheck@GeneralAttributeCheck@xercesc_2_2@@SAXXZ 12090750 f   GeneralAttributeCheck.obj
 0001:0008f850       ?checkAttributes@GeneralAttributeCheck@xercesc_2_2@@QAEXQBVDOMElement@2@GQAVTraverseSchema@2@_N@Z 12090850 f   GeneralAttributeCheck.obj
 0001:0008fd30       ?validate@GeneralAttributeCheck@xercesc_2_2@@AAEXQBVDOMElement@2@QBG1FQAVTraverseSchema@2@@Z 12090d30 f   GeneralAttributeCheck.obj
 0001:00090240       ??0NamespaceScope@xercesc_2_2@@QAE@XZ 12091240 f   NamespaceScope.obj
 0001:000902c0       ??1NamespaceScope@xercesc_2_2@@QAE@XZ 120912c0 f   NamespaceScope.obj
 0001:00090350       ?increaseDepth@NamespaceScope@xercesc_2_2@@QAEIXZ 12091350 f   NamespaceScope.obj
 0001:00090450       ?decreaseDepth@NamespaceScope@xercesc_2_2@@QAEIXZ 12091450 f   NamespaceScope.obj
 0001:00090490       ?addPrefix@NamespaceScope@xercesc_2_2@@QAEXQBGI@Z 12091490 f   NamespaceScope.obj
 0001:00090590       ?getNamespaceForPrefix@NamespaceScope@xercesc_2_2@@QBEIQBGH@Z 12091590 f   NamespaceScope.obj
 0001:00090600       ?reset@NamespaceScope@xercesc_2_2@@QAEXI@Z 12091600 f   NamespaceScope.obj
 0001:00090620       ?expandMap@NamespaceScope@xercesc_2_2@@AAEXQAUStackElem@12@@Z 12091620 f   NamespaceScope.obj
 0001:000906b0       ?expandStack@NamespaceScope@xercesc_2_2@@AAEXXZ 120916b0 f   NamespaceScope.obj
 0001:00090750       ?getFullName@SchemaAttDef@xercesc_2_2@@UBEPBGXZ 12091750 f   SchemaAttDef.obj
 0001:00090760       ??0SchemaAttDef@xercesc_2_2@@QAE@XZ 12091760 f   SchemaAttDef.obj
 0001:000907a0       ??_ESchemaAttDef@xercesc_2_2@@UAEPAXI@Z 120917a0 f i SchemaAttDef.obj
 0001:00090800       ??0SchemaAttDef@xercesc_2_2@@QAE@QBG0HW4AttTypes@XMLAttDef@1@W4DefAttTypes@31@@Z 12091800 f   SchemaAttDef.obj
 0001:000908b0       ??0SchemaAttDef@xercesc_2_2@@QAE@QBG0H0W4AttTypes@XMLAttDef@1@W4DefAttTypes@31@0@Z 120918b0 f   SchemaAttDef.obj
 0001:00090970       ??0SchemaAttDef@xercesc_2_2@@QAE@PBV01@@Z 12091970 f   SchemaAttDef.obj
 0001:00090aa0       ??1SchemaAttDef@xercesc_2_2@@UAE@XZ 12091aa0 f   SchemaAttDef.obj
 0001:00090b20       ?setAttName@SchemaAttDef@xercesc_2_2@@QAEXQBG0H@Z 12091b20 f   SchemaAttDef.obj
 0001:00090b40       ??0SchemaAttDefList@xercesc_2_2@@QAE@QAV?$RefHash2KeysTableOf@VSchemaAttDef@xercesc_2_2@@@1@@Z 12091b40 f   SchemaAttDefList.obj
 0001:00090c40       ??1SchemaAttDefList@xercesc_2_2@@UAE@XZ 12091c40 f   SchemaAttDefList.obj
 0001:00090c90       ?hasMoreElements@DTDAttDefList@xercesc_2_2@@UBE_NXZ 12091c90 f   SchemaAttDefList.obj
 0001:00090c90       ?hasMoreElements@SchemaAttDefList@xercesc_2_2@@UBE_NXZ 12091c90 f   SchemaAttDefList.obj
 0001:00090ca0       ?isEmpty@SchemaAttDefList@xercesc_2_2@@UBE_NXZ 12091ca0 f   SchemaAttDefList.obj
 0001:00090ca0       ?isEmpty@DTDAttDefList@xercesc_2_2@@UBE_NXZ 12091ca0 f   SchemaAttDefList.obj
 0001:00090cd0       ?findAttDef@SchemaAttDefList@xercesc_2_2@@UAEPAVXMLAttDef@2@KQBG@Z 12091cd0 f   SchemaAttDefList.obj
 0001:00090dc0       ?findAttDef@SchemaAttDefList@xercesc_2_2@@UBEPBVXMLAttDef@2@KQBG@Z 12091dc0 f   SchemaAttDefList.obj
 0001:00090eb0       ?findAttDef@SchemaAttDefList@xercesc_2_2@@UAEPAVXMLAttDef@2@QBG0@Z 12091eb0 f   SchemaAttDefList.obj
 0001:00090ee0       ?findAttDef@SchemaAttDefList@xercesc_2_2@@UBEPBVXMLAttDef@2@QBG0@Z 12091ee0 f   SchemaAttDefList.obj
 0001:00090f10       ?nextElement@SchemaAttDefList@xercesc_2_2@@UAEAAVXMLAttDef@2@XZ 12091f10 f   SchemaAttDefList.obj
 0001:00090f10       ?nextElement@DTDAttDefList@xercesc_2_2@@UAEAAVXMLAttDef@2@XZ 12091f10 f   SchemaAttDefList.obj
 0001:00090f20       ?Reset@DTDAttDefList@xercesc_2_2@@UAEXXZ 12091f20 f   SchemaAttDefList.obj
 0001:00090f20       ?Reset@SchemaAttDefList@xercesc_2_2@@UAEXXZ 12091f20 f   SchemaAttDefList.obj
 0001:00090f30       ??0SchemaElementDecl@xercesc_2_2@@QAE@XZ 12091f30 f   SchemaElementDecl.obj
 0001:00090f90       ??_ESchemaElementDecl@xercesc_2_2@@UAEPAXI@Z 12091f90 f i SchemaElementDecl.obj
 0001:00090ff0       ??0SchemaElementDecl@xercesc_2_2@@QAE@QBG0HW4ModelTypes@01@H@Z 12091ff0 f   SchemaElementDecl.obj
 0001:00091090       ??0SchemaElementDecl@xercesc_2_2@@QAE@QBVQName@1@W4ModelTypes@01@H@Z 12092090 f   SchemaElementDecl.obj
 0001:00091130       ??1SchemaElementDecl@xercesc_2_2@@UAE@XZ 12092130 f   SchemaElementDecl.obj
 0001:00091210       ?findAttr@SchemaElementDecl@xercesc_2_2@@UBEPAVXMLAttDef@2@QBGI00W4LookupOpts@XMLElementDecl@2@AA_N@Z 12092210 f   SchemaElementDecl.obj
 0001:000914b0       ?getAttDefList@SchemaElementDecl@xercesc_2_2@@UBEAAVXMLAttDefList@2@XZ 120924b0 f   SchemaElementDecl.obj
 0001:00091500       ?getCharDataOpts@SchemaElementDecl@xercesc_2_2@@UBE?AW4CharDataOpts@XMLElementDecl@2@XZ 12092500 f   SchemaElementDecl.obj
 0001:00091530       ?hasAttDefs@SchemaElementDecl@xercesc_2_2@@UBE_NXZ 12092530 f   SchemaElementDecl.obj
 0001:000915a0       ?resetDefs@SchemaElementDecl@xercesc_2_2@@UAE_NXZ 120925a0 f   SchemaElementDecl.obj
 0001:00091620       ?getFormattedContentModel@SchemaElementDecl@xercesc_2_2@@UBEPBGXZ 12092620 f   SchemaElementDecl.obj
 0001:00091640       ?getAttDef@SchemaElementDecl@xercesc_2_2@@QBEPBVSchemaAttDef@2@QBGH@Z 12092640 f   SchemaElementDecl.obj
 0001:00091640       ?getAttDef@SchemaElementDecl@xercesc_2_2@@QAEPAVSchemaAttDef@2@QBGH@Z 12092640 f   SchemaElementDecl.obj
 0001:00091790       ?elementCount@XercesGroupInfo@xercesc_2_2@@QBEIXZ 12092790 f i SchemaGrammar.obj
 0001:000917a0       ?elementAt@XercesGroupInfo@xercesc_2_2@@QAEPAVSchemaElementDecl@2@I@Z 120927a0 f i SchemaGrammar.obj
 0001:000917a0       ?elementAt@XercesGroupInfo@xercesc_2_2@@QBEPBVSchemaElementDecl@2@I@Z 120927a0 f i SchemaGrammar.obj
 0001:000917f0       ?addElement@XercesGroupInfo@xercesc_2_2@@QAEXQAVSchemaElementDecl@2@@Z 120927f0 f i SchemaGrammar.obj
 0001:00091890       ?attributeCount@XercesAttGroupInfo@xercesc_2_2@@QBEIXZ 12092890 f i SchemaGrammar.obj
 0001:000918a0       ?anyAttributeCount@XercesAttGroupInfo@xercesc_2_2@@QBEIXZ 120928a0 f i SchemaGrammar.obj
 0001:000918b0       ?attributeAt@XercesAttGroupInfo@xercesc_2_2@@QAEPAVSchemaAttDef@2@I@Z 120928b0 f i SchemaGrammar.obj
 0001:000918b0       ?attributeAt@XercesAttGroupInfo@xercesc_2_2@@QBEPBVSchemaAttDef@2@I@Z 120928b0 f i SchemaGrammar.obj
 0001:00091900       ?addAttDef@XercesAttGroupInfo@xercesc_2_2@@QAEXQAVSchemaAttDef@2@_N@Z 12092900 f i SchemaGrammar.obj
 0001:00091ad0       ?addAnyAttDef@XercesAttGroupInfo@xercesc_2_2@@QAEXQAVSchemaAttDef@2@_N@Z 12092ad0 f i SchemaGrammar.obj
 0001:00091ca0       ?setCompleteWildCard@XercesAttGroupInfo@xercesc_2_2@@QAEXQAVSchemaAttDef@2@@Z 12092ca0 f i SchemaGrammar.obj
 0001:00091cd0       ??0SchemaGrammar@xercesc_2_2@@QAE@XZ 12092cd0 f   SchemaGrammar.obj
 0001:00092010       ??1SchemaGrammar@xercesc_2_2@@UAE@XZ 12093010 f   SchemaGrammar.obj
 0001:00092070       ?findOrAddElemDecl@SchemaGrammar@xercesc_2_2@@UAEPAVXMLElementDecl@2@IQBG00IAA_N@Z 12093070 f   SchemaGrammar.obj
 0001:00092280       ?putElemDecl@SchemaGrammar@xercesc_2_2@@UAEPAVXMLElementDecl@2@IQBG00I_N@Z 12093280 f   SchemaGrammar.obj
 0001:00092520       ?reset@SchemaGrammar@xercesc_2_2@@UAEXXZ 12093520 f   SchemaGrammar.obj
 0001:000926b0       ?cleanUp@SchemaGrammar@xercesc_2_2@@AAEXXZ 120936b0 f   SchemaGrammar.obj
 0001:00092850       ?removeAll@?$RefHash3KeysIdPool@VSchemaElementDecl@xercesc_2_2@@@xercesc_2_2@@QAEXXZ 12093850 f i SchemaGrammar.obj
 0001:000928c0       ??1?$RefHashTableOf@VXMLRefInfo@xercesc_2_2@@@xercesc_2_2@@QAE@XZ 120938c0 f i SchemaGrammar.obj
 0001:00092950       ??1?$RefHashTableOf@VComplexTypeInfo@xercesc_2_2@@@xercesc_2_2@@QAE@XZ 12093950 f i SchemaGrammar.obj
 0001:000929e0       ??1?$RefHashTableOf@VXercesGroupInfo@xercesc_2_2@@@xercesc_2_2@@QAE@XZ 120939e0 f i SchemaGrammar.obj
 0001:00092a70       ??1?$RefHash2KeysTableOf@V?$ValueVectorOf@PAVSchemaElementDecl@xercesc_2_2@@@xercesc_2_2@@@xercesc_2_2@@QAE@XZ 12093a70 f i SchemaGrammar.obj
 0001:00092a70       ??1?$RefHashTableOf@V?$ValueVectorOf@PAVDOMElement@xercesc_2_2@@@xercesc_2_2@@@xercesc_2_2@@QAE@XZ 12093a70 f i SchemaGrammar.obj
 0001:00092b00       ??_G?$RefVectorOf@VSchemaAttDef@xercesc_2_2@@@xercesc_2_2@@UAEPAXI@Z 12093b00 f i SchemaGrammar.obj
 0001:00092b00       ??_E?$RefVectorOf@VSchemaAttDef@xercesc_2_2@@@xercesc_2_2@@UAEPAXI@Z 12093b00 f i SchemaGrammar.obj
 0001:00092b20       ??1?$RefVectorOf@VSchemaAttDef@xercesc_2_2@@@xercesc_2_2@@UAE@XZ 12093b20 f i SchemaGrammar.obj
 0001:00092ba0       ??1?$BaseRefVectorOf@VSchemaAttDef@xercesc_2_2@@@xercesc_2_2@@UAE@XZ 12093ba0 f i SchemaGrammar.obj
 0001:00092bb0       ?findBucketElem@?$RefHash3KeysIdPool@VSchemaElementDecl@xercesc_2_2@@@xercesc_2_2@@AAEPAU?$RefHash3KeysTableBucketElem@VSchemaElementDecl@xercesc_2_2@@@2@QBXHHAAI@Z 12093bb0 f i SchemaGrammar.obj
 0001:00092c50       ?initialize@?$RefHash3KeysIdPool@VSchemaElementDecl@xercesc_2_2@@@xercesc_2_2@@AAEXI@Z 12093c50 f i SchemaGrammar.obj
 0001:00092cc0       ?removeAll@?$RefHashTableOf@VXercesAttGroupInfo@xercesc_2_2@@@xercesc_2_2@@QAEXXZ 12093cc0 f i SchemaGrammar.obj
 0001:00092d30       ??0DOMStringHandle@xercesc_2_2@@AAE@XZ 12093d30 f i SchemaInfo.obj
 0001:00092d30       ??0XUtil@xercesc_2_2@@IAE@XZ 12093d30 f i SchemaInfo.obj
 0001:00092d40       ??0SchemaInfo@xercesc_2_2@@QAE@GHHHHIQAGQBGQBVDOMElement@1@@Z 12093d40 f   SchemaInfo.obj
 0001:00092e40       ??1SchemaInfo@xercesc_2_2@@QAE@XZ 12093e40 f   SchemaInfo.obj
 0001:00092f30       ?getTopLevelComponent@SchemaInfo@xercesc_2_2@@QAEPAVDOMElement@2@GQBG0PAPAV12@@Z 12093f30 f   SchemaInfo.obj
 0001:00092fe0       ?getTopLevelComponent@SchemaInfo@xercesc_2_2@@QAEPAVDOMElement@2@GQBG0@Z 12093fe0 f   SchemaInfo.obj
 0001:00093440       ?updateImportingInfo@SchemaInfo@xercesc_2_2@@QAEXQAV12@@Z 12094440 f   SchemaInfo.obj
 0001:000935a0       ??0SchemaValidator@xercesc_2_2@@QAE@QAVXMLErrorReporter@1@@Z 120945a0 f   SchemaValidator.obj
 0001:00093680       ??_ESchemaValidator@xercesc_2_2@@UAEPAXI@Z 12094680 f i SchemaValidator.obj
 0001:000936e0       ??1SchemaValidator@xercesc_2_2@@UAE@XZ 120946e0 f   SchemaValidator.obj
 0001:00093770       ?checkContent@SchemaValidator@xercesc_2_2@@UAEHQAVXMLElementDecl@2@QAPAVQName@2@I@Z 12094770 f   SchemaValidator.obj
 0001:00093fa0       ?faultInAttr@SchemaValidator@xercesc_2_2@@UBEXAAVXMLAttr@2@ABVXMLAttDef@2@@Z 12094fa0 f   SchemaValidator.obj
 0001:00093fe0       ?reset@SchemaValidator@xercesc_2_2@@UAEXXZ 12094fe0 f   SchemaValidator.obj
 0001:00094020       ?validateAttrValue@SchemaValidator@xercesc_2_2@@UAEXPBVXMLAttDef@2@QBG_NPBVXMLElementDecl@2@@Z 12095020 f   SchemaValidator.obj
 0001:000944a0       ?validateElement@SchemaValidator@xercesc_2_2@@UAEXPBVXMLElementDecl@2@@Z 120954a0 f   SchemaValidator.obj
 0001:00094ae0       ?preContentValidation@SchemaValidator@xercesc_2_2@@UAEX_N0@Z 12095ae0 f   SchemaValidator.obj
 0001:00095140       ?normalizeWhiteSpace@SchemaValidator@xercesc_2_2@@QAEXPAVDatatypeValidator@2@QBGAAVXMLBuffer@2@@Z 12096140 f   SchemaValidator.obj
 0001:000952e0       ?checkRefElementConsistency@SchemaValidator@xercesc_2_2@@AAEXQAVSchemaGrammar@2@QBVComplexTypeInfo@2@QBVXercesGroupInfo@2@@Z 120962e0 f   SchemaValidator.obj
 0001:00095540       ?checkParticleDerivation@SchemaValidator@xercesc_2_2@@AAEXQAVSchemaGrammar@2@QBVComplexTypeInfo@2@@Z 12096540 f   SchemaValidator.obj
 0001:000955e0       ?checkParticleDerivationOk@SchemaValidator@xercesc_2_2@@AAEXQAVSchemaGrammar@2@QAVContentSpecNode@2@H1HQBVComplexTypeInfo@2@_N@Z 120965e0 f   SchemaValidator.obj
 0001:00095fa0       ??0ContentSpecNode@xercesc_2_2@@QAE@W4NodeTypes@01@QAV01@1_N2@Z 12096fa0 f i SchemaValidator.obj
 0001:00095fe0       ?checkForPointlessOccurrences@SchemaValidator@xercesc_2_2@@AAEPAVContentSpecNode@2@QAV32@W4NodeTypes@32@QAV?$ValueVectorOf@PAVContentSpecNode@xercesc_2_2@@@2@@Z 12096fe0 f   SchemaValidator.obj
 0001:00096060       ?gatherChildren@SchemaValidator@xercesc_2_2@@AAEXW4NodeTypes@ContentSpecNode@2@QAV42@QAV?$ValueVectorOf@PAVContentSpecNode@xercesc_2_2@@@2@@Z 12097060 f   SchemaValidator.obj
 0001:00096270       ?checkNSCompat@SchemaValidator@xercesc_2_2@@AAEXQBVContentSpecNode@2@0_N@Z 12097270 f   SchemaValidator.obj
 0001:00096340       ?wildcardEltAllowsNamespace@SchemaValidator@xercesc_2_2@@AAE_NQBVContentSpecNode@2@I@Z 12097340 f   SchemaValidator.obj
 0001:00096390       ?checkNameAndTypeOK@SchemaValidator@xercesc_2_2@@AAEXQAVSchemaGrammar@2@QBVContentSpecNode@2@H1HQBVComplexTypeInfo@2@@Z 12097390 f   SchemaValidator.obj
 0001:00096660       ?findElement@SchemaValidator@xercesc_2_2@@AAEPAVSchemaElementDecl@2@HIQBGQAVSchemaGrammar@2@QBVComplexTypeInfo@2@@Z 12097660 f   SchemaValidator.obj
 0001:000966c0       ?checkICRestriction@SchemaValidator@xercesc_2_2@@AAEXQBVSchemaElementDecl@2@0QBG1@Z 120976c0 f   SchemaValidator.obj
 0001:00096820       ?checkTypesOK@SchemaValidator@xercesc_2_2@@AAEXQBVSchemaElementDecl@2@0QBG@Z 12097820 f   SchemaValidator.obj
 0001:00096990       ?checkRecurseAsIfGroup@SchemaValidator@xercesc_2_2@@AAEXQAVSchemaGrammar@2@QAVContentSpecNode@2@HQBV42@HQAV?$ValueVectorOf@PAVContentSpecNode@xercesc_2_2@@@2@QBVComplexTypeInfo@2@@Z 12097990 f   SchemaValidator.obj
 0001:00096b60       ?checkRecurse@SchemaValidator@xercesc_2_2@@AAEXQAVSchemaGrammar@2@QBVContentSpecNode@2@HQAV?$ValueVectorOf@PAVContentSpecNode@xercesc_2_2@@@2@1H2QBVComplexTypeInfo@2@_N@Z 12097b60 f   SchemaValidator.obj
 0001:00096e30       ?checkNSSubset@SchemaValidator@xercesc_2_2@@AAEXQBVContentSpecNode@2@0@Z 12097e30 f   SchemaValidator.obj
 0001:00096ec0       ?isWildCardEltSubset@SchemaValidator@xercesc_2_2@@AAE_NQBVContentSpecNode@2@0@Z 12097ec0 f   SchemaValidator.obj
 0001:00096f30       ?checkNSRecurseCheckCardinality@SchemaValidator@xercesc_2_2@@AAEXQAVSchemaGrammar@2@QBVContentSpecNode@2@QAV?$ValueVectorOf@PAVContentSpecNode@xercesc_2_2@@@2@HQAV42@_N@Z 12097f30 f   SchemaValidator.obj
 0001:00097000       ?checkRecurseUnordered@SchemaValidator@xercesc_2_2@@AAEXQAVSchemaGrammar@2@QBVContentSpecNode@2@QAV?$ValueVectorOf@PAVContentSpecNode@xercesc_2_2@@@2@HQAV42@2HQBVComplexTypeInfo@2@@Z 12098000 f   SchemaValidator.obj
 0001:000972e0       ?checkMapAndSum@SchemaValidator@xercesc_2_2@@AAEXQAVSchemaGrammar@2@QBVContentSpecNode@2@QAV?$ValueVectorOf@PAVContentSpecNode@xercesc_2_2@@@2@HQAV42@2HQBVComplexTypeInfo@2@@Z 120982e0 f   SchemaValidator.obj
 0001:00097500       ??1?$XMLEnumerator@VComplexTypeInfo@xercesc_2_2@@@xercesc_2_2@@UAE@XZ 12098500 f i SchemaValidator.obj
 0001:00097510       ??1?$XMLEnumerator@VXercesGroupInfo@xercesc_2_2@@@xercesc_2_2@@UAE@XZ 12098510 f i SchemaValidator.obj
 0001:00097520       ??_E?$XMLEnumerator@VComplexTypeInfo@xercesc_2_2@@@xercesc_2_2@@UAEPAXI@Z 12098520 f i SchemaValidator.obj
 0001:00097520       ??_G?$XMLEnumerator@VComplexTypeInfo@xercesc_2_2@@@xercesc_2_2@@UAEPAXI@Z 12098520 f i SchemaValidator.obj
 0001:00097540       ??_E?$XMLEnumerator@VXercesGroupInfo@xercesc_2_2@@@xercesc_2_2@@UAEPAXI@Z 12098540 f i SchemaValidator.obj
 0001:00097540       ??_G?$XMLEnumerator@VXercesGroupInfo@xercesc_2_2@@@xercesc_2_2@@UAEPAXI@Z 12098540 f i SchemaValidator.obj
 0001:00097560       ??1?$RefHashTableOfEnumerator@VComplexTypeInfo@xercesc_2_2@@@xercesc_2_2@@UAE@XZ 12098560 f i SchemaValidator.obj
 0001:00097640       ??1?$RefHashTableOfEnumerator@VXercesGroupInfo@xercesc_2_2@@@xercesc_2_2@@UAE@XZ 12098640 f i SchemaValidator.obj
 0001:00097720       ??1?$ArrayJanitor@G@xercesc_2_2@@QAE@XZ 12098720 f i SchemaValidator.obj
 0001:00097720       ??1?$ArrayJanitor@E@xercesc_2_2@@QAE@XZ 12098720 f i SchemaValidator.obj
 0001:00097720       ??1?$ArrayJanitor@D@xercesc_2_2@@QAE@XZ 12098720 f i SchemaValidator.obj
 0001:00097720       ??1?$ArrayJanitor@H@xercesc_2_2@@QAE@XZ 12098720 f i SchemaValidator.obj
 0001:00097720       ??1?$ArrayJanitor@_N@xercesc_2_2@@QAE@XZ 12098720 f i SchemaValidator.obj
 0001:00097740       ??_E?$RefHashTableOfEnumerator@VComplexTypeInfo@xercesc_2_2@@@xercesc_2_2@@UAEPAXI@Z 12098740 f i SchemaValidator.obj
 0001:00097740       ??_G?$RefHashTableOfEnumerator@VComplexTypeInfo@xercesc_2_2@@@xercesc_2_2@@UAEPAXI@Z 12098740 f i SchemaValidator.obj
 0001:00097760       ??_E?$RefHashTableOfEnumerator@VXercesGroupInfo@xercesc_2_2@@@xercesc_2_2@@UAEPAXI@Z 12098760 f i SchemaValidator.obj
 0001:00097760       ??_G?$RefHashTableOfEnumerator@VXercesGroupInfo@xercesc_2_2@@@xercesc_2_2@@UAEPAXI@Z 12098760 f i SchemaValidator.obj
 0001:00097780       ?removeElementAt@?$ValueVectorOf@PAVComplexTypeInfo@xercesc_2_2@@@xercesc_2_2@@QAEXI@Z 12098780 f i SchemaValidator.obj
 0001:00097780       ?removeElementAt@?$ValueVectorOf@I@xercesc_2_2@@QAEXI@Z 12098780 f i SchemaValidator.obj
 0001:00097780       ?removeElementAt@?$ValueVectorOf@H@xercesc_2_2@@QAEXI@Z 12098780 f i SchemaValidator.obj
 0001:000977e0       ?findNext@?$RefHashTableOfEnumerator@VGrammar@xercesc_2_2@@@xercesc_2_2@@AAEXXZ 120987e0 f i SchemaValidator.obj
 0001:000977e0       ?findNext@?$RefHashTableOfEnumerator@VXercesGroupInfo@xercesc_2_2@@@xercesc_2_2@@AAEXXZ 120987e0 f i SchemaValidator.obj
 0001:000977e0       ?findNext@?$RefHash2KeysTableOfEnumerator@VSchemaAttDef@xercesc_2_2@@@xercesc_2_2@@AAEXXZ 120987e0 f i SchemaValidator.obj
 0001:000977e0       ?findNext@?$RefHashTableOfEnumerator@VDTDAttDef@xercesc_2_2@@@xercesc_2_2@@AAEXXZ 120987e0 f i SchemaValidator.obj
 0001:000977e0       ?findNext@?$RefHashTableOfEnumerator@VComplexTypeInfo@xercesc_2_2@@@xercesc_2_2@@AAEXXZ 120987e0 f i SchemaValidator.obj
 0001:000977e0       ?findNext@?$RefHashTableOfEnumerator@VValueStore@xercesc_2_2@@@xercesc_2_2@@AAEXXZ 120987e0 f i SchemaValidator.obj
 0001:000977e0       ?findNext@?$RefHashTableOfEnumerator@VXMLRefInfo@xercesc_2_2@@@xercesc_2_2@@AAEXXZ 120987e0 f i SchemaValidator.obj
 0001:000977e0       ?findNext@?$RefHashTableOfEnumerator@VKVStringPair@xercesc_2_2@@@xercesc_2_2@@AAEXXZ 120987e0 f i SchemaValidator.obj
 0001:000977e0       ?findNext@?$RefHashTableOfEnumerator@V?$KeyRefPair@XVDOMUserDataHandler@xercesc_2_2@@@xercesc_2_2@@@xercesc_2_2@@AAEXXZ 120987e0 f i SchemaValidator.obj
 0001:00097830       ?findBucketElem@?$RefHash2KeysTableOf@VIdentityConstraint@xercesc_2_2@@@xercesc_2_2@@AAEPAU?$RefHash2KeysTableBucketElem@VIdentityConstraint@xercesc_2_2@@@2@QBXHAAI@Z 12098830 f i SchemaValidator.obj
 0001:00097830       ?findBucketElem@?$RefHash2KeysTableOf@G@xercesc_2_2@@AAEPAU?$RefHash2KeysTableBucketElem@G@2@QBXHAAI@Z 12098830 f i SchemaValidator.obj
 0001:00097830       ?findBucketElem@?$RefHash2KeysTableOf@VSchemaAttDef@xercesc_2_2@@@xercesc_2_2@@AAEPAU?$RefHash2KeysTableBucketElem@VSchemaAttDef@xercesc_2_2@@@2@QBXHAAI@Z 12098830 f i SchemaValidator.obj
 0001:00097830       ?findBucketElem@?$RefHash2KeysTableOf@VSchemaInfo@xercesc_2_2@@@xercesc_2_2@@AAEPAU?$RefHash2KeysTableBucketElem@VSchemaInfo@xercesc_2_2@@@2@QBXHAAI@Z 12098830 f i SchemaValidator.obj
 0001:00097830       ?findBucketElem@?$RefHash2KeysTableOf@V?$ValueVectorOf@PAVSchemaElementDecl@xercesc_2_2@@@xercesc_2_2@@@xercesc_2_2@@AAEPAU?$RefHash2KeysTableBucketElem@V?$ValueVectorOf@PAVSchemaElementDecl@xercesc_2_2@@@xercesc_2_2@@@2@QBXHAAI@Z 12098830 f i SchemaValidator.obj
 0001:000978c0       ?removeAll@?$RefHashTableOf@VComplexTypeInfo@xercesc_2_2@@@xercesc_2_2@@QAEXXZ 120988c0 f i SchemaValidator.obj
 0001:00097930       ?removeAll@?$RefHashTableOf@VXercesGroupInfo@xercesc_2_2@@@xercesc_2_2@@QAEXXZ 12098930 f i SchemaValidator.obj
 0001:000979a0       ?isEquivalentTo@SubstitutionGroupComparator@xercesc_2_2@@QAE_NQAVQName@2@0@Z 120989a0 f   SubstitutionGroupComparator.obj
 0001:00097c00       ?isAllowedByWildcard@SubstitutionGroupComparator@xercesc_2_2@@QAE_NQAVSchemaGrammar@2@QAVQName@2@I_N@Z 12098c00 f   SubstitutionGroupComparator.obj
 0001:00097d60       ??_ODOMElementNSImpl@xercesc_2_2@@QAEXABV01@@Z 12098d60 f i TraverseSchema.obj
 0001:00097d70       ??1DOMElementNSImpl@xercesc_2_2@@UAE@XZ 12098d70 f i TraverseSchema.obj
 0001:00097d70       ??1XSDElementNSImpl@xercesc_2_2@@UAE@XZ 12098d70 f i TraverseSchema.obj
 0001:00097d80       ??_OXSDElementNSImpl@xercesc_2_2@@QAEXABV01@@Z 12098d80 f i TraverseSchema.obj
 0001:00097d90       ??0TraverseSchema@xercesc_2_2@@QAE@QAVDOMElement@1@QAVXMLStringPool@1@QAVSchemaGrammar@1@QAVGrammarResolver@1@QAVXMLScanner@1@QBGQAVXMLEntityHandler@1@QAVXMLErrorReporter@1@@Z 12098d90 f   TraverseSchema.obj
 0001:00097f10       ??1TraverseSchema@xercesc_2_2@@QAE@XZ 12098f10 f   TraverseSchema.obj
 0001:00097f80       ?doTraverseSchema@TraverseSchema@xercesc_2_2@@AAEXQBVDOMElement@2@@Z 12098f80 f   TraverseSchema.obj
 0001:00098180       ?preprocessSchema@TraverseSchema@xercesc_2_2@@AAEXQAVDOMElement@2@QBG@Z 12099180 f   TraverseSchema.obj
 0001:000987a0       ?traverseSchemaHeader@TraverseSchema@xercesc_2_2@@AAEXQBVDOMElement@2@@Z 120997a0 f   TraverseSchema.obj
 0001:00098990       ?traverseAnnotationDecl@TraverseSchema@xercesc_2_2@@AAEXQBVDOMElement@2@_N@Z 12099990 f   TraverseSchema.obj
 0001:00098ae0       ?preprocessInclude@TraverseSchema@xercesc_2_2@@AAEXQBVDOMElement@2@@Z 12099ae0 f   TraverseSchema.obj
 0001:00099010       ?traverseInclude@TraverseSchema@xercesc_2_2@@AAEXQBVDOMElement@2@@Z 1209a010 f   TraverseSchema.obj
 0001:000990b0       ?preprocessImport@TraverseSchema@xercesc_2_2@@AAEXQBVDOMElement@2@@Z 1209a0b0 f   TraverseSchema.obj
 0001:00099640       ?traverseImport@TraverseSchema@xercesc_2_2@@AAEXQBVDOMElement@2@@Z 1209a640 f   TraverseSchema.obj
 0001:000996f0       ?preprocessRedefine@TraverseSchema@xercesc_2_2@@AAEXQBVDOMElement@2@@Z 1209a6f0 f   TraverseSchema.obj
 0001:00099900       ?traverseRedefine@TraverseSchema@xercesc_2_2@@AAEXQBVDOMElement@2@@Z 1209a900 f   TraverseSchema.obj
 0001:000999b0       ?traverseChoiceSequence@TraverseSchema@xercesc_2_2@@AAEPAVContentSpecNode@2@QBVDOMElement@2@H@Z 1209a9b0 f   TraverseSchema.obj
 0001:00099e20       ?traverseSimpleTypeDecl@TraverseSchema@xercesc_2_2@@AAEPAVDatatypeValidator@2@QBVDOMElement@2@_NH@Z 1209ae20 f   TraverseSchema.obj
 0001:0009a380       ?traverseComplexTypeDecl@TraverseSchema@xercesc_2_2@@AAEHQBVDOMElement@2@_NQBG@Z 1209b380 f   TraverseSchema.obj
 0001:0009aba0       ?traverseGroupDecl@TraverseSchema@xercesc_2_2@@AAEPAVXercesGroupInfo@2@QBVDOMElement@2@_N@Z 1209bba0 f   TraverseSchema.obj
 0001:0009b310       ?traverseAttributeGroupDecl@TraverseSchema@xercesc_2_2@@AAEPAVXercesAttGroupInfo@2@QBVDOMElement@2@QAVComplexTypeInfo@2@_N@Z 1209c310 f   TraverseSchema.obj
 0001:0009b8f0       ?traverseAttributeGroupDeclNS@TraverseSchema@xercesc_2_2@@AAEPAVXercesAttGroupInfo@2@QBVDOMElement@2@QBG1@Z 1209c8f0 f i TraverseSchema.obj
 0001:0009b9e0       ?traverseAny@TraverseSchema@xercesc_2_2@@AAEPAVContentSpecNode@2@QBVDOMElement@2@@Z 1209c9e0 f   TraverseSchema.obj
 0001:0009c030       ??0ContentSpecNode@xercesc_2_2@@QAE@QAVQName@1@_N@Z 1209d030 f i TraverseSchema.obj
 0001:0009c0c0       ?traverseAll@TraverseSchema@xercesc_2_2@@AAEPAVContentSpecNode@2@QBVDOMElement@2@@Z 1209d0c0 f   TraverseSchema.obj
 0001:0009c310       ?traverseAttributeDecl@TraverseSchema@xercesc_2_2@@AAEXQBVDOMElement@2@QAVComplexTypeInfo@2@_N@Z 1209d310 f   TraverseSchema.obj
 0001:0009d330       ?traverseElementDecl@TraverseSchema@xercesc_2_2@@AAEPAVQName@2@QBVDOMElement@2@_N@Z 1209e330 f   TraverseSchema.obj
 0001:0009ed40       ?traverseNotationDecl@TraverseSchema@xercesc_2_2@@AAEPBGQBVDOMElement@2@@Z 1209fd40 f   TraverseSchema.obj
 0001:0009eef0       ?traverseNotationDecl@TraverseSchema@xercesc_2_2@@AAEPBGQBVDOMElement@2@QBG1@Z 1209fef0 f   TraverseSchema.obj
 0001:0009f150       ?traverseByList@TraverseSchema@xercesc_2_2@@AAEPAVDatatypeValidator@2@QBVDOMElement@2@0QBG1H@Z 120a0150 f   TraverseSchema.obj
 0001:0009f520       ?traverseByRestriction@TraverseSchema@xercesc_2_2@@AAEPAVDatatypeValidator@2@QBVDOMElement@2@0QBG1H@Z 120a0520 f   TraverseSchema.obj
 0001:000a0080       ?traverseByUnion@TraverseSchema@xercesc_2_2@@AAEPAVDatatypeValidator@2@QBVDOMElement@2@0QBG1HH@Z 120a1080 f   TraverseSchema.obj
 0001:000a05b0       ?traverseSimpleContentDecl@TraverseSchema@xercesc_2_2@@AAEXQBG0QBVDOMElement@2@QAVComplexTypeInfo@2@@Z 120a15b0 f   TraverseSchema.obj
 0001:000a1530       ?traverseComplexContentDecl@TraverseSchema@xercesc_2_2@@AAEXQBGQBVDOMElement@2@QAVComplexTypeInfo@2@_N@Z 120a2530 f   TraverseSchema.obj
 0001:000a1990       ?traverseAnyAttribute@TraverseSchema@xercesc_2_2@@AAEPAVSchemaAttDef@2@QBVDOMElement@2@@Z 120a2990 f   TraverseSchema.obj
 0001:000a1de0       ?traverseKey@TraverseSchema@xercesc_2_2@@AAEXQBVDOMElement@2@QAVSchemaElementDecl@2@@Z 120a2de0 f   TraverseSchema.obj
 0001:000a2140       ?traverseUnique@TraverseSchema@xercesc_2_2@@AAEXQBVDOMElement@2@QAVSchemaElementDecl@2@@Z 120a3140 f   TraverseSchema.obj
 0001:000a2470       ?traverseKeyRef@TraverseSchema@xercesc_2_2@@AAEXQBVDOMElement@2@QAVSchemaElementDecl@2@I@Z 120a3470 f   TraverseSchema.obj
 0001:000a2860       ?traverseIdentityConstraint@TraverseSchema@xercesc_2_2@@AAE_NQAVIdentityConstraint@2@QBVDOMElement@2@@Z 120a3860 f   TraverseSchema.obj
 0001:000a3010       ?retrieveNamespaceMapping@TraverseSchema@xercesc_2_2@@AAEXQBVDOMElement@2@@Z 120a4010 f   TraverseSchema.obj
 0001:000a31c0       ?processChildren@TraverseSchema@xercesc_2_2@@AAEXQBVDOMElement@2@@Z 120a41c0 f   TraverseSchema.obj
 0001:000a3bf0       ?preprocessChildren@TraverseSchema@xercesc_2_2@@AAEXQBVDOMElement@2@@Z 120a4bf0 f   TraverseSchema.obj
 0001:000a3da0       ?checkContent@TraverseSchema@xercesc_2_2@@AAEPAVDOMElement@2@QBV32@QAV32@_N@Z 120a4da0 f   TraverseSchema.obj
 0001:000a3f70       ?getDatatypeValidator@TraverseSchema@xercesc_2_2@@AAEPAVDatatypeValidator@2@QBG0@Z 120a4f70 f   TraverseSchema.obj
